ARM GAS  C:\Users\SNFU\AppData\Local\Temp\ccvYqM8h.s 			page 1


   1              		.cpu cortex-m0
   2              		.fpu softvfp
   3              		.eabi_attribute 20, 1
   4              		.eabi_attribute 21, 1
   5              		.eabi_attribute 23, 3
   6              		.eabi_attribute 24, 1
   7              		.eabi_attribute 25, 1
   8              		.eabi_attribute 26, 1
   9              		.eabi_attribute 30, 4
  10              		.eabi_attribute 34, 0
  11              		.eabi_attribute 18, 4
  12              		.code	16
  13              		.file	"BootISR.c"
  14              		.text
  15              	.Ltext0:
  16              		.cfi_sections	.debug_frame
  17              		.section	.text.BootISR_Interrupt,"ax",%progbits
  18              		.align	1
  19              		.global	BootISR_Interrupt
  20              		.code	16
  21              		.thumb_func
  22              		.type	BootISR_Interrupt, %function
  23              	BootISR_Interrupt:
  24              	.LFB36:
  25              		.file 1 ".\\Generated_Source\\PSoC4\\BootISR.c"
   1:.\Generated_Source\PSoC4/BootISR.c **** /*******************************************************************************
   2:.\Generated_Source\PSoC4/BootISR.c **** * File Name: BootISR.c  
   3:.\Generated_Source\PSoC4/BootISR.c **** * Version 1.70
   4:.\Generated_Source\PSoC4/BootISR.c **** *
   5:.\Generated_Source\PSoC4/BootISR.c **** *  Description:
   6:.\Generated_Source\PSoC4/BootISR.c **** *   API for controlling the state of an interrupt.
   7:.\Generated_Source\PSoC4/BootISR.c **** *
   8:.\Generated_Source\PSoC4/BootISR.c **** *
   9:.\Generated_Source\PSoC4/BootISR.c **** *  Note:
  10:.\Generated_Source\PSoC4/BootISR.c **** *
  11:.\Generated_Source\PSoC4/BootISR.c **** ********************************************************************************
  12:.\Generated_Source\PSoC4/BootISR.c **** * Copyright 2008-2012, Cypress Semiconductor Corporation.  All rights reserved.
  13:.\Generated_Source\PSoC4/BootISR.c **** * You may use this file only in accordance with the license, terms, conditions, 
  14:.\Generated_Source\PSoC4/BootISR.c **** * disclaimers, and limitations in the end user license agreement accompanying 
  15:.\Generated_Source\PSoC4/BootISR.c **** * the software package with which this file was provided.
  16:.\Generated_Source\PSoC4/BootISR.c **** *******************************************************************************/
  17:.\Generated_Source\PSoC4/BootISR.c **** 
  18:.\Generated_Source\PSoC4/BootISR.c **** 
  19:.\Generated_Source\PSoC4/BootISR.c **** #include <cydevice_trm.h>
  20:.\Generated_Source\PSoC4/BootISR.c **** #include <CyLib.h>
  21:.\Generated_Source\PSoC4/BootISR.c **** #include <BootISR.h>
  22:.\Generated_Source\PSoC4/BootISR.c **** 
  23:.\Generated_Source\PSoC4/BootISR.c **** #if !defined(BootISR__REMOVED) /* Check for removal by optimization */
  24:.\Generated_Source\PSoC4/BootISR.c **** 
  25:.\Generated_Source\PSoC4/BootISR.c **** /*******************************************************************************
  26:.\Generated_Source\PSoC4/BootISR.c **** *  Place your includes, defines and code here 
  27:.\Generated_Source\PSoC4/BootISR.c **** ********************************************************************************/
  28:.\Generated_Source\PSoC4/BootISR.c **** /* `#START BootISR_intc` */
  29:.\Generated_Source\PSoC4/BootISR.c **** #include <project.h>
  30:.\Generated_Source\PSoC4/BootISR.c **** /* `#END` */
  31:.\Generated_Source\PSoC4/BootISR.c **** 
  32:.\Generated_Source\PSoC4/BootISR.c **** extern cyisraddress CyRamVectors[CYINT_IRQ_BASE + CY_NUM_INTERRUPTS];
ARM GAS  C:\Users\SNFU\AppData\Local\Temp\ccvYqM8h.s 			page 2


  33:.\Generated_Source\PSoC4/BootISR.c **** 
  34:.\Generated_Source\PSoC4/BootISR.c **** /* Declared in startup, used to set unused interrupts to. */
  35:.\Generated_Source\PSoC4/BootISR.c **** CY_ISR_PROTO(IntDefaultHandler);
  36:.\Generated_Source\PSoC4/BootISR.c **** 
  37:.\Generated_Source\PSoC4/BootISR.c **** 
  38:.\Generated_Source\PSoC4/BootISR.c **** /*******************************************************************************
  39:.\Generated_Source\PSoC4/BootISR.c **** * Function Name: BootISR_Start
  40:.\Generated_Source\PSoC4/BootISR.c **** ********************************************************************************
  41:.\Generated_Source\PSoC4/BootISR.c **** *
  42:.\Generated_Source\PSoC4/BootISR.c **** * Summary:
  43:.\Generated_Source\PSoC4/BootISR.c **** *  Set up the interrupt and enable it.
  44:.\Generated_Source\PSoC4/BootISR.c **** *
  45:.\Generated_Source\PSoC4/BootISR.c **** * Parameters:  
  46:.\Generated_Source\PSoC4/BootISR.c **** *   None
  47:.\Generated_Source\PSoC4/BootISR.c **** *
  48:.\Generated_Source\PSoC4/BootISR.c **** * Return:
  49:.\Generated_Source\PSoC4/BootISR.c **** *   None
  50:.\Generated_Source\PSoC4/BootISR.c **** *
  51:.\Generated_Source\PSoC4/BootISR.c **** *******************************************************************************/
  52:.\Generated_Source\PSoC4/BootISR.c **** void BootISR_Start(void)
  53:.\Generated_Source\PSoC4/BootISR.c **** {
  54:.\Generated_Source\PSoC4/BootISR.c ****     /* For all we know the interrupt is active. */
  55:.\Generated_Source\PSoC4/BootISR.c ****     BootISR_Disable();
  56:.\Generated_Source\PSoC4/BootISR.c **** 
  57:.\Generated_Source\PSoC4/BootISR.c ****     /* Set the ISR to point to the BootISR Interrupt. */
  58:.\Generated_Source\PSoC4/BootISR.c ****     BootISR_SetVector(&BootISR_Interrupt);
  59:.\Generated_Source\PSoC4/BootISR.c **** 
  60:.\Generated_Source\PSoC4/BootISR.c ****     /* Set the priority. */
  61:.\Generated_Source\PSoC4/BootISR.c ****     BootISR_SetPriority((uint8)BootISR_INTC_PRIOR_NUMBER);
  62:.\Generated_Source\PSoC4/BootISR.c **** 
  63:.\Generated_Source\PSoC4/BootISR.c ****     /* Enable it. */
  64:.\Generated_Source\PSoC4/BootISR.c ****     BootISR_Enable();
  65:.\Generated_Source\PSoC4/BootISR.c **** }
  66:.\Generated_Source\PSoC4/BootISR.c **** 
  67:.\Generated_Source\PSoC4/BootISR.c **** 
  68:.\Generated_Source\PSoC4/BootISR.c **** /*******************************************************************************
  69:.\Generated_Source\PSoC4/BootISR.c **** * Function Name: BootISR_StartEx
  70:.\Generated_Source\PSoC4/BootISR.c **** ********************************************************************************
  71:.\Generated_Source\PSoC4/BootISR.c **** *
  72:.\Generated_Source\PSoC4/BootISR.c **** * Summary:
  73:.\Generated_Source\PSoC4/BootISR.c **** *  Set up the interrupt and enable it.
  74:.\Generated_Source\PSoC4/BootISR.c **** *
  75:.\Generated_Source\PSoC4/BootISR.c **** * Parameters:  
  76:.\Generated_Source\PSoC4/BootISR.c **** *   address: Address of the ISR to set in the interrupt vector table.
  77:.\Generated_Source\PSoC4/BootISR.c **** *
  78:.\Generated_Source\PSoC4/BootISR.c **** * Return:
  79:.\Generated_Source\PSoC4/BootISR.c **** *   None
  80:.\Generated_Source\PSoC4/BootISR.c **** *
  81:.\Generated_Source\PSoC4/BootISR.c **** *******************************************************************************/
  82:.\Generated_Source\PSoC4/BootISR.c **** void BootISR_StartEx(cyisraddress address)
  83:.\Generated_Source\PSoC4/BootISR.c **** {
  84:.\Generated_Source\PSoC4/BootISR.c ****     /* For all we know the interrupt is active. */
  85:.\Generated_Source\PSoC4/BootISR.c ****     BootISR_Disable();
  86:.\Generated_Source\PSoC4/BootISR.c **** 
  87:.\Generated_Source\PSoC4/BootISR.c ****     /* Set the ISR to point to the BootISR Interrupt. */
  88:.\Generated_Source\PSoC4/BootISR.c ****     BootISR_SetVector(address);
  89:.\Generated_Source\PSoC4/BootISR.c **** 
ARM GAS  C:\Users\SNFU\AppData\Local\Temp\ccvYqM8h.s 			page 3


  90:.\Generated_Source\PSoC4/BootISR.c ****     /* Set the priority. */
  91:.\Generated_Source\PSoC4/BootISR.c ****     BootISR_SetPriority((uint8)BootISR_INTC_PRIOR_NUMBER);
  92:.\Generated_Source\PSoC4/BootISR.c **** 
  93:.\Generated_Source\PSoC4/BootISR.c ****     /* Enable it. */
  94:.\Generated_Source\PSoC4/BootISR.c ****     BootISR_Enable();
  95:.\Generated_Source\PSoC4/BootISR.c **** }
  96:.\Generated_Source\PSoC4/BootISR.c **** 
  97:.\Generated_Source\PSoC4/BootISR.c **** 
  98:.\Generated_Source\PSoC4/BootISR.c **** /*******************************************************************************
  99:.\Generated_Source\PSoC4/BootISR.c **** * Function Name: BootISR_Stop
 100:.\Generated_Source\PSoC4/BootISR.c **** ********************************************************************************
 101:.\Generated_Source\PSoC4/BootISR.c **** *
 102:.\Generated_Source\PSoC4/BootISR.c **** * Summary:
 103:.\Generated_Source\PSoC4/BootISR.c **** *   Disables and removes the interrupt.
 104:.\Generated_Source\PSoC4/BootISR.c **** *
 105:.\Generated_Source\PSoC4/BootISR.c **** * Parameters:  
 106:.\Generated_Source\PSoC4/BootISR.c **** *
 107:.\Generated_Source\PSoC4/BootISR.c **** * Return:
 108:.\Generated_Source\PSoC4/BootISR.c **** *   None
 109:.\Generated_Source\PSoC4/BootISR.c **** *
 110:.\Generated_Source\PSoC4/BootISR.c **** *******************************************************************************/
 111:.\Generated_Source\PSoC4/BootISR.c **** void BootISR_Stop(void)
 112:.\Generated_Source\PSoC4/BootISR.c **** {
 113:.\Generated_Source\PSoC4/BootISR.c ****     /* Disable this interrupt. */
 114:.\Generated_Source\PSoC4/BootISR.c ****     BootISR_Disable();
 115:.\Generated_Source\PSoC4/BootISR.c **** 
 116:.\Generated_Source\PSoC4/BootISR.c ****     /* Set the ISR to point to the passive one. */
 117:.\Generated_Source\PSoC4/BootISR.c ****     BootISR_SetVector(&IntDefaultHandler);
 118:.\Generated_Source\PSoC4/BootISR.c **** }
 119:.\Generated_Source\PSoC4/BootISR.c **** 
 120:.\Generated_Source\PSoC4/BootISR.c **** 
 121:.\Generated_Source\PSoC4/BootISR.c **** /*******************************************************************************
 122:.\Generated_Source\PSoC4/BootISR.c **** * Function Name: BootISR_Interrupt
 123:.\Generated_Source\PSoC4/BootISR.c **** ********************************************************************************
 124:.\Generated_Source\PSoC4/BootISR.c **** *
 125:.\Generated_Source\PSoC4/BootISR.c **** * Summary:
 126:.\Generated_Source\PSoC4/BootISR.c **** *   The default Interrupt Service Routine for BootISR.
 127:.\Generated_Source\PSoC4/BootISR.c **** *
 128:.\Generated_Source\PSoC4/BootISR.c **** *   Add custom code between the coments to keep the next version of this file
 129:.\Generated_Source\PSoC4/BootISR.c **** *   from over writting your code.
 130:.\Generated_Source\PSoC4/BootISR.c **** *
 131:.\Generated_Source\PSoC4/BootISR.c **** * Parameters:  
 132:.\Generated_Source\PSoC4/BootISR.c **** *   None
 133:.\Generated_Source\PSoC4/BootISR.c **** *
 134:.\Generated_Source\PSoC4/BootISR.c **** * Return:
 135:.\Generated_Source\PSoC4/BootISR.c **** *   None
 136:.\Generated_Source\PSoC4/BootISR.c **** *
 137:.\Generated_Source\PSoC4/BootISR.c **** *******************************************************************************/
 138:.\Generated_Source\PSoC4/BootISR.c **** CY_ISR(BootISR_Interrupt)
 139:.\Generated_Source\PSoC4/BootISR.c **** {
  26              		.loc 1 139 0
  27              		.cfi_startproc
  28 0000 08B5     		push	{r3, lr}
  29              	.LCFI0:
  30              		.cfi_def_cfa_offset 8
  31              		.cfi_offset 3, -8
  32              		.cfi_offset 14, -4
ARM GAS  C:\Users\SNFU\AppData\Local\Temp\ccvYqM8h.s 			page 4


 140:.\Generated_Source\PSoC4/BootISR.c ****     /*  Place your Interrupt code here. */
 141:.\Generated_Source\PSoC4/BootISR.c ****     /* `#START BootISR_Interrupt` */
 142:.\Generated_Source\PSoC4/BootISR.c ****     SW1_ClearInterrupt();
  33              		.loc 1 142 0
  34 0002 FFF7FEFF 		bl	SW1_ClearInterrupt
  35              	.LVL0:
 143:.\Generated_Source\PSoC4/BootISR.c ****     UART_1_UartPutString("Boot\r\n");
  36              		.loc 1 143 0
  37 0006 0448     		ldr	r0, .L2
  38 0008 FFF7FEFF 		bl	UART_1_UartPutString
  39              	.LVL1:
 144:.\Generated_Source\PSoC4/BootISR.c ****     CyDelay(100);    
  40              		.loc 1 144 0
  41 000c 6420     		mov	r0, #100
  42 000e FFF7FEFF 		bl	CyDelay
  43              	.LVL2:
 145:.\Generated_Source\PSoC4/BootISR.c ****     Bootloadable_1_Load();
 146:.\Generated_Source\PSoC4/BootISR.c ****     /* `#END` */
 147:.\Generated_Source\PSoC4/BootISR.c **** }
  44              		.loc 1 147 0
  45              		@ sp needed for prologue
 145:.\Generated_Source\PSoC4/BootISR.c ****     Bootloadable_1_Load();
  46              		.loc 1 145 0
  47 0012 FFF7FEFF 		bl	Bootloadable_1_Load
  48              	.LVL3:
  49              		.loc 1 147 0
  50 0016 08BD     		pop	{r3, pc}
  51              	.L3:
  52              		.align	2
  53              	.L2:
  54 0018 00000000 		.word	.LC0
  55              		.cfi_endproc
  56              	.LFE36:
  57              		.size	BootISR_Interrupt, .-BootISR_Interrupt
  58              		.section	.text.BootISR_Stop,"ax",%progbits
  59              		.align	1
  60              		.global	BootISR_Stop
  61              		.code	16
  62              		.thumb_func
  63              		.type	BootISR_Stop, %function
  64              	BootISR_Stop:
  65              	.LFB35:
 112:.\Generated_Source\PSoC4/BootISR.c **** {
  66              		.loc 1 112 0
  67              		.cfi_startproc
  68              	.LBB18:
  69              	.LBB19:
 148:.\Generated_Source\PSoC4/BootISR.c **** 
 149:.\Generated_Source\PSoC4/BootISR.c **** 
 150:.\Generated_Source\PSoC4/BootISR.c **** /*******************************************************************************
 151:.\Generated_Source\PSoC4/BootISR.c **** * Function Name: BootISR_SetVector
 152:.\Generated_Source\PSoC4/BootISR.c **** ********************************************************************************
 153:.\Generated_Source\PSoC4/BootISR.c **** *
 154:.\Generated_Source\PSoC4/BootISR.c **** * Summary:
 155:.\Generated_Source\PSoC4/BootISR.c **** *   Change the ISR vector for the Interrupt. Note calling BootISR_Start
 156:.\Generated_Source\PSoC4/BootISR.c **** *   will override any effect this method would have had. To set the vector 
 157:.\Generated_Source\PSoC4/BootISR.c **** *   before the component has been started use BootISR_StartEx instead.
ARM GAS  C:\Users\SNFU\AppData\Local\Temp\ccvYqM8h.s 			page 5


 158:.\Generated_Source\PSoC4/BootISR.c **** *
 159:.\Generated_Source\PSoC4/BootISR.c **** * Parameters:
 160:.\Generated_Source\PSoC4/BootISR.c **** *   address: Address of the ISR to set in the interrupt vector table.
 161:.\Generated_Source\PSoC4/BootISR.c **** *
 162:.\Generated_Source\PSoC4/BootISR.c **** * Return:
 163:.\Generated_Source\PSoC4/BootISR.c **** *   None
 164:.\Generated_Source\PSoC4/BootISR.c **** *
 165:.\Generated_Source\PSoC4/BootISR.c **** *******************************************************************************/
 166:.\Generated_Source\PSoC4/BootISR.c **** void BootISR_SetVector(cyisraddress address)
 167:.\Generated_Source\PSoC4/BootISR.c **** {
 168:.\Generated_Source\PSoC4/BootISR.c ****     CyRamVectors[CYINT_IRQ_BASE + BootISR__INTC_NUMBER] = address;
 169:.\Generated_Source\PSoC4/BootISR.c **** }
 170:.\Generated_Source\PSoC4/BootISR.c **** 
 171:.\Generated_Source\PSoC4/BootISR.c **** 
 172:.\Generated_Source\PSoC4/BootISR.c **** /*******************************************************************************
 173:.\Generated_Source\PSoC4/BootISR.c **** * Function Name: BootISR_GetVector
 174:.\Generated_Source\PSoC4/BootISR.c **** ********************************************************************************
 175:.\Generated_Source\PSoC4/BootISR.c **** *
 176:.\Generated_Source\PSoC4/BootISR.c **** * Summary:
 177:.\Generated_Source\PSoC4/BootISR.c **** *   Gets the "address" of the current ISR vector for the Interrupt.
 178:.\Generated_Source\PSoC4/BootISR.c **** *
 179:.\Generated_Source\PSoC4/BootISR.c **** * Parameters:
 180:.\Generated_Source\PSoC4/BootISR.c **** *   None
 181:.\Generated_Source\PSoC4/BootISR.c **** *
 182:.\Generated_Source\PSoC4/BootISR.c **** * Return:
 183:.\Generated_Source\PSoC4/BootISR.c **** *   Address of the ISR in the interrupt vector table.
 184:.\Generated_Source\PSoC4/BootISR.c **** *
 185:.\Generated_Source\PSoC4/BootISR.c **** *******************************************************************************/
 186:.\Generated_Source\PSoC4/BootISR.c **** cyisraddress BootISR_GetVector(void)
 187:.\Generated_Source\PSoC4/BootISR.c **** {
 188:.\Generated_Source\PSoC4/BootISR.c ****     return CyRamVectors[CYINT_IRQ_BASE + BootISR__INTC_NUMBER];
 189:.\Generated_Source\PSoC4/BootISR.c **** }
 190:.\Generated_Source\PSoC4/BootISR.c **** 
 191:.\Generated_Source\PSoC4/BootISR.c **** 
 192:.\Generated_Source\PSoC4/BootISR.c **** /*******************************************************************************
 193:.\Generated_Source\PSoC4/BootISR.c **** * Function Name: BootISR_SetPriority
 194:.\Generated_Source\PSoC4/BootISR.c **** ********************************************************************************
 195:.\Generated_Source\PSoC4/BootISR.c **** *
 196:.\Generated_Source\PSoC4/BootISR.c **** * Summary:
 197:.\Generated_Source\PSoC4/BootISR.c **** *   Sets the Priority of the Interrupt. Note calling BootISR_Start
 198:.\Generated_Source\PSoC4/BootISR.c **** *   or BootISR_StartEx will override any effect this method would 
 199:.\Generated_Source\PSoC4/BootISR.c **** *   have had. This method should only be called after BootISR_Start or 
 200:.\Generated_Source\PSoC4/BootISR.c **** *   BootISR_StartEx has been called. To set the initial
 201:.\Generated_Source\PSoC4/BootISR.c **** *   priority for the component use the cydwr file in the tool.
 202:.\Generated_Source\PSoC4/BootISR.c **** *
 203:.\Generated_Source\PSoC4/BootISR.c **** * Parameters:
 204:.\Generated_Source\PSoC4/BootISR.c **** *   priority: Priority of the interrupt. 0 - 3, 0 being the highest.
 205:.\Generated_Source\PSoC4/BootISR.c **** *
 206:.\Generated_Source\PSoC4/BootISR.c **** * Return:
 207:.\Generated_Source\PSoC4/BootISR.c **** *   None
 208:.\Generated_Source\PSoC4/BootISR.c **** *
 209:.\Generated_Source\PSoC4/BootISR.c **** *******************************************************************************/
 210:.\Generated_Source\PSoC4/BootISR.c **** void BootISR_SetPriority(uint8 priority)
 211:.\Generated_Source\PSoC4/BootISR.c **** {
 212:.\Generated_Source\PSoC4/BootISR.c **** 	uint8 interruptState;
 213:.\Generated_Source\PSoC4/BootISR.c ****     uint32 priorityOffset = ((BootISR__INTC_NUMBER % 4u) * 8u) + 6u;
 214:.\Generated_Source\PSoC4/BootISR.c ****     
ARM GAS  C:\Users\SNFU\AppData\Local\Temp\ccvYqM8h.s 			page 6


 215:.\Generated_Source\PSoC4/BootISR.c **** 	interruptState = CyEnterCriticalSection();
 216:.\Generated_Source\PSoC4/BootISR.c ****     *BootISR_INTC_PRIOR = (*BootISR_INTC_PRIOR & (uint32)(~BootISR__INTC_PRIOR_MASK)) |
 217:.\Generated_Source\PSoC4/BootISR.c ****                                     ((uint32)priority << priorityOffset);
 218:.\Generated_Source\PSoC4/BootISR.c **** 	CyExitCriticalSection(interruptState);
 219:.\Generated_Source\PSoC4/BootISR.c **** }
 220:.\Generated_Source\PSoC4/BootISR.c **** 
 221:.\Generated_Source\PSoC4/BootISR.c **** 
 222:.\Generated_Source\PSoC4/BootISR.c **** /*******************************************************************************
 223:.\Generated_Source\PSoC4/BootISR.c **** * Function Name: BootISR_GetPriority
 224:.\Generated_Source\PSoC4/BootISR.c **** ********************************************************************************
 225:.\Generated_Source\PSoC4/BootISR.c **** *
 226:.\Generated_Source\PSoC4/BootISR.c **** * Summary:
 227:.\Generated_Source\PSoC4/BootISR.c **** *   Gets the Priority of the Interrupt.
 228:.\Generated_Source\PSoC4/BootISR.c **** *
 229:.\Generated_Source\PSoC4/BootISR.c **** * Parameters:
 230:.\Generated_Source\PSoC4/BootISR.c **** *   None
 231:.\Generated_Source\PSoC4/BootISR.c **** *
 232:.\Generated_Source\PSoC4/BootISR.c **** * Return:
 233:.\Generated_Source\PSoC4/BootISR.c **** *   Priority of the interrupt. 0 - 3, 0 being the highest.
 234:.\Generated_Source\PSoC4/BootISR.c **** *
 235:.\Generated_Source\PSoC4/BootISR.c **** *******************************************************************************/
 236:.\Generated_Source\PSoC4/BootISR.c **** uint8 BootISR_GetPriority(void)
 237:.\Generated_Source\PSoC4/BootISR.c **** {
 238:.\Generated_Source\PSoC4/BootISR.c ****     uint32 priority;
 239:.\Generated_Source\PSoC4/BootISR.c **** 	uint32 priorityOffset = ((BootISR__INTC_NUMBER % 4u) * 8u) + 6u;
 240:.\Generated_Source\PSoC4/BootISR.c **** 
 241:.\Generated_Source\PSoC4/BootISR.c ****     priority = (*BootISR_INTC_PRIOR & BootISR__INTC_PRIOR_MASK) >> priorityOffset;
 242:.\Generated_Source\PSoC4/BootISR.c **** 
 243:.\Generated_Source\PSoC4/BootISR.c ****     return (uint8)priority;
 244:.\Generated_Source\PSoC4/BootISR.c **** }
 245:.\Generated_Source\PSoC4/BootISR.c **** 
 246:.\Generated_Source\PSoC4/BootISR.c **** 
 247:.\Generated_Source\PSoC4/BootISR.c **** /*******************************************************************************
 248:.\Generated_Source\PSoC4/BootISR.c **** * Function Name: BootISR_Enable
 249:.\Generated_Source\PSoC4/BootISR.c **** ********************************************************************************
 250:.\Generated_Source\PSoC4/BootISR.c **** *
 251:.\Generated_Source\PSoC4/BootISR.c **** * Summary:
 252:.\Generated_Source\PSoC4/BootISR.c **** *   Enables the interrupt.
 253:.\Generated_Source\PSoC4/BootISR.c **** *
 254:.\Generated_Source\PSoC4/BootISR.c **** * Parameters:
 255:.\Generated_Source\PSoC4/BootISR.c **** *   None
 256:.\Generated_Source\PSoC4/BootISR.c **** *
 257:.\Generated_Source\PSoC4/BootISR.c **** * Return:
 258:.\Generated_Source\PSoC4/BootISR.c **** *   None
 259:.\Generated_Source\PSoC4/BootISR.c **** *
 260:.\Generated_Source\PSoC4/BootISR.c **** *******************************************************************************/
 261:.\Generated_Source\PSoC4/BootISR.c **** void BootISR_Enable(void)
 262:.\Generated_Source\PSoC4/BootISR.c **** {
 263:.\Generated_Source\PSoC4/BootISR.c ****     /* Enable the general interrupt. */
 264:.\Generated_Source\PSoC4/BootISR.c ****     *BootISR_INTC_SET_EN = BootISR__INTC_MASK;
 265:.\Generated_Source\PSoC4/BootISR.c **** }
 266:.\Generated_Source\PSoC4/BootISR.c **** 
 267:.\Generated_Source\PSoC4/BootISR.c **** 
 268:.\Generated_Source\PSoC4/BootISR.c **** /*******************************************************************************
 269:.\Generated_Source\PSoC4/BootISR.c **** * Function Name: BootISR_GetState
 270:.\Generated_Source\PSoC4/BootISR.c **** ********************************************************************************
 271:.\Generated_Source\PSoC4/BootISR.c **** *
ARM GAS  C:\Users\SNFU\AppData\Local\Temp\ccvYqM8h.s 			page 7


 272:.\Generated_Source\PSoC4/BootISR.c **** * Summary:
 273:.\Generated_Source\PSoC4/BootISR.c **** *   Gets the state (enabled, disabled) of the Interrupt.
 274:.\Generated_Source\PSoC4/BootISR.c **** *
 275:.\Generated_Source\PSoC4/BootISR.c **** * Parameters:
 276:.\Generated_Source\PSoC4/BootISR.c **** *   None
 277:.\Generated_Source\PSoC4/BootISR.c **** *
 278:.\Generated_Source\PSoC4/BootISR.c **** * Return:
 279:.\Generated_Source\PSoC4/BootISR.c **** *   1 if enabled, 0 if disabled.
 280:.\Generated_Source\PSoC4/BootISR.c **** *
 281:.\Generated_Source\PSoC4/BootISR.c **** *******************************************************************************/
 282:.\Generated_Source\PSoC4/BootISR.c **** uint8 BootISR_GetState(void)
 283:.\Generated_Source\PSoC4/BootISR.c **** {
 284:.\Generated_Source\PSoC4/BootISR.c ****     /* Get the state of the general interrupt. */
 285:.\Generated_Source\PSoC4/BootISR.c ****     return ((*BootISR_INTC_SET_EN & (uint32)BootISR__INTC_MASK) != 0u) ? 1u:0u;
 286:.\Generated_Source\PSoC4/BootISR.c **** }
 287:.\Generated_Source\PSoC4/BootISR.c **** 
 288:.\Generated_Source\PSoC4/BootISR.c **** 
 289:.\Generated_Source\PSoC4/BootISR.c **** /*******************************************************************************
 290:.\Generated_Source\PSoC4/BootISR.c **** * Function Name: BootISR_Disable
 291:.\Generated_Source\PSoC4/BootISR.c **** ********************************************************************************
 292:.\Generated_Source\PSoC4/BootISR.c **** *
 293:.\Generated_Source\PSoC4/BootISR.c **** * Summary:
 294:.\Generated_Source\PSoC4/BootISR.c **** *   Disables the Interrupt.
 295:.\Generated_Source\PSoC4/BootISR.c **** *
 296:.\Generated_Source\PSoC4/BootISR.c **** * Parameters:
 297:.\Generated_Source\PSoC4/BootISR.c **** *   None
 298:.\Generated_Source\PSoC4/BootISR.c **** *
 299:.\Generated_Source\PSoC4/BootISR.c **** * Return:
 300:.\Generated_Source\PSoC4/BootISR.c **** *   None
 301:.\Generated_Source\PSoC4/BootISR.c **** *
 302:.\Generated_Source\PSoC4/BootISR.c **** *******************************************************************************/
 303:.\Generated_Source\PSoC4/BootISR.c **** void BootISR_Disable(void)
 304:.\Generated_Source\PSoC4/BootISR.c **** {
 305:.\Generated_Source\PSoC4/BootISR.c ****     /* Disable the general interrupt. */
 306:.\Generated_Source\PSoC4/BootISR.c ****     *BootISR_INTC_CLR_EN = BootISR__INTC_MASK;
  70              		.loc 1 306 0
  71 0000 034B     		ldr	r3, .L5
  72              	.LBE19:
  73              	.LBE18:
  74              	.LBB21:
  75              	.LBB22:
 168:.\Generated_Source\PSoC4/BootISR.c ****     CyRamVectors[CYINT_IRQ_BASE + BootISR__INTC_NUMBER] = address;
  76              		.loc 1 168 0
  77 0002 0448     		ldr	r0, .L5+4
  78 0004 0449     		ldr	r1, .L5+8
  79              	.LBE22:
  80              	.LBE21:
  81              	.LBB24:
  82              	.LBB20:
  83              		.loc 1 306 0
  84 0006 0122     		mov	r2, #1
  85 0008 1A60     		str	r2, [r3]
  86              	.LVL4:
  87              	.LBE20:
  88              	.LBE24:
 118:.\Generated_Source\PSoC4/BootISR.c **** }
  89              		.loc 1 118 0
ARM GAS  C:\Users\SNFU\AppData\Local\Temp\ccvYqM8h.s 			page 8


  90              		@ sp needed for prologue
  91              	.LBB25:
  92              	.LBB23:
 168:.\Generated_Source\PSoC4/BootISR.c ****     CyRamVectors[CYINT_IRQ_BASE + BootISR__INTC_NUMBER] = address;
  93              		.loc 1 168 0
  94 000a 0864     		str	r0, [r1, #64]
  95              	.LBE23:
  96              	.LBE25:
 118:.\Generated_Source\PSoC4/BootISR.c **** }
  97              		.loc 1 118 0
  98 000c 7047     		bx	lr
  99              	.L6:
 100 000e C046     		.align	2
 101              	.L5:
 102 0010 80E100E0 		.word	-536813184
 103 0014 00000000 		.word	IntDefaultHandler
 104 0018 00000000 		.word	CyRamVectors
 105              		.cfi_endproc
 106              	.LFE35:
 107              		.size	BootISR_Stop, .-BootISR_Stop
 108              		.section	.text.BootISR_SetVector,"ax",%progbits
 109              		.align	1
 110              		.global	BootISR_SetVector
 111              		.code	16
 112              		.thumb_func
 113              		.type	BootISR_SetVector, %function
 114              	BootISR_SetVector:
 115              	.LFB37:
 167:.\Generated_Source\PSoC4/BootISR.c **** {
 116              		.loc 1 167 0
 117              		.cfi_startproc
 118              	.LVL5:
 168:.\Generated_Source\PSoC4/BootISR.c ****     CyRamVectors[CYINT_IRQ_BASE + BootISR__INTC_NUMBER] = address;
 119              		.loc 1 168 0
 120 0000 014B     		ldr	r3, .L8
 169:.\Generated_Source\PSoC4/BootISR.c **** }
 121              		.loc 1 169 0
 122              		@ sp needed for prologue
 168:.\Generated_Source\PSoC4/BootISR.c ****     CyRamVectors[CYINT_IRQ_BASE + BootISR__INTC_NUMBER] = address;
 123              		.loc 1 168 0
 124 0002 1864     		str	r0, [r3, #64]
 169:.\Generated_Source\PSoC4/BootISR.c **** }
 125              		.loc 1 169 0
 126 0004 7047     		bx	lr
 127              	.L9:
 128 0006 C046     		.align	2
 129              	.L8:
 130 0008 00000000 		.word	CyRamVectors
 131              		.cfi_endproc
 132              	.LFE37:
 133              		.size	BootISR_SetVector, .-BootISR_SetVector
 134              		.section	.text.BootISR_GetVector,"ax",%progbits
 135              		.align	1
 136              		.global	BootISR_GetVector
 137              		.code	16
 138              		.thumb_func
 139              		.type	BootISR_GetVector, %function
ARM GAS  C:\Users\SNFU\AppData\Local\Temp\ccvYqM8h.s 			page 9


 140              	BootISR_GetVector:
 141              	.LFB38:
 187:.\Generated_Source\PSoC4/BootISR.c **** {
 142              		.loc 1 187 0
 143              		.cfi_startproc
 188:.\Generated_Source\PSoC4/BootISR.c ****     return CyRamVectors[CYINT_IRQ_BASE + BootISR__INTC_NUMBER];
 144              		.loc 1 188 0
 145 0000 014B     		ldr	r3, .L11
 189:.\Generated_Source\PSoC4/BootISR.c **** }
 146              		.loc 1 189 0
 147              		@ sp needed for prologue
 188:.\Generated_Source\PSoC4/BootISR.c ****     return CyRamVectors[CYINT_IRQ_BASE + BootISR__INTC_NUMBER];
 148              		.loc 1 188 0
 149 0002 186C     		ldr	r0, [r3, #64]
 189:.\Generated_Source\PSoC4/BootISR.c **** }
 150              		.loc 1 189 0
 151 0004 7047     		bx	lr
 152              	.L12:
 153 0006 C046     		.align	2
 154              	.L11:
 155 0008 00000000 		.word	CyRamVectors
 156              		.cfi_endproc
 157              	.LFE38:
 158              		.size	BootISR_GetVector, .-BootISR_GetVector
 159              		.section	.text.BootISR_SetPriority,"ax",%progbits
 160              		.align	1
 161              		.global	BootISR_SetPriority
 162              		.code	16
 163              		.thumb_func
 164              		.type	BootISR_SetPriority, %function
 165              	BootISR_SetPriority:
 166              	.LFB39:
 211:.\Generated_Source\PSoC4/BootISR.c **** {
 167              		.loc 1 211 0
 168              		.cfi_startproc
 169              	.LVL6:
 170 0000 10B5     		push	{r4, lr}
 171              	.LCFI1:
 172              		.cfi_def_cfa_offset 8
 173              		.cfi_offset 4, -8
 174              		.cfi_offset 14, -4
 211:.\Generated_Source\PSoC4/BootISR.c **** {
 175              		.loc 1 211 0
 176 0002 041C     		mov	r4, r0
 215:.\Generated_Source\PSoC4/BootISR.c **** 	interruptState = CyEnterCriticalSection();
 177              		.loc 1 215 0
 178 0004 FFF7FEFF 		bl	CyEnterCriticalSection
 179              	.LVL7:
 216:.\Generated_Source\PSoC4/BootISR.c ****     *BootISR_INTC_PRIOR = (*BootISR_INTC_PRIOR & (uint32)(~BootISR__INTC_PRIOR_MASK)) |
 180              		.loc 1 216 0
 181 0008 044B     		ldr	r3, .L14
 217:.\Generated_Source\PSoC4/BootISR.c ****                                     ((uint32)priority << priorityOffset);
 182              		.loc 1 217 0
 183 000a A201     		lsl	r2, r4, #6
 216:.\Generated_Source\PSoC4/BootISR.c ****     *BootISR_INTC_PRIOR = (*BootISR_INTC_PRIOR & (uint32)(~BootISR__INTC_PRIOR_MASK)) |
 184              		.loc 1 216 0
 185 000c 1968     		ldr	r1, [r3]
ARM GAS  C:\Users\SNFU\AppData\Local\Temp\ccvYqM8h.s 			page 10


 186 000e C024     		mov	r4, #192
 187 0010 A143     		bic	r1, r4
 188 0012 1143     		orr	r1, r2
 189 0014 1960     		str	r1, [r3]
 218:.\Generated_Source\PSoC4/BootISR.c **** 	CyExitCriticalSection(interruptState);
 190              		.loc 1 218 0
 191 0016 FFF7FEFF 		bl	CyExitCriticalSection
 192              	.LVL8:
 219:.\Generated_Source\PSoC4/BootISR.c **** }
 193              		.loc 1 219 0
 194              		@ sp needed for prologue
 195 001a 10BD     		pop	{r4, pc}
 196              	.L15:
 197              		.align	2
 198              	.L14:
 199 001c 00E400E0 		.word	-536812544
 200              		.cfi_endproc
 201              	.LFE39:
 202              		.size	BootISR_SetPriority, .-BootISR_SetPriority
 203              		.section	.text.BootISR_StartEx,"ax",%progbits
 204              		.align	1
 205              		.global	BootISR_StartEx
 206              		.code	16
 207              		.thumb_func
 208              		.type	BootISR_StartEx, %function
 209              	BootISR_StartEx:
 210              	.LFB34:
  83:.\Generated_Source\PSoC4/BootISR.c **** {
 211              		.loc 1 83 0
 212              		.cfi_startproc
 213              	.LVL9:
 214 0000 10B5     		push	{r4, lr}
 215              	.LCFI2:
 216              		.cfi_def_cfa_offset 8
 217              		.cfi_offset 4, -8
 218              		.cfi_offset 14, -4
 219              	.LBB26:
 220              	.LBB27:
 221              		.loc 1 306 0
 222 0002 054B     		ldr	r3, .L17
 223              	.LBE27:
 224              	.LBE26:
 225              	.LBB29:
 226              	.LBB30:
 168:.\Generated_Source\PSoC4/BootISR.c ****     CyRamVectors[CYINT_IRQ_BASE + BootISR__INTC_NUMBER] = address;
 227              		.loc 1 168 0
 228 0004 0549     		ldr	r1, .L17+4
 229              	.LBE30:
 230              	.LBE29:
 231              	.LBB32:
 232              	.LBB28:
 233              		.loc 1 306 0
 234 0006 0124     		mov	r4, #1
 235 0008 1C60     		str	r4, [r3]
 236              	.LVL10:
 237              	.LBE28:
 238              	.LBE32:
ARM GAS  C:\Users\SNFU\AppData\Local\Temp\ccvYqM8h.s 			page 11


 239              	.LBB33:
 240              	.LBB31:
 168:.\Generated_Source\PSoC4/BootISR.c ****     CyRamVectors[CYINT_IRQ_BASE + BootISR__INTC_NUMBER] = address;
 241              		.loc 1 168 0
 242 000a 0864     		str	r0, [r1, #64]
 243              	.LBE31:
 244              	.LBE33:
  91:.\Generated_Source\PSoC4/BootISR.c ****     BootISR_SetPriority((uint8)BootISR_INTC_PRIOR_NUMBER);
 245              		.loc 1 91 0
 246 000c 0320     		mov	r0, #3
 247              	.LVL11:
 248 000e FFF7FEFF 		bl	BootISR_SetPriority
 249              	.LVL12:
 250              	.LBB34:
 251              	.LBB35:
 264:.\Generated_Source\PSoC4/BootISR.c ****     *BootISR_INTC_SET_EN = BootISR__INTC_MASK;
 252              		.loc 1 264 0
 253 0012 0348     		ldr	r0, .L17+8
 254              	.LBE35:
 255              	.LBE34:
  95:.\Generated_Source\PSoC4/BootISR.c **** }
 256              		.loc 1 95 0
 257              		@ sp needed for prologue
 258              	.LBB37:
 259              	.LBB36:
 264:.\Generated_Source\PSoC4/BootISR.c ****     *BootISR_INTC_SET_EN = BootISR__INTC_MASK;
 260              		.loc 1 264 0
 261 0014 0460     		str	r4, [r0]
 262              	.LBE36:
 263              	.LBE37:
  95:.\Generated_Source\PSoC4/BootISR.c **** }
 264              		.loc 1 95 0
 265 0016 10BD     		pop	{r4, pc}
 266              	.L18:
 267              		.align	2
 268              	.L17:
 269 0018 80E100E0 		.word	-536813184
 270 001c 00000000 		.word	CyRamVectors
 271 0020 00E100E0 		.word	-536813312
 272              		.cfi_endproc
 273              	.LFE34:
 274              		.size	BootISR_StartEx, .-BootISR_StartEx
 275              		.section	.text.BootISR_Start,"ax",%progbits
 276              		.align	1
 277              		.global	BootISR_Start
 278              		.code	16
 279              		.thumb_func
 280              		.type	BootISR_Start, %function
 281              	BootISR_Start:
 282              	.LFB33:
  53:.\Generated_Source\PSoC4/BootISR.c **** {
 283              		.loc 1 53 0
 284              		.cfi_startproc
 285 0000 10B5     		push	{r4, lr}
 286              	.LCFI3:
 287              		.cfi_def_cfa_offset 8
 288              		.cfi_offset 4, -8
ARM GAS  C:\Users\SNFU\AppData\Local\Temp\ccvYqM8h.s 			page 12


 289              		.cfi_offset 14, -4
 290              	.LBB38:
 291              	.LBB39:
 292              		.loc 1 306 0
 293 0002 064B     		ldr	r3, .L20
 294              	.LBE39:
 295              	.LBE38:
 296              	.LBB41:
 297              	.LBB42:
 168:.\Generated_Source\PSoC4/BootISR.c ****     CyRamVectors[CYINT_IRQ_BASE + BootISR__INTC_NUMBER] = address;
 298              		.loc 1 168 0
 299 0004 064A     		ldr	r2, .L20+4
 300 0006 0748     		ldr	r0, .L20+8
 301              	.LBE42:
 302              	.LBE41:
 303              	.LBB44:
 304              	.LBB40:
 305              		.loc 1 306 0
 306 0008 0124     		mov	r4, #1
 307 000a 1C60     		str	r4, [r3]
 308              	.LVL13:
 309              	.LBE40:
 310              	.LBE44:
 311              	.LBB45:
 312              	.LBB43:
 168:.\Generated_Source\PSoC4/BootISR.c ****     CyRamVectors[CYINT_IRQ_BASE + BootISR__INTC_NUMBER] = address;
 313              		.loc 1 168 0
 314 000c 0264     		str	r2, [r0, #64]
 315              	.LBE43:
 316              	.LBE45:
  61:.\Generated_Source\PSoC4/BootISR.c ****     BootISR_SetPriority((uint8)BootISR_INTC_PRIOR_NUMBER);
 317              		.loc 1 61 0
 318 000e 0320     		mov	r0, #3
 319 0010 FFF7FEFF 		bl	BootISR_SetPriority
 320              	.LVL14:
 321              	.LBB46:
 322              	.LBB47:
 264:.\Generated_Source\PSoC4/BootISR.c ****     *BootISR_INTC_SET_EN = BootISR__INTC_MASK;
 323              		.loc 1 264 0
 324 0014 0449     		ldr	r1, .L20+12
 325              	.LBE47:
 326              	.LBE46:
  65:.\Generated_Source\PSoC4/BootISR.c **** }
 327              		.loc 1 65 0
 328              		@ sp needed for prologue
 329              	.LBB49:
 330              	.LBB48:
 264:.\Generated_Source\PSoC4/BootISR.c ****     *BootISR_INTC_SET_EN = BootISR__INTC_MASK;
 331              		.loc 1 264 0
 332 0016 0C60     		str	r4, [r1]
 333              	.LBE48:
 334              	.LBE49:
  65:.\Generated_Source\PSoC4/BootISR.c **** }
 335              		.loc 1 65 0
 336 0018 10BD     		pop	{r4, pc}
 337              	.L21:
 338 001a C046     		.align	2
ARM GAS  C:\Users\SNFU\AppData\Local\Temp\ccvYqM8h.s 			page 13


 339              	.L20:
 340 001c 80E100E0 		.word	-536813184
 341 0020 00000000 		.word	BootISR_Interrupt
 342 0024 00000000 		.word	CyRamVectors
 343 0028 00E100E0 		.word	-536813312
 344              		.cfi_endproc
 345              	.LFE33:
 346              		.size	BootISR_Start, .-BootISR_Start
 347              		.section	.text.BootISR_GetPriority,"ax",%progbits
 348              		.align	1
 349              		.global	BootISR_GetPriority
 350              		.code	16
 351              		.thumb_func
 352              		.type	BootISR_GetPriority, %function
 353              	BootISR_GetPriority:
 354              	.LFB40:
 237:.\Generated_Source\PSoC4/BootISR.c **** {
 355              		.loc 1 237 0
 356              		.cfi_startproc
 357              	.LVL15:
 241:.\Generated_Source\PSoC4/BootISR.c ****     priority = (*BootISR_INTC_PRIOR & BootISR__INTC_PRIOR_MASK) >> priorityOffset;
 358              		.loc 1 241 0
 359 0000 024B     		ldr	r3, .L23
 244:.\Generated_Source\PSoC4/BootISR.c **** }
 360              		.loc 1 244 0
 361              		@ sp needed for prologue
 241:.\Generated_Source\PSoC4/BootISR.c ****     priority = (*BootISR_INTC_PRIOR & BootISR__INTC_PRIOR_MASK) >> priorityOffset;
 362              		.loc 1 241 0
 363 0002 1868     		ldr	r0, [r3]
 364              	.LVL16:
 365 0004 0106     		lsl	r1, r0, #24
 243:.\Generated_Source\PSoC4/BootISR.c ****     return (uint8)priority;
 366              		.loc 1 243 0
 367 0006 880F     		lsr	r0, r1, #30
 368              	.LVL17:
 244:.\Generated_Source\PSoC4/BootISR.c **** }
 369              		.loc 1 244 0
 370 0008 7047     		bx	lr
 371              	.L24:
 372 000a C046     		.align	2
 373              	.L23:
 374 000c 00E400E0 		.word	-536812544
 375              		.cfi_endproc
 376              	.LFE40:
 377              		.size	BootISR_GetPriority, .-BootISR_GetPriority
 378              		.section	.text.BootISR_Enable,"ax",%progbits
 379              		.align	1
 380              		.global	BootISR_Enable
 381              		.code	16
 382              		.thumb_func
 383              		.type	BootISR_Enable, %function
 384              	BootISR_Enable:
 385              	.LFB41:
 262:.\Generated_Source\PSoC4/BootISR.c **** {
 386              		.loc 1 262 0
 387              		.cfi_startproc
 264:.\Generated_Source\PSoC4/BootISR.c ****     *BootISR_INTC_SET_EN = BootISR__INTC_MASK;
ARM GAS  C:\Users\SNFU\AppData\Local\Temp\ccvYqM8h.s 			page 14


 388              		.loc 1 264 0
 389 0000 014B     		ldr	r3, .L26
 390 0002 0122     		mov	r2, #1
 391 0004 1A60     		str	r2, [r3]
 265:.\Generated_Source\PSoC4/BootISR.c **** }
 392              		.loc 1 265 0
 393              		@ sp needed for prologue
 394 0006 7047     		bx	lr
 395              	.L27:
 396              		.align	2
 397              	.L26:
 398 0008 00E100E0 		.word	-536813312
 399              		.cfi_endproc
 400              	.LFE41:
 401              		.size	BootISR_Enable, .-BootISR_Enable
 402              		.section	.text.BootISR_GetState,"ax",%progbits
 403              		.align	1
 404              		.global	BootISR_GetState
 405              		.code	16
 406              		.thumb_func
 407              		.type	BootISR_GetState, %function
 408              	BootISR_GetState:
 409              	.LFB42:
 283:.\Generated_Source\PSoC4/BootISR.c **** {
 410              		.loc 1 283 0
 411              		.cfi_startproc
 285:.\Generated_Source\PSoC4/BootISR.c ****     return ((*BootISR_INTC_SET_EN & (uint32)BootISR__INTC_MASK) != 0u) ? 1u:0u;
 412              		.loc 1 285 0
 413 0000 024B     		ldr	r3, .L29
 414 0002 0121     		mov	r1, #1
 415 0004 1868     		ldr	r0, [r3]
 286:.\Generated_Source\PSoC4/BootISR.c **** }
 416              		.loc 1 286 0
 417              		@ sp needed for prologue
 285:.\Generated_Source\PSoC4/BootISR.c ****     return ((*BootISR_INTC_SET_EN & (uint32)BootISR__INTC_MASK) != 0u) ? 1u:0u;
 418              		.loc 1 285 0
 419 0006 0840     		and	r0, r1
 286:.\Generated_Source\PSoC4/BootISR.c **** }
 420              		.loc 1 286 0
 421 0008 7047     		bx	lr
 422              	.L30:
 423 000a C046     		.align	2
 424              	.L29:
 425 000c 00E100E0 		.word	-536813312
 426              		.cfi_endproc
 427              	.LFE42:
 428              		.size	BootISR_GetState, .-BootISR_GetState
 429              		.section	.text.BootISR_Disable,"ax",%progbits
 430              		.align	1
 431              		.global	BootISR_Disable
 432              		.code	16
 433              		.thumb_func
 434              		.type	BootISR_Disable, %function
 435              	BootISR_Disable:
 436              	.LFB43:
 304:.\Generated_Source\PSoC4/BootISR.c **** {
 437              		.loc 1 304 0
ARM GAS  C:\Users\SNFU\AppData\Local\Temp\ccvYqM8h.s 			page 15


 438              		.cfi_startproc
 439              		.loc 1 306 0
 440 0000 014B     		ldr	r3, .L32
 441 0002 0122     		mov	r2, #1
 442 0004 1A60     		str	r2, [r3]
 307:.\Generated_Source\PSoC4/BootISR.c **** }
 443              		.loc 1 307 0
 444              		@ sp needed for prologue
 445 0006 7047     		bx	lr
 446              	.L33:
 447              		.align	2
 448              	.L32:
 449 0008 80E100E0 		.word	-536813184
 450              		.cfi_endproc
 451              	.LFE43:
 452              		.size	BootISR_Disable, .-BootISR_Disable
 453              		.section	.text.BootISR_SetPending,"ax",%progbits
 454              		.align	1
 455              		.global	BootISR_SetPending
 456              		.code	16
 457              		.thumb_func
 458              		.type	BootISR_SetPending, %function
 459              	BootISR_SetPending:
 460              	.LFB44:
 308:.\Generated_Source\PSoC4/BootISR.c **** 
 309:.\Generated_Source\PSoC4/BootISR.c **** 
 310:.\Generated_Source\PSoC4/BootISR.c **** /*******************************************************************************
 311:.\Generated_Source\PSoC4/BootISR.c **** * Function Name: BootISR_SetPending
 312:.\Generated_Source\PSoC4/BootISR.c **** ********************************************************************************
 313:.\Generated_Source\PSoC4/BootISR.c **** *
 314:.\Generated_Source\PSoC4/BootISR.c **** * Summary:
 315:.\Generated_Source\PSoC4/BootISR.c **** *   Causes the Interrupt to enter the pending state, a software method of
 316:.\Generated_Source\PSoC4/BootISR.c **** *   generating the interrupt.
 317:.\Generated_Source\PSoC4/BootISR.c **** *
 318:.\Generated_Source\PSoC4/BootISR.c **** * Parameters:
 319:.\Generated_Source\PSoC4/BootISR.c **** *   None
 320:.\Generated_Source\PSoC4/BootISR.c **** *
 321:.\Generated_Source\PSoC4/BootISR.c **** * Return:
 322:.\Generated_Source\PSoC4/BootISR.c **** *   None
 323:.\Generated_Source\PSoC4/BootISR.c **** *
 324:.\Generated_Source\PSoC4/BootISR.c **** *******************************************************************************/
 325:.\Generated_Source\PSoC4/BootISR.c **** void BootISR_SetPending(void)
 326:.\Generated_Source\PSoC4/BootISR.c **** {
 461              		.loc 1 326 0
 462              		.cfi_startproc
 327:.\Generated_Source\PSoC4/BootISR.c ****     *BootISR_INTC_SET_PD = BootISR__INTC_MASK;
 463              		.loc 1 327 0
 464 0000 014B     		ldr	r3, .L35
 465 0002 0122     		mov	r2, #1
 466 0004 1A60     		str	r2, [r3]
 328:.\Generated_Source\PSoC4/BootISR.c **** }
 467              		.loc 1 328 0
 468              		@ sp needed for prologue
 469 0006 7047     		bx	lr
 470              	.L36:
 471              		.align	2
 472              	.L35:
ARM GAS  C:\Users\SNFU\AppData\Local\Temp\ccvYqM8h.s 			page 16


 473 0008 00E200E0 		.word	-536813056
 474              		.cfi_endproc
 475              	.LFE44:
 476              		.size	BootISR_SetPending, .-BootISR_SetPending
 477              		.section	.text.BootISR_ClearPending,"ax",%progbits
 478              		.align	1
 479              		.global	BootISR_ClearPending
 480              		.code	16
 481              		.thumb_func
 482              		.type	BootISR_ClearPending, %function
 483              	BootISR_ClearPending:
 484              	.LFB45:
 329:.\Generated_Source\PSoC4/BootISR.c **** 
 330:.\Generated_Source\PSoC4/BootISR.c **** 
 331:.\Generated_Source\PSoC4/BootISR.c **** /*******************************************************************************
 332:.\Generated_Source\PSoC4/BootISR.c **** * Function Name: BootISR_ClearPending
 333:.\Generated_Source\PSoC4/BootISR.c **** ********************************************************************************
 334:.\Generated_Source\PSoC4/BootISR.c **** *
 335:.\Generated_Source\PSoC4/BootISR.c **** * Summary:
 336:.\Generated_Source\PSoC4/BootISR.c **** *   Clears a pending interrupt.
 337:.\Generated_Source\PSoC4/BootISR.c **** *
 338:.\Generated_Source\PSoC4/BootISR.c **** * Parameters:
 339:.\Generated_Source\PSoC4/BootISR.c **** *   None
 340:.\Generated_Source\PSoC4/BootISR.c **** *
 341:.\Generated_Source\PSoC4/BootISR.c **** * Return:
 342:.\Generated_Source\PSoC4/BootISR.c **** *   None
 343:.\Generated_Source\PSoC4/BootISR.c **** *
 344:.\Generated_Source\PSoC4/BootISR.c **** *******************************************************************************/
 345:.\Generated_Source\PSoC4/BootISR.c **** void BootISR_ClearPending(void)
 346:.\Generated_Source\PSoC4/BootISR.c **** {
 485              		.loc 1 346 0
 486              		.cfi_startproc
 347:.\Generated_Source\PSoC4/BootISR.c ****     *BootISR_INTC_CLR_PD = BootISR__INTC_MASK;
 487              		.loc 1 347 0
 488 0000 014B     		ldr	r3, .L38
 489 0002 0122     		mov	r2, #1
 490 0004 1A60     		str	r2, [r3]
 348:.\Generated_Source\PSoC4/BootISR.c **** }
 491              		.loc 1 348 0
 492              		@ sp needed for prologue
 493 0006 7047     		bx	lr
 494              	.L39:
 495              		.align	2
 496              	.L38:
 497 0008 80E200E0 		.word	-536812928
 498              		.cfi_endproc
 499              	.LFE45:
 500              		.size	BootISR_ClearPending, .-BootISR_ClearPending
 501              		.section	.rodata.str1.1,"aMS",%progbits,1
 502              	.LC0:
 503 0000 426F6F74 		.ascii	"Boot\015\012\000"
 503      0D0A00
 504              		.text
 505              	.Letext0:
 506              		.file 2 "./Generated_Source/PSoC4/cytypes.h"
 507              		.file 3 "./Generated_Source/PSoC4/UART_1_SPI_UART.h"
 508              		.file 4 "./Generated_Source/PSoC4/CyLib.h"
ARM GAS  C:\Users\SNFU\AppData\Local\Temp\ccvYqM8h.s 			page 17


 509              		.file 5 "./Generated_Source/PSoC4/Bootloadable_1.h"
 510              		.file 6 "./Generated_Source/PSoC4/SW1.h"