ARM GAS  C:\Users\SNFU\AppData\Local\Temp\ccVpBU2i.s 			page 1


   1              		.cpu cortex-m0
   2              		.fpu softvfp
   3              		.eabi_attribute 20, 1
   4              		.eabi_attribute 21, 1
   5              		.eabi_attribute 23, 3
   6              		.eabi_attribute 24, 1
   7              		.eabi_attribute 25, 1
   8              		.eabi_attribute 26, 1
   9              		.eabi_attribute 30, 4
  10              		.eabi_attribute 34, 0
  11              		.eabi_attribute 18, 4
  12              		.code	16
  13              		.file	"Bootloadable_1.c"
  14              		.text
  15              	.Ltext0:
  16              		.cfi_sections	.debug_frame
  17              		.section	.text.Bootloadable_1_Load,"ax",%progbits
  18              		.align	1
  19              		.global	Bootloadable_1_Load
  20              		.code	16
  21              		.thumb_func
  22              		.type	Bootloadable_1_Load, %function
  23              	Bootloadable_1_Load:
  24              	.LFB0:
  25              		.file 1 ".\\Generated_Source\\PSoC4\\Bootloadable_1.c"
   1:.\Generated_Source\PSoC4/Bootloadable_1.c **** /*******************************************************************************
   2:.\Generated_Source\PSoC4/Bootloadable_1.c **** * File Name: Bootloadable_1.c
   3:.\Generated_Source\PSoC4/Bootloadable_1.c **** * Version 1.20
   4:.\Generated_Source\PSoC4/Bootloadable_1.c **** *
   5:.\Generated_Source\PSoC4/Bootloadable_1.c **** *  Description:
   6:.\Generated_Source\PSoC4/Bootloadable_1.c **** *   Provides an API for the Bootloadable application. The API includes a
   7:.\Generated_Source\PSoC4/Bootloadable_1.c **** *   single function for starting bootloader.
   8:.\Generated_Source\PSoC4/Bootloadable_1.c **** *
   9:.\Generated_Source\PSoC4/Bootloadable_1.c **** ********************************************************************************
  10:.\Generated_Source\PSoC4/Bootloadable_1.c **** * Copyright 2008-2013, Cypress Semiconductor Corporation.  All rights reserved.
  11:.\Generated_Source\PSoC4/Bootloadable_1.c **** * You may use this file only in accordance with the license, terms, conditions,
  12:.\Generated_Source\PSoC4/Bootloadable_1.c **** * disclaimers, and limitations in the end user license agreement accompanying
  13:.\Generated_Source\PSoC4/Bootloadable_1.c **** * the software package with which this file was provided.
  14:.\Generated_Source\PSoC4/Bootloadable_1.c **** *******************************************************************************/
  15:.\Generated_Source\PSoC4/Bootloadable_1.c **** 
  16:.\Generated_Source\PSoC4/Bootloadable_1.c **** #include "Bootloadable_1.h"
  17:.\Generated_Source\PSoC4/Bootloadable_1.c **** 
  18:.\Generated_Source\PSoC4/Bootloadable_1.c **** 
  19:.\Generated_Source\PSoC4/Bootloadable_1.c **** /*******************************************************************************
  20:.\Generated_Source\PSoC4/Bootloadable_1.c **** * Function Name: Bootloadable_1_Load
  21:.\Generated_Source\PSoC4/Bootloadable_1.c **** ********************************************************************************
  22:.\Generated_Source\PSoC4/Bootloadable_1.c **** * Summary:
  23:.\Generated_Source\PSoC4/Bootloadable_1.c **** *  Begins the bootloading algorithm, downloading a new ACD image from the host.
  24:.\Generated_Source\PSoC4/Bootloadable_1.c **** *
  25:.\Generated_Source\PSoC4/Bootloadable_1.c **** * Parameters:
  26:.\Generated_Source\PSoC4/Bootloadable_1.c **** *  None
  27:.\Generated_Source\PSoC4/Bootloadable_1.c **** *
  28:.\Generated_Source\PSoC4/Bootloadable_1.c **** * Returns:
  29:.\Generated_Source\PSoC4/Bootloadable_1.c **** *  This method will never return. It will load a new application and reset
  30:.\Generated_Source\PSoC4/Bootloadable_1.c **** *  the device.
  31:.\Generated_Source\PSoC4/Bootloadable_1.c **** *
  32:.\Generated_Source\PSoC4/Bootloadable_1.c **** *******************************************************************************/
ARM GAS  C:\Users\SNFU\AppData\Local\Temp\ccVpBU2i.s 			page 2


  33:.\Generated_Source\PSoC4/Bootloadable_1.c **** void Bootloadable_1_Load(void) 
  34:.\Generated_Source\PSoC4/Bootloadable_1.c **** {
  26              		.loc 1 34 0
  27              		.cfi_startproc
  28 0000 08B5     		push	{r3, lr}
  29              	.LCFI0:
  30              		.cfi_def_cfa_offset 8
  31              		.cfi_offset 3, -8
  32              		.cfi_offset 14, -4
  35:.\Generated_Source\PSoC4/Bootloadable_1.c ****     /* Schedule Bootloader to start after reset */
  36:.\Generated_Source\PSoC4/Bootloadable_1.c ****     Bootloadable_1_SET_RUN_TYPE(Bootloadable_1_START_BTLDR);
  33              		.loc 1 36 0
  34 0002 034B     		ldr	r3, .L2
  35 0004 4022     		mov	r2, #64
  36 0006 1A60     		str	r2, [r3]
  37:.\Generated_Source\PSoC4/Bootloadable_1.c **** 
  38:.\Generated_Source\PSoC4/Bootloadable_1.c ****     CySoftwareReset();
  39:.\Generated_Source\PSoC4/Bootloadable_1.c **** }
  37              		.loc 1 39 0
  38              		@ sp needed for prologue
  38:.\Generated_Source\PSoC4/Bootloadable_1.c ****     CySoftwareReset();
  39              		.loc 1 38 0
  40 0008 FFF7FEFF 		bl	CySoftwareReset
  41              	.LVL0:
  42              		.loc 1 39 0
  43 000c 08BD     		pop	{r3, pc}
  44              	.L3:
  45 000e C046     		.align	2
  46              	.L2:
  47 0010 00000000 		.word	cyBtldrRunType
  48              		.cfi_endproc
  49              	.LFE0:
  50              		.size	Bootloadable_1_Load, .-Bootloadable_1_Load
  51              		.section	.text.Bootloadable_1_SetFlashByte,"ax",%progbits
  52              		.align	1
  53              		.global	Bootloadable_1_SetFlashByte
  54              		.code	16
  55              		.thumb_func
  56              		.type	Bootloadable_1_SetFlashByte, %function
  57              	Bootloadable_1_SetFlashByte:
  58              	.LFB1:
  40:.\Generated_Source\PSoC4/Bootloadable_1.c **** 
  41:.\Generated_Source\PSoC4/Bootloadable_1.c **** 
  42:.\Generated_Source\PSoC4/Bootloadable_1.c **** /*******************************************************************************
  43:.\Generated_Source\PSoC4/Bootloadable_1.c **** * Function Name: Bootloadable_1_SetFlashByte
  44:.\Generated_Source\PSoC4/Bootloadable_1.c **** ********************************************************************************
  45:.\Generated_Source\PSoC4/Bootloadable_1.c **** * Summary:
  46:.\Generated_Source\PSoC4/Bootloadable_1.c **** *  Sets byte at specified address in Flash.
  47:.\Generated_Source\PSoC4/Bootloadable_1.c **** *
  48:.\Generated_Source\PSoC4/Bootloadable_1.c **** * Parameters:
  49:.\Generated_Source\PSoC4/Bootloadable_1.c **** *  None
  50:.\Generated_Source\PSoC4/Bootloadable_1.c **** *
  51:.\Generated_Source\PSoC4/Bootloadable_1.c **** * Returns:
  52:.\Generated_Source\PSoC4/Bootloadable_1.c **** *  None
  53:.\Generated_Source\PSoC4/Bootloadable_1.c **** *
  54:.\Generated_Source\PSoC4/Bootloadable_1.c **** *******************************************************************************/
  55:.\Generated_Source\PSoC4/Bootloadable_1.c **** void Bootloadable_1_SetFlashByte(uint32 address, uint8 runType) 
ARM GAS  C:\Users\SNFU\AppData\Local\Temp\ccVpBU2i.s 			page 3


  56:.\Generated_Source\PSoC4/Bootloadable_1.c **** {
  59              		.loc 1 56 0
  60              		.cfi_startproc
  61              	.LVL1:
  62 0000 70B5     		push	{r4, r5, r6, lr}
  63              	.LCFI1:
  64              		.cfi_def_cfa_offset 16
  65              		.cfi_offset 4, -16
  66              		.cfi_offset 5, -12
  67              		.cfi_offset 6, -8
  68              		.cfi_offset 14, -4
  69 0002 021C     		mov	r2, r0
  57:.\Generated_Source\PSoC4/Bootloadable_1.c ****     uint32 flsAddr = address - CYDEV_FLASH_BASE;
  58:.\Generated_Source\PSoC4/Bootloadable_1.c ****     uint8 rowData[CYDEV_FLS_ROW_SIZE];
  59:.\Generated_Source\PSoC4/Bootloadable_1.c **** 
  60:.\Generated_Source\PSoC4/Bootloadable_1.c ****     #if !(CY_PSOC4)
  61:.\Generated_Source\PSoC4/Bootloadable_1.c ****         uint8 arrayId = (uint8)(flsAddr / CYDEV_FLS_SECTOR_SIZE);
  62:.\Generated_Source\PSoC4/Bootloadable_1.c ****     #endif  /* !(CY_PSOC4) */
  63:.\Generated_Source\PSoC4/Bootloadable_1.c **** 
  64:.\Generated_Source\PSoC4/Bootloadable_1.c ****     uint16 rowNum = (uint16)((flsAddr % CYDEV_FLS_SECTOR_SIZE) / CYDEV_FLS_ROW_SIZE);
  65:.\Generated_Source\PSoC4/Bootloadable_1.c ****     uint32 baseAddr = address - (address % CYDEV_FLS_ROW_SIZE);
  70              		.loc 1 65 0
  71 0004 7F23     		mov	r3, #127
  64:.\Generated_Source\PSoC4/Bootloadable_1.c ****     uint16 rowNum = (uint16)((flsAddr % CYDEV_FLS_SECTOR_SIZE) / CYDEV_FLS_ROW_SIZE);
  72              		.loc 1 64 0
  73 0006 4004     		lsl	r0, r0, #17
  74              	.LVL2:
  75              		.loc 1 65 0
  76 0008 151C     		mov	r5, r2
  77 000a 9D43     		bic	r5, r3
  56:.\Generated_Source\PSoC4/Bootloadable_1.c **** {
  78              		.loc 1 56 0
  79 000c A0B0     		sub	sp, sp, #128
  80              	.LCFI2:
  81              		.cfi_def_cfa_offset 144
  64:.\Generated_Source\PSoC4/Bootloadable_1.c ****     uint16 rowNum = (uint16)((flsAddr % CYDEV_FLS_SECTOR_SIZE) / CYDEV_FLS_ROW_SIZE);
  82              		.loc 1 64 0
  83 000e 000E     		lsr	r0, r0, #24
  84              	.LVL3:
  85              		.loc 1 65 0
  86 0010 0023     		mov	r3, #0
  87              	.LVL4:
  88              	.L5:
  66:.\Generated_Source\PSoC4/Bootloadable_1.c ****     uint16 idx;
  67:.\Generated_Source\PSoC4/Bootloadable_1.c **** 
  68:.\Generated_Source\PSoC4/Bootloadable_1.c **** 
  69:.\Generated_Source\PSoC4/Bootloadable_1.c ****     for (idx = 0u; idx < CYDEV_FLS_ROW_SIZE; idx++)
  70:.\Generated_Source\PSoC4/Bootloadable_1.c ****     {
  71:.\Generated_Source\PSoC4/Bootloadable_1.c ****         rowData[idx] = Bootloadable_1_GET_CODE_DATA(baseAddr + idx);
  89              		.loc 1 71 0 discriminator 2
  90 0012 5C5D     		ldrb	r4, [r3, r5]
  91 0014 6E46     		mov	r6, sp
  92 0016 9C55     		strb	r4, [r3, r6]
  93 0018 0133     		add	r3, r3, #1
  69:.\Generated_Source\PSoC4/Bootloadable_1.c ****     for (idx = 0u; idx < CYDEV_FLS_ROW_SIZE; idx++)
  94              		.loc 1 69 0 discriminator 2
  95 001a 802B     		cmp	r3, #128
ARM GAS  C:\Users\SNFU\AppData\Local\Temp\ccVpBU2i.s 			page 4


  96 001c F9D1     		bne	.L5
  72:.\Generated_Source\PSoC4/Bootloadable_1.c ****     }
  73:.\Generated_Source\PSoC4/Bootloadable_1.c ****     rowData[address % CYDEV_FLS_ROW_SIZE] = runType;
  97              		.loc 1 73 0
  98 001e 7F25     		mov	r5, #127
  99              	.LVL5:
 100 0020 2A40     		and	r2, r5
 101              	.LVL6:
 102 0022 B154     		strb	r1, [r6, r2]
  74:.\Generated_Source\PSoC4/Bootloadable_1.c **** 
  75:.\Generated_Source\PSoC4/Bootloadable_1.c **** 
  76:.\Generated_Source\PSoC4/Bootloadable_1.c ****     #if(CY_PSOC4)
  77:.\Generated_Source\PSoC4/Bootloadable_1.c ****         (void) CySysFlashWriteRow((uint32)rowNum, rowData);
 103              		.loc 1 77 0
 104 0024 6946     		mov	r1, sp
 105              	.LVL7:
 106 0026 FFF7FEFF 		bl	CySysFlashWriteRow
 107              	.LVL8:
  78:.\Generated_Source\PSoC4/Bootloadable_1.c ****     #else
  79:.\Generated_Source\PSoC4/Bootloadable_1.c ****         (void) CyWriteRowData(arrayId, rowNum, rowData);
  80:.\Generated_Source\PSoC4/Bootloadable_1.c ****     #endif  /* (CY_PSOC4) */
  81:.\Generated_Source\PSoC4/Bootloadable_1.c **** }
 108              		.loc 1 81 0
 109 002a 20B0     		add	sp, sp, #128
 110              		@ sp needed for prologue
 111              	.LVL9:
 112 002c 70BD     		pop	{r4, r5, r6, pc}
 113              		.cfi_endproc
 114              	.LFE1:
 115              		.size	Bootloadable_1_SetFlashByte, .-Bootloadable_1_SetFlashByte
 116              		.text
 117              	.Letext0:
 118              		.file 2 ".\\Generated_Source\\PSoC4\\cytypes.h"
 119              		.file 3 ".\\Generated_Source\\PSoC4\\Bootloadable_1.h"
 120              		.file 4 ".\\Generated_Source\\PSoC4\\CyLib.h"
 121              		.file 5 ".\\Generated_Source\\PSoC4\\CyFlash.h"