ARM GAS  C:\Users\SNFU\AppData\Local\Temp\ccdf1KON.s 			page 1


   1              		.cpu cortex-m0
   2              		.fpu softvfp
   3              		.eabi_attribute 20, 1
   4              		.eabi_attribute 21, 1
   5              		.eabi_attribute 23, 3
   6              		.eabi_attribute 24, 1
   7              		.eabi_attribute 25, 1
   8              		.eabi_attribute 26, 1
   9              		.eabi_attribute 30, 4
  10              		.eabi_attribute 34, 0
  11              		.eabi_attribute 18, 4
  12              		.code	16
  13              		.file	"CyFlash.c"
  14              		.text
  15              	.Ltext0:
  16              		.cfi_sections	.debug_frame
  17              		.section	.text.CySysFlashHandleLoadResult,"ax",%progbits
  18              		.align	1
  19              		.code	16
  20              		.thumb_func
  21              		.type	CySysFlashHandleLoadResult, %function
  22              	CySysFlashHandleLoadResult:
  23              	.LFB4:
  24              		.file 1 ".\\Generated_Source\\PSoC4\\CyFlash.c"
   1:.\Generated_Source\PSoC4/CyFlash.c **** /*******************************************************************************
   2:.\Generated_Source\PSoC4/CyFlash.c **** * File Name: CyFlash.c
   3:.\Generated_Source\PSoC4/CyFlash.c **** * Version 4.11
   4:.\Generated_Source\PSoC4/CyFlash.c **** *
   5:.\Generated_Source\PSoC4/CyFlash.c **** *  Description:
   6:.\Generated_Source\PSoC4/CyFlash.c **** *   Provides an API for the FLASH.
   7:.\Generated_Source\PSoC4/CyFlash.c **** *
   8:.\Generated_Source\PSoC4/CyFlash.c **** *  Note:
   9:.\Generated_Source\PSoC4/CyFlash.c **** *   Documentation of the API's in this file is located in the
  10:.\Generated_Source\PSoC4/CyFlash.c **** *   System Reference Guide provided with PSoC Creator.
  11:.\Generated_Source\PSoC4/CyFlash.c **** *
  12:.\Generated_Source\PSoC4/CyFlash.c **** ********************************************************************************
  13:.\Generated_Source\PSoC4/CyFlash.c **** * Copyright 2010-2014, Cypress Semiconductor Corporation. All rights reserved.
  14:.\Generated_Source\PSoC4/CyFlash.c **** * You may use this file only in accordance with the license, terms, conditions,
  15:.\Generated_Source\PSoC4/CyFlash.c **** * disclaimers, and limitations in the end user license agreement accompanying
  16:.\Generated_Source\PSoC4/CyFlash.c **** * the software package with which this file was provided.
  17:.\Generated_Source\PSoC4/CyFlash.c **** *******************************************************************************/
  18:.\Generated_Source\PSoC4/CyFlash.c **** 
  19:.\Generated_Source\PSoC4/CyFlash.c **** #include "CyFlash.h"
  20:.\Generated_Source\PSoC4/CyFlash.c **** #include "cyPm.h"
  21:.\Generated_Source\PSoC4/CyFlash.c **** 
  22:.\Generated_Source\PSoC4/CyFlash.c **** #if ((CYDEV_CHIP_MEMBER_USED == CYDEV_CHIP_MEMBER_4A) || (CYDEV_CHIP_MEMBER_USED == CYDEV_CHIP_MEMB
  23:.\Generated_Source\PSoC4/CyFlash.c ****     #define CYFLASH_CHECKSUM_WORKAROUND     1u
  24:.\Generated_Source\PSoC4/CyFlash.c **** #endif  /* ((CYDEV_CHIP_MEMBER_USED == CYDEV_CHIP_MEMBER_4A) || (CYDEV_CHIP_MEMBER_USED == CYDEV_CH
  25:.\Generated_Source\PSoC4/CyFlash.c **** 
  26:.\Generated_Source\PSoC4/CyFlash.c **** 
  27:.\Generated_Source\PSoC4/CyFlash.c **** #if (CY_PSOC4A)
  28:.\Generated_Source\PSoC4/CyFlash.c **** 
  29:.\Generated_Source\PSoC4/CyFlash.c ****     struct CySysFlashClockState
  30:.\Generated_Source\PSoC4/CyFlash.c ****     {
  31:.\Generated_Source\PSoC4/CyFlash.c ****         uint32   imoConfigReg;
  32:.\Generated_Source\PSoC4/CyFlash.c ****     };
  33:.\Generated_Source\PSoC4/CyFlash.c **** 
ARM GAS  C:\Users\SNFU\AppData\Local\Temp\ccdf1KON.s 			page 2


  34:.\Generated_Source\PSoC4/CyFlash.c **** #else
  35:.\Generated_Source\PSoC4/CyFlash.c **** 
  36:.\Generated_Source\PSoC4/CyFlash.c ****     struct CySysFlashClockState
  37:.\Generated_Source\PSoC4/CyFlash.c ****     {
  38:.\Generated_Source\PSoC4/CyFlash.c ****         uint32 clkSelectReg;
  39:.\Generated_Source\PSoC4/CyFlash.c ****         uint32 clkImoEna;
  40:.\Generated_Source\PSoC4/CyFlash.c ****         uint32 clkImoFreq;
  41:.\Generated_Source\PSoC4/CyFlash.c ****     };
  42:.\Generated_Source\PSoC4/CyFlash.c **** 
  43:.\Generated_Source\PSoC4/CyFlash.c **** #endif  /* (CY_PSOC4A) */
  44:.\Generated_Source\PSoC4/CyFlash.c **** 
  45:.\Generated_Source\PSoC4/CyFlash.c **** 
  46:.\Generated_Source\PSoC4/CyFlash.c **** static uint32 CySysFlashExecSysCall(uint32 cmd, volatile const void *arg);
  47:.\Generated_Source\PSoC4/CyFlash.c **** static uint32 CySysFlashCallProgramRow(uint32 rowNum, uint32 operation);
  48:.\Generated_Source\PSoC4/CyFlash.c **** static uint32 CySysFlashHandleLoadResult(void);
  49:.\Generated_Source\PSoC4/CyFlash.c **** #if (CY_PSOC4A)
  50:.\Generated_Source\PSoC4/CyFlash.c ****     static void CySysFlashSetupClock(struct CySysFlashClockState *saved);
  51:.\Generated_Source\PSoC4/CyFlash.c ****     static void CySysFlashRestoreClock(const struct CySysFlashClockState *saved);
  52:.\Generated_Source\PSoC4/CyFlash.c **** #else
  53:.\Generated_Source\PSoC4/CyFlash.c ****     static void CySysFlashSetupClock(struct CySysFlashClockState *saved);
  54:.\Generated_Source\PSoC4/CyFlash.c ****     static void CySysFlashRestoreClock(const struct CySysFlashClockState *saved);
  55:.\Generated_Source\PSoC4/CyFlash.c **** #endif  /* (CY_PSOC4A) */
  56:.\Generated_Source\PSoC4/CyFlash.c **** 
  57:.\Generated_Source\PSoC4/CyFlash.c **** 
  58:.\Generated_Source\PSoC4/CyFlash.c **** #if (CY_PSOC4A)
  59:.\Generated_Source\PSoC4/CyFlash.c **** 
  60:.\Generated_Source\PSoC4/CyFlash.c ****     /*******************************************************************************
  61:.\Generated_Source\PSoC4/CyFlash.c ****     * Function Name: CySysFlashSetupClock
  62:.\Generated_Source\PSoC4/CyFlash.c ****     ********************************************************************************
  63:.\Generated_Source\PSoC4/CyFlash.c ****     *
  64:.\Generated_Source\PSoC4/CyFlash.c ****     * Summary:
  65:.\Generated_Source\PSoC4/CyFlash.c ****     *  Configures the device clock settings for the flash write.
  66:.\Generated_Source\PSoC4/CyFlash.c ****     *
  67:.\Generated_Source\PSoC4/CyFlash.c ****     * Parameters:
  68:.\Generated_Source\PSoC4/CyFlash.c ****     *  saved:
  69:.\Generated_Source\PSoC4/CyFlash.c ****     *   Pointer to the structure where the data are saved.
  70:.\Generated_Source\PSoC4/CyFlash.c ****     *
  71:.\Generated_Source\PSoC4/CyFlash.c ****     * Return:
  72:.\Generated_Source\PSoC4/CyFlash.c ****     *  None
  73:.\Generated_Source\PSoC4/CyFlash.c ****     *
  74:.\Generated_Source\PSoC4/CyFlash.c ****     *******************************************************************************/
  75:.\Generated_Source\PSoC4/CyFlash.c ****     static void CySysFlashSetupClock(struct CySysFlashClockState *saved)
  76:.\Generated_Source\PSoC4/CyFlash.c ****     {
  77:.\Generated_Source\PSoC4/CyFlash.c ****         /* Preserve IMO configuration that could be changed
  78:.\Generated_Source\PSoC4/CyFlash.c ****         * during syscall execution (Cypress ID #150448).
  79:.\Generated_Source\PSoC4/CyFlash.c ****         */
  80:.\Generated_Source\PSoC4/CyFlash.c ****         saved->imoConfigReg = CY_SYS_CLK_IMO_CONFIG_REG;
  81:.\Generated_Source\PSoC4/CyFlash.c ****     }
  82:.\Generated_Source\PSoC4/CyFlash.c **** 
  83:.\Generated_Source\PSoC4/CyFlash.c **** 
  84:.\Generated_Source\PSoC4/CyFlash.c ****     /*******************************************************************************
  85:.\Generated_Source\PSoC4/CyFlash.c ****     * Function Name: CySysFlashRestoreClock
  86:.\Generated_Source\PSoC4/CyFlash.c ****     ********************************************************************************
  87:.\Generated_Source\PSoC4/CyFlash.c ****     *
  88:.\Generated_Source\PSoC4/CyFlash.c ****     * Summary:
  89:.\Generated_Source\PSoC4/CyFlash.c ****     *  Restores the device clock settings.
  90:.\Generated_Source\PSoC4/CyFlash.c ****     *
ARM GAS  C:\Users\SNFU\AppData\Local\Temp\ccdf1KON.s 			page 3


  91:.\Generated_Source\PSoC4/CyFlash.c ****     * Parameters:
  92:.\Generated_Source\PSoC4/CyFlash.c ****     *  saved:
  93:.\Generated_Source\PSoC4/CyFlash.c ****     *   Pointer to the structure from where the data are saved.
  94:.\Generated_Source\PSoC4/CyFlash.c ****     *
  95:.\Generated_Source\PSoC4/CyFlash.c ****     * Return:
  96:.\Generated_Source\PSoC4/CyFlash.c ****     *  None
  97:.\Generated_Source\PSoC4/CyFlash.c ****     *
  98:.\Generated_Source\PSoC4/CyFlash.c ****     *******************************************************************************/
  99:.\Generated_Source\PSoC4/CyFlash.c ****     static void CySysFlashRestoreClock(const struct CySysFlashClockState *saved)
 100:.\Generated_Source\PSoC4/CyFlash.c ****     {
 101:.\Generated_Source\PSoC4/CyFlash.c ****         CY_SYS_CLK_IMO_CONFIG_REG = saved->imoConfigReg;
 102:.\Generated_Source\PSoC4/CyFlash.c ****     }
 103:.\Generated_Source\PSoC4/CyFlash.c **** 
 104:.\Generated_Source\PSoC4/CyFlash.c **** #else
 105:.\Generated_Source\PSoC4/CyFlash.c **** 
 106:.\Generated_Source\PSoC4/CyFlash.c ****     /*******************************************************************************
 107:.\Generated_Source\PSoC4/CyFlash.c ****     * Function Name: CySysFlashSetupClock
 108:.\Generated_Source\PSoC4/CyFlash.c ****     ********************************************************************************
 109:.\Generated_Source\PSoC4/CyFlash.c ****     *
 110:.\Generated_Source\PSoC4/CyFlash.c ****     * Summary:
 111:.\Generated_Source\PSoC4/CyFlash.c ****     *  Configures the device clock settings for the flash write.
 112:.\Generated_Source\PSoC4/CyFlash.c ****     *
 113:.\Generated_Source\PSoC4/CyFlash.c ****     * Parameters:
 114:.\Generated_Source\PSoC4/CyFlash.c ****     *  saved:
 115:.\Generated_Source\PSoC4/CyFlash.c ****     *   Pointer to the structure where the data are saved.
 116:.\Generated_Source\PSoC4/CyFlash.c ****     *
 117:.\Generated_Source\PSoC4/CyFlash.c ****     * Return:
 118:.\Generated_Source\PSoC4/CyFlash.c ****     *  None
 119:.\Generated_Source\PSoC4/CyFlash.c ****     *
 120:.\Generated_Source\PSoC4/CyFlash.c ****     *******************************************************************************/
 121:.\Generated_Source\PSoC4/CyFlash.c ****     static void CySysFlashSetupClock(struct CySysFlashClockState *saved)
 122:.\Generated_Source\PSoC4/CyFlash.c ****     {
 123:.\Generated_Source\PSoC4/CyFlash.c ****         saved->clkSelectReg = CY_SYS_CLK_SELECT_REG;
 124:.\Generated_Source\PSoC4/CyFlash.c ****         saved->clkImoEna    = CY_SYS_CLK_IMO_CONFIG_REG & CY_SYS_CLK_IMO_CONFIG_ENABLE;
 125:.\Generated_Source\PSoC4/CyFlash.c ****         saved->clkImoFreq   = CY_SYS_CLK_IMO_MIN_FREQ_MHZ + (CY_SYS_CLK_IMO_SELECT_REG << 2);
 126:.\Generated_Source\PSoC4/CyFlash.c **** 
 127:.\Generated_Source\PSoC4/CyFlash.c ****         /* The FM-Lite IP (s8fmlt) uses the IMO at 48MHz for the pump clock and SPC
 128:.\Generated_Source\PSoC4/CyFlash.c ****          * timer clock. The PUMP_SEL and HF clock must be set to IMO before calling
 129:.\Generated_Source\PSoC4/CyFlash.c ****          * Flash write or erase operation.
 130:.\Generated_Source\PSoC4/CyFlash.c ****         */
 131:.\Generated_Source\PSoC4/CyFlash.c ****         if ((saved->clkImoFreq != 48u) ||
 132:.\Generated_Source\PSoC4/CyFlash.c ****             ((saved->clkSelectReg & CY_SYS_CLK_SELECT_DIRECT_SEL_MASK) != CY_SYS_CLK_HFCLK_IMO) ||
 133:.\Generated_Source\PSoC4/CyFlash.c ****             (((saved->clkSelectReg >> CY_SYS_CLK_SELECT_PUMP_SEL_SHIFT) & CY_SYS_CLK_SELECT_PUMP_SE
 134:.\Generated_Source\PSoC4/CyFlash.c ****                 CY_SYS_CLK_SELECT_PUMP_SEL_IMO))
 135:.\Generated_Source\PSoC4/CyFlash.c ****         {
 136:.\Generated_Source\PSoC4/CyFlash.c ****             CySysClkWriteHfclkDiv(CY_SYS_CLK_HFCLK_DIV_4);
 137:.\Generated_Source\PSoC4/CyFlash.c ****             if (saved->clkImoFreq != 48u)
 138:.\Generated_Source\PSoC4/CyFlash.c ****             {
 139:.\Generated_Source\PSoC4/CyFlash.c ****                 CySysClkWriteImoFreq(48u);
 140:.\Generated_Source\PSoC4/CyFlash.c ****             }
 141:.\Generated_Source\PSoC4/CyFlash.c ****             CySysClkImoStart();
 142:.\Generated_Source\PSoC4/CyFlash.c ****             CySysClkWriteHfclkDirect(CY_SYS_CLK_HFCLK_IMO);
 143:.\Generated_Source\PSoC4/CyFlash.c ****             /* Set IMO output as clock source for charge pump clock */
 144:.\Generated_Source\PSoC4/CyFlash.c ****             CY_SYS_CLK_SELECT_REG &=
 145:.\Generated_Source\PSoC4/CyFlash.c ****                 ((uint32)~(uint32)(CY_SYS_CLK_SELECT_PUMP_SEL_MASK << CY_SYS_CLK_SELECT_PUMP_SEL_SH
 146:.\Generated_Source\PSoC4/CyFlash.c ****             CY_SYS_CLK_SELECT_REG |= (uint32)((uint32)1u << CY_SYS_CLK_SELECT_PUMP_SEL_SHIFT);
 147:.\Generated_Source\PSoC4/CyFlash.c ****         }
ARM GAS  C:\Users\SNFU\AppData\Local\Temp\ccdf1KON.s 			page 4


 148:.\Generated_Source\PSoC4/CyFlash.c ****     }
 149:.\Generated_Source\PSoC4/CyFlash.c **** 
 150:.\Generated_Source\PSoC4/CyFlash.c **** 
 151:.\Generated_Source\PSoC4/CyFlash.c ****     /*******************************************************************************
 152:.\Generated_Source\PSoC4/CyFlash.c ****     * Function Name: CySysFlashRestoreClock
 153:.\Generated_Source\PSoC4/CyFlash.c ****     ********************************************************************************
 154:.\Generated_Source\PSoC4/CyFlash.c ****     *
 155:.\Generated_Source\PSoC4/CyFlash.c ****     * Summary:
 156:.\Generated_Source\PSoC4/CyFlash.c ****     *  Restores the device clock settings.
 157:.\Generated_Source\PSoC4/CyFlash.c ****     *
 158:.\Generated_Source\PSoC4/CyFlash.c ****     * Parameters:
 159:.\Generated_Source\PSoC4/CyFlash.c ****     *  saved:
 160:.\Generated_Source\PSoC4/CyFlash.c ****     *   Pointer to the structure from where the data are saved.
 161:.\Generated_Source\PSoC4/CyFlash.c ****     *
 162:.\Generated_Source\PSoC4/CyFlash.c ****     * Return:
 163:.\Generated_Source\PSoC4/CyFlash.c ****     *  None
 164:.\Generated_Source\PSoC4/CyFlash.c ****     *
 165:.\Generated_Source\PSoC4/CyFlash.c ****     *******************************************************************************/
 166:.\Generated_Source\PSoC4/CyFlash.c ****     static void CySysFlashRestoreClock(const struct CySysFlashClockState *saved)
 167:.\Generated_Source\PSoC4/CyFlash.c ****     {
 168:.\Generated_Source\PSoC4/CyFlash.c ****         if ((saved->clkImoFreq != 48u) ||
 169:.\Generated_Source\PSoC4/CyFlash.c ****             ((saved->clkSelectReg & CY_SYS_CLK_SELECT_DIRECT_SEL_MASK) != CY_SYS_CLK_HFCLK_IMO) ||
 170:.\Generated_Source\PSoC4/CyFlash.c ****             (((saved->clkSelectReg >> CY_SYS_CLK_SELECT_PUMP_SEL_SHIFT) & CY_SYS_CLK_SELECT_PUMP_SE
 171:.\Generated_Source\PSoC4/CyFlash.c ****                 CY_SYS_CLK_SELECT_PUMP_SEL_IMO))
 172:.\Generated_Source\PSoC4/CyFlash.c ****         {
 173:.\Generated_Source\PSoC4/CyFlash.c ****             if (saved->clkImoFreq != 48u)
 174:.\Generated_Source\PSoC4/CyFlash.c ****             {
 175:.\Generated_Source\PSoC4/CyFlash.c ****                 CySysClkWriteImoFreq(saved->clkImoFreq);
 176:.\Generated_Source\PSoC4/CyFlash.c ****             }
 177:.\Generated_Source\PSoC4/CyFlash.c ****             CySysClkWriteHfclkDiv(CY_SYS_CLK_HFCLK_DIV_8);
 178:.\Generated_Source\PSoC4/CyFlash.c ****             CySysClkWriteHfclkDirect(saved->clkSelectReg & CY_SYS_CLK_SELECT_DIRECT_SEL_MASK);
 179:.\Generated_Source\PSoC4/CyFlash.c ****             CY_SYS_CLK_SELECT_REG = saved->clkSelectReg;
 180:.\Generated_Source\PSoC4/CyFlash.c ****             if (0u == saved->clkImoEna)
 181:.\Generated_Source\PSoC4/CyFlash.c ****             {
 182:.\Generated_Source\PSoC4/CyFlash.c ****                 CySysClkImoStop();
 183:.\Generated_Source\PSoC4/CyFlash.c ****             }
 184:.\Generated_Source\PSoC4/CyFlash.c ****         }
 185:.\Generated_Source\PSoC4/CyFlash.c ****     }
 186:.\Generated_Source\PSoC4/CyFlash.c **** 
 187:.\Generated_Source\PSoC4/CyFlash.c **** #endif  /* (CY_PSOC4A) */
 188:.\Generated_Source\PSoC4/CyFlash.c **** 
 189:.\Generated_Source\PSoC4/CyFlash.c **** 
 190:.\Generated_Source\PSoC4/CyFlash.c **** /*******************************************************************************
 191:.\Generated_Source\PSoC4/CyFlash.c **** * Function Name: CySysFlashExecSysCall
 192:.\Generated_Source\PSoC4/CyFlash.c **** ********************************************************************************
 193:.\Generated_Source\PSoC4/CyFlash.c **** *
 194:.\Generated_Source\PSoC4/CyFlash.c **** * Summary:
 195:.\Generated_Source\PSoC4/CyFlash.c **** *  Executes specified system call command.
 196:.\Generated_Source\PSoC4/CyFlash.c **** *
 197:.\Generated_Source\PSoC4/CyFlash.c **** * Parameters:
 198:.\Generated_Source\PSoC4/CyFlash.c **** *  uint32 cmd:
 199:.\Generated_Source\PSoC4/CyFlash.c **** *   CY_FLASH_SILICON_ID_OPCODE - This returns a 12 bit Family ID, 16 bit
 200:.\Generated_Source\PSoC4/CyFlash.c **** *                                 Silicon ID and 8 bit Revision ID.
 201:.\Generated_Source\PSoC4/CyFlash.c **** *
 202:.\Generated_Source\PSoC4/CyFlash.c **** *   CY_FLASH_LOAD_BYTE_OPCODE  - Loads data to the page latch buffer to be
 203:.\Generated_Source\PSoC4/CyFlash.c **** *                                programmed into the FLASH.
 204:.\Generated_Source\PSoC4/CyFlash.c **** *
ARM GAS  C:\Users\SNFU\AppData\Local\Temp\ccdf1KON.s 			page 5


 205:.\Generated_Source\PSoC4/CyFlash.c **** *  volatile void *arg:
 206:.\Generated_Source\PSoC4/CyFlash.c **** *   Parameters of the command specified by the cmd parameter.
 207:.\Generated_Source\PSoC4/CyFlash.c **** *
 208:.\Generated_Source\PSoC4/CyFlash.c **** * Return:
 209:.\Generated_Source\PSoC4/CyFlash.c **** *  Result of the system call execution.
 210:.\Generated_Source\PSoC4/CyFlash.c **** *
 211:.\Generated_Source\PSoC4/CyFlash.c **** *******************************************************************************/
 212:.\Generated_Source\PSoC4/CyFlash.c **** static uint32 CySysFlashExecSysCall(uint32 cmd, volatile const void *arg)
 213:.\Generated_Source\PSoC4/CyFlash.c **** {
 214:.\Generated_Source\PSoC4/CyFlash.c ****     CY_FLASH_CPUSS_SYSARG_REG = (uint32)arg;
 215:.\Generated_Source\PSoC4/CyFlash.c ****     CY_FLASH_CPUSS_SYSREQ_REG = cmd | CY_FLASH_CPUSS_REQ_START;
 216:.\Generated_Source\PSoC4/CyFlash.c ****     while ((CY_FLASH_CPUSS_SYSREQ_REG & CY_FLASH_CPUSS_REQ_START) != 0u)
 217:.\Generated_Source\PSoC4/CyFlash.c ****     {
 218:.\Generated_Source\PSoC4/CyFlash.c ****         /* Wait for command to be executed */
 219:.\Generated_Source\PSoC4/CyFlash.c ****     }
 220:.\Generated_Source\PSoC4/CyFlash.c ****     return CY_FLASH_CPUSS_SYSARG_REG;
 221:.\Generated_Source\PSoC4/CyFlash.c **** }
 222:.\Generated_Source\PSoC4/CyFlash.c **** 
 223:.\Generated_Source\PSoC4/CyFlash.c **** 
 224:.\Generated_Source\PSoC4/CyFlash.c **** /*******************************************************************************
 225:.\Generated_Source\PSoC4/CyFlash.c **** * Function Name: CySysFlashCallProgramRow
 226:.\Generated_Source\PSoC4/CyFlash.c **** ********************************************************************************
 227:.\Generated_Source\PSoC4/CyFlash.c **** *
 228:.\Generated_Source\PSoC4/CyFlash.c **** * Summary:
 229:.\Generated_Source\PSoC4/CyFlash.c **** *  Executes the Program Row command.
 230:.\Generated_Source\PSoC4/CyFlash.c **** *
 231:.\Generated_Source\PSoC4/CyFlash.c **** * Parameters:
 232:.\Generated_Source\PSoC4/CyFlash.c **** *  uint32 rowNum:
 233:.\Generated_Source\PSoC4/CyFlash.c **** *   Flash row number.
 234:.\Generated_Source\PSoC4/CyFlash.c **** *
 235:.\Generated_Source\PSoC4/CyFlash.c **** *  uint32 operation:
 236:.\Generated_Source\PSoC4/CyFlash.c **** *    Operation to be executed:
 237:.\Generated_Source\PSoC4/CyFlash.c **** *    CY_FLASH_WRITE_ROW_OPCODE - Write row: erase and program flash row.
 238:.\Generated_Source\PSoC4/CyFlash.c **** *    CY_FLASH_PROGRAM_ROW_OPCODE - Program flash row.
 239:.\Generated_Source\PSoC4/CyFlash.c **** *
 240:.\Generated_Source\PSoC4/CyFlash.c **** *
 241:.\Generated_Source\PSoC4/CyFlash.c **** * Return:
 242:.\Generated_Source\PSoC4/CyFlash.c **** *  Status of the last executed command.
 243:.\Generated_Source\PSoC4/CyFlash.c **** *
 244:.\Generated_Source\PSoC4/CyFlash.c **** *******************************************************************************/
 245:.\Generated_Source\PSoC4/CyFlash.c **** static uint32 CySysFlashCallProgramRow(uint32 rowNum, uint32 operation)
 246:.\Generated_Source\PSoC4/CyFlash.c **** {
 247:.\Generated_Source\PSoC4/CyFlash.c ****     volatile struct
 248:.\Generated_Source\PSoC4/CyFlash.c ****     {
 249:.\Generated_Source\PSoC4/CyFlash.c ****         uint8 key1;
 250:.\Generated_Source\PSoC4/CyFlash.c ****         uint8 key2;
 251:.\Generated_Source\PSoC4/CyFlash.c ****         uint16 row;
 252:.\Generated_Source\PSoC4/CyFlash.c ****     } args;
 253:.\Generated_Source\PSoC4/CyFlash.c **** 
 254:.\Generated_Source\PSoC4/CyFlash.c ****     args.key1 = (uint8)CY_FLASH_SROM_KEY1;
 255:.\Generated_Source\PSoC4/CyFlash.c ****     args.key2 = (uint8)(CY_FLASH_SROM_KEY2 + operation);
 256:.\Generated_Source\PSoC4/CyFlash.c ****     args.row = (uint16) rowNum;
 257:.\Generated_Source\PSoC4/CyFlash.c **** 
 258:.\Generated_Source\PSoC4/CyFlash.c ****     return CySysFlashExecSysCall(operation, &args);
 259:.\Generated_Source\PSoC4/CyFlash.c **** }
 260:.\Generated_Source\PSoC4/CyFlash.c **** 
 261:.\Generated_Source\PSoC4/CyFlash.c **** 
ARM GAS  C:\Users\SNFU\AppData\Local\Temp\ccdf1KON.s 			page 6


 262:.\Generated_Source\PSoC4/CyFlash.c **** /*******************************************************************************
 263:.\Generated_Source\PSoC4/CyFlash.c **** * Function Name: CySysFlashHandleLoadResult
 264:.\Generated_Source\PSoC4/CyFlash.c **** ********************************************************************************
 265:.\Generated_Source\PSoC4/CyFlash.c **** *
 266:.\Generated_Source\PSoC4/CyFlash.c **** * Summary:
 267:.\Generated_Source\PSoC4/CyFlash.c **** *  Returns the status of the last executed command.
 268:.\Generated_Source\PSoC4/CyFlash.c **** *
 269:.\Generated_Source\PSoC4/CyFlash.c **** * Parameters:
 270:.\Generated_Source\PSoC4/CyFlash.c **** *  None
 271:.\Generated_Source\PSoC4/CyFlash.c **** *
 272:.\Generated_Source\PSoC4/CyFlash.c **** * Return:
 273:.\Generated_Source\PSoC4/CyFlash.c **** *  Status of the last executed command.
 274:.\Generated_Source\PSoC4/CyFlash.c **** *
 275:.\Generated_Source\PSoC4/CyFlash.c **** *******************************************************************************/
 276:.\Generated_Source\PSoC4/CyFlash.c **** static uint32 CySysFlashHandleLoadResult(void)
 277:.\Generated_Source\PSoC4/CyFlash.c **** {
  25              		.loc 1 277 0
  26              		.cfi_startproc
 278:.\Generated_Source\PSoC4/CyFlash.c ****     uint32 value = CY_FLASH_CPUSS_SYSARG_REG;
  27              		.loc 1 278 0
  28 0000 094A     		ldr	r2, .L10
 277:.\Generated_Source\PSoC4/CyFlash.c **** {
  29              		.loc 1 277 0
  30 0002 10B5     		push	{r4, lr}
  31              	.LCFI0:
  32              		.cfi_def_cfa_offset 8
  33              		.cfi_offset 4, -8
  34              		.cfi_offset 14, -4
  35              		.loc 1 278 0
  36 0004 1368     		ldr	r3, [r2]
  37              	.LVL0:
 279:.\Generated_Source\PSoC4/CyFlash.c ****     uint32 retValue = CYRET_SUCCESS;
  38              		.loc 1 279 0
  39 0006 0020     		mov	r0, #0
  40 0008 141C     		mov	r4, r2
  41              	.LVL1:
  42              	.L2:
 280:.\Generated_Source\PSoC4/CyFlash.c **** 
 281:.\Generated_Source\PSoC4/CyFlash.c ****     /* Check if value is written to SRAM_BASE */
 282:.\Generated_Source\PSoC4/CyFlash.c ****     while (((value & CY_FLASH_SROM_CMD_RETURN_MASK) != CY_FLASH_SROM_CMD_RETURN_SUCC) && (retValue 
  43              		.loc 1 282 0 discriminator 1
  44 000a 1A0F     		lsr	r2, r3, #28
  45 000c 1107     		lsl	r1, r2, #28
  46 000e 0A2A     		cmp	r2, #10
  47 0010 08D0     		beq	.L8
  48              		.loc 1 282 0 is_stmt 0 discriminator 2
  49 0012 0028     		cmp	r0, #0
  50 0014 06D1     		bne	.L8
  51              	.L5:
 283:.\Generated_Source\PSoC4/CyFlash.c ****     {
 284:.\Generated_Source\PSoC4/CyFlash.c ****         if ((value & CY_FLASH_SROM_CMD_RETURN_MASK) == CY_FLASH_SROM_CMD_RETURN_MASK)
  52              		.loc 1 284 0 is_stmt 1
  53 0016 F022     		mov	r2, #240
  54 0018 1206     		lsl	r2, r2, #24
  55 001a 9142     		cmp	r1, r2
  56 001c 00D1     		bne	.L3
 285:.\Generated_Source\PSoC4/CyFlash.c ****         {
ARM GAS  C:\Users\SNFU\AppData\Local\Temp\ccdf1KON.s 			page 7


 286:.\Generated_Source\PSoC4/CyFlash.c ****             retValue = value;   /* Error value */
  57              		.loc 1 286 0
  58 001e 181C     		mov	r0, r3
  59              	.LVL2:
  60              	.L3:
 287:.\Generated_Source\PSoC4/CyFlash.c ****         }
 288:.\Generated_Source\PSoC4/CyFlash.c ****         value = CY_FLASH_CPUSS_SYSARG_REG;
  61              		.loc 1 288 0
  62 0020 2368     		ldr	r3, [r4]
  63              	.LVL3:
  64 0022 F2E7     		b	.L2
  65              	.L8:
 289:.\Generated_Source\PSoC4/CyFlash.c ****     }
 290:.\Generated_Source\PSoC4/CyFlash.c ****     return retValue;
 291:.\Generated_Source\PSoC4/CyFlash.c **** }
  66              		.loc 1 291 0
  67              		@ sp needed for prologue
  68 0024 10BD     		pop	{r4, pc}
  69              	.L11:
  70 0026 C046     		.align	2
  71              	.L10:
  72 0028 08000040 		.word	1073741832
  73              		.cfi_endproc
  74              	.LFE4:
  75              		.size	CySysFlashHandleLoadResult, .-CySysFlashHandleLoadResult
  76              		.section	.text.CySysFlashWriteRow,"ax",%progbits
  77              		.align	1
  78              		.global	CySysFlashWriteRow
  79              		.code	16
  80              		.thumb_func
  81              		.type	CySysFlashWriteRow, %function
  82              	CySysFlashWriteRow:
  83              	.LFB5:
 292:.\Generated_Source\PSoC4/CyFlash.c **** 
 293:.\Generated_Source\PSoC4/CyFlash.c **** 
 294:.\Generated_Source\PSoC4/CyFlash.c **** /*******************************************************************************
 295:.\Generated_Source\PSoC4/CyFlash.c **** * Function Name: CySysFlashWriteRow
 296:.\Generated_Source\PSoC4/CyFlash.c **** ********************************************************************************
 297:.\Generated_Source\PSoC4/CyFlash.c **** *
 298:.\Generated_Source\PSoC4/CyFlash.c **** * Summary:
 299:.\Generated_Source\PSoC4/CyFlash.c **** *  Writes a row of Flash.
 300:.\Generated_Source\PSoC4/CyFlash.c **** *
 301:.\Generated_Source\PSoC4/CyFlash.c **** * Parameters:
 302:.\Generated_Source\PSoC4/CyFlash.c **** *  uint16 rowNum:
 303:.\Generated_Source\PSoC4/CyFlash.c **** *   Row number. Each row is 128 bytes so a 32KB flash memory will have a valid
 304:.\Generated_Source\PSoC4/CyFlash.c **** *   range of [0-255].
 305:.\Generated_Source\PSoC4/CyFlash.c **** *
 306:.\Generated_Source\PSoC4/CyFlash.c **** *  uint8* rowData:
 307:.\Generated_Source\PSoC4/CyFlash.c **** *   Array of bytes to write.
 308:.\Generated_Source\PSoC4/CyFlash.c **** *
 309:.\Generated_Source\PSoC4/CyFlash.c **** * Return:
 310:.\Generated_Source\PSoC4/CyFlash.c **** *  Status
 311:.\Generated_Source\PSoC4/CyFlash.c **** *     Value             Description
 312:.\Generated_Source\PSoC4/CyFlash.c **** *    CYRET_SUCCESS     Successful
 313:.\Generated_Source\PSoC4/CyFlash.c **** *    CYRET_LOCKED      Flash writing already in use
 314:.\Generated_Source\PSoC4/CyFlash.c **** *    CYRET_CANCELED    Command not accepted
 315:.\Generated_Source\PSoC4/CyFlash.c **** *    CYRET_BAD_PARAM   One or more invalid parameters
ARM GAS  C:\Users\SNFU\AppData\Local\Temp\ccdf1KON.s 			page 8


 316:.\Generated_Source\PSoC4/CyFlash.c **** *    Other non-zero    Failure
 317:.\Generated_Source\PSoC4/CyFlash.c **** *
 318:.\Generated_Source\PSoC4/CyFlash.c **** *******************************************************************************/
 319:.\Generated_Source\PSoC4/CyFlash.c **** cystatus CySysFlashWriteRow(uint32 rowNum, const uint8 rowData[])
 320:.\Generated_Source\PSoC4/CyFlash.c **** {
  84              		.loc 1 320 0
  85              		.cfi_startproc
  86              	.LVL4:
  87 0000 F0B5     		push	{r4, r5, r6, r7, lr}
  88              	.LCFI1:
  89              		.cfi_def_cfa_offset 20
  90              		.cfi_offset 4, -20
  91              		.cfi_offset 5, -16
  92              		.cfi_offset 6, -12
  93              		.cfi_offset 7, -8
  94              		.cfi_offset 14, -4
  95 0002 071C     		mov	r7, r0
  96 0004 ABB0     		sub	sp, sp, #172
  97              	.LCFI2:
  98              		.cfi_def_cfa_offset 192
 321:.\Generated_Source\PSoC4/CyFlash.c ****     cystatus retValue = CYRET_SUCCESS;
 322:.\Generated_Source\PSoC4/CyFlash.c ****     uint32 statusCode;
 323:.\Generated_Source\PSoC4/CyFlash.c ****     uint8 interruptState;
 324:.\Generated_Source\PSoC4/CyFlash.c ****     struct CySysFlashClockState savedClkCfg;
 325:.\Generated_Source\PSoC4/CyFlash.c ****     volatile struct
 326:.\Generated_Source\PSoC4/CyFlash.c ****     {
 327:.\Generated_Source\PSoC4/CyFlash.c ****         uint8 key1;
 328:.\Generated_Source\PSoC4/CyFlash.c ****         uint8 key2;
 329:.\Generated_Source\PSoC4/CyFlash.c ****         uint8 byteAddr;
 330:.\Generated_Source\PSoC4/CyFlash.c ****         uint8 flashMacro;
 331:.\Generated_Source\PSoC4/CyFlash.c ****         uint32 numBytesMinusOne;
 332:.\Generated_Source\PSoC4/CyFlash.c ****         uint32 data[CY_FLASH_SIZEOF_ROW / sizeof(uint32)];
 333:.\Generated_Source\PSoC4/CyFlash.c ****     } loadBuf;
 334:.\Generated_Source\PSoC4/CyFlash.c **** #ifdef CYFLASH_CHECKSUM_WORKAROUND
 335:.\Generated_Source\PSoC4/CyFlash.c ****     uint32 needChecksumWorkaround = 0u;
 336:.\Generated_Source\PSoC4/CyFlash.c ****     uint32 savedIndex = 0u;
 337:.\Generated_Source\PSoC4/CyFlash.c ****     uint32 savedValue = 0u;
 338:.\Generated_Source\PSoC4/CyFlash.c ****     uint32 checksum = 0u;
 339:.\Generated_Source\PSoC4/CyFlash.c ****     uint32 bits = 0u;
 340:.\Generated_Source\PSoC4/CyFlash.c ****     uint32 i;
 341:.\Generated_Source\PSoC4/CyFlash.c **** #endif  /* CYFLASH_CHECKSUM_WORKAROUND */
 342:.\Generated_Source\PSoC4/CyFlash.c **** 
 343:.\Generated_Source\PSoC4/CyFlash.c ****     if ((rowNum < CY_FLASH_NUMBER_ROWS) && (rowData != 0u))
 344:.\Generated_Source\PSoC4/CyFlash.c ****     {
 345:.\Generated_Source\PSoC4/CyFlash.c **** 
 346:.\Generated_Source\PSoC4/CyFlash.c ****         loadBuf.key1 = (uint8)CY_FLASH_SROM_KEY1;
 347:.\Generated_Source\PSoC4/CyFlash.c ****         loadBuf.key2 = (uint8)CY_FLASH_SROM_KEY2_LOAD;
 348:.\Generated_Source\PSoC4/CyFlash.c ****         loadBuf.byteAddr = (uint8)0u;
 349:.\Generated_Source\PSoC4/CyFlash.c **** 
 350:.\Generated_Source\PSoC4/CyFlash.c ****     #if(CY_FLASH_NUMBER_ROWS > 255u)
 351:.\Generated_Source\PSoC4/CyFlash.c ****         loadBuf.flashMacro = (uint8)(rowNum >> 8);
 352:.\Generated_Source\PSoC4/CyFlash.c ****     #else
 353:.\Generated_Source\PSoC4/CyFlash.c ****         loadBuf.flashMacro = (uint8)0u;
 354:.\Generated_Source\PSoC4/CyFlash.c ****     #endif  /* (CY_FLASH_NUMBER_ROWS > 255u) */
 355:.\Generated_Source\PSoC4/CyFlash.c **** 
 356:.\Generated_Source\PSoC4/CyFlash.c ****         loadBuf.numBytesMinusOne = (CY_FLASH_SIZEOF_ROW - 1u);
 357:.\Generated_Source\PSoC4/CyFlash.c ****         (void)memcpy((void *)loadBuf.data, rowData, CY_FLASH_SIZEOF_ROW);
ARM GAS  C:\Users\SNFU\AppData\Local\Temp\ccdf1KON.s 			page 9


 358:.\Generated_Source\PSoC4/CyFlash.c **** 
 359:.\Generated_Source\PSoC4/CyFlash.c ****     #ifdef CYFLASH_CHECKSUM_WORKAROUND
 360:.\Generated_Source\PSoC4/CyFlash.c ****         for (i = 0u; i < (CY_FLASH_SIZEOF_ROW / sizeof(uint32)); i++)
 361:.\Generated_Source\PSoC4/CyFlash.c ****         {
 362:.\Generated_Source\PSoC4/CyFlash.c ****             uint32 w = loadBuf.data[i];
 363:.\Generated_Source\PSoC4/CyFlash.c ****             if (w != 0u)
 364:.\Generated_Source\PSoC4/CyFlash.c ****             {
 365:.\Generated_Source\PSoC4/CyFlash.c ****                 checksum += w;
 366:.\Generated_Source\PSoC4/CyFlash.c ****                 bits |= w;
 367:.\Generated_Source\PSoC4/CyFlash.c ****                 savedIndex = i;
 368:.\Generated_Source\PSoC4/CyFlash.c ****             }
 369:.\Generated_Source\PSoC4/CyFlash.c ****         }
 370:.\Generated_Source\PSoC4/CyFlash.c **** 
 371:.\Generated_Source\PSoC4/CyFlash.c ****         needChecksumWorkaround = ((checksum == 0u) && (bits != 0u)) ? 1u : 0u;
 372:.\Generated_Source\PSoC4/CyFlash.c ****         if (needChecksumWorkaround != 0u)
 373:.\Generated_Source\PSoC4/CyFlash.c ****         {
 374:.\Generated_Source\PSoC4/CyFlash.c ****             savedValue = loadBuf.data[savedIndex];
 375:.\Generated_Source\PSoC4/CyFlash.c ****             loadBuf.data[savedIndex] = 0u;
 376:.\Generated_Source\PSoC4/CyFlash.c ****         }
 377:.\Generated_Source\PSoC4/CyFlash.c ****     #endif  /* CYFLASH_CHECKSUM_WORKAROUND */
 378:.\Generated_Source\PSoC4/CyFlash.c **** 
 379:.\Generated_Source\PSoC4/CyFlash.c ****         /* First load data. Then invoke Write row command. */
 380:.\Generated_Source\PSoC4/CyFlash.c ****         (void)CySysFlashExecSysCall(CY_FLASH_LOAD_BYTE_OPCODE, &loadBuf);
 381:.\Generated_Source\PSoC4/CyFlash.c ****         retValue = CySysFlashHandleLoadResult();
 382:.\Generated_Source\PSoC4/CyFlash.c ****         if(retValue == CYRET_SUCCESS)
 383:.\Generated_Source\PSoC4/CyFlash.c ****         {
 384:.\Generated_Source\PSoC4/CyFlash.c ****             /* Mask all exceptions to guarantee that IMO configuration will be changed
 385:.\Generated_Source\PSoC4/CyFlash.c ****             * in the atomic way. It will not affect the syscall execution (flash row write)
 386:.\Generated_Source\PSoC4/CyFlash.c ****             * since it is executed in the NMI context.
 387:.\Generated_Source\PSoC4/CyFlash.c ****             */
 388:.\Generated_Source\PSoC4/CyFlash.c ****             interruptState = CyEnterCriticalSection();
 389:.\Generated_Source\PSoC4/CyFlash.c ****             CySysFlashSetupClock(&savedClkCfg);
 390:.\Generated_Source\PSoC4/CyFlash.c **** 
 391:.\Generated_Source\PSoC4/CyFlash.c ****             statusCode = CySysFlashCallProgramRow(rowNum, CY_FLASH_WRITE_ROW_OPCODE);
 392:.\Generated_Source\PSoC4/CyFlash.c ****             if (statusCode != CY_FLASH_SROM_CMD_RETURN_SUCC)
 393:.\Generated_Source\PSoC4/CyFlash.c ****             {
 394:.\Generated_Source\PSoC4/CyFlash.c ****                 retValue = statusCode;
 395:.\Generated_Source\PSoC4/CyFlash.c ****             }
 396:.\Generated_Source\PSoC4/CyFlash.c **** 
 397:.\Generated_Source\PSoC4/CyFlash.c ****         #ifdef CYFLASH_CHECKSUM_WORKAROUND
 398:.\Generated_Source\PSoC4/CyFlash.c ****             if ((retValue == CYRET_SUCCESS) && (needChecksumWorkaround != 0u))
 399:.\Generated_Source\PSoC4/CyFlash.c ****             {
 400:.\Generated_Source\PSoC4/CyFlash.c ****                 (void)memset((void *)loadBuf.data, 0, CY_FLASH_SIZEOF_ROW);
 401:.\Generated_Source\PSoC4/CyFlash.c ****                 loadBuf.data[savedIndex] = savedValue;
 402:.\Generated_Source\PSoC4/CyFlash.c ****                 (void)CySysFlashExecSysCall(CY_FLASH_LOAD_BYTE_OPCODE, &loadBuf);
 403:.\Generated_Source\PSoC4/CyFlash.c ****                 retValue = CySysFlashHandleLoadResult();
 404:.\Generated_Source\PSoC4/CyFlash.c ****                 if (retValue == CYRET_SUCCESS)
 405:.\Generated_Source\PSoC4/CyFlash.c ****                 {
 406:.\Generated_Source\PSoC4/CyFlash.c ****                     statusCode = CySysFlashCallProgramRow(rowNum, CY_FLASH_PROGRAM_ROW_OPCODE);
 407:.\Generated_Source\PSoC4/CyFlash.c ****                     if (statusCode != CY_FLASH_SROM_CMD_RETURN_SUCC)
 408:.\Generated_Source\PSoC4/CyFlash.c ****                     {
 409:.\Generated_Source\PSoC4/CyFlash.c ****                         retValue = statusCode;
 410:.\Generated_Source\PSoC4/CyFlash.c ****                     }
 411:.\Generated_Source\PSoC4/CyFlash.c ****                 }
 412:.\Generated_Source\PSoC4/CyFlash.c ****             }
 413:.\Generated_Source\PSoC4/CyFlash.c ****         #endif  /* CYFLASH_CHECKSUM_WORKAROUND */
 414:.\Generated_Source\PSoC4/CyFlash.c **** 
ARM GAS  C:\Users\SNFU\AppData\Local\Temp\ccdf1KON.s 			page 10


 415:.\Generated_Source\PSoC4/CyFlash.c ****             CySysFlashRestoreClock(&savedClkCfg);
 416:.\Generated_Source\PSoC4/CyFlash.c ****             CyExitCriticalSection(interruptState);
 417:.\Generated_Source\PSoC4/CyFlash.c ****         }
 418:.\Generated_Source\PSoC4/CyFlash.c ****     }
 419:.\Generated_Source\PSoC4/CyFlash.c ****     else
 420:.\Generated_Source\PSoC4/CyFlash.c ****     {
 421:.\Generated_Source\PSoC4/CyFlash.c ****         retValue = CYRET_BAD_PARAM;
  99              		.loc 1 421 0
 100 0006 0124     		mov	r4, #1
 343:.\Generated_Source\PSoC4/CyFlash.c ****     if ((rowNum < CY_FLASH_NUMBER_ROWS) && (rowData != 0u))
 101              		.loc 1 343 0
 102 0008 FF28     		cmp	r0, #255
 103 000a 00D9     		bls	.LCB89
 104 000c 95E0     		b	.L31	@long jump
 105              	.LCB89:
 343:.\Generated_Source\PSoC4/CyFlash.c ****     if ((rowNum < CY_FLASH_NUMBER_ROWS) && (rowData != 0u))
 106              		.loc 1 343 0 is_stmt 0 discriminator 1
 107 000e 0029     		cmp	r1, #0
 108 0010 00D1     		bne	.LCB91
 109 0012 92E0     		b	.L31	@long jump
 110              	.LCB91:
 348:.\Generated_Source\PSoC4/CyFlash.c ****         loadBuf.byteAddr = (uint8)0u;
 111              		.loc 1 348 0 is_stmt 1
 112 0014 0025     		mov	r5, #0
 346:.\Generated_Source\PSoC4/CyFlash.c ****         loadBuf.key1 = (uint8)CY_FLASH_SROM_KEY1;
 113              		.loc 1 346 0
 114 0016 08AC     		add	r4, sp, #32
 115 0018 B623     		mov	r3, #182
 347:.\Generated_Source\PSoC4/CyFlash.c ****         loadBuf.key2 = (uint8)CY_FLASH_SROM_KEY2_LOAD;
 116              		.loc 1 347 0
 117 001a D720     		mov	r0, #215
 118              	.LVL5:
 356:.\Generated_Source\PSoC4/CyFlash.c ****         loadBuf.numBytesMinusOne = (CY_FLASH_SIZEOF_ROW - 1u);
 119              		.loc 1 356 0
 120 001c 7F22     		mov	r2, #127
 346:.\Generated_Source\PSoC4/CyFlash.c ****         loadBuf.key1 = (uint8)CY_FLASH_SROM_KEY1;
 121              		.loc 1 346 0
 122 001e 2370     		strb	r3, [r4]
 347:.\Generated_Source\PSoC4/CyFlash.c ****         loadBuf.key2 = (uint8)CY_FLASH_SROM_KEY2_LOAD;
 123              		.loc 1 347 0
 124 0020 6070     		strb	r0, [r4, #1]
 348:.\Generated_Source\PSoC4/CyFlash.c ****         loadBuf.byteAddr = (uint8)0u;
 125              		.loc 1 348 0
 126 0022 A570     		strb	r5, [r4, #2]
 357:.\Generated_Source\PSoC4/CyFlash.c ****         (void)memcpy((void *)loadBuf.data, rowData, CY_FLASH_SIZEOF_ROW);
 127              		.loc 1 357 0
 128 0024 0AA8     		add	r0, sp, #40
 351:.\Generated_Source\PSoC4/CyFlash.c ****         loadBuf.flashMacro = (uint8)(rowNum >> 8);
 129              		.loc 1 351 0
 130 0026 E570     		strb	r5, [r4, #3]
 356:.\Generated_Source\PSoC4/CyFlash.c ****         loadBuf.numBytesMinusOne = (CY_FLASH_SIZEOF_ROW - 1u);
 131              		.loc 1 356 0
 132 0028 6260     		str	r2, [r4, #4]
 357:.\Generated_Source\PSoC4/CyFlash.c ****         (void)memcpy((void *)loadBuf.data, rowData, CY_FLASH_SIZEOF_ROW);
 133              		.loc 1 357 0
 134 002a 8022     		mov	r2, #128
 135 002c FFF7FEFF 		bl	memcpy
ARM GAS  C:\Users\SNFU\AppData\Local\Temp\ccdf1KON.s 			page 11


 136              	.LVL6:
 360:.\Generated_Source\PSoC4/CyFlash.c ****         for (i = 0u; i < (CY_FLASH_SIZEOF_ROW / sizeof(uint32)); i++)
 137              		.loc 1 360 0
 138 0030 2E1C     		mov	r6, r5
 339:.\Generated_Source\PSoC4/CyFlash.c ****     uint32 bits = 0u;
 139              		.loc 1 339 0
 140 0032 291C     		mov	r1, r5
 338:.\Generated_Source\PSoC4/CyFlash.c ****     uint32 checksum = 0u;
 141              		.loc 1 338 0
 142 0034 2A1C     		mov	r2, r5
 336:.\Generated_Source\PSoC4/CyFlash.c ****     uint32 savedIndex = 0u;
 143              		.loc 1 336 0
 144 0036 0195     		str	r5, [sp, #4]
 145              	.LVL7:
 146              	.L15:
 147              	.LBB24:
 362:.\Generated_Source\PSoC4/CyFlash.c ****             uint32 w = loadBuf.data[i];
 148              		.loc 1 362 0
 149 0038 B31C     		add	r3, r6, #2
 150 003a 9800     		lsl	r0, r3, #2
 151 003c 2558     		ldr	r5, [r4, r0]
 152              	.LVL8:
 363:.\Generated_Source\PSoC4/CyFlash.c ****             if (w != 0u)
 153              		.loc 1 363 0
 154 003e 002D     		cmp	r5, #0
 155 0040 02D0     		beq	.L14
 365:.\Generated_Source\PSoC4/CyFlash.c ****                 checksum += w;
 156              		.loc 1 365 0
 157 0042 5219     		add	r2, r2, r5
 158              	.LVL9:
 366:.\Generated_Source\PSoC4/CyFlash.c ****                 bits |= w;
 159              		.loc 1 366 0
 160 0044 2943     		orr	r1, r5
 161              	.LVL10:
 162 0046 0196     		str	r6, [sp, #4]
 163              	.LVL11:
 164              	.L14:
 165              	.LBE24:
 360:.\Generated_Source\PSoC4/CyFlash.c ****         for (i = 0u; i < (CY_FLASH_SIZEOF_ROW / sizeof(uint32)); i++)
 166              		.loc 1 360 0
 167 0048 0136     		add	r6, r6, #1
 168              	.LVL12:
 169 004a 202E     		cmp	r6, #32
 170 004c F4D1     		bne	.L15
 371:.\Generated_Source\PSoC4/CyFlash.c ****         needChecksumWorkaround = ((checksum == 0u) && (bits != 0u)) ? 1u : 0u;
 171              		.loc 1 371 0
 172 004e 002A     		cmp	r2, #0
 173 0050 02D1     		bne	.L26
 371:.\Generated_Source\PSoC4/CyFlash.c ****         needChecksumWorkaround = ((checksum == 0u) && (bits != 0u)) ? 1u : 0u;
 174              		.loc 1 371 0 is_stmt 0 discriminator 1
 175 0052 0029     		cmp	r1, #0
 176 0054 68D1     		bne	.L17
 177 0056 00E0     		b	.L41
 178              	.L26:
 371:.\Generated_Source\PSoC4/CyFlash.c ****         needChecksumWorkaround = ((checksum == 0u) && (bits != 0u)) ? 1u : 0u;
 179              		.loc 1 371 0
 180 0058 0021     		mov	r1, #0
ARM GAS  C:\Users\SNFU\AppData\Local\Temp\ccdf1KON.s 			page 12


 181              	.LVL13:
 182              	.L41:
 183 005a 0091     		str	r1, [sp]
 337:.\Generated_Source\PSoC4/CyFlash.c ****     uint32 savedValue = 0u;
 184              		.loc 1 337 0 is_stmt 1
 185 005c 0291     		str	r1, [sp, #8]
 186              	.LVL14:
 187              	.L16:
 188              	.LBB25:
 189              	.LBB26:
 214:.\Generated_Source\PSoC4/CyFlash.c ****     CY_FLASH_CPUSS_SYSARG_REG = (uint32)arg;
 190              		.loc 1 214 0
 191 005e 384D     		ldr	r5, .L42
 215:.\Generated_Source\PSoC4/CyFlash.c ****     CY_FLASH_CPUSS_SYSREQ_REG = cmd | CY_FLASH_CPUSS_REQ_START;
 192              		.loc 1 215 0
 193 0060 384E     		ldr	r6, .L42+4
 214:.\Generated_Source\PSoC4/CyFlash.c ****     CY_FLASH_CPUSS_SYSARG_REG = (uint32)arg;
 194              		.loc 1 214 0
 195 0062 2C60     		str	r4, [r5]
 215:.\Generated_Source\PSoC4/CyFlash.c ****     CY_FLASH_CPUSS_SYSREQ_REG = cmd | CY_FLASH_CPUSS_REQ_START;
 196              		.loc 1 215 0
 197 0064 384C     		ldr	r4, .L42+8
 198              	.LVL15:
 199 0066 3460     		str	r4, [r6]
 200              	.LVL16:
 201              	.L18:
 216:.\Generated_Source\PSoC4/CyFlash.c ****     while ((CY_FLASH_CPUSS_SYSREQ_REG & CY_FLASH_CPUSS_REQ_START) != 0u)
 202              		.loc 1 216 0
 203 0068 3268     		ldr	r2, [r6]
 204 006a 002A     		cmp	r2, #0
 205 006c FCDB     		blt	.L18
 220:.\Generated_Source\PSoC4/CyFlash.c ****     return CY_FLASH_CPUSS_SYSARG_REG;
 206              		.loc 1 220 0
 207 006e 2B68     		ldr	r3, [r5]
 208              	.LBE26:
 209              	.LBE25:
 381:.\Generated_Source\PSoC4/CyFlash.c ****         retValue = CySysFlashHandleLoadResult();
 210              		.loc 1 381 0
 211 0070 FFF7FEFF 		bl	CySysFlashHandleLoadResult
 212              	.LVL17:
 213 0074 041E     		sub	r4, r0, #0
 214              	.LVL18:
 382:.\Generated_Source\PSoC4/CyFlash.c ****         if(retValue == CYRET_SUCCESS)
 215              		.loc 1 382 0
 216 0076 60D1     		bne	.L31
 388:.\Generated_Source\PSoC4/CyFlash.c ****             interruptState = CyEnterCriticalSection();
 217              		.loc 1 388 0
 218 0078 FFF7FEFF 		bl	CyEnterCriticalSection
 219              	.LVL19:
 220              	.LBB27:
 221              	.LBB28:
  80:.\Generated_Source\PSoC4/CyFlash.c ****         saved->imoConfigReg = CY_SYS_CLK_IMO_CONFIG_REG;
 222              		.loc 1 80 0
 223 007c 334B     		ldr	r3, .L42+12
 224              	.LBE28:
 225              	.LBE27:
 388:.\Generated_Source\PSoC4/CyFlash.c ****             interruptState = CyEnterCriticalSection();
ARM GAS  C:\Users\SNFU\AppData\Local\Temp\ccdf1KON.s 			page 13


 226              		.loc 1 388 0
 227 007e 0590     		str	r0, [sp, #20]
 228              	.LVL20:
 229              	.LBB31:
 230              	.LBB29:
  80:.\Generated_Source\PSoC4/CyFlash.c ****         saved->imoConfigReg = CY_SYS_CLK_IMO_CONFIG_REG;
 231              		.loc 1 80 0
 232 0080 1968     		ldr	r1, [r3]
 233              	.LBE29:
 234              	.LBE31:
 235              	.LBB32:
 236              	.LBB33:
 254:.\Generated_Source\PSoC4/CyFlash.c ****     args.key1 = (uint8)CY_FLASH_SROM_KEY1;
 237              		.loc 1 254 0
 238 0082 B620     		mov	r0, #182
 239              	.LBE33:
 240              	.LBE32:
 241              	.LBB39:
 242              	.LBB30:
  80:.\Generated_Source\PSoC4/CyFlash.c ****         saved->imoConfigReg = CY_SYS_CLK_IMO_CONFIG_REG;
 243              		.loc 1 80 0
 244 0084 0491     		str	r1, [sp, #16]
 245              	.LVL21:
 246              	.LBE30:
 247              	.LBE39:
 248              	.LBB40:
 249              	.LBB38:
 255:.\Generated_Source\PSoC4/CyFlash.c ****     args.key2 = (uint8)(CY_FLASH_SROM_KEY2 + operation);
 250              		.loc 1 255 0
 251 0086 D822     		mov	r2, #216
 254:.\Generated_Source\PSoC4/CyFlash.c ****     args.key1 = (uint8)CY_FLASH_SROM_KEY1;
 252              		.loc 1 254 0
 253 0088 6946     		mov	r1, sp
 254              	.LVL22:
 256:.\Generated_Source\PSoC4/CyFlash.c ****     args.row = (uint16) rowNum;
 255              		.loc 1 256 0
 256 008a BFB2     		uxth	r7, r7
 257              	.LVL23:
 254:.\Generated_Source\PSoC4/CyFlash.c ****     args.key1 = (uint8)CY_FLASH_SROM_KEY1;
 258              		.loc 1 254 0
 259 008c 0876     		strb	r0, [r1, #24]
 256:.\Generated_Source\PSoC4/CyFlash.c ****     args.row = (uint16) rowNum;
 260              		.loc 1 256 0
 261 008e 0397     		str	r7, [sp, #12]
 255:.\Generated_Source\PSoC4/CyFlash.c ****     args.key2 = (uint8)(CY_FLASH_SROM_KEY2 + operation);
 262              		.loc 1 255 0
 263 0090 4A76     		strb	r2, [r1, #25]
 256:.\Generated_Source\PSoC4/CyFlash.c ****     args.row = (uint16) rowNum;
 264              		.loc 1 256 0
 265 0092 6846     		mov	r0, sp
 266 0094 0C21     		mov	r1, #12
 267 0096 0A5A     		ldrh	r2, [r1, r0]
 268              	.LBB34:
 269              	.LBB35:
 214:.\Generated_Source\PSoC4/CyFlash.c ****     CY_FLASH_CPUSS_SYSARG_REG = (uint32)arg;
 270              		.loc 1 214 0
 271 0098 294F     		ldr	r7, .L42
ARM GAS  C:\Users\SNFU\AppData\Local\Temp\ccdf1KON.s 			page 14


 272              	.LBE35:
 273              	.LBE34:
 256:.\Generated_Source\PSoC4/CyFlash.c ****     args.row = (uint16) rowNum;
 274              		.loc 1 256 0
 275 009a 4283     		strh	r2, [r0, #26]
 276              	.LVL24:
 277              	.LBB37:
 278              	.LBB36:
 215:.\Generated_Source\PSoC4/CyFlash.c ****     CY_FLASH_CPUSS_SYSREQ_REG = cmd | CY_FLASH_CPUSS_REQ_START;
 279              		.loc 1 215 0
 280 009c 2C49     		ldr	r1, .L42+16
 281 009e 294A     		ldr	r2, .L42+4
 214:.\Generated_Source\PSoC4/CyFlash.c ****     CY_FLASH_CPUSS_SYSARG_REG = (uint32)arg;
 282              		.loc 1 214 0
 283 00a0 06A8     		add	r0, sp, #24
 284              	.LVL25:
 285 00a2 3860     		str	r0, [r7]
 215:.\Generated_Source\PSoC4/CyFlash.c ****     CY_FLASH_CPUSS_SYSREQ_REG = cmd | CY_FLASH_CPUSS_REQ_START;
 286              		.loc 1 215 0
 287 00a4 1160     		str	r1, [r2]
 288 00a6 1F1C     		mov	r7, r3
 289              	.L19:
 216:.\Generated_Source\PSoC4/CyFlash.c ****     while ((CY_FLASH_CPUSS_SYSREQ_REG & CY_FLASH_CPUSS_REQ_START) != 0u)
 290              		.loc 1 216 0
 291 00a8 3368     		ldr	r3, [r6]
 292 00aa 002B     		cmp	r3, #0
 293 00ac FCDB     		blt	.L19
 220:.\Generated_Source\PSoC4/CyFlash.c ****     return CY_FLASH_CPUSS_SYSARG_REG;
 294              		.loc 1 220 0
 295 00ae 2B68     		ldr	r3, [r5]
 296              	.LBE36:
 297              	.LBE37:
 298              	.LBE38:
 299              	.LBE40:
 392:.\Generated_Source\PSoC4/CyFlash.c ****             if (statusCode != CY_FLASH_SROM_CMD_RETURN_SUCC)
 300              		.loc 1 392 0
 301 00b0 A020     		mov	r0, #160
 302              	.LVL26:
 303 00b2 0106     		lsl	r1, r0, #24
 304 00b4 8B42     		cmp	r3, r1
 305 00b6 01D0     		beq	.L20
 306              	.LVL27:
 398:.\Generated_Source\PSoC4/CyFlash.c ****             if ((retValue == CYRET_SUCCESS) && (needChecksumWorkaround != 0u))
 307              		.loc 1 398 0
 308 00b8 002B     		cmp	r3, #0
 309 00ba 2ED1     		bne	.L28
 310              	.LVL28:
 311              	.L20:
 398:.\Generated_Source\PSoC4/CyFlash.c ****             if ((retValue == CYRET_SUCCESS) && (needChecksumWorkaround != 0u))
 312              		.loc 1 398 0 is_stmt 0 discriminator 1
 313 00bc 009A     		ldr	r2, [sp]
 314 00be 002A     		cmp	r2, #0
 315 00c0 2CD0     		beq	.L21
 400:.\Generated_Source\PSoC4/CyFlash.c ****                 (void)memset((void *)loadBuf.data, 0, CY_FLASH_SIZEOF_ROW);
 316              		.loc 1 400 0 is_stmt 1
 317 00c2 0021     		mov	r1, #0
 318 00c4 8022     		mov	r2, #128
ARM GAS  C:\Users\SNFU\AppData\Local\Temp\ccdf1KON.s 			page 15


 319 00c6 0AA8     		add	r0, sp, #40
 320 00c8 FFF7FEFF 		bl	memset
 321              	.LVL29:
 401:.\Generated_Source\PSoC4/CyFlash.c ****                 loadBuf.data[savedIndex] = savedValue;
 322              		.loc 1 401 0
 323 00cc 019B     		ldr	r3, [sp, #4]
 324 00ce 0299     		ldr	r1, [sp, #8]
 325 00d0 0233     		add	r3, r3, #2
 326              	.LBB41:
 327              	.LBB42:
 215:.\Generated_Source\PSoC4/CyFlash.c ****     CY_FLASH_CPUSS_SYSREQ_REG = cmd | CY_FLASH_CPUSS_REQ_START;
 328              		.loc 1 215 0
 329 00d2 1D4A     		ldr	r2, .L42+8
 330              	.LBE42:
 331              	.LBE41:
 400:.\Generated_Source\PSoC4/CyFlash.c ****                 (void)memset((void *)loadBuf.data, 0, CY_FLASH_SIZEOF_ROW);
 332              		.loc 1 400 0
 333 00d4 08AC     		add	r4, sp, #32
 401:.\Generated_Source\PSoC4/CyFlash.c ****                 loadBuf.data[savedIndex] = savedValue;
 334              		.loc 1 401 0
 335 00d6 9800     		lsl	r0, r3, #2
 336 00d8 0151     		str	r1, [r0, r4]
 337              	.LVL30:
 338              	.LBB44:
 339              	.LBB43:
 214:.\Generated_Source\PSoC4/CyFlash.c ****     CY_FLASH_CPUSS_SYSARG_REG = (uint32)arg;
 340              		.loc 1 214 0
 341 00da 2C60     		str	r4, [r5]
 215:.\Generated_Source\PSoC4/CyFlash.c ****     CY_FLASH_CPUSS_SYSREQ_REG = cmd | CY_FLASH_CPUSS_REQ_START;
 342              		.loc 1 215 0
 343 00dc 3260     		str	r2, [r6]
 344              	.LVL31:
 345              	.L22:
 216:.\Generated_Source\PSoC4/CyFlash.c ****     while ((CY_FLASH_CPUSS_SYSREQ_REG & CY_FLASH_CPUSS_REQ_START) != 0u)
 346              		.loc 1 216 0
 347 00de 3468     		ldr	r4, [r6]
 348 00e0 002C     		cmp	r4, #0
 349 00e2 FCDB     		blt	.L22
 220:.\Generated_Source\PSoC4/CyFlash.c ****     return CY_FLASH_CPUSS_SYSARG_REG;
 350              		.loc 1 220 0
 351 00e4 2B68     		ldr	r3, [r5]
 352              	.LBE43:
 353              	.LBE44:
 403:.\Generated_Source\PSoC4/CyFlash.c ****                 retValue = CySysFlashHandleLoadResult();
 354              		.loc 1 403 0
 355 00e6 FFF7FEFF 		bl	CySysFlashHandleLoadResult
 356              	.LVL32:
 357 00ea 041E     		sub	r4, r0, #0
 358              	.LVL33:
 404:.\Generated_Source\PSoC4/CyFlash.c ****                 if (retValue == CYRET_SUCCESS)
 359              		.loc 1 404 0
 360 00ec 16D1     		bne	.L21
 361              	.LVL34:
 362              	.LBB45:
 363              	.LBB46:
 254:.\Generated_Source\PSoC4/CyFlash.c ****     args.key1 = (uint8)CY_FLASH_SROM_KEY1;
 364              		.loc 1 254 0
ARM GAS  C:\Users\SNFU\AppData\Local\Temp\ccdf1KON.s 			page 16


 365 00ee 07AB     		add	r3, sp, #28
 366 00f0 B620     		mov	r0, #182
 367              	.LVL35:
 368 00f2 1870     		strb	r0, [r3]
 255:.\Generated_Source\PSoC4/CyFlash.c ****     args.key2 = (uint8)(CY_FLASH_SROM_KEY2 + operation);
 369              		.loc 1 255 0
 370 00f4 D921     		mov	r1, #217
 256:.\Generated_Source\PSoC4/CyFlash.c ****     args.row = (uint16) rowNum;
 371              		.loc 1 256 0
 372 00f6 6846     		mov	r0, sp
 373 00f8 0C22     		mov	r2, #12
 255:.\Generated_Source\PSoC4/CyFlash.c ****     args.key2 = (uint8)(CY_FLASH_SROM_KEY2 + operation);
 374              		.loc 1 255 0
 375 00fa 5970     		strb	r1, [r3, #1]
 256:.\Generated_Source\PSoC4/CyFlash.c ****     args.row = (uint16) rowNum;
 376              		.loc 1 256 0
 377 00fc 115A     		ldrh	r1, [r2, r0]
 378              	.LBB47:
 379              	.LBB48:
 214:.\Generated_Source\PSoC4/CyFlash.c ****     CY_FLASH_CPUSS_SYSARG_REG = (uint32)arg;
 380              		.loc 1 214 0
 381 00fe 1048     		ldr	r0, .L42
 382              	.LBE48:
 383              	.LBE47:
 256:.\Generated_Source\PSoC4/CyFlash.c ****     args.row = (uint16) rowNum;
 384              		.loc 1 256 0
 385 0100 5980     		strh	r1, [r3, #2]
 386              	.LVL36:
 387              	.LBB50:
 388              	.LBB49:
 215:.\Generated_Source\PSoC4/CyFlash.c ****     CY_FLASH_CPUSS_SYSREQ_REG = cmd | CY_FLASH_CPUSS_REQ_START;
 389              		.loc 1 215 0
 390 0102 144A     		ldr	r2, .L42+20
 214:.\Generated_Source\PSoC4/CyFlash.c ****     CY_FLASH_CPUSS_SYSARG_REG = (uint32)arg;
 391              		.loc 1 214 0
 392 0104 0360     		str	r3, [r0]
 215:.\Generated_Source\PSoC4/CyFlash.c ****     CY_FLASH_CPUSS_SYSREQ_REG = cmd | CY_FLASH_CPUSS_REQ_START;
 393              		.loc 1 215 0
 394 0106 0F4B     		ldr	r3, .L42+4
 395              	.LVL37:
 396 0108 1A60     		str	r2, [r3]
 397              	.L23:
 216:.\Generated_Source\PSoC4/CyFlash.c ****     while ((CY_FLASH_CPUSS_SYSREQ_REG & CY_FLASH_CPUSS_REQ_START) != 0u)
 398              		.loc 1 216 0
 399 010a 3168     		ldr	r1, [r6]
 400 010c 0029     		cmp	r1, #0
 401 010e FCDB     		blt	.L23
 220:.\Generated_Source\PSoC4/CyFlash.c ****     return CY_FLASH_CPUSS_SYSARG_REG;
 402              		.loc 1 220 0
 403 0110 2B68     		ldr	r3, [r5]
 404              	.LBE49:
 405              	.LBE50:
 406              	.LBE46:
 407              	.LBE45:
 407:.\Generated_Source\PSoC4/CyFlash.c ****                     if (statusCode != CY_FLASH_SROM_CMD_RETURN_SUCC)
 408              		.loc 1 407 0
 409 0112 A025     		mov	r5, #160
ARM GAS  C:\Users\SNFU\AppData\Local\Temp\ccdf1KON.s 			page 17


 410              	.LVL38:
 411 0114 2E06     		lsl	r6, r5, #24
 412 0116 B342     		cmp	r3, r6
 413 0118 00D0     		beq	.L21
 414              	.LVL39:
 415              	.L28:
 416 011a 1C1C     		mov	r4, r3
 417              	.L21:
 418              	.LVL40:
 419              	.LBB51:
 420              	.LBB52:
 101:.\Generated_Source\PSoC4/CyFlash.c ****         CY_SYS_CLK_IMO_CONFIG_REG = saved->imoConfigReg;
 421              		.loc 1 101 0
 422 011c 0498     		ldr	r0, [sp, #16]
 423 011e 3860     		str	r0, [r7]
 424              	.LBE52:
 425              	.LBE51:
 416:.\Generated_Source\PSoC4/CyFlash.c ****             CyExitCriticalSection(interruptState);
 426              		.loc 1 416 0
 427 0120 0598     		ldr	r0, [sp, #20]
 428 0122 FFF7FEFF 		bl	CyExitCriticalSection
 429              	.LVL41:
 430 0126 08E0     		b	.L31
 431              	.LVL42:
 432              	.L17:
 374:.\Generated_Source\PSoC4/CyFlash.c ****             savedValue = loadBuf.data[savedIndex];
 433              		.loc 1 374 0
 434 0128 019E     		ldr	r6, [sp, #4]
 435              	.LVL43:
 371:.\Generated_Source\PSoC4/CyFlash.c ****         needChecksumWorkaround = ((checksum == 0u) && (bits != 0u)) ? 1u : 0u;
 436              		.loc 1 371 0
 437 012a 0125     		mov	r5, #1
 438              	.LVL44:
 374:.\Generated_Source\PSoC4/CyFlash.c ****             savedValue = loadBuf.data[savedIndex];
 439              		.loc 1 374 0
 440 012c 0236     		add	r6, r6, #2
 441 012e B300     		lsl	r3, r6, #2
 442              	.LVL45:
 443 0130 E058     		ldr	r0, [r4, r3]
 371:.\Generated_Source\PSoC4/CyFlash.c ****         needChecksumWorkaround = ((checksum == 0u) && (bits != 0u)) ? 1u : 0u;
 444              		.loc 1 371 0
 445 0132 0095     		str	r5, [sp]
 374:.\Generated_Source\PSoC4/CyFlash.c ****             savedValue = loadBuf.data[savedIndex];
 446              		.loc 1 374 0
 447 0134 0290     		str	r0, [sp, #8]
 448              	.LVL46:
 375:.\Generated_Source\PSoC4/CyFlash.c ****             loadBuf.data[savedIndex] = 0u;
 449              		.loc 1 375 0
 450 0136 E250     		str	r2, [r4, r3]
 451 0138 91E7     		b	.L16
 452              	.LVL47:
 453              	.L31:
 422:.\Generated_Source\PSoC4/CyFlash.c ****     }
 423:.\Generated_Source\PSoC4/CyFlash.c **** 
 424:.\Generated_Source\PSoC4/CyFlash.c ****     return (retValue);
 425:.\Generated_Source\PSoC4/CyFlash.c **** }
 454              		.loc 1 425 0
ARM GAS  C:\Users\SNFU\AppData\Local\Temp\ccdf1KON.s 			page 18


 455 013a 201C     		mov	r0, r4
 456 013c 2BB0     		add	sp, sp, #172
 457              		@ sp needed for prologue
 458 013e F0BD     		pop	{r4, r5, r6, r7, pc}
 459              	.L43:
 460              		.align	2
 461              	.L42:
 462 0140 08000040 		.word	1073741832
 463 0144 04000040 		.word	1073741828
 464 0148 04000080 		.word	-2147483644
 465 014c 08010B40 		.word	1074462984
 466 0150 05000080 		.word	-2147483643
 467 0154 06000080 		.word	-2147483642
 468              		.cfi_endproc
 469              	.LFE5:
 470              		.size	CySysFlashWriteRow, .-CySysFlashWriteRow
 471              		.section	.text.CySysFlashSetWaitCycles,"ax",%progbits
 472              		.align	1
 473              		.global	CySysFlashSetWaitCycles
 474              		.code	16
 475              		.thumb_func
 476              		.type	CySysFlashSetWaitCycles, %function
 477              	CySysFlashSetWaitCycles:
 478              	.LFB6:
 426:.\Generated_Source\PSoC4/CyFlash.c **** 
 427:.\Generated_Source\PSoC4/CyFlash.c **** #if(CY_PSOC4A)
 428:.\Generated_Source\PSoC4/CyFlash.c **** 
 429:.\Generated_Source\PSoC4/CyFlash.c ****     /*******************************************************************************
 430:.\Generated_Source\PSoC4/CyFlash.c ****     * Function Name: CySysFlashSetWaitCycles
 431:.\Generated_Source\PSoC4/CyFlash.c ****     ********************************************************************************
 432:.\Generated_Source\PSoC4/CyFlash.c ****     *
 433:.\Generated_Source\PSoC4/CyFlash.c ****     * Summary:
 434:.\Generated_Source\PSoC4/CyFlash.c ****     *  Sets the number of clock cycles the cache will wait before it samples data
 435:.\Generated_Source\PSoC4/CyFlash.c ****     *  coming back from Flash. This function must be called before increasing the
 436:.\Generated_Source\PSoC4/CyFlash.c ****     *  SYSCLK clock frequency. It can optionally be called after lowering SYSCLK
 437:.\Generated_Source\PSoC4/CyFlash.c ****     *  clock frequency in order to improve the CPU performance.
 438:.\Generated_Source\PSoC4/CyFlash.c ****     *
 439:.\Generated_Source\PSoC4/CyFlash.c ****     * Parameters:
 440:.\Generated_Source\PSoC4/CyFlash.c ****     *  freq: Valid range [3-48].  Frequency for operation of the IMO.
 441:.\Generated_Source\PSoC4/CyFlash.c ****     *  Note: Invalid frequency will be ignored.
 442:.\Generated_Source\PSoC4/CyFlash.c ****     *
 443:.\Generated_Source\PSoC4/CyFlash.c ****     * Return:
 444:.\Generated_Source\PSoC4/CyFlash.c ****     *  None
 445:.\Generated_Source\PSoC4/CyFlash.c ****     *
 446:.\Generated_Source\PSoC4/CyFlash.c ****     *******************************************************************************/
 447:.\Generated_Source\PSoC4/CyFlash.c ****     void CySysFlashSetWaitCycles(uint32 freq)
 448:.\Generated_Source\PSoC4/CyFlash.c ****     {
 479              		.loc 1 448 0
 480              		.cfi_startproc
 481              	.LVL48:
 482 0000 08B5     		push	{r3, lr}
 483              	.LCFI3:
 484              		.cfi_def_cfa_offset 8
 485              		.cfi_offset 3, -8
 486              		.cfi_offset 14, -4
 449:.\Generated_Source\PSoC4/CyFlash.c ****         if ((freq >= CY_SYS_CLK_IMO_MIN_FREQ_MHZ) && (freq <= CY_SYS_CLK_IMO_MAX_FREQ_MHZ))
 487              		.loc 1 449 0
ARM GAS  C:\Users\SNFU\AppData\Local\Temp\ccdf1KON.s 			page 19


 488 0002 C31E     		sub	r3, r0, #3
 489 0004 2D2B     		cmp	r3, #45
 490 0006 0BD8     		bhi	.L45
 491 0008 074B     		ldr	r3, .L49
 450:.\Generated_Source\PSoC4/CyFlash.c ****         {
 451:.\Generated_Source\PSoC4/CyFlash.c ****             if ( freq <= CY_FLASH_SYSCLK_BOUNDARY_MHZ )
 452:.\Generated_Source\PSoC4/CyFlash.c ****             {
 453:.\Generated_Source\PSoC4/CyFlash.c ****                 CY_SYS_CLK_SELECT_REG &= (uint32)(~CY_FLASH_WAIT_STATE_EN);
 492              		.loc 1 453 0
 493 000a 1968     		ldr	r1, [r3]
 451:.\Generated_Source\PSoC4/CyFlash.c ****             if ( freq <= CY_FLASH_SYSCLK_BOUNDARY_MHZ )
 494              		.loc 1 451 0
 495 000c 1828     		cmp	r0, #24
 496 000e 02D8     		bhi	.L46
 497              		.loc 1 453 0
 498 0010 0648     		ldr	r0, .L49+4
 499              	.LVL49:
 500 0012 0840     		and	r0, r1
 501 0014 02E0     		b	.L48
 502              	.LVL50:
 503              	.L46:
 454:.\Generated_Source\PSoC4/CyFlash.c ****             }
 455:.\Generated_Source\PSoC4/CyFlash.c ****             else
 456:.\Generated_Source\PSoC4/CyFlash.c ****             {
 457:.\Generated_Source\PSoC4/CyFlash.c ****                 CY_SYS_CLK_SELECT_REG |= CY_FLASH_WAIT_STATE_EN;
 504              		.loc 1 457 0
 505 0016 8022     		mov	r2, #128
 506 0018 D002     		lsl	r0, r2, #11
 507              	.LVL51:
 508 001a 0843     		orr	r0, r1
 509              	.L48:
 510 001c 1860     		str	r0, [r3]
 511 001e 02E0     		b	.L44
 512              	.LVL52:
 513              	.L45:
 458:.\Generated_Source\PSoC4/CyFlash.c ****             }
 459:.\Generated_Source\PSoC4/CyFlash.c ****         }
 460:.\Generated_Source\PSoC4/CyFlash.c ****         else
 461:.\Generated_Source\PSoC4/CyFlash.c ****         {
 462:.\Generated_Source\PSoC4/CyFlash.c ****             /* Halt CPU in debug mode if frequency is invalid */
 463:.\Generated_Source\PSoC4/CyFlash.c ****             CYASSERT(0u != 0u);
 514              		.loc 1 463 0 discriminator 1
 515 0020 0020     		mov	r0, #0
 516              	.LVL53:
 517 0022 FFF7FEFF 		bl	CyHalt
 518              	.LVL54:
 519              	.L44:
 464:.\Generated_Source\PSoC4/CyFlash.c ****         }
 465:.\Generated_Source\PSoC4/CyFlash.c ****     }
 520              		.loc 1 465 0
 521              		@ sp needed for prologue
 522 0026 08BD     		pop	{r3, pc}
 523              	.L50:
 524              		.align	2
 525              	.L49:
 526 0028 00010B40 		.word	1074462976
 527 002c FFFFFBFF 		.word	-262145
ARM GAS  C:\Users\SNFU\AppData\Local\Temp\ccdf1KON.s 			page 20


 528              		.cfi_endproc
 529              	.LFE6:
 530              		.size	CySysFlashSetWaitCycles, .-CySysFlashSetWaitCycles
 531              		.text
 532              	.Letext0:
 533              		.file 2 ".\\Generated_Source\\PSoC4\\cytypes.h"
 534              		.file 3 ".\\Generated_Source\\PSoC4\\CyLib.h"