ARM GAS  C:\Users\SNFU\AppData\Local\Temp\ccL8ejmf.s 			page 1


   1              		.cpu cortex-m0
   2              		.fpu softvfp
   3              		.eabi_attribute 20, 1
   4              		.eabi_attribute 21, 1
   5              		.eabi_attribute 23, 3
   6              		.eabi_attribute 24, 1
   7              		.eabi_attribute 25, 1
   8              		.eabi_attribute 26, 1
   9              		.eabi_attribute 30, 4
  10              		.eabi_attribute 34, 0
  11              		.eabi_attribute 18, 4
  12              		.code	16
  13              		.file	"CyLib.c"
  14              		.text
  15              	.Ltext0:
  16              		.cfi_sections	.debug_frame
  17              		.section	.text.CySysClkImoStart,"ax",%progbits
  18              		.align	1
  19              		.global	CySysClkImoStart
  20              		.code	16
  21              		.thumb_func
  22              		.type	CySysClkImoStart, %function
  23              	CySysClkImoStart:
  24              	.LFB0:
  25              		.file 1 ".\\Generated_Source\\PSoC4\\CyLib.c"
   1:.\Generated_Source\PSoC4/CyLib.c **** /*******************************************************************************
   2:.\Generated_Source\PSoC4/CyLib.c **** * File Name: CyLib.c
   3:.\Generated_Source\PSoC4/CyLib.c **** * Version 4.11
   4:.\Generated_Source\PSoC4/CyLib.c **** *
   5:.\Generated_Source\PSoC4/CyLib.c **** *  Description:
   6:.\Generated_Source\PSoC4/CyLib.c **** *   Provides a system API for the clocking, interrupts, and watchdog timer.
   7:.\Generated_Source\PSoC4/CyLib.c **** *
   8:.\Generated_Source\PSoC4/CyLib.c **** *  Note:
   9:.\Generated_Source\PSoC4/CyLib.c **** *   Documentation of the API's in this file is located in the
  10:.\Generated_Source\PSoC4/CyLib.c **** *   System Reference Guide provided with PSoC Creator.
  11:.\Generated_Source\PSoC4/CyLib.c **** *
  12:.\Generated_Source\PSoC4/CyLib.c **** ********************************************************************************
  13:.\Generated_Source\PSoC4/CyLib.c **** * Copyright 2010-2014, Cypress Semiconductor Corporation.  All rights reserved.
  14:.\Generated_Source\PSoC4/CyLib.c **** * You may use this file only in accordance with the license, terms, conditions,
  15:.\Generated_Source\PSoC4/CyLib.c **** * disclaimers, and limitations in the end user license agreement accompanying
  16:.\Generated_Source\PSoC4/CyLib.c **** * the software package with which this file was provided.
  17:.\Generated_Source\PSoC4/CyLib.c **** *******************************************************************************/
  18:.\Generated_Source\PSoC4/CyLib.c **** 
  19:.\Generated_Source\PSoC4/CyLib.c **** #include "CyLib.h"
  20:.\Generated_Source\PSoC4/CyLib.c **** 
  21:.\Generated_Source\PSoC4/CyLib.c **** 
  22:.\Generated_Source\PSoC4/CyLib.c **** /* Do not use these definitions directly in your application */
  23:.\Generated_Source\PSoC4/CyLib.c **** uint32 cydelayFreqHz  = CYDEV_BCLK__SYSCLK__HZ;
  24:.\Generated_Source\PSoC4/CyLib.c **** uint32 cydelayFreqKhz = (CYDEV_BCLK__SYSCLK__HZ + CY_DELAY_1K_MINUS_1_THRESHOLD) / CY_DELAY_1K_THRE
  25:.\Generated_Source\PSoC4/CyLib.c **** uint8  cydelayFreqMhz = (uint8)((CYDEV_BCLK__SYSCLK__HZ + CY_DELAY_1M_MINUS_1_THRESHOLD) / CY_DELAY
  26:.\Generated_Source\PSoC4/CyLib.c **** uint32 cydelay32kMs   = CY_DELAY_MS_OVERFLOW * ((CYDEV_BCLK__SYSCLK__HZ + CY_DELAY_1K_MINUS_1_THRES
  27:.\Generated_Source\PSoC4/CyLib.c ****                         CY_DELAY_1K_THRESHOLD);
  28:.\Generated_Source\PSoC4/CyLib.c **** 
  29:.\Generated_Source\PSoC4/CyLib.c **** 
  30:.\Generated_Source\PSoC4/CyLib.c **** /*******************************************************************************
  31:.\Generated_Source\PSoC4/CyLib.c **** * Function Name: CySysClkImoStart
  32:.\Generated_Source\PSoC4/CyLib.c **** ********************************************************************************
ARM GAS  C:\Users\SNFU\AppData\Local\Temp\ccL8ejmf.s 			page 2


  33:.\Generated_Source\PSoC4/CyLib.c **** *
  34:.\Generated_Source\PSoC4/CyLib.c **** * Summary:
  35:.\Generated_Source\PSoC4/CyLib.c **** *  Enables the IMO.
  36:.\Generated_Source\PSoC4/CyLib.c **** *
  37:.\Generated_Source\PSoC4/CyLib.c **** * Parameters:
  38:.\Generated_Source\PSoC4/CyLib.c **** *  None
  39:.\Generated_Source\PSoC4/CyLib.c **** *
  40:.\Generated_Source\PSoC4/CyLib.c **** * Return:
  41:.\Generated_Source\PSoC4/CyLib.c **** *  None
  42:.\Generated_Source\PSoC4/CyLib.c **** *
  43:.\Generated_Source\PSoC4/CyLib.c **** *******************************************************************************/
  44:.\Generated_Source\PSoC4/CyLib.c **** void CySysClkImoStart(void)
  45:.\Generated_Source\PSoC4/CyLib.c **** {
  26              		.loc 1 45 0
  27              		.cfi_startproc
  46:.\Generated_Source\PSoC4/CyLib.c ****     CY_SYS_CLK_IMO_CONFIG_REG |= CY_SYS_CLK_IMO_CONFIG_ENABLE;
  28              		.loc 1 46 0
  29 0000 034B     		ldr	r3, .L2
  30 0002 8022     		mov	r2, #128
  31 0004 1968     		ldr	r1, [r3]
  32 0006 1006     		lsl	r0, r2, #24
  33 0008 0843     		orr	r0, r1
  34 000a 1860     		str	r0, [r3]
  47:.\Generated_Source\PSoC4/CyLib.c **** }
  35              		.loc 1 47 0
  36              		@ sp needed for prologue
  37 000c 7047     		bx	lr
  38              	.L3:
  39 000e C046     		.align	2
  40              	.L2:
  41 0010 08010B40 		.word	1074462984
  42              		.cfi_endproc
  43              	.LFE0:
  44              		.size	CySysClkImoStart, .-CySysClkImoStart
  45              		.section	.text.CySysClkImoStop,"ax",%progbits
  46              		.align	1
  47              		.global	CySysClkImoStop
  48              		.code	16
  49              		.thumb_func
  50              		.type	CySysClkImoStop, %function
  51              	CySysClkImoStop:
  52              	.LFB1:
  48:.\Generated_Source\PSoC4/CyLib.c **** 
  49:.\Generated_Source\PSoC4/CyLib.c **** 
  50:.\Generated_Source\PSoC4/CyLib.c **** /*******************************************************************************
  51:.\Generated_Source\PSoC4/CyLib.c **** * Function Name: CySysClkImoStop
  52:.\Generated_Source\PSoC4/CyLib.c **** ********************************************************************************
  53:.\Generated_Source\PSoC4/CyLib.c **** *
  54:.\Generated_Source\PSoC4/CyLib.c **** * Summary:
  55:.\Generated_Source\PSoC4/CyLib.c **** *  Disables the IMO.
  56:.\Generated_Source\PSoC4/CyLib.c **** *
  57:.\Generated_Source\PSoC4/CyLib.c **** * Parameters:
  58:.\Generated_Source\PSoC4/CyLib.c **** *  None
  59:.\Generated_Source\PSoC4/CyLib.c **** *
  60:.\Generated_Source\PSoC4/CyLib.c **** * Return:
  61:.\Generated_Source\PSoC4/CyLib.c **** *  None
  62:.\Generated_Source\PSoC4/CyLib.c **** *
ARM GAS  C:\Users\SNFU\AppData\Local\Temp\ccL8ejmf.s 			page 3


  63:.\Generated_Source\PSoC4/CyLib.c **** *******************************************************************************/
  64:.\Generated_Source\PSoC4/CyLib.c **** void CySysClkImoStop(void)
  65:.\Generated_Source\PSoC4/CyLib.c **** {
  53              		.loc 1 65 0
  54              		.cfi_startproc
  66:.\Generated_Source\PSoC4/CyLib.c ****     CY_SYS_CLK_IMO_CONFIG_REG &= ( uint32 ) ( ~( uint32 )CY_SYS_CLK_IMO_CONFIG_ENABLE);
  55              		.loc 1 66 0
  56 0000 024B     		ldr	r3, .L5
  67:.\Generated_Source\PSoC4/CyLib.c **** }
  57              		.loc 1 67 0
  58              		@ sp needed for prologue
  66:.\Generated_Source\PSoC4/CyLib.c ****     CY_SYS_CLK_IMO_CONFIG_REG &= ( uint32 ) ( ~( uint32 )CY_SYS_CLK_IMO_CONFIG_ENABLE);
  59              		.loc 1 66 0
  60 0002 1A68     		ldr	r2, [r3]
  61 0004 5000     		lsl	r0, r2, #1
  62 0006 4108     		lsr	r1, r0, #1
  63 0008 1960     		str	r1, [r3]
  64              		.loc 1 67 0
  65 000a 7047     		bx	lr
  66              	.L6:
  67              		.align	2
  68              	.L5:
  69 000c 08010B40 		.word	1074462984
  70              		.cfi_endproc
  71              	.LFE1:
  72              		.size	CySysClkImoStop, .-CySysClkImoStop
  73              		.section	.text.CySysClkIloStart,"ax",%progbits
  74              		.align	1
  75              		.global	CySysClkIloStart
  76              		.code	16
  77              		.thumb_func
  78              		.type	CySysClkIloStart, %function
  79              	CySysClkIloStart:
  80              	.LFB2:
  68:.\Generated_Source\PSoC4/CyLib.c **** 
  69:.\Generated_Source\PSoC4/CyLib.c **** 
  70:.\Generated_Source\PSoC4/CyLib.c **** /*******************************************************************************
  71:.\Generated_Source\PSoC4/CyLib.c **** * Function Name: CySysClkIloStart
  72:.\Generated_Source\PSoC4/CyLib.c **** ********************************************************************************
  73:.\Generated_Source\PSoC4/CyLib.c **** *
  74:.\Generated_Source\PSoC4/CyLib.c **** * Summary:
  75:.\Generated_Source\PSoC4/CyLib.c **** *  Enables the ILO.
  76:.\Generated_Source\PSoC4/CyLib.c **** *
  77:.\Generated_Source\PSoC4/CyLib.c **** * Parameters:
  78:.\Generated_Source\PSoC4/CyLib.c **** *  None
  79:.\Generated_Source\PSoC4/CyLib.c **** *
  80:.\Generated_Source\PSoC4/CyLib.c **** * Return:
  81:.\Generated_Source\PSoC4/CyLib.c **** *  None
  82:.\Generated_Source\PSoC4/CyLib.c **** *
  83:.\Generated_Source\PSoC4/CyLib.c **** *******************************************************************************/
  84:.\Generated_Source\PSoC4/CyLib.c **** void CySysClkIloStart(void)
  85:.\Generated_Source\PSoC4/CyLib.c **** {
  81              		.loc 1 85 0
  82              		.cfi_startproc
  86:.\Generated_Source\PSoC4/CyLib.c ****     CY_SYS_CLK_ILO_CONFIG_REG |= CY_SYS_CLK_ILO_CONFIG_ENABLE;
  83              		.loc 1 86 0
  84 0000 034B     		ldr	r3, .L8
ARM GAS  C:\Users\SNFU\AppData\Local\Temp\ccL8ejmf.s 			page 4


  85 0002 8022     		mov	r2, #128
  86 0004 1968     		ldr	r1, [r3]
  87 0006 1006     		lsl	r0, r2, #24
  88 0008 0843     		orr	r0, r1
  89 000a 1860     		str	r0, [r3]
  87:.\Generated_Source\PSoC4/CyLib.c **** }
  90              		.loc 1 87 0
  91              		@ sp needed for prologue
  92 000c 7047     		bx	lr
  93              	.L9:
  94 000e C046     		.align	2
  95              	.L8:
  96 0010 04010B40 		.word	1074462980
  97              		.cfi_endproc
  98              	.LFE2:
  99              		.size	CySysClkIloStart, .-CySysClkIloStart
 100              		.section	.text.CySysClkIloStop,"ax",%progbits
 101              		.align	1
 102              		.global	CySysClkIloStop
 103              		.code	16
 104              		.thumb_func
 105              		.type	CySysClkIloStop, %function
 106              	CySysClkIloStop:
 107              	.LFB3:
  88:.\Generated_Source\PSoC4/CyLib.c **** 
  89:.\Generated_Source\PSoC4/CyLib.c **** 
  90:.\Generated_Source\PSoC4/CyLib.c **** /*******************************************************************************
  91:.\Generated_Source\PSoC4/CyLib.c **** * Function Name: CySysClkIloStop
  92:.\Generated_Source\PSoC4/CyLib.c **** ********************************************************************************
  93:.\Generated_Source\PSoC4/CyLib.c **** *
  94:.\Generated_Source\PSoC4/CyLib.c **** * Summary:
  95:.\Generated_Source\PSoC4/CyLib.c **** *  Disables the ILO.
  96:.\Generated_Source\PSoC4/CyLib.c **** *
  97:.\Generated_Source\PSoC4/CyLib.c **** * Parameters:
  98:.\Generated_Source\PSoC4/CyLib.c **** *  None
  99:.\Generated_Source\PSoC4/CyLib.c **** *
 100:.\Generated_Source\PSoC4/CyLib.c **** * Return:
 101:.\Generated_Source\PSoC4/CyLib.c **** *  None
 102:.\Generated_Source\PSoC4/CyLib.c **** *
 103:.\Generated_Source\PSoC4/CyLib.c **** * Side Effects:
 104:.\Generated_Source\PSoC4/CyLib.c **** *  This function will have no effect if the WDT is locked (CySysWdtLock() is
 105:.\Generated_Source\PSoC4/CyLib.c **** *  called). Call CySysWdtUnlock() to unlock the WDT and be able to stop ILO.
 106:.\Generated_Source\PSoC4/CyLib.c **** *  Note that ILO is required for the WDT's operation.
 107:.\Generated_Source\PSoC4/CyLib.c **** *
 108:.\Generated_Source\PSoC4/CyLib.c **** *******************************************************************************/
 109:.\Generated_Source\PSoC4/CyLib.c **** void CySysClkIloStop(void)
 110:.\Generated_Source\PSoC4/CyLib.c **** {
 108              		.loc 1 110 0
 109              		.cfi_startproc
 111:.\Generated_Source\PSoC4/CyLib.c ****     CY_SYS_CLK_ILO_CONFIG_REG &= ( uint32 ) ( ~( uint32 )CY_SYS_CLK_ILO_CONFIG_ENABLE);
 110              		.loc 1 111 0
 111 0000 024B     		ldr	r3, .L11
 112:.\Generated_Source\PSoC4/CyLib.c **** }
 112              		.loc 1 112 0
 113              		@ sp needed for prologue
 111:.\Generated_Source\PSoC4/CyLib.c ****     CY_SYS_CLK_ILO_CONFIG_REG &= ( uint32 ) ( ~( uint32 )CY_SYS_CLK_ILO_CONFIG_ENABLE);
 114              		.loc 1 111 0
ARM GAS  C:\Users\SNFU\AppData\Local\Temp\ccL8ejmf.s 			page 5


 115 0002 1A68     		ldr	r2, [r3]
 116 0004 5000     		lsl	r0, r2, #1
 117 0006 4108     		lsr	r1, r0, #1
 118 0008 1960     		str	r1, [r3]
 119              		.loc 1 112 0
 120 000a 7047     		bx	lr
 121              	.L12:
 122              		.align	2
 123              	.L11:
 124 000c 04010B40 		.word	1074462980
 125              		.cfi_endproc
 126              	.LFE3:
 127              		.size	CySysClkIloStop, .-CySysClkIloStop
 128              		.section	.text.CySysClkWriteHfclkDirect,"ax",%progbits
 129              		.align	1
 130              		.global	CySysClkWriteHfclkDirect
 131              		.code	16
 132              		.thumb_func
 133              		.type	CySysClkWriteHfclkDirect, %function
 134              	CySysClkWriteHfclkDirect:
 135              	.LFB4:
 113:.\Generated_Source\PSoC4/CyLib.c **** 
 114:.\Generated_Source\PSoC4/CyLib.c **** 
 115:.\Generated_Source\PSoC4/CyLib.c **** /*******************************************************************************
 116:.\Generated_Source\PSoC4/CyLib.c **** * Function Name: CySysClkWriteHfclkDirect
 117:.\Generated_Source\PSoC4/CyLib.c **** ********************************************************************************
 118:.\Generated_Source\PSoC4/CyLib.c **** *
 119:.\Generated_Source\PSoC4/CyLib.c **** * Summary:
 120:.\Generated_Source\PSoC4/CyLib.c **** *  Selects the direct source for the HFCLK.
 121:.\Generated_Source\PSoC4/CyLib.c **** *
 122:.\Generated_Source\PSoC4/CyLib.c **** * Parameters:
 123:.\Generated_Source\PSoC4/CyLib.c **** *  clkSelect: One of the available HFCLK direct sources:
 124:.\Generated_Source\PSoC4/CyLib.c **** *   Value        Define                    Source
 125:.\Generated_Source\PSoC4/CyLib.c **** *    0            CY_SYS_CLK_HFCLK_IMO      IMO
 126:.\Generated_Source\PSoC4/CyLib.c **** *    1            CY_SYS_CLK_HFCLK_EXTCLK   External clock pin
 127:.\Generated_Source\PSoC4/CyLib.c **** *
 128:.\Generated_Source\PSoC4/CyLib.c **** * Return:
 129:.\Generated_Source\PSoC4/CyLib.c **** *  None
 130:.\Generated_Source\PSoC4/CyLib.c **** *
 131:.\Generated_Source\PSoC4/CyLib.c **** * Side Effects:
 132:.\Generated_Source\PSoC4/CyLib.c **** *  The new source must be running and stable before calling this function.
 133:.\Generated_Source\PSoC4/CyLib.c **** *  Direct source is a default option for HFCLK.
 134:.\Generated_Source\PSoC4/CyLib.c **** *
 135:.\Generated_Source\PSoC4/CyLib.c **** *  If the SYSCLK clock frequency increases during device operation, call
 136:.\Generated_Source\PSoC4/CyLib.c **** *  CySysFlashSetWaitCycles() with the appropriate parameter to adjust the number
 137:.\Generated_Source\PSoC4/CyLib.c **** *  of clock cycles the cache will wait before sampling data comes back from Flash.
 138:.\Generated_Source\PSoC4/CyLib.c **** *  If the SYSCLK clock frequency decreases, you can call
 139:.\Generated_Source\PSoC4/CyLib.c **** *  CySysFlashSetWaitCycles() to improve the CPU performance. See
 140:.\Generated_Source\PSoC4/CyLib.c **** *  CySysFlashSetWaitCycles() description for more information.
 141:.\Generated_Source\PSoC4/CyLib.c **** *
 142:.\Generated_Source\PSoC4/CyLib.c **** *******************************************************************************/
 143:.\Generated_Source\PSoC4/CyLib.c **** void CySysClkWriteHfclkDirect(uint32 clkSelect)
 144:.\Generated_Source\PSoC4/CyLib.c **** {
 136              		.loc 1 144 0
 137              		.cfi_startproc
 138              	.LVL0:
 139 0000 10B5     		push	{r4, lr}
ARM GAS  C:\Users\SNFU\AppData\Local\Temp\ccL8ejmf.s 			page 6


 140              	.LCFI0:
 141              		.cfi_def_cfa_offset 8
 142              		.cfi_offset 4, -8
 143              		.cfi_offset 14, -4
 144              		.loc 1 144 0
 145 0002 041C     		mov	r4, r0
 145:.\Generated_Source\PSoC4/CyLib.c ****     uint8  interruptState;
 146:.\Generated_Source\PSoC4/CyLib.c **** 
 147:.\Generated_Source\PSoC4/CyLib.c ****     interruptState = CyEnterCriticalSection();
 146              		.loc 1 147 0
 147 0004 FFF7FEFF 		bl	CyEnterCriticalSection
 148              	.LVL1:
 148:.\Generated_Source\PSoC4/CyLib.c **** 
 149:.\Generated_Source\PSoC4/CyLib.c ****     CY_SYS_CLK_SELECT_REG = ((CY_SYS_CLK_SELECT_REG & (( uint32 ) ~(( uint32 )CY_SYS_CLK_SELECT_DIR
 149              		.loc 1 149 0
 150 0008 054B     		ldr	r3, .L14
 150:.\Generated_Source\PSoC4/CyLib.c ****                         (( uint32 ) (clkSelect & ( uint32 )CY_SYS_CLK_SELECT_DIRECT_SEL_PARAM_MASK)
 151              		.loc 1 150 0
 152 000a 0121     		mov	r1, #1
 149:.\Generated_Source\PSoC4/CyLib.c ****     CY_SYS_CLK_SELECT_REG = ((CY_SYS_CLK_SELECT_REG & (( uint32 ) ~(( uint32 )CY_SYS_CLK_SELECT_DIR
 153              		.loc 1 149 0
 154 000c 1A68     		ldr	r2, [r3]
 155              		.loc 1 150 0
 156 000e 0C40     		and	r4, r1
 157              	.LVL2:
 149:.\Generated_Source\PSoC4/CyLib.c ****     CY_SYS_CLK_SELECT_REG = ((CY_SYS_CLK_SELECT_REG & (( uint32 ) ~(( uint32 )CY_SYS_CLK_SELECT_DIR
 158              		.loc 1 149 0
 159 0010 0721     		mov	r1, #7
 160 0012 8A43     		bic	r2, r1
 161 0014 1443     		orr	r4, r2
 162 0016 1C60     		str	r4, [r3]
 151:.\Generated_Source\PSoC4/CyLib.c **** 
 152:.\Generated_Source\PSoC4/CyLib.c ****     CyExitCriticalSection(interruptState);
 163              		.loc 1 152 0
 164 0018 FFF7FEFF 		bl	CyExitCriticalSection
 165              	.LVL3:
 153:.\Generated_Source\PSoC4/CyLib.c **** }
 166              		.loc 1 153 0
 167              		@ sp needed for prologue
 168 001c 10BD     		pop	{r4, pc}
 169              	.L15:
 170 001e C046     		.align	2
 171              	.L14:
 172 0020 00010B40 		.word	1074462976
 173              		.cfi_endproc
 174              	.LFE4:
 175              		.size	CySysClkWriteHfclkDirect, .-CySysClkWriteHfclkDirect
 176              		.section	.text.CySysClkWriteSysclkDiv,"ax",%progbits
 177              		.align	1
 178              		.global	CySysClkWriteSysclkDiv
 179              		.code	16
 180              		.thumb_func
 181              		.type	CySysClkWriteSysclkDiv, %function
 182              	CySysClkWriteSysclkDiv:
 183              	.LFB5:
 154:.\Generated_Source\PSoC4/CyLib.c **** 
 155:.\Generated_Source\PSoC4/CyLib.c **** 
ARM GAS  C:\Users\SNFU\AppData\Local\Temp\ccL8ejmf.s 			page 7


 156:.\Generated_Source\PSoC4/CyLib.c **** /*******************************************************************************
 157:.\Generated_Source\PSoC4/CyLib.c **** * Function Name: CySysClkWriteSysclkDiv
 158:.\Generated_Source\PSoC4/CyLib.c **** ********************************************************************************
 159:.\Generated_Source\PSoC4/CyLib.c **** *
 160:.\Generated_Source\PSoC4/CyLib.c **** * Summary:
 161:.\Generated_Source\PSoC4/CyLib.c **** *  Selects SYSCLK from HFCLK pre-scaler value.
 162:.\Generated_Source\PSoC4/CyLib.c **** *
 163:.\Generated_Source\PSoC4/CyLib.c **** * Parameters:
 164:.\Generated_Source\PSoC4/CyLib.c **** *  divider: Power of 2 prescaler selection
 165:.\Generated_Source\PSoC4/CyLib.c **** *
 166:.\Generated_Source\PSoC4/CyLib.c **** *   Define                        Description
 167:.\Generated_Source\PSoC4/CyLib.c **** *   CY_SYS_CLK_SYSCLK_DIV1        SYSCLK = HFCLK / 1
 168:.\Generated_Source\PSoC4/CyLib.c **** *   CY_SYS_CLK_SYSCLK_DIV2        SYSCLK = HFCLK / 2
 169:.\Generated_Source\PSoC4/CyLib.c **** *   CY_SYS_CLK_SYSCLK_DIV4        SYSCLK = HFCLK / 4
 170:.\Generated_Source\PSoC4/CyLib.c **** *   CY_SYS_CLK_SYSCLK_DIV8        SYSCLK = HFCLK / 8
 171:.\Generated_Source\PSoC4/CyLib.c **** *   CY_SYS_CLK_SYSCLK_DIV16       SYSCLK = HFCLK / 16  (N/A for 4000 Family)
 172:.\Generated_Source\PSoC4/CyLib.c **** *   CY_SYS_CLK_SYSCLK_DIV32       SYSCLK = HFCLK / 32  (N/A for 4000 Family)
 173:.\Generated_Source\PSoC4/CyLib.c **** *   CY_SYS_CLK_SYSCLK_DIV64       SYSCLK = HFCLK / 64  (N/A for 4000 Family)
 174:.\Generated_Source\PSoC4/CyLib.c **** *   CY_SYS_CLK_SYSCLK_DIV128      SYSCLK = HFCLK / 128 (N/A for 4000 Family)
 175:.\Generated_Source\PSoC4/CyLib.c **** *
 176:.\Generated_Source\PSoC4/CyLib.c **** * Return:
 177:.\Generated_Source\PSoC4/CyLib.c **** *  None
 178:.\Generated_Source\PSoC4/CyLib.c **** *
 179:.\Generated_Source\PSoC4/CyLib.c **** * Side Effects:
 180:.\Generated_Source\PSoC4/CyLib.c **** *  4000 Family:
 181:.\Generated_Source\PSoC4/CyLib.c **** *  The SYS_CLK has the speed of 16 MHz, so dividers HF_CLK and SYS_CLK
 182:.\Generated_Source\PSoC4/CyLib.c **** *  dividers should be selected in a way, not to exceed 16 MHz for SYS_CLK.
 183:.\Generated_Source\PSoC4/CyLib.c **** *
 184:.\Generated_Source\PSoC4/CyLib.c **** *  If the SYSCLK clock frequency increases during the device operation, call
 185:.\Generated_Source\PSoC4/CyLib.c **** *  CySysFlashSetWaitCycles() with the appropriate parameter to adjust the number
 186:.\Generated_Source\PSoC4/CyLib.c **** *  of clock cycles the cache will wait before sampling data comes?? back from Flash.
 187:.\Generated_Source\PSoC4/CyLib.c **** *  If the SYSCLK clock frequency decreases, you can call
 188:.\Generated_Source\PSoC4/CyLib.c **** *  CySysFlashSetWaitCycles() to improve the CPU performance. See
 189:.\Generated_Source\PSoC4/CyLib.c **** *  CySysFlashSetWaitCycles() description for more information.
 190:.\Generated_Source\PSoC4/CyLib.c **** *
 191:.\Generated_Source\PSoC4/CyLib.c **** *******************************************************************************/
 192:.\Generated_Source\PSoC4/CyLib.c **** void CySysClkWriteSysclkDiv(uint32 divider)
 193:.\Generated_Source\PSoC4/CyLib.c **** {
 184              		.loc 1 193 0
 185              		.cfi_startproc
 186              	.LVL4:
 187 0000 38B5     		push	{r3, r4, r5, lr}
 188              	.LCFI1:
 189              		.cfi_def_cfa_offset 16
 190              		.cfi_offset 3, -16
 191              		.cfi_offset 4, -12
 192              		.cfi_offset 5, -8
 193              		.cfi_offset 14, -4
 194              		.loc 1 193 0
 195 0002 041C     		mov	r4, r0
 194:.\Generated_Source\PSoC4/CyLib.c ****     uint8  interruptState;
 195:.\Generated_Source\PSoC4/CyLib.c **** 
 196:.\Generated_Source\PSoC4/CyLib.c ****     interruptState = CyEnterCriticalSection();
 196              		.loc 1 196 0
 197 0004 FFF7FEFF 		bl	CyEnterCriticalSection
 198              	.LVL5:
 197:.\Generated_Source\PSoC4/CyLib.c **** 
ARM GAS  C:\Users\SNFU\AppData\Local\Temp\ccL8ejmf.s 			page 8


 198:.\Generated_Source\PSoC4/CyLib.c ****     CY_SYS_CLK_SELECT_REG = ((uint32)(((uint32)divider & CY_SYS_CLK_SELECT_SYSCLK_DIV_MASK) <<
 199:.\Generated_Source\PSoC4/CyLib.c ****                                     CY_SYS_CLK_SELECT_SYSCLK_DIV_SHIFT)) |
 200:.\Generated_Source\PSoC4/CyLib.c ****                             (CY_SYS_CLK_SELECT_REG & ((uint32)(~(uint32)(CY_SYS_CLK_SELECT_SYSCLK_D
 199              		.loc 1 200 0
 200 0008 064B     		ldr	r3, .L17
 198:.\Generated_Source\PSoC4/CyLib.c ****     CY_SYS_CLK_SELECT_REG = ((uint32)(((uint32)divider & CY_SYS_CLK_SELECT_SYSCLK_DIV_MASK) <<
 201              		.loc 1 198 0
 202 000a 0722     		mov	r2, #7
 203              		.loc 1 200 0
 204 000c 1D68     		ldr	r5, [r3]
 205 000e 0649     		ldr	r1, .L17+4
 198:.\Generated_Source\PSoC4/CyLib.c ****     CY_SYS_CLK_SELECT_REG = ((uint32)(((uint32)divider & CY_SYS_CLK_SELECT_SYSCLK_DIV_MASK) <<
 206              		.loc 1 198 0
 207 0010 1440     		and	r4, r2
 208              	.LVL6:
 209 0012 E204     		lsl	r2, r4, #19
 210              		.loc 1 200 0
 211 0014 2C1C     		mov	r4, r5
 212 0016 0C40     		and	r4, r1
 199:.\Generated_Source\PSoC4/CyLib.c ****                                     CY_SYS_CLK_SELECT_SYSCLK_DIV_SHIFT)) |
 213              		.loc 1 199 0
 214 0018 1443     		orr	r4, r2
 198:.\Generated_Source\PSoC4/CyLib.c ****     CY_SYS_CLK_SELECT_REG = ((uint32)(((uint32)divider & CY_SYS_CLK_SELECT_SYSCLK_DIV_MASK) <<
 215              		.loc 1 198 0
 216 001a 1C60     		str	r4, [r3]
 201:.\Generated_Source\PSoC4/CyLib.c ****                                     CY_SYS_CLK_SELECT_SYSCLK_DIV_SHIFT))));
 202:.\Generated_Source\PSoC4/CyLib.c **** 
 203:.\Generated_Source\PSoC4/CyLib.c ****     CyExitCriticalSection(interruptState);
 217              		.loc 1 203 0
 218 001c FFF7FEFF 		bl	CyExitCriticalSection
 219              	.LVL7:
 204:.\Generated_Source\PSoC4/CyLib.c **** }
 220              		.loc 1 204 0
 221              		@ sp needed for prologue
 222 0020 38BD     		pop	{r3, r4, r5, pc}
 223              	.L18:
 224 0022 C046     		.align	2
 225              	.L17:
 226 0024 00010B40 		.word	1074462976
 227 0028 FFFFC7FF 		.word	-3670017
 228              		.cfi_endproc
 229              	.LFE5:
 230              		.size	CySysClkWriteSysclkDiv, .-CySysClkWriteSysclkDiv
 231              		.section	.text.CySysWdtLock,"ax",%progbits
 232              		.align	1
 233              		.global	CySysWdtLock
 234              		.code	16
 235              		.thumb_func
 236              		.type	CySysWdtLock, %function
 237              	CySysWdtLock:
 238              	.LFB7:
 205:.\Generated_Source\PSoC4/CyLib.c **** 
 206:.\Generated_Source\PSoC4/CyLib.c **** 
 207:.\Generated_Source\PSoC4/CyLib.c **** #if(CY_PSOC4A)
 208:.\Generated_Source\PSoC4/CyLib.c **** 
 209:.\Generated_Source\PSoC4/CyLib.c ****     /*******************************************************************************
 210:.\Generated_Source\PSoC4/CyLib.c ****     * Function Name: CySysClkWriteImoFreq
ARM GAS  C:\Users\SNFU\AppData\Local\Temp\ccL8ejmf.s 			page 9


 211:.\Generated_Source\PSoC4/CyLib.c ****     ********************************************************************************
 212:.\Generated_Source\PSoC4/CyLib.c ****     *
 213:.\Generated_Source\PSoC4/CyLib.c ****     * Summary:
 214:.\Generated_Source\PSoC4/CyLib.c ****     *  Sets the frequency of the IMO.
 215:.\Generated_Source\PSoC4/CyLib.c ****     *
 216:.\Generated_Source\PSoC4/CyLib.c ****     * Parameters:
 217:.\Generated_Source\PSoC4/CyLib.c ****     *  freq: Valid range [3-48].  Frequency for operation of the IMO.
 218:.\Generated_Source\PSoC4/CyLib.c ****     *  Note: Invalid frequency will be ignored.
 219:.\Generated_Source\PSoC4/CyLib.c ****     *
 220:.\Generated_Source\PSoC4/CyLib.c ****     * Return:
 221:.\Generated_Source\PSoC4/CyLib.c ****     *  None
 222:.\Generated_Source\PSoC4/CyLib.c ****     *
 223:.\Generated_Source\PSoC4/CyLib.c ****     * Side Effects:
 224:.\Generated_Source\PSoC4/CyLib.c ****     *  If the SYSCLK clock frequency increases during the device operation, call
 225:.\Generated_Source\PSoC4/CyLib.c ****     *  CySysFlashSetWaitCycles() with the appropriate parameter to adjust the number
 226:.\Generated_Source\PSoC4/CyLib.c ****     *  of clock cycles the cache will wait before sampling data comes back from Flash.
 227:.\Generated_Source\PSoC4/CyLib.c ****     *  If the SYSCLK clock frequency decreases, you can call
 228:.\Generated_Source\PSoC4/CyLib.c ****     *  CySysFlashSetWaitCycles() to improve the CPU performance.
 229:.\Generated_Source\PSoC4/CyLib.c ****     *  See CySysFlashSetWaitCycles() description for more information.
 230:.\Generated_Source\PSoC4/CyLib.c ****     *
 231:.\Generated_Source\PSoC4/CyLib.c ****     *******************************************************************************/
 232:.\Generated_Source\PSoC4/CyLib.c ****     void CySysClkWriteImoFreq(uint32 freq)
 233:.\Generated_Source\PSoC4/CyLib.c ****     {
 234:.\Generated_Source\PSoC4/CyLib.c ****         uint8  bgTrim4;
 235:.\Generated_Source\PSoC4/CyLib.c ****         uint8  bgTrim5;
 236:.\Generated_Source\PSoC4/CyLib.c ****         uint32 currentFreq = CY_SYS_CLK_IMO_MAX_FREQ_MHZ;
 237:.\Generated_Source\PSoC4/CyLib.c ****         uint8  interruptState;
 238:.\Generated_Source\PSoC4/CyLib.c ****         uint32 i;
 239:.\Generated_Source\PSoC4/CyLib.c **** 
 240:.\Generated_Source\PSoC4/CyLib.c ****         /* Convertion between CySysClkWriteImoFreq() parameter and register's value */
 241:.\Generated_Source\PSoC4/CyLib.c ****         static const uint8 cyImoFreqMhz2Reg[CY_SYS_CLK_IMO_FREQ_TABLE_SIZE] = {
 242:.\Generated_Source\PSoC4/CyLib.c ****             /*  3 MHz */ 0x03u,  /*  4 MHz */ 0x04u,  /*  5 MHz */ 0x05u,  /*  6 MHz */ 0x06u,
 243:.\Generated_Source\PSoC4/CyLib.c ****             /*  7 MHz */ 0x07u,  /*  8 MHz */ 0x08u,  /*  9 MHz */ 0x09u,  /* 10 MHz */ 0x0Au,
 244:.\Generated_Source\PSoC4/CyLib.c ****             /* 11 MHz */ 0x0Bu,  /* 12 MHz */ 0x0Cu,  /* 13 MHz */ 0x0Eu,  /* 14 MHz */ 0x0Fu,
 245:.\Generated_Source\PSoC4/CyLib.c ****             /* 15 MHz */ 0x10u,  /* 16 MHz */ 0x11u,  /* 17 MHz */ 0x12u,  /* 18 MHz */ 0x13u,
 246:.\Generated_Source\PSoC4/CyLib.c ****             /* 19 MHz */ 0x14u,  /* 20 MHz */ 0x15u,  /* 21 MHz */ 0x16u,  /* 22 MHz */ 0x17u,
 247:.\Generated_Source\PSoC4/CyLib.c ****             /* 23 MHz */ 0x18u,  /* 24 MHz */ 0x19u,  /* 25 MHz */ 0x1Bu,  /* 26 MHz */ 0x1Cu,
 248:.\Generated_Source\PSoC4/CyLib.c ****             /* 27 MHz */ 0x1Du,  /* 28 MHz */ 0x1Eu,  /* 29 MHz */ 0x1Fu,  /* 30 MHz */ 0x20u,
 249:.\Generated_Source\PSoC4/CyLib.c ****             /* 31 MHz */ 0x21u,  /* 32 MHz */ 0x22u,  /* 33 MHz */ 0x23u,  /* 34 MHz */ 0x25u,
 250:.\Generated_Source\PSoC4/CyLib.c ****             /* 35 MHz */ 0x26u,  /* 36 MHz */ 0x27u,  /* 37 MHz */ 0x28u,  /* 38 MHz */ 0x29u,
 251:.\Generated_Source\PSoC4/CyLib.c ****             /* 39 MHz */ 0x2Au,  /* 40 MHz */ 0x2Bu,  /* 41 MHz */ 0x2Eu,  /* 42 MHz */ 0x2Fu,
 252:.\Generated_Source\PSoC4/CyLib.c ****             /* 43 MHz */ 0x30u,  /* 44 MHz */ 0x31u,  /* 45 MHz */ 0x32u,  /* 46 MHz */ 0x33u,
 253:.\Generated_Source\PSoC4/CyLib.c ****             /* 47 MHz */ 0x34u,  /* 48 MHz */ 0x35u };
 254:.\Generated_Source\PSoC4/CyLib.c **** 
 255:.\Generated_Source\PSoC4/CyLib.c **** 
 256:.\Generated_Source\PSoC4/CyLib.c ****         if ((freq >= CY_SYS_CLK_IMO_MIN_FREQ_MHZ) && (freq <= CY_SYS_CLK_IMO_MAX_FREQ_MHZ))
 257:.\Generated_Source\PSoC4/CyLib.c ****         {
 258:.\Generated_Source\PSoC4/CyLib.c ****             interruptState = CyEnterCriticalSection();
 259:.\Generated_Source\PSoC4/CyLib.c **** 
 260:.\Generated_Source\PSoC4/CyLib.c ****             /* Get current IMO frequency */
 261:.\Generated_Source\PSoC4/CyLib.c ****             for (i = 0u; i < CY_SYS_CLK_IMO_FREQ_TABLE_SIZE; i++)
 262:.\Generated_Source\PSoC4/CyLib.c ****             {
 263:.\Generated_Source\PSoC4/CyLib.c ****                 if (cyImoFreqMhz2Reg[i] == (CY_SYS_CLK_IMO_TRIM2_REG & CY_SYS_CLK_IMO_FREQ_BITS_MAS
 264:.\Generated_Source\PSoC4/CyLib.c ****                 {
 265:.\Generated_Source\PSoC4/CyLib.c ****                     currentFreq = i + CY_SYS_CLK_IMO_FREQ_TABLE_OFFSET;
 266:.\Generated_Source\PSoC4/CyLib.c ****                     break;
 267:.\Generated_Source\PSoC4/CyLib.c ****                 }
ARM GAS  C:\Users\SNFU\AppData\Local\Temp\ccL8ejmf.s 			page 10


 268:.\Generated_Source\PSoC4/CyLib.c ****             }
 269:.\Generated_Source\PSoC4/CyLib.c **** 
 270:.\Generated_Source\PSoC4/CyLib.c ****             if(freq <= CY_SFLASH_IMO_MAXF0_REG)
 271:.\Generated_Source\PSoC4/CyLib.c ****             {
 272:.\Generated_Source\PSoC4/CyLib.c ****                 bgTrim4 = CY_SFLASH_IMO_ABS0_REG;
 273:.\Generated_Source\PSoC4/CyLib.c ****                 bgTrim5 = CY_SFLASH_IMO_TMPCO0_REG;
 274:.\Generated_Source\PSoC4/CyLib.c ****             }
 275:.\Generated_Source\PSoC4/CyLib.c ****             else if(freq <= CY_SFLASH_IMO_MAXF1_REG)
 276:.\Generated_Source\PSoC4/CyLib.c ****             {
 277:.\Generated_Source\PSoC4/CyLib.c ****                 bgTrim4 = CY_SFLASH_IMO_ABS1_REG;
 278:.\Generated_Source\PSoC4/CyLib.c ****                 bgTrim5 = CY_SFLASH_IMO_TMPCO1_REG;
 279:.\Generated_Source\PSoC4/CyLib.c ****             }
 280:.\Generated_Source\PSoC4/CyLib.c ****             else if(freq <= CY_SFLASH_IMO_MAXF2_REG)
 281:.\Generated_Source\PSoC4/CyLib.c ****             {
 282:.\Generated_Source\PSoC4/CyLib.c ****                 bgTrim4 = CY_SFLASH_IMO_ABS2_REG;
 283:.\Generated_Source\PSoC4/CyLib.c ****                 bgTrim5 = CY_SFLASH_IMO_TMPCO2_REG;
 284:.\Generated_Source\PSoC4/CyLib.c ****             }
 285:.\Generated_Source\PSoC4/CyLib.c ****             else if(freq <= CY_SFLASH_IMO_MAXF3_REG)
 286:.\Generated_Source\PSoC4/CyLib.c ****             {
 287:.\Generated_Source\PSoC4/CyLib.c ****                 bgTrim4 = CY_SFLASH_IMO_ABS3_REG;
 288:.\Generated_Source\PSoC4/CyLib.c ****                 bgTrim5 = CY_SFLASH_IMO_TMPCO3_REG;
 289:.\Generated_Source\PSoC4/CyLib.c ****             }
 290:.\Generated_Source\PSoC4/CyLib.c ****             else
 291:.\Generated_Source\PSoC4/CyLib.c ****             {
 292:.\Generated_Source\PSoC4/CyLib.c ****                 bgTrim4 = CY_SFLASH_IMO_ABS4_REG;
 293:.\Generated_Source\PSoC4/CyLib.c ****                 bgTrim5 = CY_SFLASH_IMO_TMPCO4_REG;
 294:.\Generated_Source\PSoC4/CyLib.c ****             }
 295:.\Generated_Source\PSoC4/CyLib.c **** 
 296:.\Generated_Source\PSoC4/CyLib.c **** 
 297:.\Generated_Source\PSoC4/CyLib.c ****             /***************************************************************************
 298:.\Generated_Source\PSoC4/CyLib.c ****             * The IMO can have a different trim per frequency. To avoid possible corner
 299:.\Generated_Source\PSoC4/CyLib.c ****             * cases where a trim change can exceed the maximum frequency, the trim must
 300:.\Generated_Source\PSoC4/CyLib.c ****             * be applied at a frequency that is low enough.
 301:.\Generated_Source\PSoC4/CyLib.c ****             ***************************************************************************/
 302:.\Generated_Source\PSoC4/CyLib.c ****             if ((currentFreq >= CY_SYS_CLK_IMO_BOUNDARY_FREQ_MHZ) && (freq >= CY_SYS_CLK_IMO_BOUNDA
 303:.\Generated_Source\PSoC4/CyLib.c ****             {
 304:.\Generated_Source\PSoC4/CyLib.c ****                 /* Set boundary IMO frequency: safe for IMO above 48 MHZ trimming */
 305:.\Generated_Source\PSoC4/CyLib.c ****                 CY_SYS_CLK_IMO_TRIM2_REG = (uint32) cyImoFreqMhz2Reg[CY_SYS_CLK_IMO_TEMP_FREQ_MHZ -
 306:.\Generated_Source\PSoC4/CyLib.c ****                                                                      CY_SYS_CLK_IMO_FREQ_TABLE_OFFS
 307:.\Generated_Source\PSoC4/CyLib.c **** 
 308:.\Generated_Source\PSoC4/CyLib.c ****                 CyDelayCycles(CY_SYS_CLK_IMO_FREQ_TIMEOUT_CYCLES);
 309:.\Generated_Source\PSoC4/CyLib.c **** 
 310:.\Generated_Source\PSoC4/CyLib.c ****                 currentFreq = CY_SYS_CLK_IMO_TEMP_FREQ_MHZ;
 311:.\Generated_Source\PSoC4/CyLib.c ****             }
 312:.\Generated_Source\PSoC4/CyLib.c **** 
 313:.\Generated_Source\PSoC4/CyLib.c **** 
 314:.\Generated_Source\PSoC4/CyLib.c ****             /***************************************************************************
 315:.\Generated_Source\PSoC4/CyLib.c ****             * A trim change needs to be allowed to settle (within 5us) before the Freq can be
 316:.\Generated_Source\PSoC4/CyLib.c ****             * changed to a new frequency.
 317:.\Generated_Source\PSoC4/CyLib.c ****             ***************************************************************************/
 318:.\Generated_Source\PSoC4/CyLib.c ****             if (freq > currentFreq)
 319:.\Generated_Source\PSoC4/CyLib.c ****             {
 320:.\Generated_Source\PSoC4/CyLib.c ****                 /* Set trims for the new IMO frequency */
 321:.\Generated_Source\PSoC4/CyLib.c ****                 CY_SYS_CLK_IMO_TRIM1_REG = (uint32) CY_SFLASH_IMO_TRIM_REG(freq - CY_SYS_CLK_IMO_FR
 322:.\Generated_Source\PSoC4/CyLib.c ****                 CY_PWR_BG_TRIM4_REG  = bgTrim4;
 323:.\Generated_Source\PSoC4/CyLib.c ****                 CY_PWR_BG_TRIM5_REG  = bgTrim5;
 324:.\Generated_Source\PSoC4/CyLib.c ****                 CyDelayUs(CY_SYS_CLK_IMO_TRIM_TIMEOUT_US);
ARM GAS  C:\Users\SNFU\AppData\Local\Temp\ccL8ejmf.s 			page 11


 325:.\Generated_Source\PSoC4/CyLib.c **** 
 326:.\Generated_Source\PSoC4/CyLib.c ****                 /* Set new IMO frequency */
 327:.\Generated_Source\PSoC4/CyLib.c ****                 CY_SYS_CLK_IMO_TRIM2_REG = cyImoFreqMhz2Reg[freq - CY_SYS_CLK_IMO_FREQ_TABLE_OFFSET
 328:.\Generated_Source\PSoC4/CyLib.c ****                 CyDelayCycles(CY_SYS_CLK_IMO_FREQ_TIMEOUT_CYCLES);
 329:.\Generated_Source\PSoC4/CyLib.c ****             }
 330:.\Generated_Source\PSoC4/CyLib.c ****             else
 331:.\Generated_Source\PSoC4/CyLib.c ****             {
 332:.\Generated_Source\PSoC4/CyLib.c ****                 /* Set new IMO frequency */
 333:.\Generated_Source\PSoC4/CyLib.c ****                 CY_SYS_CLK_IMO_TRIM2_REG = cyImoFreqMhz2Reg[freq - CY_SYS_CLK_IMO_FREQ_TABLE_OFFSET
 334:.\Generated_Source\PSoC4/CyLib.c ****                 CyDelayCycles(CY_SYS_CLK_IMO_FREQ_TIMEOUT_CYCLES);
 335:.\Generated_Source\PSoC4/CyLib.c **** 
 336:.\Generated_Source\PSoC4/CyLib.c ****                 /* Set trims for the new IMO frequency */
 337:.\Generated_Source\PSoC4/CyLib.c ****                 CY_SYS_CLK_IMO_TRIM1_REG = CY_SFLASH_IMO_TRIM_REG(freq - CY_SYS_CLK_IMO_FREQ_TABLE_
 338:.\Generated_Source\PSoC4/CyLib.c ****                 CY_PWR_BG_TRIM4_REG  = bgTrim4;
 339:.\Generated_Source\PSoC4/CyLib.c ****                 CY_PWR_BG_TRIM5_REG  = bgTrim5;
 340:.\Generated_Source\PSoC4/CyLib.c ****                 CyDelayUs(CY_SYS_CLK_IMO_TRIM_TIMEOUT_US);
 341:.\Generated_Source\PSoC4/CyLib.c ****             }
 342:.\Generated_Source\PSoC4/CyLib.c **** 
 343:.\Generated_Source\PSoC4/CyLib.c ****             CyExitCriticalSection(interruptState);
 344:.\Generated_Source\PSoC4/CyLib.c ****         }
 345:.\Generated_Source\PSoC4/CyLib.c ****         else
 346:.\Generated_Source\PSoC4/CyLib.c ****         {
 347:.\Generated_Source\PSoC4/CyLib.c ****             /* Halt CPU in debug mode if new frequency is invalid */
 348:.\Generated_Source\PSoC4/CyLib.c ****             CYASSERT(0u != 0u);
 349:.\Generated_Source\PSoC4/CyLib.c ****         }
 350:.\Generated_Source\PSoC4/CyLib.c ****     }
 351:.\Generated_Source\PSoC4/CyLib.c **** 
 352:.\Generated_Source\PSoC4/CyLib.c **** 
 353:.\Generated_Source\PSoC4/CyLib.c **** #else
 354:.\Generated_Source\PSoC4/CyLib.c **** 
 355:.\Generated_Source\PSoC4/CyLib.c **** 
 356:.\Generated_Source\PSoC4/CyLib.c ****     /*******************************************************************************
 357:.\Generated_Source\PSoC4/CyLib.c ****     * Function Name: CySysClkWriteHfclkDiv
 358:.\Generated_Source\PSoC4/CyLib.c ****     ********************************************************************************
 359:.\Generated_Source\PSoC4/CyLib.c ****     *
 360:.\Generated_Source\PSoC4/CyLib.c ****     * Summary:
 361:.\Generated_Source\PSoC4/CyLib.c ****     *  Selects HF clk predivider value.
 362:.\Generated_Source\PSoC4/CyLib.c ****     *
 363:.\Generated_Source\PSoC4/CyLib.c ****     * Parameters:
 364:.\Generated_Source\PSoC4/CyLib.c ****     *  divider: HF clock divider value
 365:.\Generated_Source\PSoC4/CyLib.c ****     *   Define                        Description
 366:.\Generated_Source\PSoC4/CyLib.c ****     *   CY_SYS_CLK_HFCLK_DIV_NODIV    Transparent mode (w/o dividing)
 367:.\Generated_Source\PSoC4/CyLib.c ****     *   CY_SYS_CLK_HFCLK_DIV_2        Divide selected clock source by 2
 368:.\Generated_Source\PSoC4/CyLib.c ****     *   CY_SYS_CLK_HFCLK_DIV_4        Divide selected clock source by 4
 369:.\Generated_Source\PSoC4/CyLib.c ****     *   CY_SYS_CLK_HFCLK_DIV_8        Divide selected clock source by 8
 370:.\Generated_Source\PSoC4/CyLib.c ****     *
 371:.\Generated_Source\PSoC4/CyLib.c ****     * Return:
 372:.\Generated_Source\PSoC4/CyLib.c ****     *  None
 373:.\Generated_Source\PSoC4/CyLib.c ****     *
 374:.\Generated_Source\PSoC4/CyLib.c ****     * Side Effects:
 375:.\Generated_Source\PSoC4/CyLib.c ****     *  If the SYSCLK clock frequency increases during the device operation, call
 376:.\Generated_Source\PSoC4/CyLib.c ****     *  CySysFlashSetWaitCycles() with the appropriate parameter to adjust the number
 377:.\Generated_Source\PSoC4/CyLib.c ****     *  of clock cycles the cache will wait before sampling data comes back from Flash.
 378:.\Generated_Source\PSoC4/CyLib.c ****     *  If the SYSCLK clock frequency decreases, you can call
 379:.\Generated_Source\PSoC4/CyLib.c ****     *  CySysFlashSetWaitCycles() to improve the CPU performance. See
 380:.\Generated_Source\PSoC4/CyLib.c ****     *  CySysFlashSetWaitCycles() description for more information.
 381:.\Generated_Source\PSoC4/CyLib.c ****     *
ARM GAS  C:\Users\SNFU\AppData\Local\Temp\ccL8ejmf.s 			page 12


 382:.\Generated_Source\PSoC4/CyLib.c **** 
 383:.\Generated_Source\PSoC4/CyLib.c ****     *
 384:.\Generated_Source\PSoC4/CyLib.c ****     *******************************************************************************/
 385:.\Generated_Source\PSoC4/CyLib.c ****     void CySysClkWriteHfclkDiv(uint32 divider)
 386:.\Generated_Source\PSoC4/CyLib.c ****     {
 387:.\Generated_Source\PSoC4/CyLib.c ****         uint8  interruptState;
 388:.\Generated_Source\PSoC4/CyLib.c **** 
 389:.\Generated_Source\PSoC4/CyLib.c ****         interruptState = CyEnterCriticalSection();
 390:.\Generated_Source\PSoC4/CyLib.c **** 
 391:.\Generated_Source\PSoC4/CyLib.c ****         CY_SYS_CLK_SELECT_REG = ((CY_SYS_CLK_SELECT_REG & ((uint32) (~(CY_SYS_CLK_SELECT_HFCLK_DIV_
 392:.\Generated_Source\PSoC4/CyLib.c ****                                         CY_SYS_CLK_SELECT_HFCLK_DIV_SHIFT)))) |
 393:.\Generated_Source\PSoC4/CyLib.c ****                     ((uint32)((divider & CY_SYS_CLK_SELECT_HFCLK_DIV_MASK) << CY_SYS_CLK_SELECT_HFC
 394:.\Generated_Source\PSoC4/CyLib.c **** 
 395:.\Generated_Source\PSoC4/CyLib.c ****         CyExitCriticalSection(interruptState);
 396:.\Generated_Source\PSoC4/CyLib.c ****     }
 397:.\Generated_Source\PSoC4/CyLib.c **** 
 398:.\Generated_Source\PSoC4/CyLib.c **** 
 399:.\Generated_Source\PSoC4/CyLib.c ****     /*******************************************************************************
 400:.\Generated_Source\PSoC4/CyLib.c ****     * Function Name: CySysClkWriteImoFreq
 401:.\Generated_Source\PSoC4/CyLib.c ****     ********************************************************************************
 402:.\Generated_Source\PSoC4/CyLib.c ****     *
 403:.\Generated_Source\PSoC4/CyLib.c ****     * Summary:
 404:.\Generated_Source\PSoC4/CyLib.c ****     *  Sets the frequency of the IMO.
 405:.\Generated_Source\PSoC4/CyLib.c ****     *
 406:.\Generated_Source\PSoC4/CyLib.c ****     * Parameters:
 407:.\Generated_Source\PSoC4/CyLib.c ****     *  freq: Valid values are 24, 32 and 48 MHz.
 408:.\Generated_Source\PSoC4/CyLib.c ****     *
 409:.\Generated_Source\PSoC4/CyLib.c ****     *  Note: The CPU is halted if new frequency is invalid and project is
 410:.\Generated_Source\PSoC4/CyLib.c ****     *  compiled in debug mode.
 411:.\Generated_Source\PSoC4/CyLib.c ****     *
 412:.\Generated_Source\PSoC4/CyLib.c ****     * Return:
 413:.\Generated_Source\PSoC4/CyLib.c ****     *  None
 414:.\Generated_Source\PSoC4/CyLib.c ****     *
 415:.\Generated_Source\PSoC4/CyLib.c ****     * Side Effects:
 416:.\Generated_Source\PSoC4/CyLib.c ****     *  If the SYSCLK clock frequency increases during the device operation, call
 417:.\Generated_Source\PSoC4/CyLib.c ****     *  CySysFlashSetWaitCycles() with the appropriate parameter to adjust the number
 418:.\Generated_Source\PSoC4/CyLib.c ****     *  of clock cycles the cache will wait before sampling data comes back from Flash.
 419:.\Generated_Source\PSoC4/CyLib.c ****     *  If the SYSCLK clock frequency decreases, you can call
 420:.\Generated_Source\PSoC4/CyLib.c ****     *  CySysFlashSetWaitCycles() to improve the CPU performance. See
 421:.\Generated_Source\PSoC4/CyLib.c ****     *  CySysFlashSetWaitCycles() description for more information.
 422:.\Generated_Source\PSoC4/CyLib.c ****     *
 423:.\Generated_Source\PSoC4/CyLib.c ****     *  The System Clock (SYSCLK) has maximum speed of 16 MHz, so HFCLK and SYSCLK
 424:.\Generated_Source\PSoC4/CyLib.c ****     *  dividers should be selected in a way, to not to exceed 16 MHz for the System
 425:.\Generated_Source\PSoC4/CyLib.c ****     *  clock.
 426:.\Generated_Source\PSoC4/CyLib.c ****     *
 427:.\Generated_Source\PSoC4/CyLib.c ****     *******************************************************************************/
 428:.\Generated_Source\PSoC4/CyLib.c ****     void CySysClkWriteImoFreq(uint32 freq)
 429:.\Generated_Source\PSoC4/CyLib.c ****     {
 430:.\Generated_Source\PSoC4/CyLib.c ****         uint8  interruptState;
 431:.\Generated_Source\PSoC4/CyLib.c **** 
 432:.\Generated_Source\PSoC4/CyLib.c ****         if ((freq == 24u) || (freq == 32u) || (freq == 48u))
 433:.\Generated_Source\PSoC4/CyLib.c ****         {
 434:.\Generated_Source\PSoC4/CyLib.c ****             interruptState = CyEnterCriticalSection();
 435:.\Generated_Source\PSoC4/CyLib.c **** 
 436:.\Generated_Source\PSoC4/CyLib.c ****             /* Set IMO to 24 MHz - CLK_IMO_SELECT.FREQ = 0 */
 437:.\Generated_Source\PSoC4/CyLib.c ****             CY_SYS_CLK_IMO_SELECT_REG &= ((uint32) ~CY_SYS_CLK_IMO_SELECT_FREQ_MASK);
 438:.\Generated_Source\PSoC4/CyLib.c **** 
ARM GAS  C:\Users\SNFU\AppData\Local\Temp\ccL8ejmf.s 			page 13


 439:.\Generated_Source\PSoC4/CyLib.c ****             /* Apply coarse trim */
 440:.\Generated_Source\PSoC4/CyLib.c ****             CY_SYS_CLK_IMO_TRIM1_REG = (CY_SYS_CLK_IMO_TRIM1_REG & ((uint32) ~CY_SYS_CLK_IMO_TRIM1_
 441:.\Generated_Source\PSoC4/CyLib.c ****                 (CY_SFLASH_IMO_TRIM_REG(freq - CY_SYS_CLK_IMO_MIN_FREQ_MHZ) & CY_SYS_CLK_IMO_TRIM1_
 442:.\Generated_Source\PSoC4/CyLib.c **** 
 443:.\Generated_Source\PSoC4/CyLib.c ****             /* Zero out fine trim */
 444:.\Generated_Source\PSoC4/CyLib.c ****             CY_SYS_CLK_IMO_TRIM2_REG = CY_SYS_CLK_IMO_TRIM2_REG & ((uint32) ~CY_SYS_CLK_IMO_TRIM2_F
 445:.\Generated_Source\PSoC4/CyLib.c **** 
 446:.\Generated_Source\PSoC4/CyLib.c ****             /* Apply TC trim */
 447:.\Generated_Source\PSoC4/CyLib.c ****             CY_SYS_CLK_IMO_TRIM3_REG = (CY_SYS_CLK_IMO_TRIM3_REG & ((uint32) ~CY_SYS_CLK_IMO_TRIM3_
 448:.\Generated_Source\PSoC4/CyLib.c ****                 (CY_SFLASH_IMO_TCTRIM_REG(freq - CY_SYS_CLK_IMO_MIN_FREQ_MHZ) & CY_SYS_CLK_IMO_TRIM
 449:.\Generated_Source\PSoC4/CyLib.c **** 
 450:.\Generated_Source\PSoC4/CyLib.c ****             CyDelayCycles(50u);
 451:.\Generated_Source\PSoC4/CyLib.c **** 
 452:.\Generated_Source\PSoC4/CyLib.c ****             if (freq > CY_SYS_CLK_IMO_MIN_FREQ_MHZ)
 453:.\Generated_Source\PSoC4/CyLib.c ****             {
 454:.\Generated_Source\PSoC4/CyLib.c ****                 /* Select nearby intermediate frequency */
 455:.\Generated_Source\PSoC4/CyLib.c ****                 CY_SYS_CLK_IMO_SELECT_REG = (CY_SYS_CLK_IMO_SELECT_REG & ((uint32) ~CY_SYS_CLK_IMO_
 456:.\Generated_Source\PSoC4/CyLib.c ****                     (((freq - 4u - CY_SYS_CLK_IMO_MIN_FREQ_MHZ) >> 2u) & CY_SYS_CLK_IMO_SELECT_FREQ
 457:.\Generated_Source\PSoC4/CyLib.c **** 
 458:.\Generated_Source\PSoC4/CyLib.c ****                 CyDelayCycles(50u);
 459:.\Generated_Source\PSoC4/CyLib.c **** 
 460:.\Generated_Source\PSoC4/CyLib.c ****                 /* Make small step to final frequency */
 461:.\Generated_Source\PSoC4/CyLib.c ****                 /* Select nearby intermediate frequency */
 462:.\Generated_Source\PSoC4/CyLib.c ****                 CY_SYS_CLK_IMO_SELECT_REG = (CY_SYS_CLK_IMO_SELECT_REG & ((uint32) ~CY_SYS_CLK_IMO_
 463:.\Generated_Source\PSoC4/CyLib.c ****                     (((freq - CY_SYS_CLK_IMO_MIN_FREQ_MHZ) >> 2u) & CY_SYS_CLK_IMO_SELECT_FREQ_MASK
 464:.\Generated_Source\PSoC4/CyLib.c ****             }
 465:.\Generated_Source\PSoC4/CyLib.c **** 
 466:.\Generated_Source\PSoC4/CyLib.c ****             CyExitCriticalSection(interruptState);
 467:.\Generated_Source\PSoC4/CyLib.c ****         }
 468:.\Generated_Source\PSoC4/CyLib.c ****         else
 469:.\Generated_Source\PSoC4/CyLib.c ****         {
 470:.\Generated_Source\PSoC4/CyLib.c ****             /* Halt CPU in debug mode if new frequency is invalid */
 471:.\Generated_Source\PSoC4/CyLib.c ****             CYASSERT(0u != 0u);
 472:.\Generated_Source\PSoC4/CyLib.c ****         }
 473:.\Generated_Source\PSoC4/CyLib.c ****     }
 474:.\Generated_Source\PSoC4/CyLib.c **** 
 475:.\Generated_Source\PSoC4/CyLib.c **** #endif /* (CY_PSOC4A) */
 476:.\Generated_Source\PSoC4/CyLib.c **** 
 477:.\Generated_Source\PSoC4/CyLib.c **** 
 478:.\Generated_Source\PSoC4/CyLib.c **** #if(CY_PSOC4A)
 479:.\Generated_Source\PSoC4/CyLib.c **** 
 480:.\Generated_Source\PSoC4/CyLib.c ****     /*******************************************************************************
 481:.\Generated_Source\PSoC4/CyLib.c ****     * Function Name: CySysWdtLock
 482:.\Generated_Source\PSoC4/CyLib.c ****     ********************************************************************************
 483:.\Generated_Source\PSoC4/CyLib.c ****     *
 484:.\Generated_Source\PSoC4/CyLib.c ****     * Summary:
 485:.\Generated_Source\PSoC4/CyLib.c ****     *  Locks out configuration changes to the Watchdog timer registers and ILO
 486:.\Generated_Source\PSoC4/CyLib.c ****     *  config register.
 487:.\Generated_Source\PSoC4/CyLib.c ****     *
 488:.\Generated_Source\PSoC4/CyLib.c ****     * Parameters:
 489:.\Generated_Source\PSoC4/CyLib.c ****     *  None
 490:.\Generated_Source\PSoC4/CyLib.c ****     *
 491:.\Generated_Source\PSoC4/CyLib.c ****     * Return:
 492:.\Generated_Source\PSoC4/CyLib.c ****     *  None
 493:.\Generated_Source\PSoC4/CyLib.c ****     *
 494:.\Generated_Source\PSoC4/CyLib.c ****     * Side effects:
 495:.\Generated_Source\PSoC4/CyLib.c ****     *  This API enables ILO, if it was disabled.
ARM GAS  C:\Users\SNFU\AppData\Local\Temp\ccL8ejmf.s 			page 14


 496:.\Generated_Source\PSoC4/CyLib.c ****     *  After this API was called, ILO clock can't be disabled until
 497:.\Generated_Source\PSoC4/CyLib.c ****     *  CySysWdtUnlock() is called.
 498:.\Generated_Source\PSoC4/CyLib.c ****     *
 499:.\Generated_Source\PSoC4/CyLib.c ****     *******************************************************************************/
 500:.\Generated_Source\PSoC4/CyLib.c ****     void CySysWdtLock(void)
 501:.\Generated_Source\PSoC4/CyLib.c ****     {
 239              		.loc 1 501 0
 240              		.cfi_startproc
 241 0000 10B5     		push	{r4, lr}
 242              	.LCFI2:
 243              		.cfi_def_cfa_offset 8
 244              		.cfi_offset 4, -8
 245              		.cfi_offset 14, -4
 502:.\Generated_Source\PSoC4/CyLib.c ****         uint8 interruptState;
 503:.\Generated_Source\PSoC4/CyLib.c ****         interruptState = CyEnterCriticalSection();
 246              		.loc 1 503 0
 247 0002 FFF7FEFF 		bl	CyEnterCriticalSection
 248              	.LVL8:
 504:.\Generated_Source\PSoC4/CyLib.c **** 
 505:.\Generated_Source\PSoC4/CyLib.c ****         /* Configuring WDT involves passing control signals between clock domains,
 506:.\Generated_Source\PSoC4/CyLib.c ****         * which requires ILO to be enabled.
 507:.\Generated_Source\PSoC4/CyLib.c ****         */
 508:.\Generated_Source\PSoC4/CyLib.c ****         if (0u == (CY_SYS_CLK_ILO_CONFIG_REG & CY_SYS_CLK_ILO_CONFIG_ENABLE))
 249              		.loc 1 508 0
 250 0006 084B     		ldr	r3, .L22
 503:.\Generated_Source\PSoC4/CyLib.c ****         interruptState = CyEnterCriticalSection();
 251              		.loc 1 503 0
 252 0008 041C     		mov	r4, r0
 253              	.LVL9:
 254              		.loc 1 508 0
 255 000a 1868     		ldr	r0, [r3]
 256              	.LVL10:
 257 000c 0028     		cmp	r0, #0
 258 000e 01DB     		blt	.L20
 509:.\Generated_Source\PSoC4/CyLib.c ****         {
 510:.\Generated_Source\PSoC4/CyLib.c ****             CySysClkIloStart();
 259              		.loc 1 510 0
 260 0010 FFF7FEFF 		bl	CySysClkIloStart
 261              	.LVL11:
 262              	.L20:
 511:.\Generated_Source\PSoC4/CyLib.c ****         }
 512:.\Generated_Source\PSoC4/CyLib.c **** 
 513:.\Generated_Source\PSoC4/CyLib.c ****         /* CLK_SELECT register's bits 15:14 are WDT_LOCK */
 514:.\Generated_Source\PSoC4/CyLib.c ****         CY_SYS_CLK_SELECT_REG = (CY_SYS_CLK_SELECT_REG & (uint32)(~CY_SYS_WDT_CLK_LOCK_BITS_MASK)) 
 263              		.loc 1 514 0
 264 0014 054B     		ldr	r3, .L22+4
 265 0016 C022     		mov	r2, #192
 266 0018 1968     		ldr	r1, [r3]
 267 001a 1002     		lsl	r0, r2, #8
 268 001c 0843     		orr	r0, r1
 269 001e 1860     		str	r0, [r3]
 515:.\Generated_Source\PSoC4/CyLib.c ****                  CY_SYS_WDT_CLK_LOCK_BITS_MASK;
 516:.\Generated_Source\PSoC4/CyLib.c **** 
 517:.\Generated_Source\PSoC4/CyLib.c ****         CyExitCriticalSection(interruptState);
 270              		.loc 1 517 0
 271 0020 201C     		mov	r0, r4
 272 0022 FFF7FEFF 		bl	CyExitCriticalSection
ARM GAS  C:\Users\SNFU\AppData\Local\Temp\ccL8ejmf.s 			page 15


 273              	.LVL12:
 518:.\Generated_Source\PSoC4/CyLib.c ****     }
 274              		.loc 1 518 0
 275              		@ sp needed for prologue
 276              	.LVL13:
 277 0026 10BD     		pop	{r4, pc}
 278              	.L23:
 279              		.align	2
 280              	.L22:
 281 0028 04010B40 		.word	1074462980
 282 002c 00010B40 		.word	1074462976
 283              		.cfi_endproc
 284              	.LFE7:
 285              		.size	CySysWdtLock, .-CySysWdtLock
 286              		.section	.text.CySysWdtUnlock,"ax",%progbits
 287              		.align	1
 288              		.global	CySysWdtUnlock
 289              		.code	16
 290              		.thumb_func
 291              		.type	CySysWdtUnlock, %function
 292              	CySysWdtUnlock:
 293              	.LFB8:
 519:.\Generated_Source\PSoC4/CyLib.c **** 
 520:.\Generated_Source\PSoC4/CyLib.c **** 
 521:.\Generated_Source\PSoC4/CyLib.c ****     /*******************************************************************************
 522:.\Generated_Source\PSoC4/CyLib.c ****     * Function Name: CySysWdtUnlock
 523:.\Generated_Source\PSoC4/CyLib.c ****     ********************************************************************************
 524:.\Generated_Source\PSoC4/CyLib.c ****     *
 525:.\Generated_Source\PSoC4/CyLib.c ****     * Summary:
 526:.\Generated_Source\PSoC4/CyLib.c ****     *  Unlocks the Watchdog Timer configuration register.
 527:.\Generated_Source\PSoC4/CyLib.c ****     *
 528:.\Generated_Source\PSoC4/CyLib.c ****     * Parameters:
 529:.\Generated_Source\PSoC4/CyLib.c ****     *  None
 530:.\Generated_Source\PSoC4/CyLib.c ****     *
 531:.\Generated_Source\PSoC4/CyLib.c ****     * Return:
 532:.\Generated_Source\PSoC4/CyLib.c ****     *  None
 533:.\Generated_Source\PSoC4/CyLib.c ****     *
 534:.\Generated_Source\PSoC4/CyLib.c ****     * Side effects:
 535:.\Generated_Source\PSoC4/CyLib.c ****     *  This API enables ILO, if it was disabled.
 536:.\Generated_Source\PSoC4/CyLib.c ****     *
 537:.\Generated_Source\PSoC4/CyLib.c ****     *******************************************************************************/
 538:.\Generated_Source\PSoC4/CyLib.c ****     void CySysWdtUnlock(void)
 539:.\Generated_Source\PSoC4/CyLib.c ****     {
 294              		.loc 1 539 0
 295              		.cfi_startproc
 296 0000 10B5     		push	{r4, lr}
 297              	.LCFI3:
 298              		.cfi_def_cfa_offset 8
 299              		.cfi_offset 4, -8
 300              		.cfi_offset 14, -4
 540:.\Generated_Source\PSoC4/CyLib.c ****         uint8 interruptState;
 541:.\Generated_Source\PSoC4/CyLib.c ****         interruptState = CyEnterCriticalSection();
 301              		.loc 1 541 0
 302 0002 FFF7FEFF 		bl	CyEnterCriticalSection
 303              	.LVL14:
 542:.\Generated_Source\PSoC4/CyLib.c **** 
 543:.\Generated_Source\PSoC4/CyLib.c ****         /* Configuring WDT involves passing control signals between clock domains,
ARM GAS  C:\Users\SNFU\AppData\Local\Temp\ccL8ejmf.s 			page 16


 544:.\Generated_Source\PSoC4/CyLib.c ****         * which requires ILO to be enabled.
 545:.\Generated_Source\PSoC4/CyLib.c ****         */
 546:.\Generated_Source\PSoC4/CyLib.c ****         if (0u == (CY_SYS_CLK_ILO_CONFIG_REG & CY_SYS_CLK_ILO_CONFIG_ENABLE))
 304              		.loc 1 546 0
 305 0006 0C4B     		ldr	r3, .L26
 541:.\Generated_Source\PSoC4/CyLib.c ****         interruptState = CyEnterCriticalSection();
 306              		.loc 1 541 0
 307 0008 041C     		mov	r4, r0
 308              	.LVL15:
 309              		.loc 1 546 0
 310 000a 1868     		ldr	r0, [r3]
 311              	.LVL16:
 312 000c 0028     		cmp	r0, #0
 313 000e 01DB     		blt	.L25
 547:.\Generated_Source\PSoC4/CyLib.c ****         {
 548:.\Generated_Source\PSoC4/CyLib.c ****             CySysClkIloStart();
 314              		.loc 1 548 0
 315 0010 FFF7FEFF 		bl	CySysClkIloStart
 316              	.LVL17:
 317              	.L25:
 549:.\Generated_Source\PSoC4/CyLib.c ****         }
 550:.\Generated_Source\PSoC4/CyLib.c **** 
 551:.\Generated_Source\PSoC4/CyLib.c ****         /* Removing WDT lock requires two writes */
 552:.\Generated_Source\PSoC4/CyLib.c ****         CY_SYS_CLK_SELECT_REG = ((CY_SYS_CLK_SELECT_REG & (uint32)(~CY_SYS_WDT_CLK_LOCK_BITS_MASK))
 318              		.loc 1 552 0
 319 0014 094B     		ldr	r3, .L26+4
 320 0016 0A4A     		ldr	r2, .L26+8
 321 0018 1968     		ldr	r1, [r3]
 322 001a 8020     		mov	r0, #128
 323 001c 1140     		and	r1, r2
 324 001e C001     		lsl	r0, r0, #7
 325 0020 0143     		orr	r1, r0
 326 0022 1960     		str	r1, [r3]
 553:.\Generated_Source\PSoC4/CyLib.c ****                 CY_SYS_WDT_CLK_LOCK_BIT0);
 554:.\Generated_Source\PSoC4/CyLib.c **** 
 555:.\Generated_Source\PSoC4/CyLib.c ****         CY_SYS_CLK_SELECT_REG = ((CY_SYS_CLK_SELECT_REG & (uint32)(~CY_SYS_WDT_CLK_LOCK_BITS_MASK))
 327              		.loc 1 555 0
 328 0024 1968     		ldr	r1, [r3]
 329 0026 8020     		mov	r0, #128
 330 0028 0A40     		and	r2, r1
 331 002a 0102     		lsl	r1, r0, #8
 332 002c 0A43     		orr	r2, r1
 333 002e 1A60     		str	r2, [r3]
 556:.\Generated_Source\PSoC4/CyLib.c ****                 CY_SYS_WDT_CLK_LOCK_BIT1);
 557:.\Generated_Source\PSoC4/CyLib.c **** 
 558:.\Generated_Source\PSoC4/CyLib.c ****         CyExitCriticalSection(interruptState);
 334              		.loc 1 558 0
 335 0030 201C     		mov	r0, r4
 336 0032 FFF7FEFF 		bl	CyExitCriticalSection
 337              	.LVL18:
 559:.\Generated_Source\PSoC4/CyLib.c ****     }
 338              		.loc 1 559 0
 339              		@ sp needed for prologue
 340              	.LVL19:
 341 0036 10BD     		pop	{r4, pc}
 342              	.L27:
 343              		.align	2
ARM GAS  C:\Users\SNFU\AppData\Local\Temp\ccL8ejmf.s 			page 17


 344              	.L26:
 345 0038 04010B40 		.word	1074462980
 346 003c 00010B40 		.word	1074462976
 347 0040 FF3FFFFF 		.word	-49153
 348              		.cfi_endproc
 349              	.LFE8:
 350              		.size	CySysWdtUnlock, .-CySysWdtUnlock
 351              		.section	.text.CySysWdtReadEnabledStatus,"ax",%progbits
 352              		.align	1
 353              		.global	CySysWdtReadEnabledStatus
 354              		.code	16
 355              		.thumb_func
 356              		.type	CySysWdtReadEnabledStatus, %function
 357              	CySysWdtReadEnabledStatus:
 358              	.LFB9:
 560:.\Generated_Source\PSoC4/CyLib.c **** 
 561:.\Generated_Source\PSoC4/CyLib.c **** 
 562:.\Generated_Source\PSoC4/CyLib.c ****     /*******************************************************************************
 563:.\Generated_Source\PSoC4/CyLib.c ****     * Function Name: CySysWdtReadEnabledStatus
 564:.\Generated_Source\PSoC4/CyLib.c ****     ********************************************************************************
 565:.\Generated_Source\PSoC4/CyLib.c ****     *
 566:.\Generated_Source\PSoC4/CyLib.c ****     * Summary:
 567:.\Generated_Source\PSoC4/CyLib.c ****     *  Reads the enabled status of one of the three WDT counters.
 568:.\Generated_Source\PSoC4/CyLib.c ****     *
 569:.\Generated_Source\PSoC4/CyLib.c ****     * Parameters:
 570:.\Generated_Source\PSoC4/CyLib.c ****     *  counterNum: Valid range [0-2].  Number of the WDT counter.
 571:.\Generated_Source\PSoC4/CyLib.c ****     *
 572:.\Generated_Source\PSoC4/CyLib.c ****     * Return:
 573:.\Generated_Source\PSoC4/CyLib.c ****     *  Status of WDT counter:
 574:.\Generated_Source\PSoC4/CyLib.c ****     *   0 - counter is disabled
 575:.\Generated_Source\PSoC4/CyLib.c ****     *   1 - counter is enabled
 576:.\Generated_Source\PSoC4/CyLib.c ****     *
 577:.\Generated_Source\PSoC4/CyLib.c ****     * Side Effects:
 578:.\Generated_Source\PSoC4/CyLib.c ****     *  This API returns the actual WDT counter status from the status register.
 579:.\Generated_Source\PSoC4/CyLib.c ****     *  It may take up to 3 LFCLK cycles since the WDT counter was enabled for the WDT status
 580:.\Generated_Source\PSoC4/CyLib.c ****     *  register to contain actual data.
 581:.\Generated_Source\PSoC4/CyLib.c ****     *
 582:.\Generated_Source\PSoC4/CyLib.c ****     *******************************************************************************/
 583:.\Generated_Source\PSoC4/CyLib.c ****     uint32 CySysWdtReadEnabledStatus(uint32 counterNum)
 584:.\Generated_Source\PSoC4/CyLib.c ****     {
 359              		.loc 1 584 0
 360              		.cfi_startproc
 361              	.LVL20:
 362 0000 00B5     		push	{lr}
 363              	.LCFI4:
 364              		.cfi_def_cfa_offset 4
 365              		.cfi_offset 14, -4
 585:.\Generated_Source\PSoC4/CyLib.c ****         CYASSERT(counterNum < CY_SYS_WDT_COUNTERS_MAX);
 366              		.loc 1 585 0
 367 0002 0228     		cmp	r0, #2
 368 0004 00D9     		bls	.L29
 369              	.LVL21:
 370              	.LBB34:
 371              	.LBB35:
 586:.\Generated_Source\PSoC4/CyLib.c ****         return ((CY_SYS_WDT_CONTROL_REG >> ((CY_SYS_WDT_CNT_SHIFT * counterNum) + CY_SYS_WDT_CNT_ST
 587:.\Generated_Source\PSoC4/CyLib.c ****     }
 588:.\Generated_Source\PSoC4/CyLib.c **** 
ARM GAS  C:\Users\SNFU\AppData\Local\Temp\ccL8ejmf.s 			page 18


 589:.\Generated_Source\PSoC4/CyLib.c **** 
 590:.\Generated_Source\PSoC4/CyLib.c ****     /*******************************************************************************
 591:.\Generated_Source\PSoC4/CyLib.c ****     * Function Name: CySysWdtWriteMode
 592:.\Generated_Source\PSoC4/CyLib.c ****     ********************************************************************************
 593:.\Generated_Source\PSoC4/CyLib.c ****     *
 594:.\Generated_Source\PSoC4/CyLib.c ****     * Summary:
 595:.\Generated_Source\PSoC4/CyLib.c ****     *   Writes the mode of one of the three WDT counters.
 596:.\Generated_Source\PSoC4/CyLib.c ****     *
 597:.\Generated_Source\PSoC4/CyLib.c ****     * Parameters:
 598:.\Generated_Source\PSoC4/CyLib.c ****     *   counterNum: Valid range [0-2].  Number of the WDT counter.
 599:.\Generated_Source\PSoC4/CyLib.c ****     *   mode:       Mode of operation for the counter
 600:.\Generated_Source\PSoC4/CyLib.c ****     *       Define                   Mode
 601:.\Generated_Source\PSoC4/CyLib.c ****     *    CY_SYS_WDT_MODE_NONE       Free running
 602:.\Generated_Source\PSoC4/CyLib.c ****     *    CY_SYS_WDT_MODE_INT        Interrupt generated on match for counter 0
 603:.\Generated_Source\PSoC4/CyLib.c ****     *                               and 1, and on bit toggle for counter 2.
 604:.\Generated_Source\PSoC4/CyLib.c ****     *    CY_SYS_WDT_MODE_RESET      Reset on match (valid for counter 0 and 1
 605:.\Generated_Source\PSoC4/CyLib.c ****     *                               only)
 606:.\Generated_Source\PSoC4/CyLib.c ****     *    CY_SYS_WDT_MODE_INT_RESET  Generate an interrupt.  Generate a reset on
 607:.\Generated_Source\PSoC4/CyLib.c ****     *                                    the 3rd unhandled interrupt.
 608:.\Generated_Source\PSoC4/CyLib.c ****     *                                    (valid for counter 0 and 1 only)
 609:.\Generated_Source\PSoC4/CyLib.c ****     * Return:
 610:.\Generated_Source\PSoC4/CyLib.c ****     *   None
 611:.\Generated_Source\PSoC4/CyLib.c ****     *
 612:.\Generated_Source\PSoC4/CyLib.c ****     * Side Effects:
 613:.\Generated_Source\PSoC4/CyLib.c ****     *   The WDT counter counterNum should be disabled to the set mode. Otherwise
 614:.\Generated_Source\PSoC4/CyLib.c ****     *   the function call will have no effect.
 615:.\Generated_Source\PSoC4/CyLib.c ****     *   This API enables the ILO, if it was disabled.
 616:.\Generated_Source\PSoC4/CyLib.c ****     *
 617:.\Generated_Source\PSoC4/CyLib.c ****     *******************************************************************************/
 618:.\Generated_Source\PSoC4/CyLib.c ****     void CySysWdtWriteMode(uint32 counterNum, uint32 mode)
 619:.\Generated_Source\PSoC4/CyLib.c ****     {
 620:.\Generated_Source\PSoC4/CyLib.c ****         uint32 configRegValue;
 621:.\Generated_Source\PSoC4/CyLib.c **** 
 622:.\Generated_Source\PSoC4/CyLib.c ****         CYASSERT(counterNum < CY_SYS_WDT_COUNTERS_MAX);
 623:.\Generated_Source\PSoC4/CyLib.c **** 
 624:.\Generated_Source\PSoC4/CyLib.c ****         /* Configuring WDT involves passing control signals between clock domains,
 625:.\Generated_Source\PSoC4/CyLib.c ****         * which requires ILO to be enabled.
 626:.\Generated_Source\PSoC4/CyLib.c ****         */
 627:.\Generated_Source\PSoC4/CyLib.c ****         if (0u == (CY_SYS_CLK_ILO_CONFIG_REG & CY_SYS_CLK_ILO_CONFIG_ENABLE))
 628:.\Generated_Source\PSoC4/CyLib.c ****         {
 629:.\Generated_Source\PSoC4/CyLib.c ****             CySysClkIloStart();
 630:.\Generated_Source\PSoC4/CyLib.c ****         }
 631:.\Generated_Source\PSoC4/CyLib.c **** 
 632:.\Generated_Source\PSoC4/CyLib.c ****         if(0u == CySysWdtReadEnabledStatus(counterNum))
 633:.\Generated_Source\PSoC4/CyLib.c ****         {
 634:.\Generated_Source\PSoC4/CyLib.c ****             configRegValue = CY_SYS_WDT_CONFIG_REG &
 635:.\Generated_Source\PSoC4/CyLib.c ****                                 (uint32)~((uint32)(CY_SYS_WDT_MODE_MASK << (counterNum * CY_SYS_WDT
 636:.\Generated_Source\PSoC4/CyLib.c ****             configRegValue |= (uint32)((mode & CY_SYS_WDT_MODE_MASK) << (counterNum * CY_SYS_WDT_CN
 637:.\Generated_Source\PSoC4/CyLib.c ****             CY_SYS_WDT_CONFIG_REG = configRegValue;
 638:.\Generated_Source\PSoC4/CyLib.c ****         }
 639:.\Generated_Source\PSoC4/CyLib.c ****     }
 640:.\Generated_Source\PSoC4/CyLib.c **** 
 641:.\Generated_Source\PSoC4/CyLib.c **** 
 642:.\Generated_Source\PSoC4/CyLib.c ****     /*******************************************************************************
 643:.\Generated_Source\PSoC4/CyLib.c ****     * Function Name: CySysWdtReadMode
 644:.\Generated_Source\PSoC4/CyLib.c ****     ********************************************************************************
 645:.\Generated_Source\PSoC4/CyLib.c ****     *
ARM GAS  C:\Users\SNFU\AppData\Local\Temp\ccL8ejmf.s 			page 19


 646:.\Generated_Source\PSoC4/CyLib.c ****     * Summary:
 647:.\Generated_Source\PSoC4/CyLib.c ****     *  Reads the mode of one of the three WDT counters.
 648:.\Generated_Source\PSoC4/CyLib.c ****     *
 649:.\Generated_Source\PSoC4/CyLib.c ****     * Parameters:
 650:.\Generated_Source\PSoC4/CyLib.c ****     *  counterNum: Valid range [0-2].  Number of the WDT counter.
 651:.\Generated_Source\PSoC4/CyLib.c ****     *
 652:.\Generated_Source\PSoC4/CyLib.c ****     * Return:
 653:.\Generated_Source\PSoC4/CyLib.c ****     *  Mode of the counter.  Same enumerated values as mode parameter used in
 654:.\Generated_Source\PSoC4/CyLib.c ****     *  CySysWdtWriteMode().
 655:.\Generated_Source\PSoC4/CyLib.c ****     *
 656:.\Generated_Source\PSoC4/CyLib.c ****     *******************************************************************************/
 657:.\Generated_Source\PSoC4/CyLib.c ****     uint32 CySysWdtReadMode(uint32 counterNum)
 658:.\Generated_Source\PSoC4/CyLib.c ****     {
 659:.\Generated_Source\PSoC4/CyLib.c ****         return ((CY_SYS_WDT_CONFIG_REG >> (counterNum * CY_SYS_WDT_CNT_SHIFT)) & CY_SYS_WDT_MODE_MA
 660:.\Generated_Source\PSoC4/CyLib.c ****     }
 661:.\Generated_Source\PSoC4/CyLib.c **** 
 662:.\Generated_Source\PSoC4/CyLib.c **** 
 663:.\Generated_Source\PSoC4/CyLib.c ****     /*******************************************************************************
 664:.\Generated_Source\PSoC4/CyLib.c ****     * Function Name: CySysWdtWriteClearOnMatch
 665:.\Generated_Source\PSoC4/CyLib.c ****     ********************************************************************************
 666:.\Generated_Source\PSoC4/CyLib.c ****     *
 667:.\Generated_Source\PSoC4/CyLib.c ****     * Summary:
 668:.\Generated_Source\PSoC4/CyLib.c ****     *  Configures the WDT counter clear on a match setting.  If configured to clear
 669:.\Generated_Source\PSoC4/CyLib.c ****     *  on match, the counter will count from 0 to the MatchValue giving it a
 670:.\Generated_Source\PSoC4/CyLib.c ****     *  period of (MatchValue + 1).
 671:.\Generated_Source\PSoC4/CyLib.c ****     *
 672:.\Generated_Source\PSoC4/CyLib.c ****     * Parameters:
 673:.\Generated_Source\PSoC4/CyLib.c ****     *  counterNum:
 674:.\Generated_Source\PSoC4/CyLib.c ****     *   Valid range [0-1].  Number of the WDT counter.  Match values are not
 675:.\Generated_Source\PSoC4/CyLib.c ****     *   supported by counter 2.
 676:.\Generated_Source\PSoC4/CyLib.c ****     *
 677:.\Generated_Source\PSoC4/CyLib.c ****     * enable:
 678:.\Generated_Source\PSoC4/CyLib.c ****     *   0 to disable, 1 to enable
 679:.\Generated_Source\PSoC4/CyLib.c ****     *
 680:.\Generated_Source\PSoC4/CyLib.c ****     * Return:
 681:.\Generated_Source\PSoC4/CyLib.c ****     *   None
 682:.\Generated_Source\PSoC4/CyLib.c ****     *
 683:.\Generated_Source\PSoC4/CyLib.c ****     * Side Effects:
 684:.\Generated_Source\PSoC4/CyLib.c ****     *   The WDT counter counterNum should be disabled. Otherwise the function
 685:.\Generated_Source\PSoC4/CyLib.c ****     *   call will have no effect.
 686:.\Generated_Source\PSoC4/CyLib.c ****     *   This API enables the ILO, if it was disabled.
 687:.\Generated_Source\PSoC4/CyLib.c ****     *
 688:.\Generated_Source\PSoC4/CyLib.c ****     *
 689:.\Generated_Source\PSoC4/CyLib.c ****     *******************************************************************************/
 690:.\Generated_Source\PSoC4/CyLib.c ****     void CySysWdtWriteClearOnMatch(uint32 counterNum, uint32 enable)
 691:.\Generated_Source\PSoC4/CyLib.c ****     {
 692:.\Generated_Source\PSoC4/CyLib.c ****         CYASSERT((counterNum == CY_SYS_WDT_COUNTER0) ||
 693:.\Generated_Source\PSoC4/CyLib.c ****                                              (counterNum == CY_SYS_WDT_COUNTER1));
 694:.\Generated_Source\PSoC4/CyLib.c **** 
 695:.\Generated_Source\PSoC4/CyLib.c ****         /* Configuring WDT involves passing control signals between clock domains,
 696:.\Generated_Source\PSoC4/CyLib.c ****         * which requires ILO to be enabled.
 697:.\Generated_Source\PSoC4/CyLib.c ****         */
 698:.\Generated_Source\PSoC4/CyLib.c ****         if (0u == (CY_SYS_CLK_ILO_CONFIG_REG & CY_SYS_CLK_ILO_CONFIG_ENABLE))
 699:.\Generated_Source\PSoC4/CyLib.c ****         {
 700:.\Generated_Source\PSoC4/CyLib.c ****             CySysClkIloStart();
 701:.\Generated_Source\PSoC4/CyLib.c ****         }
 702:.\Generated_Source\PSoC4/CyLib.c **** 
ARM GAS  C:\Users\SNFU\AppData\Local\Temp\ccL8ejmf.s 			page 20


 703:.\Generated_Source\PSoC4/CyLib.c ****         if(0u == CySysWdtReadEnabledStatus(counterNum))
 704:.\Generated_Source\PSoC4/CyLib.c ****         {
 705:.\Generated_Source\PSoC4/CyLib.c ****             CY_SYS_WDT_CONFIG_REG |= (uint32)(enable << ((counterNum * CY_SYS_WDT_CNT_SHIFT) +
 706:.\Generated_Source\PSoC4/CyLib.c ****                                                             CY_SYS_WDT_CNT_MATCH_CLR_SHIFT));
 707:.\Generated_Source\PSoC4/CyLib.c ****         }
 708:.\Generated_Source\PSoC4/CyLib.c ****     }
 709:.\Generated_Source\PSoC4/CyLib.c **** 
 710:.\Generated_Source\PSoC4/CyLib.c **** 
 711:.\Generated_Source\PSoC4/CyLib.c ****     /*******************************************************************************
 712:.\Generated_Source\PSoC4/CyLib.c ****     * Function Name: CySysWdtReadClearOnMatch
 713:.\Generated_Source\PSoC4/CyLib.c ****     ********************************************************************************
 714:.\Generated_Source\PSoC4/CyLib.c ****     *
 715:.\Generated_Source\PSoC4/CyLib.c ****     * Summary:
 716:.\Generated_Source\PSoC4/CyLib.c ****     *  Reads the clear on match setting for the specified counter.
 717:.\Generated_Source\PSoC4/CyLib.c ****     *
 718:.\Generated_Source\PSoC4/CyLib.c ****     * Parameters:
 719:.\Generated_Source\PSoC4/CyLib.c ****     *   counterNum: Valid range [0-1].  Number of the WDT counter.  Match values are
 720:.\Generated_Source\PSoC4/CyLib.c ****     *               not supported by counter 2.
 721:.\Generated_Source\PSoC4/CyLib.c ****     *
 722:.\Generated_Source\PSoC4/CyLib.c ****     * Return:
 723:.\Generated_Source\PSoC4/CyLib.c ****     *   Clear on Match status: 1 if enabled, 0 if disabled
 724:.\Generated_Source\PSoC4/CyLib.c ****     *
 725:.\Generated_Source\PSoC4/CyLib.c ****     *******************************************************************************/
 726:.\Generated_Source\PSoC4/CyLib.c ****     uint32 CySysWdtReadClearOnMatch(uint32 counterNum)
 727:.\Generated_Source\PSoC4/CyLib.c ****     {
 728:.\Generated_Source\PSoC4/CyLib.c ****         CYASSERT((counterNum == CY_SYS_WDT_COUNTER0) ||
 729:.\Generated_Source\PSoC4/CyLib.c ****                                              (counterNum == CY_SYS_WDT_COUNTER1));
 730:.\Generated_Source\PSoC4/CyLib.c **** 
 731:.\Generated_Source\PSoC4/CyLib.c ****         return (uint32)((CY_SYS_WDT_CONFIG_REG >>
 732:.\Generated_Source\PSoC4/CyLib.c ****                             ((counterNum * CY_SYS_WDT_CNT_SHIFT) + CY_SYS_WDT_CNT_MATCH_CLR_SHIFT))
 733:.\Generated_Source\PSoC4/CyLib.c ****     }
 734:.\Generated_Source\PSoC4/CyLib.c **** 
 735:.\Generated_Source\PSoC4/CyLib.c **** 
 736:.\Generated_Source\PSoC4/CyLib.c ****     /*******************************************************************************
 737:.\Generated_Source\PSoC4/CyLib.c ****     * Function Name: CySysWdtEnable
 738:.\Generated_Source\PSoC4/CyLib.c ****     ********************************************************************************
 739:.\Generated_Source\PSoC4/CyLib.c ****     *
 740:.\Generated_Source\PSoC4/CyLib.c ****     * Summary:
 741:.\Generated_Source\PSoC4/CyLib.c ****     *  Enables the specified WDT counters.  All the counters specified in the mask are
 742:.\Generated_Source\PSoC4/CyLib.c ****     *  enabled.
 743:.\Generated_Source\PSoC4/CyLib.c ****     *
 744:.\Generated_Source\PSoC4/CyLib.c ****     * Parameters:
 745:.\Generated_Source\PSoC4/CyLib.c ****     *  counterMask: Mask of all counters to enable
 746:.\Generated_Source\PSoC4/CyLib.c ****     *       Define                       Counter
 747:.\Generated_Source\PSoC4/CyLib.c ****     *      CY_SYS_WDT_COUNTER0_MASK      0
 748:.\Generated_Source\PSoC4/CyLib.c ****     *      CY_SYS_WDT_COUNTER1_MASK      1
 749:.\Generated_Source\PSoC4/CyLib.c ****     *      CY_SYS_WDT_COUNTER2_MASK      2
 750:.\Generated_Source\PSoC4/CyLib.c ****     *
 751:.\Generated_Source\PSoC4/CyLib.c ****     * Return:
 752:.\Generated_Source\PSoC4/CyLib.c ****     *  None
 753:.\Generated_Source\PSoC4/CyLib.c ****     *
 754:.\Generated_Source\PSoC4/CyLib.c ****     * Side Effects:
 755:.\Generated_Source\PSoC4/CyLib.c ****     *  Enabling or disabling the WDT requires 3 LF Clock cycles to come into effect.
 756:.\Generated_Source\PSoC4/CyLib.c ****     *  This API enables the ILO, if it was disabled.
 757:.\Generated_Source\PSoC4/CyLib.c ****     *
 758:.\Generated_Source\PSoC4/CyLib.c ****     *******************************************************************************/
 759:.\Generated_Source\PSoC4/CyLib.c ****     void CySysWdtEnable(uint32 counterMask)
ARM GAS  C:\Users\SNFU\AppData\Local\Temp\ccL8ejmf.s 			page 21


 760:.\Generated_Source\PSoC4/CyLib.c ****     {
 761:.\Generated_Source\PSoC4/CyLib.c ****         /* Configuring WDT involves passing control signals between clock domains,
 762:.\Generated_Source\PSoC4/CyLib.c ****         * which requires ILO to be enabled.
 763:.\Generated_Source\PSoC4/CyLib.c ****         */
 764:.\Generated_Source\PSoC4/CyLib.c ****         if (0u == (CY_SYS_CLK_ILO_CONFIG_REG & CY_SYS_CLK_ILO_CONFIG_ENABLE))
 765:.\Generated_Source\PSoC4/CyLib.c ****         {
 766:.\Generated_Source\PSoC4/CyLib.c ****             CySysClkIloStart();
 767:.\Generated_Source\PSoC4/CyLib.c ****         }
 768:.\Generated_Source\PSoC4/CyLib.c **** 
 769:.\Generated_Source\PSoC4/CyLib.c ****         CY_SYS_WDT_CONTROL_REG |= counterMask;
 770:.\Generated_Source\PSoC4/CyLib.c ****     }
 771:.\Generated_Source\PSoC4/CyLib.c **** 
 772:.\Generated_Source\PSoC4/CyLib.c **** 
 773:.\Generated_Source\PSoC4/CyLib.c ****     /*******************************************************************************
 774:.\Generated_Source\PSoC4/CyLib.c ****     * Function Name: CySysWdtDisable
 775:.\Generated_Source\PSoC4/CyLib.c ****     ********************************************************************************
 776:.\Generated_Source\PSoC4/CyLib.c ****     *
 777:.\Generated_Source\PSoC4/CyLib.c ****     * Summary:
 778:.\Generated_Source\PSoC4/CyLib.c ****     *  Disables the specified WDT counters.  All the counters specified in the mask are
 779:.\Generated_Source\PSoC4/CyLib.c ****     *  disabled.
 780:.\Generated_Source\PSoC4/CyLib.c ****     *
 781:.\Generated_Source\PSoC4/CyLib.c ****     * Parameters:
 782:.\Generated_Source\PSoC4/CyLib.c ****     *  uint32 counterMask: Mask of all counters to disable
 783:.\Generated_Source\PSoC4/CyLib.c ****     *    Define                       Counter
 784:.\Generated_Source\PSoC4/CyLib.c ****     *   CY_SYS_WDT_COUNTER0_MASK      0
 785:.\Generated_Source\PSoC4/CyLib.c ****     *   CY_SYS_WDT_COUNTER1_MASK      1
 786:.\Generated_Source\PSoC4/CyLib.c ****     *   CY_SYS_WDT_COUNTER2_MASK      2
 787:.\Generated_Source\PSoC4/CyLib.c ****     *
 788:.\Generated_Source\PSoC4/CyLib.c ****     * Return:
 789:.\Generated_Source\PSoC4/CyLib.c ****     *   None
 790:.\Generated_Source\PSoC4/CyLib.c ****     *
 791:.\Generated_Source\PSoC4/CyLib.c ****     * Side Effects:
 792:.\Generated_Source\PSoC4/CyLib.c ****     *  Enabling or disabling the  WDT requires 3 LF Clock cycles to come into effect.
 793:.\Generated_Source\PSoC4/CyLib.c ****     *  This API enables the ILO, if it was disabled.
 794:.\Generated_Source\PSoC4/CyLib.c ****     *
 795:.\Generated_Source\PSoC4/CyLib.c ****     *******************************************************************************/
 796:.\Generated_Source\PSoC4/CyLib.c ****     void CySysWdtDisable(uint32 counterMask)
 797:.\Generated_Source\PSoC4/CyLib.c ****     {
 798:.\Generated_Source\PSoC4/CyLib.c ****         /* Configuring WDT involves passing control signals between clock domains,
 799:.\Generated_Source\PSoC4/CyLib.c ****         * which requires ILO to be enabled.
 800:.\Generated_Source\PSoC4/CyLib.c ****         */
 801:.\Generated_Source\PSoC4/CyLib.c ****         if (0u == (CY_SYS_CLK_ILO_CONFIG_REG & CY_SYS_CLK_ILO_CONFIG_ENABLE))
 802:.\Generated_Source\PSoC4/CyLib.c ****         {
 803:.\Generated_Source\PSoC4/CyLib.c ****             CySysClkIloStart();
 804:.\Generated_Source\PSoC4/CyLib.c ****         }
 805:.\Generated_Source\PSoC4/CyLib.c **** 
 806:.\Generated_Source\PSoC4/CyLib.c ****         CY_SYS_WDT_CONTROL_REG &= ~counterMask;
 807:.\Generated_Source\PSoC4/CyLib.c ****     }
 808:.\Generated_Source\PSoC4/CyLib.c **** 
 809:.\Generated_Source\PSoC4/CyLib.c **** 
 810:.\Generated_Source\PSoC4/CyLib.c ****     /*******************************************************************************
 811:.\Generated_Source\PSoC4/CyLib.c ****     * Function Name: CySysWdtWriteCascade
 812:.\Generated_Source\PSoC4/CyLib.c ****     ********************************************************************************
 813:.\Generated_Source\PSoC4/CyLib.c ****     *
 814:.\Generated_Source\PSoC4/CyLib.c ****     * Summary:
 815:.\Generated_Source\PSoC4/CyLib.c ****     *   Writes the two WDT cascade values based on the combination of mask values
 816:.\Generated_Source\PSoC4/CyLib.c ****     *   specified.
ARM GAS  C:\Users\SNFU\AppData\Local\Temp\ccL8ejmf.s 			page 22


 817:.\Generated_Source\PSoC4/CyLib.c ****     *
 818:.\Generated_Source\PSoC4/CyLib.c ****     * Parameters:
 819:.\Generated_Source\PSoC4/CyLib.c ****     *   cascadeMask: Mask value used to set or clear the cascade values.
 820:.\Generated_Source\PSoC4/CyLib.c ****     *   Define                     Cascade
 821:.\Generated_Source\PSoC4/CyLib.c ****     *   CY_SYS_WDT_CASCADE_NONE    Neither
 822:.\Generated_Source\PSoC4/CyLib.c ****     *   CY_SYS_WDT_CASCADE_01      Cascade 01
 823:.\Generated_Source\PSoC4/CyLib.c ****     *   CY_SYS_WDT_CASCADE_12      Cascade 12
 824:.\Generated_Source\PSoC4/CyLib.c ****     *
 825:.\Generated_Source\PSoC4/CyLib.c ****     * Return:
 826:.\Generated_Source\PSoC4/CyLib.c ****     *   None
 827:.\Generated_Source\PSoC4/CyLib.c ****     *
 828:.\Generated_Source\PSoC4/CyLib.c ****     * Side effects:
 829:.\Generated_Source\PSoC4/CyLib.c ****     *   If only one cascade mask is specified, the second cascade is disabled.
 830:.\Generated_Source\PSoC4/CyLib.c ****     *   To set both cascade modes two defines should be ORed:
 831:.\Generated_Source\PSoC4/CyLib.c ****     *    (CY_SYS_WDT_CASCADE_01 | CY_SYS_WDT_CASCADE_12)
 832:.\Generated_Source\PSoC4/CyLib.c ****     *   This API enables ILO, if it was disabled.
 833:.\Generated_Source\PSoC4/CyLib.c ****     *
 834:.\Generated_Source\PSoC4/CyLib.c ****     *******************************************************************************/
 835:.\Generated_Source\PSoC4/CyLib.c ****     void CySysWdtWriteCascade(uint32 cascadeMask)
 836:.\Generated_Source\PSoC4/CyLib.c ****     {
 837:.\Generated_Source\PSoC4/CyLib.c ****         uint32 configRegValue;
 838:.\Generated_Source\PSoC4/CyLib.c ****         uint32 countersEnableStatus;
 839:.\Generated_Source\PSoC4/CyLib.c **** 
 840:.\Generated_Source\PSoC4/CyLib.c ****         countersEnableStatus = CySysWdtReadEnabledStatus(CY_SYS_WDT_COUNTER0) |
 841:.\Generated_Source\PSoC4/CyLib.c ****                             CySysWdtReadEnabledStatus(CY_SYS_WDT_COUNTER1) |
 842:.\Generated_Source\PSoC4/CyLib.c ****                             CySysWdtReadEnabledStatus(CY_SYS_WDT_COUNTER2);
 843:.\Generated_Source\PSoC4/CyLib.c **** 
 844:.\Generated_Source\PSoC4/CyLib.c ****         if (0u == countersEnableStatus)
 845:.\Generated_Source\PSoC4/CyLib.c ****         {
 846:.\Generated_Source\PSoC4/CyLib.c ****             /* Configuring WDT involves passing control signals between clock domains,
 847:.\Generated_Source\PSoC4/CyLib.c ****             * which requires ILO to be enabled.
 848:.\Generated_Source\PSoC4/CyLib.c ****             */
 849:.\Generated_Source\PSoC4/CyLib.c ****             if (0u == (CY_SYS_CLK_ILO_CONFIG_REG & CY_SYS_CLK_ILO_CONFIG_ENABLE))
 850:.\Generated_Source\PSoC4/CyLib.c ****             {
 851:.\Generated_Source\PSoC4/CyLib.c ****                 CySysClkIloStart();
 852:.\Generated_Source\PSoC4/CyLib.c ****             }
 853:.\Generated_Source\PSoC4/CyLib.c **** 
 854:.\Generated_Source\PSoC4/CyLib.c ****             configRegValue = CY_SYS_WDT_CONFIG_REG;
 855:.\Generated_Source\PSoC4/CyLib.c ****             configRegValue &= ((uint32)(~(CY_SYS_WDT_CASCADE_01|CY_SYS_WDT_CASCADE_12)));
 856:.\Generated_Source\PSoC4/CyLib.c ****             configRegValue |= cascadeMask;
 857:.\Generated_Source\PSoC4/CyLib.c ****             CY_SYS_WDT_CONFIG_REG = configRegValue;
 858:.\Generated_Source\PSoC4/CyLib.c ****         }
 859:.\Generated_Source\PSoC4/CyLib.c ****     }
 860:.\Generated_Source\PSoC4/CyLib.c **** 
 861:.\Generated_Source\PSoC4/CyLib.c **** 
 862:.\Generated_Source\PSoC4/CyLib.c ****     /*******************************************************************************
 863:.\Generated_Source\PSoC4/CyLib.c ****     * Function Name: CySysWdtReadCascade
 864:.\Generated_Source\PSoC4/CyLib.c ****     ********************************************************************************
 865:.\Generated_Source\PSoC4/CyLib.c ****     *
 866:.\Generated_Source\PSoC4/CyLib.c ****     * Summary:
 867:.\Generated_Source\PSoC4/CyLib.c ****     *   Reads the two WDT cascade values returning a mask of the bits set.
 868:.\Generated_Source\PSoC4/CyLib.c ****     *
 869:.\Generated_Source\PSoC4/CyLib.c ****     * Parameters:
 870:.\Generated_Source\PSoC4/CyLib.c ****     *   None
 871:.\Generated_Source\PSoC4/CyLib.c ****     *
 872:.\Generated_Source\PSoC4/CyLib.c ****     * Return:
 873:.\Generated_Source\PSoC4/CyLib.c ****     *   Mask of cascade values set.
ARM GAS  C:\Users\SNFU\AppData\Local\Temp\ccL8ejmf.s 			page 23


 874:.\Generated_Source\PSoC4/CyLib.c ****     *   Define                     Cascade
 875:.\Generated_Source\PSoC4/CyLib.c ****     *   CY_SYS_WDT_CASCADE_NONE    Neither
 876:.\Generated_Source\PSoC4/CyLib.c ****     *   CY_SYS_WDT_CASCADE_01      Cascade 01
 877:.\Generated_Source\PSoC4/CyLib.c ****     *   CY_SYS_WDT_CASCADE_12      Cascade 12
 878:.\Generated_Source\PSoC4/CyLib.c ****     *
 879:.\Generated_Source\PSoC4/CyLib.c ****     *******************************************************************************/
 880:.\Generated_Source\PSoC4/CyLib.c ****     uint32 CySysWdtReadCascade(void)
 881:.\Generated_Source\PSoC4/CyLib.c ****     {
 882:.\Generated_Source\PSoC4/CyLib.c ****         return (CY_SYS_WDT_CONFIG_REG & (CY_SYS_WDT_CASCADE_01 | CY_SYS_WDT_CASCADE_12));
 883:.\Generated_Source\PSoC4/CyLib.c ****     }
 884:.\Generated_Source\PSoC4/CyLib.c **** 
 885:.\Generated_Source\PSoC4/CyLib.c **** 
 886:.\Generated_Source\PSoC4/CyLib.c ****     /*******************************************************************************
 887:.\Generated_Source\PSoC4/CyLib.c ****     * Function Name: CySysWdtWriteMatch
 888:.\Generated_Source\PSoC4/CyLib.c ****     ********************************************************************************
 889:.\Generated_Source\PSoC4/CyLib.c ****     *
 890:.\Generated_Source\PSoC4/CyLib.c ****     * Summary:
 891:.\Generated_Source\PSoC4/CyLib.c ****     *  Configures the WDT counter match comparison value.
 892:.\Generated_Source\PSoC4/CyLib.c ****     *
 893:.\Generated_Source\PSoC4/CyLib.c ****     * Parameters:
 894:.\Generated_Source\PSoC4/CyLib.c ****     *  counterNum:
 895:.\Generated_Source\PSoC4/CyLib.c ****     *   Valid range [0-1]. Number of the WDT counter. Match values are not
 896:.\Generated_Source\PSoC4/CyLib.c ****     *   supported by counter 2.
 897:.\Generated_Source\PSoC4/CyLib.c ****     *
 898:.\Generated_Source\PSoC4/CyLib.c ****     *  match:
 899:.\Generated_Source\PSoC4/CyLib.c ****     *   Valid range [0-65535]. Value to be used to match against the counter.
 900:.\Generated_Source\PSoC4/CyLib.c ****     *
 901:.\Generated_Source\PSoC4/CyLib.c ****     * Return:
 902:.\Generated_Source\PSoC4/CyLib.c ****     *   None
 903:.\Generated_Source\PSoC4/CyLib.c ****     *
 904:.\Generated_Source\PSoC4/CyLib.c ****     * Side effects:
 905:.\Generated_Source\PSoC4/CyLib.c ****     *   This API enables ILO, if it was disabled.
 906:.\Generated_Source\PSoC4/CyLib.c ****     *
 907:.\Generated_Source\PSoC4/CyLib.c ****     *******************************************************************************/
 908:.\Generated_Source\PSoC4/CyLib.c ****     void CySysWdtWriteMatch(uint32 counterNum, uint32 match)
 909:.\Generated_Source\PSoC4/CyLib.c ****     {
 910:.\Generated_Source\PSoC4/CyLib.c ****         uint32 regValue;
 911:.\Generated_Source\PSoC4/CyLib.c **** 
 912:.\Generated_Source\PSoC4/CyLib.c ****         CYASSERT((counterNum == CY_SYS_WDT_COUNTER0) ||
 913:.\Generated_Source\PSoC4/CyLib.c ****                                              (counterNum == CY_SYS_WDT_COUNTER1));
 914:.\Generated_Source\PSoC4/CyLib.c **** 
 915:.\Generated_Source\PSoC4/CyLib.c ****         /* Configuring WDT involves passing control signals between clock domains,
 916:.\Generated_Source\PSoC4/CyLib.c ****         * which requires ILO to be enabled.
 917:.\Generated_Source\PSoC4/CyLib.c ****         */
 918:.\Generated_Source\PSoC4/CyLib.c ****         if (0u == (CY_SYS_CLK_ILO_CONFIG_REG & CY_SYS_CLK_ILO_CONFIG_ENABLE))
 919:.\Generated_Source\PSoC4/CyLib.c ****         {
 920:.\Generated_Source\PSoC4/CyLib.c ****             CySysClkIloStart();
 921:.\Generated_Source\PSoC4/CyLib.c ****         }
 922:.\Generated_Source\PSoC4/CyLib.c **** 
 923:.\Generated_Source\PSoC4/CyLib.c ****         /* Delay ~ 3LFCK in order to make sure previous changes are applied */
 924:.\Generated_Source\PSoC4/CyLib.c ****         CyDelayUs(CY_SYS_WDT_3LFCLK_DELAY_US);
 925:.\Generated_Source\PSoC4/CyLib.c **** 
 926:.\Generated_Source\PSoC4/CyLib.c ****         regValue = CY_SYS_WDT_MATCH_REG;
 927:.\Generated_Source\PSoC4/CyLib.c ****         regValue &= (uint32)~((uint32)(CY_SYS_WDT_LOWER_16BITS_MASK << (counterNum * CY_SYS_WDT_CNT
 928:.\Generated_Source\PSoC4/CyLib.c ****         CY_SYS_WDT_MATCH_REG = (regValue | (match << (counterNum * CY_SYS_WDT_CNT_MATCH_SHIFT)));
 929:.\Generated_Source\PSoC4/CyLib.c ****     }
 930:.\Generated_Source\PSoC4/CyLib.c **** 
ARM GAS  C:\Users\SNFU\AppData\Local\Temp\ccL8ejmf.s 			page 24


 931:.\Generated_Source\PSoC4/CyLib.c **** 
 932:.\Generated_Source\PSoC4/CyLib.c ****     /*******************************************************************************
 933:.\Generated_Source\PSoC4/CyLib.c ****     * Function Name: CySysWdtWriteToggleBit
 934:.\Generated_Source\PSoC4/CyLib.c ****     ********************************************************************************
 935:.\Generated_Source\PSoC4/CyLib.c ****     *
 936:.\Generated_Source\PSoC4/CyLib.c ****     * Summary:
 937:.\Generated_Source\PSoC4/CyLib.c ****     *  Configures which bit in the WDT counter 2 to monitor for a toggle.  When that
 938:.\Generated_Source\PSoC4/CyLib.c ****     *  bit toggles, an interrupt is generated if the mode for counter 2 has
 939:.\Generated_Source\PSoC4/CyLib.c ****     *  interrupts enabled.
 940:.\Generated_Source\PSoC4/CyLib.c ****     *
 941:.\Generated_Source\PSoC4/CyLib.c ****     * Parameters:
 942:.\Generated_Source\PSoC4/CyLib.c ****     *  bit:
 943:.\Generated_Source\PSoC4/CyLib.c ****     *   Valid range [0-31].  Counter 2 bit to monitor for a toggle.
 944:.\Generated_Source\PSoC4/CyLib.c ****     *
 945:.\Generated_Source\PSoC4/CyLib.c ****     * Return:
 946:.\Generated_Source\PSoC4/CyLib.c ****     *   None
 947:.\Generated_Source\PSoC4/CyLib.c ****     *
 948:.\Generated_Source\PSoC4/CyLib.c ****     * Side effects:
 949:.\Generated_Source\PSoC4/CyLib.c ****     *   The WDT counter 2 should be disabled. Otherwise the function
 950:.\Generated_Source\PSoC4/CyLib.c ****     *   call will have no effect.
 951:.\Generated_Source\PSoC4/CyLib.c ****     *   This API enables the ILO, if it was disabled.
 952:.\Generated_Source\PSoC4/CyLib.c ****     *
 953:.\Generated_Source\PSoC4/CyLib.c ****     *******************************************************************************/
 954:.\Generated_Source\PSoC4/CyLib.c ****     void CySysWdtWriteToggleBit(uint32 bits)
 955:.\Generated_Source\PSoC4/CyLib.c ****     {
 956:.\Generated_Source\PSoC4/CyLib.c ****         uint32 configRegValue;
 957:.\Generated_Source\PSoC4/CyLib.c **** 
 958:.\Generated_Source\PSoC4/CyLib.c ****         if (0u == CySysWdtReadEnabledStatus(CY_SYS_WDT_COUNTER2))
 959:.\Generated_Source\PSoC4/CyLib.c ****         {
 960:.\Generated_Source\PSoC4/CyLib.c ****             /* Configuring WDT involves passing control signals between clock domains,
 961:.\Generated_Source\PSoC4/CyLib.c ****             * which requires ILO to be enabled.
 962:.\Generated_Source\PSoC4/CyLib.c ****             */
 963:.\Generated_Source\PSoC4/CyLib.c ****             if (0u == (CY_SYS_CLK_ILO_CONFIG_REG & CY_SYS_CLK_ILO_CONFIG_ENABLE))
 964:.\Generated_Source\PSoC4/CyLib.c ****             {
 965:.\Generated_Source\PSoC4/CyLib.c ****                 CySysClkIloStart();
 966:.\Generated_Source\PSoC4/CyLib.c ****             }
 967:.\Generated_Source\PSoC4/CyLib.c **** 
 968:.\Generated_Source\PSoC4/CyLib.c ****             configRegValue = CY_SYS_WDT_CONFIG_REG;
 969:.\Generated_Source\PSoC4/CyLib.c ****             configRegValue &= (uint32)(~((uint32)(CY_SYS_WDT_CONFIG_BITS2_MASK << CY_SYS_WDT_CONFIG
 970:.\Generated_Source\PSoC4/CyLib.c ****             configRegValue |= ((bits & CY_SYS_WDT_CONFIG_BITS2_MASK) << CY_SYS_WDT_CONFIG_BITS2_POS
 971:.\Generated_Source\PSoC4/CyLib.c ****             CY_SYS_WDT_CONFIG_REG = configRegValue;
 972:.\Generated_Source\PSoC4/CyLib.c ****         }
 973:.\Generated_Source\PSoC4/CyLib.c ****     }
 974:.\Generated_Source\PSoC4/CyLib.c **** 
 975:.\Generated_Source\PSoC4/CyLib.c **** 
 976:.\Generated_Source\PSoC4/CyLib.c ****     /*******************************************************************************
 977:.\Generated_Source\PSoC4/CyLib.c ****     * Function Name: CySysWdtReadToggleBit
 978:.\Generated_Source\PSoC4/CyLib.c ****     ********************************************************************************
 979:.\Generated_Source\PSoC4/CyLib.c ****     *
 980:.\Generated_Source\PSoC4/CyLib.c ****     * Summary:
 981:.\Generated_Source\PSoC4/CyLib.c ****     *  Reads which bit in the WDT counter 2 is monitored for a toggle.
 982:.\Generated_Source\PSoC4/CyLib.c ****     *
 983:.\Generated_Source\PSoC4/CyLib.c ****     * Parameters:
 984:.\Generated_Source\PSoC4/CyLib.c ****     *  None
 985:.\Generated_Source\PSoC4/CyLib.c ****     *
 986:.\Generated_Source\PSoC4/CyLib.c ****     * Return:
 987:.\Generated_Source\PSoC4/CyLib.c ****     *  The bit that is monitored (range of 0 to 31)
ARM GAS  C:\Users\SNFU\AppData\Local\Temp\ccL8ejmf.s 			page 25


 988:.\Generated_Source\PSoC4/CyLib.c ****     *
 989:.\Generated_Source\PSoC4/CyLib.c ****     *******************************************************************************/
 990:.\Generated_Source\PSoC4/CyLib.c ****     uint32 CySysWdtReadToggleBit(void)
 991:.\Generated_Source\PSoC4/CyLib.c ****     {
 992:.\Generated_Source\PSoC4/CyLib.c ****         return ((CY_SYS_WDT_CONFIG_REG >> CY_SYS_WDT_CONFIG_BITS2_POS) & CY_SYS_WDT_CONFIG_BITS2_MA
 993:.\Generated_Source\PSoC4/CyLib.c ****     }
 994:.\Generated_Source\PSoC4/CyLib.c **** 
 995:.\Generated_Source\PSoC4/CyLib.c **** 
 996:.\Generated_Source\PSoC4/CyLib.c ****     /*******************************************************************************
 997:.\Generated_Source\PSoC4/CyLib.c ****     * Function Name: CySysWdtReadMatch
 998:.\Generated_Source\PSoC4/CyLib.c ****     ********************************************************************************
 999:.\Generated_Source\PSoC4/CyLib.c ****     *
1000:.\Generated_Source\PSoC4/CyLib.c ****     * Summary:
1001:.\Generated_Source\PSoC4/CyLib.c ****     *  Reads the WDT counter match comparison value.
1002:.\Generated_Source\PSoC4/CyLib.c ****     *
1003:.\Generated_Source\PSoC4/CyLib.c ****     * Parameters:
1004:.\Generated_Source\PSoC4/CyLib.c ****     *  counterNum: Valid range [0-1].  Number of the WDT counter.  Match values
1005:.\Generated_Source\PSoC4/CyLib.c ****     *               are not supported by counter 2.
1006:.\Generated_Source\PSoC4/CyLib.c ****     *
1007:.\Generated_Source\PSoC4/CyLib.c ****     * Return:
1008:.\Generated_Source\PSoC4/CyLib.c ****     *  Counter match value
1009:.\Generated_Source\PSoC4/CyLib.c ****     *
1010:.\Generated_Source\PSoC4/CyLib.c ****     *******************************************************************************/
1011:.\Generated_Source\PSoC4/CyLib.c ****     uint32 CySysWdtReadMatch(uint32 counterNum)
1012:.\Generated_Source\PSoC4/CyLib.c ****     {
1013:.\Generated_Source\PSoC4/CyLib.c ****         CYASSERT((counterNum == CY_SYS_WDT_COUNTER0) ||
1014:.\Generated_Source\PSoC4/CyLib.c ****                                              (counterNum == CY_SYS_WDT_COUNTER1));
1015:.\Generated_Source\PSoC4/CyLib.c ****         return ((uint32)(CY_SYS_WDT_MATCH_REG >> (counterNum * CY_SYS_WDT_CNT_MATCH_SHIFT)) & CY_SY
1016:.\Generated_Source\PSoC4/CyLib.c ****     }
1017:.\Generated_Source\PSoC4/CyLib.c **** 
1018:.\Generated_Source\PSoC4/CyLib.c **** 
1019:.\Generated_Source\PSoC4/CyLib.c ****     /*******************************************************************************
1020:.\Generated_Source\PSoC4/CyLib.c ****     * Function Name: CySysWdtReadCount
1021:.\Generated_Source\PSoC4/CyLib.c ****     ********************************************************************************
1022:.\Generated_Source\PSoC4/CyLib.c ****     *
1023:.\Generated_Source\PSoC4/CyLib.c ****     * Summary:
1024:.\Generated_Source\PSoC4/CyLib.c ****     *  Reads the current WDT counter value.
1025:.\Generated_Source\PSoC4/CyLib.c ****     *
1026:.\Generated_Source\PSoC4/CyLib.c ****     * Parameters:
1027:.\Generated_Source\PSoC4/CyLib.c ****     *  counterNum: Valid range [0-2].  Number of the WDT counter.
1028:.\Generated_Source\PSoC4/CyLib.c ****     *
1029:.\Generated_Source\PSoC4/CyLib.c ****     * Return:
1030:.\Generated_Source\PSoC4/CyLib.c ****     *  Live counter value.  Counter 0 and 1 are 16 bit counters and counter
1031:.\Generated_Source\PSoC4/CyLib.c ****     *  2 is a 32 bit counter.
1032:.\Generated_Source\PSoC4/CyLib.c ****     *
1033:.\Generated_Source\PSoC4/CyLib.c ****     *******************************************************************************/
1034:.\Generated_Source\PSoC4/CyLib.c ****     uint32 CySysWdtReadCount(uint32 counterNum)
1035:.\Generated_Source\PSoC4/CyLib.c ****     {
1036:.\Generated_Source\PSoC4/CyLib.c ****         uint32 regValue = 0u;
1037:.\Generated_Source\PSoC4/CyLib.c **** 
1038:.\Generated_Source\PSoC4/CyLib.c ****         switch(counterNum)
1039:.\Generated_Source\PSoC4/CyLib.c ****         {
1040:.\Generated_Source\PSoC4/CyLib.c ****             /* WDT Counter 0 */
1041:.\Generated_Source\PSoC4/CyLib.c ****             case 0u:
1042:.\Generated_Source\PSoC4/CyLib.c ****                 regValue = CY_SYS_WDT_CTRLOW_REG & CY_SYS_WDT_LOWER_16BITS_MASK;
1043:.\Generated_Source\PSoC4/CyLib.c ****             break;
1044:.\Generated_Source\PSoC4/CyLib.c **** 
ARM GAS  C:\Users\SNFU\AppData\Local\Temp\ccL8ejmf.s 			page 26


1045:.\Generated_Source\PSoC4/CyLib.c ****             /* WDT Counter 1 */
1046:.\Generated_Source\PSoC4/CyLib.c ****             case 1u:
1047:.\Generated_Source\PSoC4/CyLib.c ****                 regValue = (CY_SYS_WDT_CTRLOW_REG >> CY_SYS_WDT_CNT_MATCH_SHIFT) & CY_SYS_WDT_LOWER
1048:.\Generated_Source\PSoC4/CyLib.c ****             break;
1049:.\Generated_Source\PSoC4/CyLib.c **** 
1050:.\Generated_Source\PSoC4/CyLib.c ****             /* WDT Counter 2 */
1051:.\Generated_Source\PSoC4/CyLib.c ****             case 2u:
1052:.\Generated_Source\PSoC4/CyLib.c ****                 regValue = CY_SYS_WDT_CTRHIGH_REG;
1053:.\Generated_Source\PSoC4/CyLib.c ****             break;
1054:.\Generated_Source\PSoC4/CyLib.c **** 
1055:.\Generated_Source\PSoC4/CyLib.c ****             default:
1056:.\Generated_Source\PSoC4/CyLib.c ****                 CYASSERT(0u != 0u);
1057:.\Generated_Source\PSoC4/CyLib.c ****             break;
1058:.\Generated_Source\PSoC4/CyLib.c ****         }
1059:.\Generated_Source\PSoC4/CyLib.c **** 
1060:.\Generated_Source\PSoC4/CyLib.c ****         return (regValue);
1061:.\Generated_Source\PSoC4/CyLib.c ****     }
1062:.\Generated_Source\PSoC4/CyLib.c **** 
1063:.\Generated_Source\PSoC4/CyLib.c **** 
1064:.\Generated_Source\PSoC4/CyLib.c ****     /*******************************************************************************
1065:.\Generated_Source\PSoC4/CyLib.c ****     * Function Name: CySysWdtGetInterruptSource
1066:.\Generated_Source\PSoC4/CyLib.c ****     ********************************************************************************
1067:.\Generated_Source\PSoC4/CyLib.c ****     *
1068:.\Generated_Source\PSoC4/CyLib.c ****     * Summary:
1069:.\Generated_Source\PSoC4/CyLib.c ****     *   Reads a mask containing all the WDT counters interrupts that are currently
1070:.\Generated_Source\PSoC4/CyLib.c ****     *   set by the hardware, if a corresponding mode is selected.
1071:.\Generated_Source\PSoC4/CyLib.c ****     *
1072:.\Generated_Source\PSoC4/CyLib.c ****     * Parameters:
1073:.\Generated_Source\PSoC4/CyLib.c ****     *   None
1074:.\Generated_Source\PSoC4/CyLib.c ****     *
1075:.\Generated_Source\PSoC4/CyLib.c ****     * Return:
1076:.\Generated_Source\PSoC4/CyLib.c ****     *   Mask of interrupts set.
1077:.\Generated_Source\PSoC4/CyLib.c ****     *   Define                    Counter
1078:.\Generated_Source\PSoC4/CyLib.c ****     *   CY_SYS_WDT_COUNTER0_INT    0
1079:.\Generated_Source\PSoC4/CyLib.c ****     *   CY_SYS_WDT_COUNTER1_INT    1
1080:.\Generated_Source\PSoC4/CyLib.c ****     *   CY_SYS_WDT_COUNTER2_INT    2
1081:.\Generated_Source\PSoC4/CyLib.c ****     *
1082:.\Generated_Source\PSoC4/CyLib.c ****     *******************************************************************************/
1083:.\Generated_Source\PSoC4/CyLib.c ****     uint32 CySysWdtGetInterruptSource(void)
1084:.\Generated_Source\PSoC4/CyLib.c ****     {
1085:.\Generated_Source\PSoC4/CyLib.c ****         return (CY_SYS_WDT_CONTROL_REG & (CY_SYS_WDT_COUNTER0_INT | CY_SYS_WDT_COUNTER1_INT | CY_SY
1086:.\Generated_Source\PSoC4/CyLib.c ****     }
1087:.\Generated_Source\PSoC4/CyLib.c **** 
1088:.\Generated_Source\PSoC4/CyLib.c **** 
1089:.\Generated_Source\PSoC4/CyLib.c ****     /*******************************************************************************
1090:.\Generated_Source\PSoC4/CyLib.c ****     * Function Name: CySysWdtClearInterrupt
1091:.\Generated_Source\PSoC4/CyLib.c ****     ********************************************************************************
1092:.\Generated_Source\PSoC4/CyLib.c ****     *
1093:.\Generated_Source\PSoC4/CyLib.c ****     * Summary:
1094:.\Generated_Source\PSoC4/CyLib.c ****     *   Clears all the WDT counter interrupts set in the mask. Calling this API also
1095:.\Generated_Source\PSoC4/CyLib.c ****     *   prevents Reset from happening when the counter mode is set to generate
1096:.\Generated_Source\PSoC4/CyLib.c ****     *   3 interrupts and then reset the device.
1097:.\Generated_Source\PSoC4/CyLib.c ****     *   All the WDT interrupts are to be cleared by the firmware, otherwise interrupts
1098:.\Generated_Source\PSoC4/CyLib.c ****     *   will be generated continuously.
1099:.\Generated_Source\PSoC4/CyLib.c ****     *
1100:.\Generated_Source\PSoC4/CyLib.c ****     * Parameters:
1101:.\Generated_Source\PSoC4/CyLib.c ****     *   counterMask: Mask of all counters to enable
ARM GAS  C:\Users\SNFU\AppData\Local\Temp\ccL8ejmf.s 			page 27


1102:.\Generated_Source\PSoC4/CyLib.c ****     *   Define                    Counter
1103:.\Generated_Source\PSoC4/CyLib.c ****     *   CY_SYS_WDT_COUNTER0_INT    0
1104:.\Generated_Source\PSoC4/CyLib.c ****     *   CY_SYS_WDT_COUNTER1_INT    1
1105:.\Generated_Source\PSoC4/CyLib.c ****     *   CY_SYS_WDT_COUNTER2_INT    2
1106:.\Generated_Source\PSoC4/CyLib.c ****     *
1107:.\Generated_Source\PSoC4/CyLib.c ****     * Return:
1108:.\Generated_Source\PSoC4/CyLib.c ****     *   None
1109:.\Generated_Source\PSoC4/CyLib.c ****     *
1110:.\Generated_Source\PSoC4/CyLib.c ****     * Side effects:
1111:.\Generated_Source\PSoC4/CyLib.c ****     *   This API enables the ILO, if it was disabled and temporary removes Watchdog
1112:.\Generated_Source\PSoC4/CyLib.c ****     *   lock, if it was set, and restores the lock state, after cleaning the WDT
1113:.\Generated_Source\PSoC4/CyLib.c ****     *   interrupts, that are set in a mask.
1114:.\Generated_Source\PSoC4/CyLib.c ****     *
1115:.\Generated_Source\PSoC4/CyLib.c ****     *******************************************************************************/
1116:.\Generated_Source\PSoC4/CyLib.c ****     void CySysWdtClearInterrupt(uint32 counterMask)
1117:.\Generated_Source\PSoC4/CyLib.c ****     {
1118:.\Generated_Source\PSoC4/CyLib.c ****         uint8 interruptState;
1119:.\Generated_Source\PSoC4/CyLib.c ****         uint32 wdtLockState;
1120:.\Generated_Source\PSoC4/CyLib.c **** 
1121:.\Generated_Source\PSoC4/CyLib.c ****         interruptState = CyEnterCriticalSection();
1122:.\Generated_Source\PSoC4/CyLib.c **** 
1123:.\Generated_Source\PSoC4/CyLib.c ****         /* Configuring WDT involves passing control signals between clock domains,
1124:.\Generated_Source\PSoC4/CyLib.c ****         * which requires ILO to be enabled.
1125:.\Generated_Source\PSoC4/CyLib.c ****         */
1126:.\Generated_Source\PSoC4/CyLib.c ****         if (0u == (CY_SYS_CLK_ILO_CONFIG_REG & CY_SYS_CLK_ILO_CONFIG_ENABLE))
1127:.\Generated_Source\PSoC4/CyLib.c ****         {
1128:.\Generated_Source\PSoC4/CyLib.c ****             CySysClkIloStart();
1129:.\Generated_Source\PSoC4/CyLib.c ****         }
1130:.\Generated_Source\PSoC4/CyLib.c **** 
1131:.\Generated_Source\PSoC4/CyLib.c ****         if ((CY_SYS_CLK_SELECT_REG & (uint32)(CY_SYS_WDT_CLK_LOCK_BITS_MASK)) == CY_SYS_WDT_CLK_LOC
1132:.\Generated_Source\PSoC4/CyLib.c ****         {
1133:.\Generated_Source\PSoC4/CyLib.c ****             wdtLockState = 1u;
1134:.\Generated_Source\PSoC4/CyLib.c **** 
1135:.\Generated_Source\PSoC4/CyLib.c ****             /* Removing WDT lock requires two writes */
1136:.\Generated_Source\PSoC4/CyLib.c ****             CY_SYS_CLK_SELECT_REG = ((CY_SYS_CLK_SELECT_REG & (uint32)(~CY_SYS_WDT_CLK_LOCK_BITS_MA
1137:.\Generated_Source\PSoC4/CyLib.c ****                     CY_SYS_WDT_CLK_LOCK_BIT0);
1138:.\Generated_Source\PSoC4/CyLib.c **** 
1139:.\Generated_Source\PSoC4/CyLib.c ****             CY_SYS_CLK_SELECT_REG = ((CY_SYS_CLK_SELECT_REG & (uint32)(~CY_SYS_WDT_CLK_LOCK_BITS_MA
1140:.\Generated_Source\PSoC4/CyLib.c ****                     CY_SYS_WDT_CLK_LOCK_BIT1);
1141:.\Generated_Source\PSoC4/CyLib.c ****         }
1142:.\Generated_Source\PSoC4/CyLib.c ****         else
1143:.\Generated_Source\PSoC4/CyLib.c ****         {
1144:.\Generated_Source\PSoC4/CyLib.c ****             wdtLockState = 0u;
1145:.\Generated_Source\PSoC4/CyLib.c ****         }
1146:.\Generated_Source\PSoC4/CyLib.c **** 
1147:.\Generated_Source\PSoC4/CyLib.c ****         /* Set new WDT control register value */
1148:.\Generated_Source\PSoC4/CyLib.c ****         counterMask &= (CY_SYS_WDT_COUNTER0_INT |
1149:.\Generated_Source\PSoC4/CyLib.c ****                         CY_SYS_WDT_COUNTER1_INT |
1150:.\Generated_Source\PSoC4/CyLib.c ****                         CY_SYS_WDT_COUNTER2_INT);
1151:.\Generated_Source\PSoC4/CyLib.c **** 
1152:.\Generated_Source\PSoC4/CyLib.c ****         CY_SYS_WDT_CONTROL_REG = counterMask | (CY_SYS_WDT_CONTROL_REG & ~(CY_SYS_WDT_COUNTER0_INT 
1153:.\Generated_Source\PSoC4/CyLib.c ****                                                                            CY_SYS_WDT_COUNTER1_INT 
1154:.\Generated_Source\PSoC4/CyLib.c ****                                                                            CY_SYS_WDT_COUNTER2_INT)
1155:.\Generated_Source\PSoC4/CyLib.c **** 
1156:.\Generated_Source\PSoC4/CyLib.c ****         if (1u == wdtLockState)
1157:.\Generated_Source\PSoC4/CyLib.c ****         {
1158:.\Generated_Source\PSoC4/CyLib.c ****             /* CLK_SELECT register's bits 15:14 are WDT_LOCK */
ARM GAS  C:\Users\SNFU\AppData\Local\Temp\ccL8ejmf.s 			page 28


1159:.\Generated_Source\PSoC4/CyLib.c ****             CY_SYS_CLK_SELECT_REG = (CY_SYS_CLK_SELECT_REG & (uint32)(~CY_SYS_WDT_CLK_LOCK_BITS_MAS
1160:.\Generated_Source\PSoC4/CyLib.c ****                      CY_SYS_WDT_CLK_LOCK_BITS_MASK;
1161:.\Generated_Source\PSoC4/CyLib.c ****         }
1162:.\Generated_Source\PSoC4/CyLib.c **** 
1163:.\Generated_Source\PSoC4/CyLib.c ****         CyExitCriticalSection(interruptState);
1164:.\Generated_Source\PSoC4/CyLib.c ****     }
1165:.\Generated_Source\PSoC4/CyLib.c **** 
1166:.\Generated_Source\PSoC4/CyLib.c **** 
1167:.\Generated_Source\PSoC4/CyLib.c ****     /*******************************************************************************
1168:.\Generated_Source\PSoC4/CyLib.c ****     * Function Name: CySysWdtResetCounters
1169:.\Generated_Source\PSoC4/CyLib.c ****     ********************************************************************************
1170:.\Generated_Source\PSoC4/CyLib.c ****     *
1171:.\Generated_Source\PSoC4/CyLib.c ****     * Summary:
1172:.\Generated_Source\PSoC4/CyLib.c ****     *  Resets all WDT counters set in the mask.
1173:.\Generated_Source\PSoC4/CyLib.c ****     *
1174:.\Generated_Source\PSoC4/CyLib.c ****     * Parameters:
1175:.\Generated_Source\PSoC4/CyLib.c ****     *  counterMask: Mask of all counters to reset.
1176:.\Generated_Source\PSoC4/CyLib.c ****     *   Define                       Counter
1177:.\Generated_Source\PSoC4/CyLib.c ****     *   CY_SYS_WDT_COUNTER0_RESET    0
1178:.\Generated_Source\PSoC4/CyLib.c ****     *   CY_SYS_WDT_COUNTER1_RESET    1
1179:.\Generated_Source\PSoC4/CyLib.c ****     *   CY_SYS_WDT_COUNTER2_RESET    2
1180:.\Generated_Source\PSoC4/CyLib.c ****     *
1181:.\Generated_Source\PSoC4/CyLib.c ****     * Return:
1182:.\Generated_Source\PSoC4/CyLib.c ****     *   None
1183:.\Generated_Source\PSoC4/CyLib.c ****     *
1184:.\Generated_Source\PSoC4/CyLib.c ****     * Side effects:
1185:.\Generated_Source\PSoC4/CyLib.c ****     *   This API enables the ILO, if it was disabled, this API call will not reset
1186:.\Generated_Source\PSoC4/CyLib.c ****     *   the counter values, if the Watchdog is locked.
1187:.\Generated_Source\PSoC4/CyLib.c ****     *
1188:.\Generated_Source\PSoC4/CyLib.c ****     *******************************************************************************/
1189:.\Generated_Source\PSoC4/CyLib.c ****     void CySysWdtResetCounters(uint32 countersMask)
1190:.\Generated_Source\PSoC4/CyLib.c ****     {
1191:.\Generated_Source\PSoC4/CyLib.c ****         /* Configuring WDT involves passing control signals between clock domains,
1192:.\Generated_Source\PSoC4/CyLib.c ****         * which requires ILO to be enabled.
1193:.\Generated_Source\PSoC4/CyLib.c ****         */
1194:.\Generated_Source\PSoC4/CyLib.c ****         if (0u == (CY_SYS_CLK_ILO_CONFIG_REG & CY_SYS_CLK_ILO_CONFIG_ENABLE))
1195:.\Generated_Source\PSoC4/CyLib.c ****         {
1196:.\Generated_Source\PSoC4/CyLib.c ****             CySysClkIloStart();
1197:.\Generated_Source\PSoC4/CyLib.c ****         }
1198:.\Generated_Source\PSoC4/CyLib.c **** 
1199:.\Generated_Source\PSoC4/CyLib.c ****         /* Set new WDT reset value */
1200:.\Generated_Source\PSoC4/CyLib.c ****         CY_SYS_WDT_CONTROL_REG |= (countersMask & (CY_SYS_WDT_COUNTER0_RESET |
1201:.\Generated_Source\PSoC4/CyLib.c ****             CY_SYS_WDT_COUNTER1_RESET | CY_SYS_WDT_COUNTER2_RESET));
1202:.\Generated_Source\PSoC4/CyLib.c ****     }
1203:.\Generated_Source\PSoC4/CyLib.c **** 
1204:.\Generated_Source\PSoC4/CyLib.c **** #else
1205:.\Generated_Source\PSoC4/CyLib.c **** 
1206:.\Generated_Source\PSoC4/CyLib.c ****     /*******************************************************************************
1207:.\Generated_Source\PSoC4/CyLib.c ****     * Function Name: CySysWdtReadEnabledStatus
1208:.\Generated_Source\PSoC4/CyLib.c ****     ********************************************************************************
1209:.\Generated_Source\PSoC4/CyLib.c ****     *
1210:.\Generated_Source\PSoC4/CyLib.c ****     * Summary:
1211:.\Generated_Source\PSoC4/CyLib.c ****     *  Reads the enabled status WDT counter.
1212:.\Generated_Source\PSoC4/CyLib.c ****     *
1213:.\Generated_Source\PSoC4/CyLib.c ****     * Parameters:
1214:.\Generated_Source\PSoC4/CyLib.c ****     *  None
1215:.\Generated_Source\PSoC4/CyLib.c ****     *
ARM GAS  C:\Users\SNFU\AppData\Local\Temp\ccL8ejmf.s 			page 29


1216:.\Generated_Source\PSoC4/CyLib.c ****     * Return:
1217:.\Generated_Source\PSoC4/CyLib.c ****     *  Status of WDT counter:
1218:.\Generated_Source\PSoC4/CyLib.c ****     *   0 - counter is disabled
1219:.\Generated_Source\PSoC4/CyLib.c ****     *   1 - counter is enabled
1220:.\Generated_Source\PSoC4/CyLib.c ****     *
1221:.\Generated_Source\PSoC4/CyLib.c ****     * Side Effects:
1222:.\Generated_Source\PSoC4/CyLib.c ****     *  None
1223:.\Generated_Source\PSoC4/CyLib.c ****     *
1224:.\Generated_Source\PSoC4/CyLib.c ****     *******************************************************************************/
1225:.\Generated_Source\PSoC4/CyLib.c ****     uint32 CySysWdtReadEnabledStatus(void)
1226:.\Generated_Source\PSoC4/CyLib.c ****     {
1227:.\Generated_Source\PSoC4/CyLib.c ****         return ((CY_SYS_WDT_DISABLE_KEY_REG == CY_SYS_WDT_KEY) ? 0u : 1u);
1228:.\Generated_Source\PSoC4/CyLib.c ****     }
1229:.\Generated_Source\PSoC4/CyLib.c **** 
1230:.\Generated_Source\PSoC4/CyLib.c **** 
1231:.\Generated_Source\PSoC4/CyLib.c ****     /*******************************************************************************
1232:.\Generated_Source\PSoC4/CyLib.c ****     * Function Name: CySysWdtEnable
1233:.\Generated_Source\PSoC4/CyLib.c ****     ********************************************************************************
1234:.\Generated_Source\PSoC4/CyLib.c ****     *
1235:.\Generated_Source\PSoC4/CyLib.c ****     * Summary:
1236:.\Generated_Source\PSoC4/CyLib.c ****     *  Enables the WDT counter.
1237:.\Generated_Source\PSoC4/CyLib.c ****     *
1238:.\Generated_Source\PSoC4/CyLib.c ****     * Parameters:
1239:.\Generated_Source\PSoC4/CyLib.c ****     *  None
1240:.\Generated_Source\PSoC4/CyLib.c ****     *
1241:.\Generated_Source\PSoC4/CyLib.c ****     * Return:
1242:.\Generated_Source\PSoC4/CyLib.c ****     *  None
1243:.\Generated_Source\PSoC4/CyLib.c ****     *
1244:.\Generated_Source\PSoC4/CyLib.c ****     * Side Effects:
1245:.\Generated_Source\PSoC4/CyLib.c ****     *  This API enables ILO, if it was disabled.
1246:.\Generated_Source\PSoC4/CyLib.c ****     *
1247:.\Generated_Source\PSoC4/CyLib.c ****     *******************************************************************************/
1248:.\Generated_Source\PSoC4/CyLib.c ****     void CySysWdtEnable(void)
1249:.\Generated_Source\PSoC4/CyLib.c ****     {
1250:.\Generated_Source\PSoC4/CyLib.c ****         /* Configuring WDT involves passing control signals between clock domains,
1251:.\Generated_Source\PSoC4/CyLib.c ****         * which requires ILO to be enabled.
1252:.\Generated_Source\PSoC4/CyLib.c ****         */
1253:.\Generated_Source\PSoC4/CyLib.c ****         if (0u == (CY_SYS_CLK_ILO_CONFIG_REG & CY_SYS_CLK_ILO_CONFIG_ENABLE))
1254:.\Generated_Source\PSoC4/CyLib.c ****         {
1255:.\Generated_Source\PSoC4/CyLib.c ****             CySysClkIloStart();
1256:.\Generated_Source\PSoC4/CyLib.c ****         }
1257:.\Generated_Source\PSoC4/CyLib.c **** 
1258:.\Generated_Source\PSoC4/CyLib.c ****         CY_SYS_WDT_DISABLE_KEY_REG = 0u;
1259:.\Generated_Source\PSoC4/CyLib.c ****     }
1260:.\Generated_Source\PSoC4/CyLib.c **** 
1261:.\Generated_Source\PSoC4/CyLib.c **** 
1262:.\Generated_Source\PSoC4/CyLib.c ****     /*******************************************************************************
1263:.\Generated_Source\PSoC4/CyLib.c ****     * Function Name: CySysWdtDisable
1264:.\Generated_Source\PSoC4/CyLib.c ****     ********************************************************************************
1265:.\Generated_Source\PSoC4/CyLib.c ****     *
1266:.\Generated_Source\PSoC4/CyLib.c ****     * Summary:
1267:.\Generated_Source\PSoC4/CyLib.c ****     *  Disables the WDT counter.
1268:.\Generated_Source\PSoC4/CyLib.c ****     *
1269:.\Generated_Source\PSoC4/CyLib.c ****     * Parameters:
1270:.\Generated_Source\PSoC4/CyLib.c ****     *  None
1271:.\Generated_Source\PSoC4/CyLib.c ****     *
1272:.\Generated_Source\PSoC4/CyLib.c ****     * Return:
ARM GAS  C:\Users\SNFU\AppData\Local\Temp\ccL8ejmf.s 			page 30


1273:.\Generated_Source\PSoC4/CyLib.c ****     *  None
1274:.\Generated_Source\PSoC4/CyLib.c ****     *
1275:.\Generated_Source\PSoC4/CyLib.c ****     * Side Effects:
1276:.\Generated_Source\PSoC4/CyLib.c ****     *  In order to disable the ILO clock the WDT counter should be disabled.
1277:.\Generated_Source\PSoC4/CyLib.c ****     *
1278:.\Generated_Source\PSoC4/CyLib.c ****     *******************************************************************************/
1279:.\Generated_Source\PSoC4/CyLib.c ****     void CySysWdtDisable(void)
1280:.\Generated_Source\PSoC4/CyLib.c ****     {
1281:.\Generated_Source\PSoC4/CyLib.c ****         CY_SYS_WDT_DISABLE_KEY_REG = CY_SYS_WDT_KEY;
1282:.\Generated_Source\PSoC4/CyLib.c ****     }
1283:.\Generated_Source\PSoC4/CyLib.c **** 
1284:.\Generated_Source\PSoC4/CyLib.c **** 
1285:.\Generated_Source\PSoC4/CyLib.c ****     /*******************************************************************************
1286:.\Generated_Source\PSoC4/CyLib.c ****     * Function Name: CySysWdtWriteMatch
1287:.\Generated_Source\PSoC4/CyLib.c ****     ********************************************************************************
1288:.\Generated_Source\PSoC4/CyLib.c ****     *
1289:.\Generated_Source\PSoC4/CyLib.c ****     * Summary:
1290:.\Generated_Source\PSoC4/CyLib.c ****     *  Configures the WDT counter match comparison value.
1291:.\Generated_Source\PSoC4/CyLib.c ****     *
1292:.\Generated_Source\PSoC4/CyLib.c ****     * Parameters:
1293:.\Generated_Source\PSoC4/CyLib.c ****     *  match:
1294:.\Generated_Source\PSoC4/CyLib.c ****     *   Valid range [0-65535]. Value to be used to match against the counter.
1295:.\Generated_Source\PSoC4/CyLib.c ****     *
1296:.\Generated_Source\PSoC4/CyLib.c ****     * Return:
1297:.\Generated_Source\PSoC4/CyLib.c ****     *  None
1298:.\Generated_Source\PSoC4/CyLib.c ****     *
1299:.\Generated_Source\PSoC4/CyLib.c ****     * Side Effects:
1300:.\Generated_Source\PSoC4/CyLib.c ****     *  This API enables ILO, if it was disabled.
1301:.\Generated_Source\PSoC4/CyLib.c ****     *
1302:.\Generated_Source\PSoC4/CyLib.c ****     *******************************************************************************/
1303:.\Generated_Source\PSoC4/CyLib.c ****     void CySysWdtWriteMatch(uint32 match)
1304:.\Generated_Source\PSoC4/CyLib.c ****     {
1305:.\Generated_Source\PSoC4/CyLib.c ****         /* Configuring WDT involves passing control signals between clock domains,
1306:.\Generated_Source\PSoC4/CyLib.c ****         * which requires ILO to be enabled.
1307:.\Generated_Source\PSoC4/CyLib.c ****         */
1308:.\Generated_Source\PSoC4/CyLib.c ****         if (0u == (CY_SYS_CLK_ILO_CONFIG_REG & CY_SYS_CLK_ILO_CONFIG_ENABLE))
1309:.\Generated_Source\PSoC4/CyLib.c ****         {
1310:.\Generated_Source\PSoC4/CyLib.c ****             CySysClkIloStart();
1311:.\Generated_Source\PSoC4/CyLib.c ****         }
1312:.\Generated_Source\PSoC4/CyLib.c **** 
1313:.\Generated_Source\PSoC4/CyLib.c ****         CY_SYS_WDT_MATCH_REG = (CY_SYS_WDT_MATCH_REG & (uint32)(~ (uint32)CY_SYS_WDT_MATCH_MASK)) |
1314:.\Generated_Source\PSoC4/CyLib.c ****     }
1315:.\Generated_Source\PSoC4/CyLib.c **** 
1316:.\Generated_Source\PSoC4/CyLib.c **** 
1317:.\Generated_Source\PSoC4/CyLib.c ****     /*******************************************************************************
1318:.\Generated_Source\PSoC4/CyLib.c ****     * Function Name: CySysWdtReadMatch
1319:.\Generated_Source\PSoC4/CyLib.c ****     ********************************************************************************
1320:.\Generated_Source\PSoC4/CyLib.c ****     *
1321:.\Generated_Source\PSoC4/CyLib.c ****     * Summary:
1322:.\Generated_Source\PSoC4/CyLib.c ****     *  Reads the WDT counter match comparison value.
1323:.\Generated_Source\PSoC4/CyLib.c ****     *
1324:.\Generated_Source\PSoC4/CyLib.c ****     * Parameters:
1325:.\Generated_Source\PSoC4/CyLib.c ****     *  None
1326:.\Generated_Source\PSoC4/CyLib.c ****     *
1327:.\Generated_Source\PSoC4/CyLib.c ****     * Return:
1328:.\Generated_Source\PSoC4/CyLib.c ****     *  Counter match value
1329:.\Generated_Source\PSoC4/CyLib.c ****     *
ARM GAS  C:\Users\SNFU\AppData\Local\Temp\ccL8ejmf.s 			page 31


1330:.\Generated_Source\PSoC4/CyLib.c ****     * Side Effects:
1331:.\Generated_Source\PSoC4/CyLib.c ****     *  None
1332:.\Generated_Source\PSoC4/CyLib.c ****     *
1333:.\Generated_Source\PSoC4/CyLib.c ****     *******************************************************************************/
1334:.\Generated_Source\PSoC4/CyLib.c ****     uint32 CySysWdtReadMatch(void)
1335:.\Generated_Source\PSoC4/CyLib.c ****     {
1336:.\Generated_Source\PSoC4/CyLib.c ****         return (CY_SYS_WDT_MATCH_REG & CY_SYS_WDT_MATCH_MASK);
1337:.\Generated_Source\PSoC4/CyLib.c ****     }
1338:.\Generated_Source\PSoC4/CyLib.c **** 
1339:.\Generated_Source\PSoC4/CyLib.c **** 
1340:.\Generated_Source\PSoC4/CyLib.c ****     /*******************************************************************************
1341:.\Generated_Source\PSoC4/CyLib.c ****     * Function Name: CySysWdtReadCount
1342:.\Generated_Source\PSoC4/CyLib.c ****     ********************************************************************************
1343:.\Generated_Source\PSoC4/CyLib.c ****     *
1344:.\Generated_Source\PSoC4/CyLib.c ****     * Summary:
1345:.\Generated_Source\PSoC4/CyLib.c ****     *  Reads the current WDT counter value.
1346:.\Generated_Source\PSoC4/CyLib.c ****     *
1347:.\Generated_Source\PSoC4/CyLib.c ****     * Parameters:
1348:.\Generated_Source\PSoC4/CyLib.c ****     *  None
1349:.\Generated_Source\PSoC4/CyLib.c ****     *
1350:.\Generated_Source\PSoC4/CyLib.c ****     * Return:
1351:.\Generated_Source\PSoC4/CyLib.c ****     *  Live counter value
1352:.\Generated_Source\PSoC4/CyLib.c ****     *
1353:.\Generated_Source\PSoC4/CyLib.c ****     * Side Effects:
1354:.\Generated_Source\PSoC4/CyLib.c ****     *  None
1355:.\Generated_Source\PSoC4/CyLib.c ****     *
1356:.\Generated_Source\PSoC4/CyLib.c ****     *******************************************************************************/
1357:.\Generated_Source\PSoC4/CyLib.c ****     uint32 CySysWdtReadCount(void)
1358:.\Generated_Source\PSoC4/CyLib.c ****     {
1359:.\Generated_Source\PSoC4/CyLib.c ****         return ((uint32)CY_SYS_WDT_COUNTER_REG);
1360:.\Generated_Source\PSoC4/CyLib.c ****     }
1361:.\Generated_Source\PSoC4/CyLib.c **** 
1362:.\Generated_Source\PSoC4/CyLib.c **** 
1363:.\Generated_Source\PSoC4/CyLib.c ****     /*******************************************************************************
1364:.\Generated_Source\PSoC4/CyLib.c ****     * Function Name: CySysWdtWriteIgnoreBits
1365:.\Generated_Source\PSoC4/CyLib.c ****     ********************************************************************************
1366:.\Generated_Source\PSoC4/CyLib.c ****     *
1367:.\Generated_Source\PSoC4/CyLib.c ****     * Summary:
1368:.\Generated_Source\PSoC4/CyLib.c ****     *  Configures the number of the MSB bits of the watchdog timer that are not
1369:.\Generated_Source\PSoC4/CyLib.c ****     *  checked against the match.
1370:.\Generated_Source\PSoC4/CyLib.c ****     *
1371:.\Generated_Source\PSoC4/CyLib.c ****     * Parameters:
1372:.\Generated_Source\PSoC4/CyLib.c ****     *  bitsNum:
1373:.\Generated_Source\PSoC4/CyLib.c ****     *   Valid range [0-15]. Number of MSB bits.
1374:.\Generated_Source\PSoC4/CyLib.c ****     *
1375:.\Generated_Source\PSoC4/CyLib.c ****     * Return:
1376:.\Generated_Source\PSoC4/CyLib.c ****     *  None
1377:.\Generated_Source\PSoC4/CyLib.c ****     *
1378:.\Generated_Source\PSoC4/CyLib.c ****     * Side Effects:
1379:.\Generated_Source\PSoC4/CyLib.c ****     *  The value of bitsNum provides control over the time-to-reset of the watchdog
1380:.\Generated_Source\PSoC4/CyLib.c ****     *  (which happens after 3 successive matches).
1381:.\Generated_Source\PSoC4/CyLib.c ****     *
1382:.\Generated_Source\PSoC4/CyLib.c ****     *******************************************************************************/
1383:.\Generated_Source\PSoC4/CyLib.c ****     void CySysWdtWriteIgnoreBits(uint32 bitsNum)
1384:.\Generated_Source\PSoC4/CyLib.c ****     {
1385:.\Generated_Source\PSoC4/CyLib.c ****         bitsNum = ((uint32)(bitsNum << 16u) & CY_SYS_WDT_IGNORE_BITS_MASK);
1386:.\Generated_Source\PSoC4/CyLib.c ****         CY_SYS_WDT_MATCH_REG = (CY_SYS_WDT_MATCH_REG & (uint32)(~CY_SYS_WDT_IGNORE_BITS_MASK)) | bi
ARM GAS  C:\Users\SNFU\AppData\Local\Temp\ccL8ejmf.s 			page 32


1387:.\Generated_Source\PSoC4/CyLib.c ****     }
1388:.\Generated_Source\PSoC4/CyLib.c **** 
1389:.\Generated_Source\PSoC4/CyLib.c **** 
1390:.\Generated_Source\PSoC4/CyLib.c ****     /*******************************************************************************
1391:.\Generated_Source\PSoC4/CyLib.c ****     * Function Name: CySysWdtReadIgnoreBits
1392:.\Generated_Source\PSoC4/CyLib.c ****     ********************************************************************************
1393:.\Generated_Source\PSoC4/CyLib.c ****     *
1394:.\Generated_Source\PSoC4/CyLib.c ****     * Summary:
1395:.\Generated_Source\PSoC4/CyLib.c ****     *  Reads the number of the  MSB bits of the watchdog timer that are not
1396:.\Generated_Source\PSoC4/CyLib.c ****     *  checked against the match.
1397:.\Generated_Source\PSoC4/CyLib.c ****     *
1398:.\Generated_Source\PSoC4/CyLib.c ****     * Parameters:
1399:.\Generated_Source\PSoC4/CyLib.c ****     *  None
1400:.\Generated_Source\PSoC4/CyLib.c ****     *
1401:.\Generated_Source\PSoC4/CyLib.c ****     * Return:
1402:.\Generated_Source\PSoC4/CyLib.c ****     *  Number of MSB bits.
1403:.\Generated_Source\PSoC4/CyLib.c ****     *
1404:.\Generated_Source\PSoC4/CyLib.c ****     * Side Effects:
1405:.\Generated_Source\PSoC4/CyLib.c ****     *  None
1406:.\Generated_Source\PSoC4/CyLib.c ****     *
1407:.\Generated_Source\PSoC4/CyLib.c ****     *******************************************************************************/
1408:.\Generated_Source\PSoC4/CyLib.c ****     uint32 CySysWdtReadIgnoreBits(void)
1409:.\Generated_Source\PSoC4/CyLib.c ****     {
1410:.\Generated_Source\PSoC4/CyLib.c ****         return((uint32)(CY_SYS_WDT_MATCH_REG  >> 16u) & CY_SYS_WDT_IGNORE_BITS_MASK);
1411:.\Generated_Source\PSoC4/CyLib.c ****     }
1412:.\Generated_Source\PSoC4/CyLib.c **** 
1413:.\Generated_Source\PSoC4/CyLib.c **** 
1414:.\Generated_Source\PSoC4/CyLib.c ****     /*******************************************************************************
1415:.\Generated_Source\PSoC4/CyLib.c ****     * Function Name: CySysWdtClearInterrupt
1416:.\Generated_Source\PSoC4/CyLib.c ****     ********************************************************************************
1417:.\Generated_Source\PSoC4/CyLib.c ****     *
1418:.\Generated_Source\PSoC4/CyLib.c ****     * Summary:
1419:.\Generated_Source\PSoC4/CyLib.c ****     *  Cleans the WDT match flag, which is set every time the WDT counter reaches a
1420:.\Generated_Source\PSoC4/CyLib.c ****     *  WDT match value.
1421:.\Generated_Source\PSoC4/CyLib.c ****     *
1422:.\Generated_Source\PSoC4/CyLib.c ****     * Parameters:
1423:.\Generated_Source\PSoC4/CyLib.c ****     *  None
1424:.\Generated_Source\PSoC4/CyLib.c ****     *
1425:.\Generated_Source\PSoC4/CyLib.c ****     * Return:
1426:.\Generated_Source\PSoC4/CyLib.c ****     *  None
1427:.\Generated_Source\PSoC4/CyLib.c ****     *
1428:.\Generated_Source\PSoC4/CyLib.c ****     * Side Effects:
1429:.\Generated_Source\PSoC4/CyLib.c ****     *  Clearing this bit also feeds the watch dog.  Missing 2 interrupts in a row
1430:.\Generated_Source\PSoC4/CyLib.c ****     *  will generate a brown-out reset.
1431:.\Generated_Source\PSoC4/CyLib.c ****     *
1432:.\Generated_Source\PSoC4/CyLib.c ****     *******************************************************************************/
1433:.\Generated_Source\PSoC4/CyLib.c ****     void CySysWdtClearInterrupt(void)
1434:.\Generated_Source\PSoC4/CyLib.c ****     {
1435:.\Generated_Source\PSoC4/CyLib.c ****         CY_SYS_SRSS_INTR_REG |= CY_SYS_WDT_LOWER_BIT_MASK;
1436:.\Generated_Source\PSoC4/CyLib.c ****     }
1437:.\Generated_Source\PSoC4/CyLib.c **** 
1438:.\Generated_Source\PSoC4/CyLib.c **** 
1439:.\Generated_Source\PSoC4/CyLib.c ****     /*******************************************************************************
1440:.\Generated_Source\PSoC4/CyLib.c ****     * Function Name: CySysWdtMaskInterrupt
1441:.\Generated_Source\PSoC4/CyLib.c ****     ********************************************************************************
1442:.\Generated_Source\PSoC4/CyLib.c ****     *
1443:.\Generated_Source\PSoC4/CyLib.c ****     * Summary:
ARM GAS  C:\Users\SNFU\AppData\Local\Temp\ccL8ejmf.s 			page 33


1444:.\Generated_Source\PSoC4/CyLib.c ****     *  After masking interrupts from the WDT, they are not passed to the CPU.
1445:.\Generated_Source\PSoC4/CyLib.c ****     *
1446:.\Generated_Source\PSoC4/CyLib.c ****     * Parameters:
1447:.\Generated_Source\PSoC4/CyLib.c ****     *  None
1448:.\Generated_Source\PSoC4/CyLib.c ****     *
1449:.\Generated_Source\PSoC4/CyLib.c ****     * Return:
1450:.\Generated_Source\PSoC4/CyLib.c ****     *  None
1451:.\Generated_Source\PSoC4/CyLib.c ****     *
1452:.\Generated_Source\PSoC4/CyLib.c ****     * Side Effects:
1453:.\Generated_Source\PSoC4/CyLib.c ****     *  This API does not disable the WDT reset generation on 2 missed interrupts.
1454:.\Generated_Source\PSoC4/CyLib.c ****     *
1455:.\Generated_Source\PSoC4/CyLib.c ****     *******************************************************************************/
1456:.\Generated_Source\PSoC4/CyLib.c ****     void CySysWdtMaskInterrupt(void)
1457:.\Generated_Source\PSoC4/CyLib.c ****     {
1458:.\Generated_Source\PSoC4/CyLib.c ****         CY_SYS_SRSS_INTR_MASK_REG &= (uint32)(~ (uint32)CY_SYS_WDT_LOWER_BIT_MASK);
1459:.\Generated_Source\PSoC4/CyLib.c ****     }
1460:.\Generated_Source\PSoC4/CyLib.c **** 
1461:.\Generated_Source\PSoC4/CyLib.c **** 
1462:.\Generated_Source\PSoC4/CyLib.c ****     /*******************************************************************************
1463:.\Generated_Source\PSoC4/CyLib.c ****     * Function Name: CySysWdtUnmaskInterrupt
1464:.\Generated_Source\PSoC4/CyLib.c ****     ********************************************************************************
1465:.\Generated_Source\PSoC4/CyLib.c ****     *
1466:.\Generated_Source\PSoC4/CyLib.c ****     * Summary:
1467:.\Generated_Source\PSoC4/CyLib.c ****     *  Unmasks WDT interrupts.
1468:.\Generated_Source\PSoC4/CyLib.c ****     *
1469:.\Generated_Source\PSoC4/CyLib.c ****     * Parameters:
1470:.\Generated_Source\PSoC4/CyLib.c ****     *  None
1471:.\Generated_Source\PSoC4/CyLib.c ****     *
1472:.\Generated_Source\PSoC4/CyLib.c ****     * Return:
1473:.\Generated_Source\PSoC4/CyLib.c ****     *  None
1474:.\Generated_Source\PSoC4/CyLib.c ****     *
1475:.\Generated_Source\PSoC4/CyLib.c ****     * Side Effects:
1476:.\Generated_Source\PSoC4/CyLib.c ****     *  None
1477:.\Generated_Source\PSoC4/CyLib.c ****     *
1478:.\Generated_Source\PSoC4/CyLib.c ****     *******************************************************************************/
1479:.\Generated_Source\PSoC4/CyLib.c ****     void CySysWdtUnmaskInterrupt(void)
1480:.\Generated_Source\PSoC4/CyLib.c ****     {
1481:.\Generated_Source\PSoC4/CyLib.c ****         CY_SYS_SRSS_INTR_MASK_REG |= CY_SYS_WDT_LOWER_BIT_MASK;
1482:.\Generated_Source\PSoC4/CyLib.c ****     }
1483:.\Generated_Source\PSoC4/CyLib.c **** 
1484:.\Generated_Source\PSoC4/CyLib.c **** #endif /* (CY_PSOC4A) */
1485:.\Generated_Source\PSoC4/CyLib.c **** 
1486:.\Generated_Source\PSoC4/CyLib.c **** 
1487:.\Generated_Source\PSoC4/CyLib.c **** #if(CY_PSOC4A)
1488:.\Generated_Source\PSoC4/CyLib.c **** 
1489:.\Generated_Source\PSoC4/CyLib.c ****     /*******************************************************************************
1490:.\Generated_Source\PSoC4/CyLib.c ****     * Function Name: CySysLvdEnable
1491:.\Generated_Source\PSoC4/CyLib.c ****     ********************************************************************************
1492:.\Generated_Source\PSoC4/CyLib.c ****     *
1493:.\Generated_Source\PSoC4/CyLib.c ****     * Summary:
1494:.\Generated_Source\PSoC4/CyLib.c ****     *  Enables the output of the low-voltage monitor when Vddd is at or below the
1495:.\Generated_Source\PSoC4/CyLib.c ****     *  trip point, configures the device to generate an interrupt, and sets the voltage
1496:.\Generated_Source\PSoC4/CyLib.c ****     *  trip level.
1497:.\Generated_Source\PSoC4/CyLib.c ****     *
1498:.\Generated_Source\PSoC4/CyLib.c ****     * Parameters:
1499:.\Generated_Source\PSoC4/CyLib.c ****     *  threshold: Threshold selection for Low Voltage Detect circuit.
1500:.\Generated_Source\PSoC4/CyLib.c ****     *  Threshold variation is +/- 2.5% from these typical voltage choices.
ARM GAS  C:\Users\SNFU\AppData\Local\Temp\ccL8ejmf.s 			page 34


1501:.\Generated_Source\PSoC4/CyLib.c ****     *         Define                     Voltage threshold
1502:.\Generated_Source\PSoC4/CyLib.c ****     *    CY_LVD_THRESHOLD_1_75_V       1.7500 V
1503:.\Generated_Source\PSoC4/CyLib.c ****     *    CY_LVD_THRESHOLD_1_80_V       1.8000 V
1504:.\Generated_Source\PSoC4/CyLib.c ****     *    CY_LVD_THRESHOLD_1_90_V       1.9000 V
1505:.\Generated_Source\PSoC4/CyLib.c ****     *    CY_LVD_THRESHOLD_2_00_V       2.0000 V
1506:.\Generated_Source\PSoC4/CyLib.c ****     *    CY_LVD_THRESHOLD_2_10_V       2.1000 V
1507:.\Generated_Source\PSoC4/CyLib.c ****     *    CY_LVD_THRESHOLD_2_20_V       2.2000 V
1508:.\Generated_Source\PSoC4/CyLib.c ****     *    CY_LVD_THRESHOLD_2_30_V       2.3000 V
1509:.\Generated_Source\PSoC4/CyLib.c ****     *    CY_LVD_THRESHOLD_2_40_V       2.4000 V
1510:.\Generated_Source\PSoC4/CyLib.c ****     *    CY_LVD_THRESHOLD_2_50_V       2.5000 V
1511:.\Generated_Source\PSoC4/CyLib.c ****     *    CY_LVD_THRESHOLD_2_60_V       2.6000 V
1512:.\Generated_Source\PSoC4/CyLib.c ****     *    CY_LVD_THRESHOLD_2_70_V       2.7000 V
1513:.\Generated_Source\PSoC4/CyLib.c ****     *    CY_LVD_THRESHOLD_2_80_V       2.8000 V
1514:.\Generated_Source\PSoC4/CyLib.c ****     *    CY_LVD_THRESHOLD_2_90_V       2.9000 V
1515:.\Generated_Source\PSoC4/CyLib.c ****     *    CY_LVD_THRESHOLD_3_00_V       3.0000 V
1516:.\Generated_Source\PSoC4/CyLib.c ****     *    CY_LVD_THRESHOLD_3_20_V       3.2000 V
1517:.\Generated_Source\PSoC4/CyLib.c ****     *    CY_LVD_THRESHOLD_4_50_V       4.5000 V
1518:.\Generated_Source\PSoC4/CyLib.c ****     *
1519:.\Generated_Source\PSoC4/CyLib.c ****     * Return:
1520:.\Generated_Source\PSoC4/CyLib.c ****     *  None
1521:.\Generated_Source\PSoC4/CyLib.c ****     *
1522:.\Generated_Source\PSoC4/CyLib.c ****     *******************************************************************************/
1523:.\Generated_Source\PSoC4/CyLib.c ****     void CySysLvdEnable(uint32 threshold)
1524:.\Generated_Source\PSoC4/CyLib.c ****     {
1525:.\Generated_Source\PSoC4/CyLib.c ****         /* Set threshold */
1526:.\Generated_Source\PSoC4/CyLib.c ****         CY_LVD_PWR_VMON_CONFIG_REG = (CY_LVD_PWR_VMON_CONFIG_REG & ~CY_LVD_PWR_VMON_CONFIG_LVD_SEL_
1527:.\Generated_Source\PSoC4/CyLib.c ****                 ((threshold << CY_LVD_PWR_VMON_CONFIG_LVD_SEL_SHIFT) & CY_LVD_PWR_VMON_CONFIG_LVD_S
1528:.\Generated_Source\PSoC4/CyLib.c **** 
1529:.\Generated_Source\PSoC4/CyLib.c ****         CY_LVD_PWR_VMON_CONFIG_REG |= CY_LVD_PWR_VMON_CONFIG_LVD_EN;
1530:.\Generated_Source\PSoC4/CyLib.c ****         CY_LVD_PWR_INTR_MASK_REG   |= CY_LVD_PROPAGATE_INT_TO_CPU;
1531:.\Generated_Source\PSoC4/CyLib.c ****     }
1532:.\Generated_Source\PSoC4/CyLib.c **** 
1533:.\Generated_Source\PSoC4/CyLib.c **** 
1534:.\Generated_Source\PSoC4/CyLib.c ****     /*******************************************************************************
1535:.\Generated_Source\PSoC4/CyLib.c ****     * Function Name: CySysLvdDisable
1536:.\Generated_Source\PSoC4/CyLib.c ****     ********************************************************************************
1537:.\Generated_Source\PSoC4/CyLib.c ****     *
1538:.\Generated_Source\PSoC4/CyLib.c ****     * Summary:
1539:.\Generated_Source\PSoC4/CyLib.c ****     *  Disables the low voltage detection. A low voltage interrupt is disabled.
1540:.\Generated_Source\PSoC4/CyLib.c ****     *
1541:.\Generated_Source\PSoC4/CyLib.c ****     * Parameters:
1542:.\Generated_Source\PSoC4/CyLib.c ****     *  None
1543:.\Generated_Source\PSoC4/CyLib.c ****     *
1544:.\Generated_Source\PSoC4/CyLib.c ****     * Return:
1545:.\Generated_Source\PSoC4/CyLib.c ****     *  None
1546:.\Generated_Source\PSoC4/CyLib.c ****     *
1547:.\Generated_Source\PSoC4/CyLib.c ****     *******************************************************************************/
1548:.\Generated_Source\PSoC4/CyLib.c ****     void CySysLvdDisable(void)
1549:.\Generated_Source\PSoC4/CyLib.c ****     {
1550:.\Generated_Source\PSoC4/CyLib.c ****         CY_LVD_PWR_INTR_MASK_REG   &= ~CY_LVD_PROPAGATE_INT_TO_CPU;
1551:.\Generated_Source\PSoC4/CyLib.c ****         CY_LVD_PWR_VMON_CONFIG_REG &= ~CY_LVD_PWR_VMON_CONFIG_LVD_EN;
1552:.\Generated_Source\PSoC4/CyLib.c ****     }
1553:.\Generated_Source\PSoC4/CyLib.c **** 
1554:.\Generated_Source\PSoC4/CyLib.c **** 
1555:.\Generated_Source\PSoC4/CyLib.c ****     /*******************************************************************************
1556:.\Generated_Source\PSoC4/CyLib.c ****     * Function Name: CySysLvdGetInterruptSource
1557:.\Generated_Source\PSoC4/CyLib.c ****     ********************************************************************************
ARM GAS  C:\Users\SNFU\AppData\Local\Temp\ccL8ejmf.s 			page 35


1558:.\Generated_Source\PSoC4/CyLib.c ****     *
1559:.\Generated_Source\PSoC4/CyLib.c ****     * Summary:
1560:.\Generated_Source\PSoC4/CyLib.c ****     *  Gets the low voltage detection interrupt status (without clearing).
1561:.\Generated_Source\PSoC4/CyLib.c ****     *
1562:.\Generated_Source\PSoC4/CyLib.c ****     * Parameters:
1563:.\Generated_Source\PSoC4/CyLib.c ****     *  None
1564:.\Generated_Source\PSoC4/CyLib.c ****     *
1565:.\Generated_Source\PSoC4/CyLib.c ****     * Return:
1566:.\Generated_Source\PSoC4/CyLib.c ****     *  Interrupt request value:
1567:.\Generated_Source\PSoC4/CyLib.c ****     *    CY_SYS_LVD_INT - Indicates an Low Voltage Detect interrupt
1568:.\Generated_Source\PSoC4/CyLib.c ****     *
1569:.\Generated_Source\PSoC4/CyLib.c ****     *******************************************************************************/
1570:.\Generated_Source\PSoC4/CyLib.c ****     uint32 CySysLvdGetInterruptSource(void)
1571:.\Generated_Source\PSoC4/CyLib.c ****     {
1572:.\Generated_Source\PSoC4/CyLib.c ****         return (CY_LVD_PWR_INTR_REG & CY_SYS_LVD_INT);
1573:.\Generated_Source\PSoC4/CyLib.c ****     }
1574:.\Generated_Source\PSoC4/CyLib.c **** 
1575:.\Generated_Source\PSoC4/CyLib.c **** 
1576:.\Generated_Source\PSoC4/CyLib.c ****     /*******************************************************************************
1577:.\Generated_Source\PSoC4/CyLib.c ****     * Function Name: CySysLvdClearInterrupt
1578:.\Generated_Source\PSoC4/CyLib.c ****     ********************************************************************************
1579:.\Generated_Source\PSoC4/CyLib.c ****     *
1580:.\Generated_Source\PSoC4/CyLib.c ****     * Summary:
1581:.\Generated_Source\PSoC4/CyLib.c ****     *  Clears the low voltage detection interrupt status.
1582:.\Generated_Source\PSoC4/CyLib.c ****     *
1583:.\Generated_Source\PSoC4/CyLib.c ****     * Parameters:
1584:.\Generated_Source\PSoC4/CyLib.c ****     *  None
1585:.\Generated_Source\PSoC4/CyLib.c ****     *
1586:.\Generated_Source\PSoC4/CyLib.c ****     * Return:
1587:.\Generated_Source\PSoC4/CyLib.c ****     *  None
1588:.\Generated_Source\PSoC4/CyLib.c ****     *
1589:.\Generated_Source\PSoC4/CyLib.c ****     *******************************************************************************/
1590:.\Generated_Source\PSoC4/CyLib.c ****     void CySysLvdClearInterrupt(void)
1591:.\Generated_Source\PSoC4/CyLib.c ****     {
1592:.\Generated_Source\PSoC4/CyLib.c ****         CY_LVD_PWR_INTR_REG = CY_SYS_LVD_INT;
1593:.\Generated_Source\PSoC4/CyLib.c ****     }
1594:.\Generated_Source\PSoC4/CyLib.c **** 
1595:.\Generated_Source\PSoC4/CyLib.c **** #endif /* (CY_PSOC4A) */
1596:.\Generated_Source\PSoC4/CyLib.c **** 
1597:.\Generated_Source\PSoC4/CyLib.c **** 
1598:.\Generated_Source\PSoC4/CyLib.c **** /*******************************************************************************
1599:.\Generated_Source\PSoC4/CyLib.c **** * Function Name: CySysGetResetReason
1600:.\Generated_Source\PSoC4/CyLib.c **** ********************************************************************************
1601:.\Generated_Source\PSoC4/CyLib.c **** *
1602:.\Generated_Source\PSoC4/CyLib.c **** * Summary:
1603:.\Generated_Source\PSoC4/CyLib.c **** *  Reports the cause for the latest reset(s) that occurred in the system. All the
1604:.\Generated_Source\PSoC4/CyLib.c **** *  bits in the RES_CAUSE register assert when the corresponding reset cause
1605:.\Generated_Source\PSoC4/CyLib.c **** *  occurs and must be cleared by the firmware. These bits are cleared by the hardware
1606:.\Generated_Source\PSoC4/CyLib.c **** *  only during XRES, POR, or a detected brown-out.
1607:.\Generated_Source\PSoC4/CyLib.c **** *
1608:.\Generated_Source\PSoC4/CyLib.c **** * Parameters:
1609:.\Generated_Source\PSoC4/CyLib.c **** *  reason: bits in the RES_CAUSE register to clear.
1610:.\Generated_Source\PSoC4/CyLib.c **** *   CY_SYS_RESET_WDT       - WDT caused a reset
1611:.\Generated_Source\PSoC4/CyLib.c **** *   CY_SYS_RESET_PROTFAULT - A protection violation occurred that requires a RESET
1612:.\Generated_Source\PSoC4/CyLib.c **** *   CY_SYS_RESET_SW        - Cortex-M0 requested a system reset.
1613:.\Generated_Source\PSoC4/CyLib.c **** *
1614:.\Generated_Source\PSoC4/CyLib.c **** * Return:
ARM GAS  C:\Users\SNFU\AppData\Local\Temp\ccL8ejmf.s 			page 36


1615:.\Generated_Source\PSoC4/CyLib.c **** *  Status. Same enumerated bit values as used for the reason parameter.
1616:.\Generated_Source\PSoC4/CyLib.c **** *
1617:.\Generated_Source\PSoC4/CyLib.c **** *******************************************************************************/
1618:.\Generated_Source\PSoC4/CyLib.c **** uint32 CySysGetResetReason(uint32 reason)
1619:.\Generated_Source\PSoC4/CyLib.c **** {
1620:.\Generated_Source\PSoC4/CyLib.c ****     uint32 status;
1621:.\Generated_Source\PSoC4/CyLib.c **** 
1622:.\Generated_Source\PSoC4/CyLib.c ****     reason &= (CY_SYS_RESET_WDT | CY_SYS_RESET_PROTFAULT | CY_SYS_RESET_SW);
1623:.\Generated_Source\PSoC4/CyLib.c ****     status = CY_SYS_RES_CAUSE_REG &
1624:.\Generated_Source\PSoC4/CyLib.c ****              (CY_SYS_RESET_WDT | CY_SYS_RESET_PROTFAULT | CY_SYS_RESET_SW);
1625:.\Generated_Source\PSoC4/CyLib.c ****     CY_SYS_RES_CAUSE_REG = reason;
1626:.\Generated_Source\PSoC4/CyLib.c **** 
1627:.\Generated_Source\PSoC4/CyLib.c ****     return (status);
1628:.\Generated_Source\PSoC4/CyLib.c **** }
1629:.\Generated_Source\PSoC4/CyLib.c **** 
1630:.\Generated_Source\PSoC4/CyLib.c **** 
1631:.\Generated_Source\PSoC4/CyLib.c **** /*******************************************************************************
1632:.\Generated_Source\PSoC4/CyLib.c **** * Function Name: CyDisableInts
1633:.\Generated_Source\PSoC4/CyLib.c **** ********************************************************************************
1634:.\Generated_Source\PSoC4/CyLib.c **** *
1635:.\Generated_Source\PSoC4/CyLib.c **** * Summary:
1636:.\Generated_Source\PSoC4/CyLib.c **** *  Disables all interrupts.
1637:.\Generated_Source\PSoC4/CyLib.c **** *
1638:.\Generated_Source\PSoC4/CyLib.c **** * Parameters:
1639:.\Generated_Source\PSoC4/CyLib.c **** *  None
1640:.\Generated_Source\PSoC4/CyLib.c **** *
1641:.\Generated_Source\PSoC4/CyLib.c **** * Return:
1642:.\Generated_Source\PSoC4/CyLib.c **** *  32 bit mask of previously enabled interrupts.
1643:.\Generated_Source\PSoC4/CyLib.c **** *
1644:.\Generated_Source\PSoC4/CyLib.c **** *******************************************************************************/
1645:.\Generated_Source\PSoC4/CyLib.c **** uint32 CyDisableInts(void)
1646:.\Generated_Source\PSoC4/CyLib.c **** {
1647:.\Generated_Source\PSoC4/CyLib.c ****     uint32 intState;
1648:.\Generated_Source\PSoC4/CyLib.c **** 
1649:.\Generated_Source\PSoC4/CyLib.c ****     /* Get current interrupt state. */
1650:.\Generated_Source\PSoC4/CyLib.c ****     intState = CY_INT_CLEAR_REG;
1651:.\Generated_Source\PSoC4/CyLib.c **** 
1652:.\Generated_Source\PSoC4/CyLib.c ****     /* Disable all interrupts. */
1653:.\Generated_Source\PSoC4/CyLib.c ****     CY_INT_CLEAR_REG = CY_INT_CLEAR_DISABLE_ALL;
1654:.\Generated_Source\PSoC4/CyLib.c **** 
1655:.\Generated_Source\PSoC4/CyLib.c ****     return (intState);
1656:.\Generated_Source\PSoC4/CyLib.c **** }
1657:.\Generated_Source\PSoC4/CyLib.c **** 
1658:.\Generated_Source\PSoC4/CyLib.c **** 
1659:.\Generated_Source\PSoC4/CyLib.c **** /*******************************************************************************
1660:.\Generated_Source\PSoC4/CyLib.c **** * Function Name: CyEnableInts
1661:.\Generated_Source\PSoC4/CyLib.c **** ********************************************************************************
1662:.\Generated_Source\PSoC4/CyLib.c **** *
1663:.\Generated_Source\PSoC4/CyLib.c **** * Summary:
1664:.\Generated_Source\PSoC4/CyLib.c **** *  Enables interrupts to a given state.
1665:.\Generated_Source\PSoC4/CyLib.c **** *
1666:.\Generated_Source\PSoC4/CyLib.c **** * Parameters:
1667:.\Generated_Source\PSoC4/CyLib.c **** *   mask, 32 bit mask of interrupts to enable.
1668:.\Generated_Source\PSoC4/CyLib.c **** *
1669:.\Generated_Source\PSoC4/CyLib.c **** * Return:
1670:.\Generated_Source\PSoC4/CyLib.c **** *  None
1671:.\Generated_Source\PSoC4/CyLib.c **** *
ARM GAS  C:\Users\SNFU\AppData\Local\Temp\ccL8ejmf.s 			page 37


1672:.\Generated_Source\PSoC4/CyLib.c **** *******************************************************************************/
1673:.\Generated_Source\PSoC4/CyLib.c **** void CyEnableInts(uint32 mask)
1674:.\Generated_Source\PSoC4/CyLib.c **** {
1675:.\Generated_Source\PSoC4/CyLib.c ****     CY_INT_ENABLE_REG = mask;
1676:.\Generated_Source\PSoC4/CyLib.c **** }
1677:.\Generated_Source\PSoC4/CyLib.c **** 
1678:.\Generated_Source\PSoC4/CyLib.c **** 
1679:.\Generated_Source\PSoC4/CyLib.c **** /*******************************************************************************
1680:.\Generated_Source\PSoC4/CyLib.c **** * Function Name: CyIntSetSysVector
1681:.\Generated_Source\PSoC4/CyLib.c **** ********************************************************************************
1682:.\Generated_Source\PSoC4/CyLib.c **** *
1683:.\Generated_Source\PSoC4/CyLib.c **** * Summary:
1684:.\Generated_Source\PSoC4/CyLib.c **** *  Sets the interrupt vector of the specified system interrupt number. These
1685:.\Generated_Source\PSoC4/CyLib.c **** *  interrupts are for SysTick, PendSV and others.
1686:.\Generated_Source\PSoC4/CyLib.c **** *
1687:.\Generated_Source\PSoC4/CyLib.c **** * Parameters:
1688:.\Generated_Source\PSoC4/CyLib.c **** *  number: Interrupt number, valid range [0-15].
1689:.\Generated_Source\PSoC4/CyLib.c **** *  address: Pointer to an interrupt service routine.
1690:.\Generated_Source\PSoC4/CyLib.c **** *
1691:.\Generated_Source\PSoC4/CyLib.c **** * Return:
1692:.\Generated_Source\PSoC4/CyLib.c **** *  The old ISR vector at this location.
1693:.\Generated_Source\PSoC4/CyLib.c **** *
1694:.\Generated_Source\PSoC4/CyLib.c **** *******************************************************************************/
1695:.\Generated_Source\PSoC4/CyLib.c **** cyisraddress CyIntSetSysVector(uint8 number, cyisraddress address)
1696:.\Generated_Source\PSoC4/CyLib.c **** {
1697:.\Generated_Source\PSoC4/CyLib.c ****     cyisraddress oldIsr;
1698:.\Generated_Source\PSoC4/CyLib.c ****     cyisraddress *ramVectorTable = (cyisraddress *) CY_INT_VECT_TABLE;
1699:.\Generated_Source\PSoC4/CyLib.c **** 
1700:.\Generated_Source\PSoC4/CyLib.c ****     CYASSERT(number < CY_INT_IRQ_BASE);
1701:.\Generated_Source\PSoC4/CyLib.c **** 
1702:.\Generated_Source\PSoC4/CyLib.c ****     /* Save old Interrupt service routine. */
1703:.\Generated_Source\PSoC4/CyLib.c ****     oldIsr = ramVectorTable[number];
1704:.\Generated_Source\PSoC4/CyLib.c **** 
1705:.\Generated_Source\PSoC4/CyLib.c ****     /* Set new Interrupt service routine. */
1706:.\Generated_Source\PSoC4/CyLib.c ****     ramVectorTable[number] = address;
1707:.\Generated_Source\PSoC4/CyLib.c **** 
1708:.\Generated_Source\PSoC4/CyLib.c ****     return(oldIsr);
1709:.\Generated_Source\PSoC4/CyLib.c **** }
1710:.\Generated_Source\PSoC4/CyLib.c **** 
1711:.\Generated_Source\PSoC4/CyLib.c **** 
1712:.\Generated_Source\PSoC4/CyLib.c **** /*******************************************************************************
1713:.\Generated_Source\PSoC4/CyLib.c **** * Function Name: CyIntGetSysVector
1714:.\Generated_Source\PSoC4/CyLib.c **** ********************************************************************************
1715:.\Generated_Source\PSoC4/CyLib.c **** *
1716:.\Generated_Source\PSoC4/CyLib.c **** * Summary:
1717:.\Generated_Source\PSoC4/CyLib.c **** *   Gets the interrupt vector of the specified system interrupt number. These
1718:.\Generated_Source\PSoC4/CyLib.c **** *   interrupts are for SysTick, PendSV and others.
1719:.\Generated_Source\PSoC4/CyLib.c **** *
1720:.\Generated_Source\PSoC4/CyLib.c **** * Parameters:
1721:.\Generated_Source\PSoC4/CyLib.c **** *   number: The interrupt number, valid range [0-15].
1722:.\Generated_Source\PSoC4/CyLib.c **** *
1723:.\Generated_Source\PSoC4/CyLib.c **** * Return:
1724:.\Generated_Source\PSoC4/CyLib.c **** *   Address of the ISR in the interrupt vector table.
1725:.\Generated_Source\PSoC4/CyLib.c **** *
1726:.\Generated_Source\PSoC4/CyLib.c **** *******************************************************************************/
1727:.\Generated_Source\PSoC4/CyLib.c **** cyisraddress CyIntGetSysVector(uint8 number)
1728:.\Generated_Source\PSoC4/CyLib.c **** {
ARM GAS  C:\Users\SNFU\AppData\Local\Temp\ccL8ejmf.s 			page 38


1729:.\Generated_Source\PSoC4/CyLib.c ****     cyisraddress *ramVectorTable = (cyisraddress *) CY_INT_VECT_TABLE;
1730:.\Generated_Source\PSoC4/CyLib.c **** 
1731:.\Generated_Source\PSoC4/CyLib.c ****     CYASSERT(number < CY_INT_IRQ_BASE);
1732:.\Generated_Source\PSoC4/CyLib.c **** 
1733:.\Generated_Source\PSoC4/CyLib.c ****     return(ramVectorTable[number]);
1734:.\Generated_Source\PSoC4/CyLib.c **** }
1735:.\Generated_Source\PSoC4/CyLib.c **** 
1736:.\Generated_Source\PSoC4/CyLib.c **** 
1737:.\Generated_Source\PSoC4/CyLib.c **** /*******************************************************************************
1738:.\Generated_Source\PSoC4/CyLib.c **** * Function Name: CyIntSetVector
1739:.\Generated_Source\PSoC4/CyLib.c **** ********************************************************************************
1740:.\Generated_Source\PSoC4/CyLib.c **** *
1741:.\Generated_Source\PSoC4/CyLib.c **** * Summary:
1742:.\Generated_Source\PSoC4/CyLib.c **** *  Sets the interrupt vector of the specified interrupt number.
1743:.\Generated_Source\PSoC4/CyLib.c **** *
1744:.\Generated_Source\PSoC4/CyLib.c **** * Parameters:
1745:.\Generated_Source\PSoC4/CyLib.c **** *  number: Valid range [0-31].  Interrupt number
1746:.\Generated_Source\PSoC4/CyLib.c **** *  address: Pointer to an interrupt service routine
1747:.\Generated_Source\PSoC4/CyLib.c **** *
1748:.\Generated_Source\PSoC4/CyLib.c **** * Return:
1749:.\Generated_Source\PSoC4/CyLib.c **** *   Previous interrupt vector value.
1750:.\Generated_Source\PSoC4/CyLib.c **** *
1751:.\Generated_Source\PSoC4/CyLib.c **** *******************************************************************************/
1752:.\Generated_Source\PSoC4/CyLib.c **** cyisraddress CyIntSetVector(uint8 number, cyisraddress address)
1753:.\Generated_Source\PSoC4/CyLib.c **** {
1754:.\Generated_Source\PSoC4/CyLib.c ****     cyisraddress oldIsr;
1755:.\Generated_Source\PSoC4/CyLib.c ****     cyisraddress *ramVectorTable = (cyisraddress *) CY_INT_VECT_TABLE;
1756:.\Generated_Source\PSoC4/CyLib.c **** 
1757:.\Generated_Source\PSoC4/CyLib.c ****     CYASSERT(number < CY_NUM_INTERRUPTS);
1758:.\Generated_Source\PSoC4/CyLib.c **** 
1759:.\Generated_Source\PSoC4/CyLib.c ****     /* Save old Interrupt service routine. */
1760:.\Generated_Source\PSoC4/CyLib.c ****     oldIsr = ramVectorTable[CY_INT_IRQ_BASE + number];
1761:.\Generated_Source\PSoC4/CyLib.c **** 
1762:.\Generated_Source\PSoC4/CyLib.c ****     /* Set new Interrupt service routine. */
1763:.\Generated_Source\PSoC4/CyLib.c ****     ramVectorTable[CY_INT_IRQ_BASE + number] = address;
1764:.\Generated_Source\PSoC4/CyLib.c **** 
1765:.\Generated_Source\PSoC4/CyLib.c ****     return(oldIsr);
1766:.\Generated_Source\PSoC4/CyLib.c **** }
1767:.\Generated_Source\PSoC4/CyLib.c **** 
1768:.\Generated_Source\PSoC4/CyLib.c **** 
1769:.\Generated_Source\PSoC4/CyLib.c **** /*******************************************************************************
1770:.\Generated_Source\PSoC4/CyLib.c **** * Function Name: CyIntGetVector
1771:.\Generated_Source\PSoC4/CyLib.c **** ********************************************************************************
1772:.\Generated_Source\PSoC4/CyLib.c **** *
1773:.\Generated_Source\PSoC4/CyLib.c **** * Summary:
1774:.\Generated_Source\PSoC4/CyLib.c **** *  Gets the interrupt vector of the specified interrupt number.
1775:.\Generated_Source\PSoC4/CyLib.c **** *
1776:.\Generated_Source\PSoC4/CyLib.c **** * Parameters:
1777:.\Generated_Source\PSoC4/CyLib.c **** *  number: Valid range [0-31].  Interrupt number
1778:.\Generated_Source\PSoC4/CyLib.c **** *
1779:.\Generated_Source\PSoC4/CyLib.c **** * Return:
1780:.\Generated_Source\PSoC4/CyLib.c **** *  Address of the ISR in the interrupt vector table.
1781:.\Generated_Source\PSoC4/CyLib.c **** *
1782:.\Generated_Source\PSoC4/CyLib.c **** *******************************************************************************/
1783:.\Generated_Source\PSoC4/CyLib.c **** cyisraddress CyIntGetVector(uint8 number)
1784:.\Generated_Source\PSoC4/CyLib.c **** {
1785:.\Generated_Source\PSoC4/CyLib.c ****     cyisraddress *ramVectorTable = (cyisraddress *) CY_INT_VECT_TABLE;
ARM GAS  C:\Users\SNFU\AppData\Local\Temp\ccL8ejmf.s 			page 39


1786:.\Generated_Source\PSoC4/CyLib.c **** 
1787:.\Generated_Source\PSoC4/CyLib.c ****     CYASSERT(number < CY_NUM_INTERRUPTS);
1788:.\Generated_Source\PSoC4/CyLib.c **** 
1789:.\Generated_Source\PSoC4/CyLib.c ****     return (ramVectorTable[CY_INT_IRQ_BASE + number]);
1790:.\Generated_Source\PSoC4/CyLib.c **** }
1791:.\Generated_Source\PSoC4/CyLib.c **** 
1792:.\Generated_Source\PSoC4/CyLib.c **** /*******************************************************************************
1793:.\Generated_Source\PSoC4/CyLib.c **** * Function Name: CyIntSetPriority
1794:.\Generated_Source\PSoC4/CyLib.c **** ********************************************************************************
1795:.\Generated_Source\PSoC4/CyLib.c **** *
1796:.\Generated_Source\PSoC4/CyLib.c **** * Summary:
1797:.\Generated_Source\PSoC4/CyLib.c **** *  Sets the priority of the interrupt.
1798:.\Generated_Source\PSoC4/CyLib.c **** *
1799:.\Generated_Source\PSoC4/CyLib.c **** * Parameters:
1800:.\Generated_Source\PSoC4/CyLib.c **** *  priority: Priority of the interrupt. 0 - 3, 0 being the highest.
1801:.\Generated_Source\PSoC4/CyLib.c **** *  number: The number of the interrupt, 0 - 31.
1802:.\Generated_Source\PSoC4/CyLib.c **** *
1803:.\Generated_Source\PSoC4/CyLib.c **** * Return:
1804:.\Generated_Source\PSoC4/CyLib.c **** *  None
1805:.\Generated_Source\PSoC4/CyLib.c **** *
1806:.\Generated_Source\PSoC4/CyLib.c **** *******************************************************************************/
1807:.\Generated_Source\PSoC4/CyLib.c **** void CyIntSetPriority(uint8 number, uint8 priority)
1808:.\Generated_Source\PSoC4/CyLib.c **** {
1809:.\Generated_Source\PSoC4/CyLib.c ****     uint8 interruptState;
1810:.\Generated_Source\PSoC4/CyLib.c ****     uint32 shift;
1811:.\Generated_Source\PSoC4/CyLib.c ****     uint32 value;
1812:.\Generated_Source\PSoC4/CyLib.c **** 
1813:.\Generated_Source\PSoC4/CyLib.c ****     CYASSERT(priority <= CY_MIN_PRIORITY);
1814:.\Generated_Source\PSoC4/CyLib.c ****     CYASSERT(number < CY_NUM_INTERRUPTS);
1815:.\Generated_Source\PSoC4/CyLib.c **** 
1816:.\Generated_Source\PSoC4/CyLib.c ****     shift = CY_INT_PRIORITY_SHIFT(number);
1817:.\Generated_Source\PSoC4/CyLib.c **** 
1818:.\Generated_Source\PSoC4/CyLib.c ****     interruptState = CyEnterCriticalSection();
1819:.\Generated_Source\PSoC4/CyLib.c **** 
1820:.\Generated_Source\PSoC4/CyLib.c ****     value = CY_INT_PRIORITY_REG(number);
1821:.\Generated_Source\PSoC4/CyLib.c ****     value &= (uint32)(~((uint32)(CY_INT_PRIORITY_MASK << shift)));
1822:.\Generated_Source\PSoC4/CyLib.c ****     value |= ((uint32)priority << shift);
1823:.\Generated_Source\PSoC4/CyLib.c ****     CY_INT_PRIORITY_REG(number) = value;
1824:.\Generated_Source\PSoC4/CyLib.c **** 
1825:.\Generated_Source\PSoC4/CyLib.c ****     CyExitCriticalSection(interruptState);
1826:.\Generated_Source\PSoC4/CyLib.c **** }
1827:.\Generated_Source\PSoC4/CyLib.c **** 
1828:.\Generated_Source\PSoC4/CyLib.c **** 
1829:.\Generated_Source\PSoC4/CyLib.c **** /*******************************************************************************
1830:.\Generated_Source\PSoC4/CyLib.c **** * Function Name: CyIntGetPriority
1831:.\Generated_Source\PSoC4/CyLib.c **** ********************************************************************************
1832:.\Generated_Source\PSoC4/CyLib.c **** *
1833:.\Generated_Source\PSoC4/CyLib.c **** * Summary:
1834:.\Generated_Source\PSoC4/CyLib.c **** *  Gets the priority of the interrupt.
1835:.\Generated_Source\PSoC4/CyLib.c **** *
1836:.\Generated_Source\PSoC4/CyLib.c **** * Parameters:
1837:.\Generated_Source\PSoC4/CyLib.c **** *  number: The number of the interrupt, 0 - 31.
1838:.\Generated_Source\PSoC4/CyLib.c **** *
1839:.\Generated_Source\PSoC4/CyLib.c **** * Return:
1840:.\Generated_Source\PSoC4/CyLib.c **** *  Priority of the interrupt. 0 - 3, 0 being the highest.
1841:.\Generated_Source\PSoC4/CyLib.c **** *
1842:.\Generated_Source\PSoC4/CyLib.c **** *******************************************************************************/
ARM GAS  C:\Users\SNFU\AppData\Local\Temp\ccL8ejmf.s 			page 40


1843:.\Generated_Source\PSoC4/CyLib.c **** uint8 CyIntGetPriority(uint8 number)
1844:.\Generated_Source\PSoC4/CyLib.c **** {
1845:.\Generated_Source\PSoC4/CyLib.c ****     uint8 priority;
1846:.\Generated_Source\PSoC4/CyLib.c **** 
1847:.\Generated_Source\PSoC4/CyLib.c ****     CYASSERT(number < CY_NUM_INTERRUPTS);
1848:.\Generated_Source\PSoC4/CyLib.c **** 
1849:.\Generated_Source\PSoC4/CyLib.c ****     priority = (uint8) (CY_INT_PRIORITY_REG(number) >> CY_INT_PRIORITY_SHIFT(number));
1850:.\Generated_Source\PSoC4/CyLib.c **** 
1851:.\Generated_Source\PSoC4/CyLib.c ****     return (priority & (uint8) CY_INT_PRIORITY_MASK);
1852:.\Generated_Source\PSoC4/CyLib.c **** }
1853:.\Generated_Source\PSoC4/CyLib.c **** 
1854:.\Generated_Source\PSoC4/CyLib.c **** 
1855:.\Generated_Source\PSoC4/CyLib.c **** /*******************************************************************************
1856:.\Generated_Source\PSoC4/CyLib.c **** * Function Name: CyIntEnable
1857:.\Generated_Source\PSoC4/CyLib.c **** ********************************************************************************
1858:.\Generated_Source\PSoC4/CyLib.c **** *
1859:.\Generated_Source\PSoC4/CyLib.c **** * Summary:
1860:.\Generated_Source\PSoC4/CyLib.c **** *  Enables the specified interrupt number.
1861:.\Generated_Source\PSoC4/CyLib.c **** *
1862:.\Generated_Source\PSoC4/CyLib.c **** * Parameters:
1863:.\Generated_Source\PSoC4/CyLib.c **** *  number: Valid range [0-31].  Interrupt number
1864:.\Generated_Source\PSoC4/CyLib.c **** *
1865:.\Generated_Source\PSoC4/CyLib.c **** * Return:
1866:.\Generated_Source\PSoC4/CyLib.c **** *  None
1867:.\Generated_Source\PSoC4/CyLib.c **** *
1868:.\Generated_Source\PSoC4/CyLib.c **** *******************************************************************************/
1869:.\Generated_Source\PSoC4/CyLib.c **** void CyIntEnable(uint8 number)
1870:.\Generated_Source\PSoC4/CyLib.c **** {
1871:.\Generated_Source\PSoC4/CyLib.c ****     CY_INT_ENABLE_REG = ((uint32) 0x01u << (CY_INT_ENABLE_RANGE_MASK & number));
1872:.\Generated_Source\PSoC4/CyLib.c **** }
1873:.\Generated_Source\PSoC4/CyLib.c **** 
1874:.\Generated_Source\PSoC4/CyLib.c **** 
1875:.\Generated_Source\PSoC4/CyLib.c **** /*******************************************************************************
1876:.\Generated_Source\PSoC4/CyLib.c **** * Function Name: CyIntGetState
1877:.\Generated_Source\PSoC4/CyLib.c **** ********************************************************************************
1878:.\Generated_Source\PSoC4/CyLib.c **** *
1879:.\Generated_Source\PSoC4/CyLib.c **** * Summary:
1880:.\Generated_Source\PSoC4/CyLib.c **** *  Gets the enable state of the specified interrupt number.
1881:.\Generated_Source\PSoC4/CyLib.c **** *
1882:.\Generated_Source\PSoC4/CyLib.c **** * Parameters:
1883:.\Generated_Source\PSoC4/CyLib.c **** *  number: Valid range [0-31].  Interrupt number.
1884:.\Generated_Source\PSoC4/CyLib.c **** *
1885:.\Generated_Source\PSoC4/CyLib.c **** * Return:
1886:.\Generated_Source\PSoC4/CyLib.c **** *  Enable status: 1 if enabled, 0 if disabled
1887:.\Generated_Source\PSoC4/CyLib.c **** *
1888:.\Generated_Source\PSoC4/CyLib.c **** *******************************************************************************/
1889:.\Generated_Source\PSoC4/CyLib.c **** uint8 CyIntGetState(uint8 number)
1890:.\Generated_Source\PSoC4/CyLib.c **** {
1891:.\Generated_Source\PSoC4/CyLib.c ****     /* Get state of interrupt. */
1892:.\Generated_Source\PSoC4/CyLib.c ****     return ((0u != (CY_INT_ENABLE_REG & ((uint32) 0x01u << (CY_INT_ENABLE_RANGE_MASK & number)))) ?
1893:.\Generated_Source\PSoC4/CyLib.c **** }
1894:.\Generated_Source\PSoC4/CyLib.c **** 
1895:.\Generated_Source\PSoC4/CyLib.c **** 
1896:.\Generated_Source\PSoC4/CyLib.c **** /*******************************************************************************
1897:.\Generated_Source\PSoC4/CyLib.c **** * Function Name: CyIntDisable
1898:.\Generated_Source\PSoC4/CyLib.c **** ********************************************************************************
1899:.\Generated_Source\PSoC4/CyLib.c **** *
ARM GAS  C:\Users\SNFU\AppData\Local\Temp\ccL8ejmf.s 			page 41


1900:.\Generated_Source\PSoC4/CyLib.c **** * Summary:
1901:.\Generated_Source\PSoC4/CyLib.c **** *   Disables the specified interrupt number.
1902:.\Generated_Source\PSoC4/CyLib.c **** *
1903:.\Generated_Source\PSoC4/CyLib.c **** * Parameters:
1904:.\Generated_Source\PSoC4/CyLib.c **** *   number: Valid range [0-31].  Interrupt number.
1905:.\Generated_Source\PSoC4/CyLib.c **** *
1906:.\Generated_Source\PSoC4/CyLib.c **** * Return:
1907:.\Generated_Source\PSoC4/CyLib.c **** *  None
1908:.\Generated_Source\PSoC4/CyLib.c **** *
1909:.\Generated_Source\PSoC4/CyLib.c **** *******************************************************************************/
1910:.\Generated_Source\PSoC4/CyLib.c **** void CyIntDisable(uint8 number)
1911:.\Generated_Source\PSoC4/CyLib.c **** {
1912:.\Generated_Source\PSoC4/CyLib.c ****     CY_INT_CLEAR_REG = ((uint32) 0x01u << (CY_INT_ENABLE_RANGE_MASK & number));
1913:.\Generated_Source\PSoC4/CyLib.c **** }
1914:.\Generated_Source\PSoC4/CyLib.c **** 
1915:.\Generated_Source\PSoC4/CyLib.c **** /*******************************************************************************
1916:.\Generated_Source\PSoC4/CyLib.c **** * Function Name: CyIntSetPending
1917:.\Generated_Source\PSoC4/CyLib.c **** ********************************************************************************
1918:.\Generated_Source\PSoC4/CyLib.c **** *
1919:.\Generated_Source\PSoC4/CyLib.c **** * Summary:
1920:.\Generated_Source\PSoC4/CyLib.c **** *  Forces the specified interrupt number to be pending.
1921:.\Generated_Source\PSoC4/CyLib.c **** *
1922:.\Generated_Source\PSoC4/CyLib.c **** * Parameters:
1923:.\Generated_Source\PSoC4/CyLib.c **** *  number: Valid range [0-31].  Interrupt number.
1924:.\Generated_Source\PSoC4/CyLib.c **** *
1925:.\Generated_Source\PSoC4/CyLib.c **** * Return:
1926:.\Generated_Source\PSoC4/CyLib.c **** *  None
1927:.\Generated_Source\PSoC4/CyLib.c **** *
1928:.\Generated_Source\PSoC4/CyLib.c **** *******************************************************************************/
1929:.\Generated_Source\PSoC4/CyLib.c **** void CyIntSetPending(uint8 number)
1930:.\Generated_Source\PSoC4/CyLib.c **** {
1931:.\Generated_Source\PSoC4/CyLib.c ****     CY_INT_SET_PEND_REG = ((uint32) 0x01u << (CY_INT_ENABLE_RANGE_MASK & number));
1932:.\Generated_Source\PSoC4/CyLib.c **** }
1933:.\Generated_Source\PSoC4/CyLib.c **** 
1934:.\Generated_Source\PSoC4/CyLib.c **** 
1935:.\Generated_Source\PSoC4/CyLib.c **** /*******************************************************************************
1936:.\Generated_Source\PSoC4/CyLib.c **** * Function Name: CyIntClearPending
1937:.\Generated_Source\PSoC4/CyLib.c **** ********************************************************************************
1938:.\Generated_Source\PSoC4/CyLib.c **** *
1939:.\Generated_Source\PSoC4/CyLib.c **** * Summary:
1940:.\Generated_Source\PSoC4/CyLib.c **** *  Clears any pending interrupt for the specified interrupt number.
1941:.\Generated_Source\PSoC4/CyLib.c **** *
1942:.\Generated_Source\PSoC4/CyLib.c **** * Parameters:
1943:.\Generated_Source\PSoC4/CyLib.c **** *  number: Valid range [0-31].  Interrupt number.
1944:.\Generated_Source\PSoC4/CyLib.c **** *
1945:.\Generated_Source\PSoC4/CyLib.c **** * Return:
1946:.\Generated_Source\PSoC4/CyLib.c **** *  None
1947:.\Generated_Source\PSoC4/CyLib.c **** *
1948:.\Generated_Source\PSoC4/CyLib.c **** *******************************************************************************/
1949:.\Generated_Source\PSoC4/CyLib.c **** void CyIntClearPending(uint8 number)
1950:.\Generated_Source\PSoC4/CyLib.c **** {
1951:.\Generated_Source\PSoC4/CyLib.c ****     CY_INT_CLR_PEND_REG = ((uint32) 0x01u << (CY_INT_ENABLE_RANGE_MASK & number));
1952:.\Generated_Source\PSoC4/CyLib.c **** }
1953:.\Generated_Source\PSoC4/CyLib.c **** 
1954:.\Generated_Source\PSoC4/CyLib.c **** 
1955:.\Generated_Source\PSoC4/CyLib.c **** /*******************************************************************************
1956:.\Generated_Source\PSoC4/CyLib.c **** * Function Name: CyHalt
ARM GAS  C:\Users\SNFU\AppData\Local\Temp\ccL8ejmf.s 			page 42


1957:.\Generated_Source\PSoC4/CyLib.c **** ********************************************************************************
1958:.\Generated_Source\PSoC4/CyLib.c **** *
1959:.\Generated_Source\PSoC4/CyLib.c **** * Summary:
1960:.\Generated_Source\PSoC4/CyLib.c **** *  Halts the CPU.
1961:.\Generated_Source\PSoC4/CyLib.c **** *
1962:.\Generated_Source\PSoC4/CyLib.c **** * Parameters:
1963:.\Generated_Source\PSoC4/CyLib.c **** *  reason: Value to be used during debugging.
1964:.\Generated_Source\PSoC4/CyLib.c **** *
1965:.\Generated_Source\PSoC4/CyLib.c **** * Return:
1966:.\Generated_Source\PSoC4/CyLib.c **** *  None
1967:.\Generated_Source\PSoC4/CyLib.c **** *
1968:.\Generated_Source\PSoC4/CyLib.c **** *******************************************************************************/
1969:.\Generated_Source\PSoC4/CyLib.c **** void CyHalt(uint8 reason)
1970:.\Generated_Source\PSoC4/CyLib.c **** {
1971:.\Generated_Source\PSoC4/CyLib.c ****     if(0u != reason)
1972:.\Generated_Source\PSoC4/CyLib.c ****     {
1973:.\Generated_Source\PSoC4/CyLib.c ****         /* To remove unreferenced local variable warning */
1974:.\Generated_Source\PSoC4/CyLib.c ****     }
1975:.\Generated_Source\PSoC4/CyLib.c **** 
1976:.\Generated_Source\PSoC4/CyLib.c ****     #if defined (__ARMCC_VERSION)
1977:.\Generated_Source\PSoC4/CyLib.c ****         __breakpoint(0x0);
1978:.\Generated_Source\PSoC4/CyLib.c ****     #elif defined(__GNUC__) || defined (__ICCARM__)
1979:.\Generated_Source\PSoC4/CyLib.c ****         __asm("    bkpt    1");
 372              		.loc 1 1979 0
 373              	@ 1979 ".\Generated_Source\PSoC4\CyLib.c" 1
 374 0006 01BE     		    bkpt    1
 375              	@ 0 "" 2
 376              	.LVL22:
 377              		.code	16
 378              	.L29:
 379              	.LBE35:
 380              	.LBE34:
 586:.\Generated_Source\PSoC4/CyLib.c ****         return ((CY_SYS_WDT_CONTROL_REG >> ((CY_SYS_WDT_CNT_SHIFT * counterNum) + CY_SYS_WDT_CNT_ST
 381              		.loc 1 586 0
 382 0008 044B     		ldr	r3, .L30
 383 000a C000     		lsl	r0, r0, #3
 384              	.LVL23:
 385 000c 1968     		ldr	r1, [r3]
 386 000e 0130     		add	r0, r0, #1
 387 0010 C140     		lsr	r1, r1, r0
 388 0012 081C     		mov	r0, r1
 389 0014 0122     		mov	r2, #1
 390 0016 1040     		and	r0, r2
 587:.\Generated_Source\PSoC4/CyLib.c ****     }
 391              		.loc 1 587 0
 392              		@ sp needed for prologue
 393 0018 00BD     		pop	{pc}
 394              	.L31:
 395 001a C046     		.align	2
 396              	.L30:
 397 001c 10020B40 		.word	1074463248
 398              		.cfi_endproc
 399              	.LFE9:
 400              		.size	CySysWdtReadEnabledStatus, .-CySysWdtReadEnabledStatus
 401              		.section	.text.CySysWdtWriteMode,"ax",%progbits
 402              		.align	1
 403              		.global	CySysWdtWriteMode
ARM GAS  C:\Users\SNFU\AppData\Local\Temp\ccL8ejmf.s 			page 43


 404              		.code	16
 405              		.thumb_func
 406              		.type	CySysWdtWriteMode, %function
 407              	CySysWdtWriteMode:
 408              	.LFB10:
 619:.\Generated_Source\PSoC4/CyLib.c ****     {
 409              		.loc 1 619 0
 410              		.cfi_startproc
 411              	.LVL24:
 412 0000 38B5     		push	{r3, r4, r5, lr}
 413              	.LCFI5:
 414              		.cfi_def_cfa_offset 16
 415              		.cfi_offset 3, -16
 416              		.cfi_offset 4, -12
 417              		.cfi_offset 5, -8
 418              		.cfi_offset 14, -4
 619:.\Generated_Source\PSoC4/CyLib.c ****     {
 419              		.loc 1 619 0
 420 0002 041C     		mov	r4, r0
 421 0004 0D1C     		mov	r5, r1
 622:.\Generated_Source\PSoC4/CyLib.c ****         CYASSERT(counterNum < CY_SYS_WDT_COUNTERS_MAX);
 422              		.loc 1 622 0
 423 0006 0228     		cmp	r0, #2
 424 0008 00D9     		bls	.L33
 425              	.LVL25:
 426              	.LBB36:
 427              	.LBB37:
 428              		.loc 1 1979 0
 429              	@ 1979 ".\Generated_Source\PSoC4\CyLib.c" 1
 430 000a 01BE     		    bkpt    1
 431              	@ 0 "" 2
 432              	.LVL26:
 433              		.code	16
 434              	.L33:
 435              	.LBE37:
 436              	.LBE36:
 627:.\Generated_Source\PSoC4/CyLib.c ****         if (0u == (CY_SYS_CLK_ILO_CONFIG_REG & CY_SYS_CLK_ILO_CONFIG_ENABLE))
 437              		.loc 1 627 0
 438 000c 0B4B     		ldr	r3, .L36
 439 000e 1868     		ldr	r0, [r3]
 440              	.LVL27:
 441 0010 0028     		cmp	r0, #0
 442 0012 01DB     		blt	.L34
 629:.\Generated_Source\PSoC4/CyLib.c ****             CySysClkIloStart();
 443              		.loc 1 629 0
 444 0014 FFF7FEFF 		bl	CySysClkIloStart
 445              	.LVL28:
 446              	.L34:
 632:.\Generated_Source\PSoC4/CyLib.c ****         if(0u == CySysWdtReadEnabledStatus(counterNum))
 447              		.loc 1 632 0
 448 0018 201C     		mov	r0, r4
 449 001a FFF7FEFF 		bl	CySysWdtReadEnabledStatus
 450              	.LVL29:
 451 001e 0028     		cmp	r0, #0
 452 0020 0AD1     		bne	.L32
 634:.\Generated_Source\PSoC4/CyLib.c ****             configRegValue = CY_SYS_WDT_CONFIG_REG &
 453              		.loc 1 634 0
ARM GAS  C:\Users\SNFU\AppData\Local\Temp\ccL8ejmf.s 			page 44


 454 0022 074B     		ldr	r3, .L36+4
 635:.\Generated_Source\PSoC4/CyLib.c ****                                 (uint32)~((uint32)(CY_SYS_WDT_MODE_MASK << (counterNum * CY_SYS_WDT
 455              		.loc 1 635 0
 456 0024 0322     		mov	r2, #3
 634:.\Generated_Source\PSoC4/CyLib.c ****             configRegValue = CY_SYS_WDT_CONFIG_REG &
 457              		.loc 1 634 0
 458 0026 1968     		ldr	r1, [r3]
 635:.\Generated_Source\PSoC4/CyLib.c ****                                 (uint32)~((uint32)(CY_SYS_WDT_MODE_MASK << (counterNum * CY_SYS_WDT
 459              		.loc 1 635 0
 460 0028 E400     		lsl	r4, r4, #3
 461              	.LVL30:
 462 002a 101C     		mov	r0, r2
 463 002c A040     		lsl	r0, r0, r4
 636:.\Generated_Source\PSoC4/CyLib.c ****             configRegValue |= (uint32)((mode & CY_SYS_WDT_MODE_MASK) << (counterNum * CY_SYS_WDT_CN
 464              		.loc 1 636 0
 465 002e 1540     		and	r5, r2
 466              	.LVL31:
 634:.\Generated_Source\PSoC4/CyLib.c ****             configRegValue = CY_SYS_WDT_CONFIG_REG &
 467              		.loc 1 634 0
 468 0030 8143     		bic	r1, r0
 469              	.LVL32:
 636:.\Generated_Source\PSoC4/CyLib.c ****             configRegValue |= (uint32)((mode & CY_SYS_WDT_MODE_MASK) << (counterNum * CY_SYS_WDT_CN
 470              		.loc 1 636 0
 471 0032 A540     		lsl	r5, r5, r4
 472 0034 2943     		orr	r1, r5
 473              	.LVL33:
 637:.\Generated_Source\PSoC4/CyLib.c ****             CY_SYS_WDT_CONFIG_REG = configRegValue;
 474              		.loc 1 637 0
 475 0036 1960     		str	r1, [r3]
 476              	.LVL34:
 477              	.L32:
 639:.\Generated_Source\PSoC4/CyLib.c ****     }
 478              		.loc 1 639 0
 479              		@ sp needed for prologue
 480 0038 38BD     		pop	{r3, r4, r5, pc}
 481              	.L37:
 482 003a C046     		.align	2
 483              	.L36:
 484 003c 04010B40 		.word	1074462980
 485 0040 0C020B40 		.word	1074463244
 486              		.cfi_endproc
 487              	.LFE10:
 488              		.size	CySysWdtWriteMode, .-CySysWdtWriteMode
 489              		.section	.text.CySysWdtReadMode,"ax",%progbits
 490              		.align	1
 491              		.global	CySysWdtReadMode
 492              		.code	16
 493              		.thumb_func
 494              		.type	CySysWdtReadMode, %function
 495              	CySysWdtReadMode:
 496              	.LFB11:
 658:.\Generated_Source\PSoC4/CyLib.c ****     {
 497              		.loc 1 658 0
 498              		.cfi_startproc
 499              	.LVL35:
 659:.\Generated_Source\PSoC4/CyLib.c ****         return ((CY_SYS_WDT_CONFIG_REG >> (counterNum * CY_SYS_WDT_CNT_SHIFT)) & CY_SYS_WDT_MODE_MA
 500              		.loc 1 659 0
ARM GAS  C:\Users\SNFU\AppData\Local\Temp\ccL8ejmf.s 			page 45


 501 0000 034B     		ldr	r3, .L39
 502 0002 C000     		lsl	r0, r0, #3
 503              	.LVL36:
 504 0004 1968     		ldr	r1, [r3]
 505 0006 0322     		mov	r2, #3
 506 0008 C140     		lsr	r1, r1, r0
 507 000a 081C     		mov	r0, r1
 508 000c 1040     		and	r0, r2
 660:.\Generated_Source\PSoC4/CyLib.c ****     }
 509              		.loc 1 660 0
 510              		@ sp needed for prologue
 511 000e 7047     		bx	lr
 512              	.L40:
 513              		.align	2
 514              	.L39:
 515 0010 0C020B40 		.word	1074463244
 516              		.cfi_endproc
 517              	.LFE11:
 518              		.size	CySysWdtReadMode, .-CySysWdtReadMode
 519              		.section	.text.CySysWdtWriteClearOnMatch,"ax",%progbits
 520              		.align	1
 521              		.global	CySysWdtWriteClearOnMatch
 522              		.code	16
 523              		.thumb_func
 524              		.type	CySysWdtWriteClearOnMatch, %function
 525              	CySysWdtWriteClearOnMatch:
 526              	.LFB12:
 691:.\Generated_Source\PSoC4/CyLib.c ****     {
 527              		.loc 1 691 0
 528              		.cfi_startproc
 529              	.LVL37:
 530 0000 38B5     		push	{r3, r4, r5, lr}
 531              	.LCFI6:
 532              		.cfi_def_cfa_offset 16
 533              		.cfi_offset 3, -16
 534              		.cfi_offset 4, -12
 535              		.cfi_offset 5, -8
 536              		.cfi_offset 14, -4
 691:.\Generated_Source\PSoC4/CyLib.c ****     {
 537              		.loc 1 691 0
 538 0002 041C     		mov	r4, r0
 539 0004 0D1C     		mov	r5, r1
 692:.\Generated_Source\PSoC4/CyLib.c ****         CYASSERT((counterNum == CY_SYS_WDT_COUNTER0) ||
 540              		.loc 1 692 0
 541 0006 0128     		cmp	r0, #1
 542 0008 00D9     		bls	.L42
 543              	.LVL38:
 544              	.LBB38:
 545              	.LBB39:
 546              		.loc 1 1979 0
 547              	@ 1979 ".\Generated_Source\PSoC4\CyLib.c" 1
 548 000a 01BE     		    bkpt    1
 549              	@ 0 "" 2
 550              	.LVL39:
 551              		.code	16
 552              	.L42:
 553              	.LBE39:
ARM GAS  C:\Users\SNFU\AppData\Local\Temp\ccL8ejmf.s 			page 46


 554              	.LBE38:
 698:.\Generated_Source\PSoC4/CyLib.c ****         if (0u == (CY_SYS_CLK_ILO_CONFIG_REG & CY_SYS_CLK_ILO_CONFIG_ENABLE))
 555              		.loc 1 698 0
 556 000c 094B     		ldr	r3, .L45
 557 000e 1868     		ldr	r0, [r3]
 558              	.LVL40:
 559 0010 0028     		cmp	r0, #0
 560 0012 01DB     		blt	.L43
 700:.\Generated_Source\PSoC4/CyLib.c ****             CySysClkIloStart();
 561              		.loc 1 700 0
 562 0014 FFF7FEFF 		bl	CySysClkIloStart
 563              	.LVL41:
 564              	.L43:
 703:.\Generated_Source\PSoC4/CyLib.c ****         if(0u == CySysWdtReadEnabledStatus(counterNum))
 565              		.loc 1 703 0
 566 0018 201C     		mov	r0, r4
 567 001a FFF7FEFF 		bl	CySysWdtReadEnabledStatus
 568              	.LVL42:
 569 001e 0028     		cmp	r0, #0
 570 0020 06D1     		bne	.L41
 705:.\Generated_Source\PSoC4/CyLib.c ****             CY_SYS_WDT_CONFIG_REG |= (uint32)(enable << ((counterNum * CY_SYS_WDT_CNT_SHIFT) +
 571              		.loc 1 705 0
 572 0022 0549     		ldr	r1, .L45+4
 573 0024 E400     		lsl	r4, r4, #3
 574              	.LVL43:
 575 0026 0A68     		ldr	r2, [r1]
 576 0028 0234     		add	r4, r4, #2
 577 002a A540     		lsl	r5, r5, r4
 578              	.LVL44:
 579 002c 1543     		orr	r5, r2
 580 002e 0D60     		str	r5, [r1]
 581              	.L41:
 708:.\Generated_Source\PSoC4/CyLib.c ****     }
 582              		.loc 1 708 0
 583              		@ sp needed for prologue
 584 0030 38BD     		pop	{r3, r4, r5, pc}
 585              	.L46:
 586 0032 C046     		.align	2
 587              	.L45:
 588 0034 04010B40 		.word	1074462980
 589 0038 0C020B40 		.word	1074463244
 590              		.cfi_endproc
 591              	.LFE12:
 592              		.size	CySysWdtWriteClearOnMatch, .-CySysWdtWriteClearOnMatch
 593              		.section	.text.CySysWdtReadClearOnMatch,"ax",%progbits
 594              		.align	1
 595              		.global	CySysWdtReadClearOnMatch
 596              		.code	16
 597              		.thumb_func
 598              		.type	CySysWdtReadClearOnMatch, %function
 599              	CySysWdtReadClearOnMatch:
 600              	.LFB13:
 727:.\Generated_Source\PSoC4/CyLib.c ****     {
 601              		.loc 1 727 0
 602              		.cfi_startproc
 603              	.LVL45:
 604 0000 00B5     		push	{lr}
ARM GAS  C:\Users\SNFU\AppData\Local\Temp\ccL8ejmf.s 			page 47


 605              	.LCFI7:
 606              		.cfi_def_cfa_offset 4
 607              		.cfi_offset 14, -4
 728:.\Generated_Source\PSoC4/CyLib.c ****         CYASSERT((counterNum == CY_SYS_WDT_COUNTER0) ||
 608              		.loc 1 728 0
 609 0002 0128     		cmp	r0, #1
 610 0004 00D9     		bls	.L48
 611              	.LVL46:
 612              	.LBB40:
 613              	.LBB41:
 614              		.loc 1 1979 0
 615              	@ 1979 ".\Generated_Source\PSoC4\CyLib.c" 1
 616 0006 01BE     		    bkpt    1
 617              	@ 0 "" 2
 618              	.LVL47:
 619              		.code	16
 620              	.L48:
 621              	.LBE41:
 622              	.LBE40:
 731:.\Generated_Source\PSoC4/CyLib.c ****         return (uint32)((CY_SYS_WDT_CONFIG_REG >>
 623              		.loc 1 731 0
 624 0008 044B     		ldr	r3, .L49
 732:.\Generated_Source\PSoC4/CyLib.c ****                             ((counterNum * CY_SYS_WDT_CNT_SHIFT) + CY_SYS_WDT_CNT_MATCH_CLR_SHIFT))
 625              		.loc 1 732 0
 626 000a C000     		lsl	r0, r0, #3
 627              	.LVL48:
 731:.\Generated_Source\PSoC4/CyLib.c ****         return (uint32)((CY_SYS_WDT_CONFIG_REG >>
 628              		.loc 1 731 0
 629 000c 1968     		ldr	r1, [r3]
 732:.\Generated_Source\PSoC4/CyLib.c ****                             ((counterNum * CY_SYS_WDT_CNT_SHIFT) + CY_SYS_WDT_CNT_MATCH_CLR_SHIFT))
 630              		.loc 1 732 0
 631 000e 0230     		add	r0, r0, #2
 731:.\Generated_Source\PSoC4/CyLib.c ****         return (uint32)((CY_SYS_WDT_CONFIG_REG >>
 632              		.loc 1 731 0
 633 0010 C140     		lsr	r1, r1, r0
 634 0012 081C     		mov	r0, r1
 635 0014 0122     		mov	r2, #1
 636 0016 1040     		and	r0, r2
 733:.\Generated_Source\PSoC4/CyLib.c ****     }
 637              		.loc 1 733 0
 638              		@ sp needed for prologue
 639 0018 00BD     		pop	{pc}
 640              	.L50:
 641 001a C046     		.align	2
 642              	.L49:
 643 001c 0C020B40 		.word	1074463244
 644              		.cfi_endproc
 645              	.LFE13:
 646              		.size	CySysWdtReadClearOnMatch, .-CySysWdtReadClearOnMatch
 647              		.section	.text.CySysWdtEnable,"ax",%progbits
 648              		.align	1
 649              		.global	CySysWdtEnable
 650              		.code	16
 651              		.thumb_func
 652              		.type	CySysWdtEnable, %function
 653              	CySysWdtEnable:
 654              	.LFB14:
ARM GAS  C:\Users\SNFU\AppData\Local\Temp\ccL8ejmf.s 			page 48


 760:.\Generated_Source\PSoC4/CyLib.c ****     {
 655              		.loc 1 760 0
 656              		.cfi_startproc
 657              	.LVL49:
 764:.\Generated_Source\PSoC4/CyLib.c ****         if (0u == (CY_SYS_CLK_ILO_CONFIG_REG & CY_SYS_CLK_ILO_CONFIG_ENABLE))
 658              		.loc 1 764 0
 659 0000 064B     		ldr	r3, .L53
 760:.\Generated_Source\PSoC4/CyLib.c ****     {
 660              		.loc 1 760 0
 661 0002 10B5     		push	{r4, lr}
 662              	.LCFI8:
 663              		.cfi_def_cfa_offset 8
 664              		.cfi_offset 4, -8
 665              		.cfi_offset 14, -4
 760:.\Generated_Source\PSoC4/CyLib.c ****     {
 666              		.loc 1 760 0
 667 0004 041C     		mov	r4, r0
 764:.\Generated_Source\PSoC4/CyLib.c ****         if (0u == (CY_SYS_CLK_ILO_CONFIG_REG & CY_SYS_CLK_ILO_CONFIG_ENABLE))
 668              		.loc 1 764 0
 669 0006 1868     		ldr	r0, [r3]
 670              	.LVL50:
 671 0008 0028     		cmp	r0, #0
 672 000a 01DB     		blt	.L52
 766:.\Generated_Source\PSoC4/CyLib.c ****             CySysClkIloStart();
 673              		.loc 1 766 0
 674 000c FFF7FEFF 		bl	CySysClkIloStart
 675              	.LVL51:
 676              	.L52:
 769:.\Generated_Source\PSoC4/CyLib.c ****         CY_SYS_WDT_CONTROL_REG |= counterMask;
 677              		.loc 1 769 0
 678 0010 0349     		ldr	r1, .L53+4
 770:.\Generated_Source\PSoC4/CyLib.c ****     }
 679              		.loc 1 770 0
 680              		@ sp needed for prologue
 769:.\Generated_Source\PSoC4/CyLib.c ****         CY_SYS_WDT_CONTROL_REG |= counterMask;
 681              		.loc 1 769 0
 682 0012 0A68     		ldr	r2, [r1]
 683 0014 1443     		orr	r4, r2
 684              	.LVL52:
 685 0016 0C60     		str	r4, [r1]
 770:.\Generated_Source\PSoC4/CyLib.c ****     }
 686              		.loc 1 770 0
 687 0018 10BD     		pop	{r4, pc}
 688              	.L54:
 689 001a C046     		.align	2
 690              	.L53:
 691 001c 04010B40 		.word	1074462980
 692 0020 10020B40 		.word	1074463248
 693              		.cfi_endproc
 694              	.LFE14:
 695              		.size	CySysWdtEnable, .-CySysWdtEnable
 696              		.section	.text.CySysWdtDisable,"ax",%progbits
 697              		.align	1
 698              		.global	CySysWdtDisable
 699              		.code	16
 700              		.thumb_func
 701              		.type	CySysWdtDisable, %function
ARM GAS  C:\Users\SNFU\AppData\Local\Temp\ccL8ejmf.s 			page 49


 702              	CySysWdtDisable:
 703              	.LFB15:
 797:.\Generated_Source\PSoC4/CyLib.c ****     {
 704              		.loc 1 797 0
 705              		.cfi_startproc
 706              	.LVL53:
 801:.\Generated_Source\PSoC4/CyLib.c ****         if (0u == (CY_SYS_CLK_ILO_CONFIG_REG & CY_SYS_CLK_ILO_CONFIG_ENABLE))
 707              		.loc 1 801 0
 708 0000 064B     		ldr	r3, .L57
 797:.\Generated_Source\PSoC4/CyLib.c ****     {
 709              		.loc 1 797 0
 710 0002 10B5     		push	{r4, lr}
 711              	.LCFI9:
 712              		.cfi_def_cfa_offset 8
 713              		.cfi_offset 4, -8
 714              		.cfi_offset 14, -4
 797:.\Generated_Source\PSoC4/CyLib.c ****     {
 715              		.loc 1 797 0
 716 0004 041C     		mov	r4, r0
 801:.\Generated_Source\PSoC4/CyLib.c ****         if (0u == (CY_SYS_CLK_ILO_CONFIG_REG & CY_SYS_CLK_ILO_CONFIG_ENABLE))
 717              		.loc 1 801 0
 718 0006 1868     		ldr	r0, [r3]
 719              	.LVL54:
 720 0008 0028     		cmp	r0, #0
 721 000a 01DB     		blt	.L56
 803:.\Generated_Source\PSoC4/CyLib.c ****             CySysClkIloStart();
 722              		.loc 1 803 0
 723 000c FFF7FEFF 		bl	CySysClkIloStart
 724              	.LVL55:
 725              	.L56:
 806:.\Generated_Source\PSoC4/CyLib.c ****         CY_SYS_WDT_CONTROL_REG &= ~counterMask;
 726              		.loc 1 806 0
 727 0010 0349     		ldr	r1, .L57+4
 807:.\Generated_Source\PSoC4/CyLib.c ****     }
 728              		.loc 1 807 0
 729              		@ sp needed for prologue
 806:.\Generated_Source\PSoC4/CyLib.c ****         CY_SYS_WDT_CONTROL_REG &= ~counterMask;
 730              		.loc 1 806 0
 731 0012 0A68     		ldr	r2, [r1]
 732 0014 A243     		bic	r2, r4
 733 0016 0A60     		str	r2, [r1]
 734              	.LVL56:
 807:.\Generated_Source\PSoC4/CyLib.c ****     }
 735              		.loc 1 807 0
 736 0018 10BD     		pop	{r4, pc}
 737              	.L58:
 738 001a C046     		.align	2
 739              	.L57:
 740 001c 04010B40 		.word	1074462980
 741 0020 10020B40 		.word	1074463248
 742              		.cfi_endproc
 743              	.LFE15:
 744              		.size	CySysWdtDisable, .-CySysWdtDisable
 745              		.section	.text.CySysWdtWriteCascade,"ax",%progbits
 746              		.align	1
 747              		.global	CySysWdtWriteCascade
 748              		.code	16
ARM GAS  C:\Users\SNFU\AppData\Local\Temp\ccL8ejmf.s 			page 50


 749              		.thumb_func
 750              		.type	CySysWdtWriteCascade, %function
 751              	CySysWdtWriteCascade:
 752              	.LFB16:
 836:.\Generated_Source\PSoC4/CyLib.c ****     {
 753              		.loc 1 836 0
 754              		.cfi_startproc
 755              	.LVL57:
 756              	.LBB54:
 757              	.LBB55:
 586:.\Generated_Source\PSoC4/CyLib.c ****         return ((CY_SYS_WDT_CONTROL_REG >> ((CY_SYS_WDT_CNT_SHIFT * counterNum) + CY_SYS_WDT_CNT_ST
 758              		.loc 1 586 0
 759 0000 0C4B     		ldr	r3, .L62
 760              	.LBE55:
 761              	.LBE54:
 836:.\Generated_Source\PSoC4/CyLib.c ****     {
 762              		.loc 1 836 0
 763 0002 10B5     		push	{r4, lr}
 764              	.LCFI10:
 765              		.cfi_def_cfa_offset 8
 766              		.cfi_offset 4, -8
 767              		.cfi_offset 14, -4
 836:.\Generated_Source\PSoC4/CyLib.c ****     {
 768              		.loc 1 836 0
 769 0004 041C     		mov	r4, r0
 770              	.LBB58:
 771              	.LBB56:
 586:.\Generated_Source\PSoC4/CyLib.c ****         return ((CY_SYS_WDT_CONTROL_REG >> ((CY_SYS_WDT_CNT_SHIFT * counterNum) + CY_SYS_WDT_CNT_ST
 772              		.loc 1 586 0
 773 0006 1868     		ldr	r0, [r3]
 774              	.LVL58:
 775              	.LBE56:
 776              	.LBE58:
 777              	.LBB59:
 778              	.LBB60:
 779 0008 1968     		ldr	r1, [r3]
 780              	.LVL59:
 781              	.LBE60:
 782              	.LBE59:
 783              	.LBB62:
 784              	.LBB63:
 785 000a 1A68     		ldr	r2, [r3]
 786              	.LVL60:
 787              	.LBE63:
 788              	.LBE62:
 789              	.LBB65:
 790              	.LBB61:
 791 000c 490A     		lsr	r1, r1, #9
 792              	.LVL61:
 793              	.LBE61:
 794              	.LBE65:
 795              	.LBB66:
 796              	.LBB57:
 797 000e 4308     		lsr	r3, r0, #1
 798 0010 0B43     		orr	r3, r1
 799              	.LBE57:
 800              	.LBE66:
ARM GAS  C:\Users\SNFU\AppData\Local\Temp\ccL8ejmf.s 			page 51


 801              	.LBB67:
 802              	.LBB64:
 803 0012 500C     		lsr	r0, r2, #17
 804 0014 0343     		orr	r3, r0
 805              	.LBE64:
 806              	.LBE67:
 844:.\Generated_Source\PSoC4/CyLib.c ****         if (0u == countersEnableStatus)
 807              		.loc 1 844 0
 808 0016 DA07     		lsl	r2, r3, #31
 809 0018 0BD4     		bmi	.L59
 849:.\Generated_Source\PSoC4/CyLib.c ****             if (0u == (CY_SYS_CLK_ILO_CONFIG_REG & CY_SYS_CLK_ILO_CONFIG_ENABLE))
 810              		.loc 1 849 0
 811 001a 074A     		ldr	r2, .L62+4
 812 001c 1168     		ldr	r1, [r2]
 813 001e 0029     		cmp	r1, #0
 814 0020 01DB     		blt	.L61
 851:.\Generated_Source\PSoC4/CyLib.c ****                 CySysClkIloStart();
 815              		.loc 1 851 0
 816 0022 FFF7FEFF 		bl	CySysClkIloStart
 817              	.LVL62:
 818              	.L61:
 854:.\Generated_Source\PSoC4/CyLib.c ****             configRegValue = CY_SYS_WDT_CONFIG_REG;
 819              		.loc 1 854 0
 820 0026 054B     		ldr	r3, .L62+8
 855:.\Generated_Source\PSoC4/CyLib.c ****             configRegValue &= ((uint32)(~(CY_SYS_WDT_CASCADE_01|CY_SYS_WDT_CASCADE_12)));
 821              		.loc 1 855 0
 822 0028 054A     		ldr	r2, .L62+12
 854:.\Generated_Source\PSoC4/CyLib.c ****             configRegValue = CY_SYS_WDT_CONFIG_REG;
 823              		.loc 1 854 0
 824 002a 1868     		ldr	r0, [r3]
 825              	.LVL63:
 855:.\Generated_Source\PSoC4/CyLib.c ****             configRegValue &= ((uint32)(~(CY_SYS_WDT_CASCADE_01|CY_SYS_WDT_CASCADE_12)));
 826              		.loc 1 855 0
 827 002c 0240     		and	r2, r0
 828              	.LVL64:
 856:.\Generated_Source\PSoC4/CyLib.c ****             configRegValue |= cascadeMask;
 829              		.loc 1 856 0
 830 002e 1443     		orr	r4, r2
 831              	.LVL65:
 857:.\Generated_Source\PSoC4/CyLib.c ****             CY_SYS_WDT_CONFIG_REG = configRegValue;
 832              		.loc 1 857 0
 833 0030 1C60     		str	r4, [r3]
 834              	.LVL66:
 835              	.L59:
 859:.\Generated_Source\PSoC4/CyLib.c ****     }
 836              		.loc 1 859 0
 837              		@ sp needed for prologue
 838 0032 10BD     		pop	{r4, pc}
 839              	.L63:
 840              		.align	2
 841              	.L62:
 842 0034 10020B40 		.word	1074463248
 843 0038 04010B40 		.word	1074462980
 844 003c 0C020B40 		.word	1074463244
 845 0040 F7F7FFFF 		.word	-2057
 846              		.cfi_endproc
 847              	.LFE16:
ARM GAS  C:\Users\SNFU\AppData\Local\Temp\ccL8ejmf.s 			page 52


 848              		.size	CySysWdtWriteCascade, .-CySysWdtWriteCascade
 849              		.section	.text.CySysWdtReadCascade,"ax",%progbits
 850              		.align	1
 851              		.global	CySysWdtReadCascade
 852              		.code	16
 853              		.thumb_func
 854              		.type	CySysWdtReadCascade, %function
 855              	CySysWdtReadCascade:
 856              	.LFB17:
 881:.\Generated_Source\PSoC4/CyLib.c ****     {
 857              		.loc 1 881 0
 858              		.cfi_startproc
 882:.\Generated_Source\PSoC4/CyLib.c ****         return (CY_SYS_WDT_CONFIG_REG & (CY_SYS_WDT_CASCADE_01 | CY_SYS_WDT_CASCADE_12));
 859              		.loc 1 882 0
 860 0000 024B     		ldr	r3, .L65
 861 0002 0349     		ldr	r1, .L65+4
 862 0004 1868     		ldr	r0, [r3]
 883:.\Generated_Source\PSoC4/CyLib.c ****     }
 863              		.loc 1 883 0
 864              		@ sp needed for prologue
 882:.\Generated_Source\PSoC4/CyLib.c ****         return (CY_SYS_WDT_CONFIG_REG & (CY_SYS_WDT_CASCADE_01 | CY_SYS_WDT_CASCADE_12));
 865              		.loc 1 882 0
 866 0006 0840     		and	r0, r1
 883:.\Generated_Source\PSoC4/CyLib.c ****     }
 867              		.loc 1 883 0
 868 0008 7047     		bx	lr
 869              	.L66:
 870 000a C046     		.align	2
 871              	.L65:
 872 000c 0C020B40 		.word	1074463244
 873 0010 08080000 		.word	2056
 874              		.cfi_endproc
 875              	.LFE17:
 876              		.size	CySysWdtReadCascade, .-CySysWdtReadCascade
 877              		.section	.text.CySysWdtWriteToggleBit,"ax",%progbits
 878              		.align	1
 879              		.global	CySysWdtWriteToggleBit
 880              		.code	16
 881              		.thumb_func
 882              		.type	CySysWdtWriteToggleBit, %function
 883              	CySysWdtWriteToggleBit:
 884              	.LFB19:
 955:.\Generated_Source\PSoC4/CyLib.c ****     {
 885              		.loc 1 955 0
 886              		.cfi_startproc
 887              	.LVL67:
 888              	.LBB72:
 889              	.LBB73:
 586:.\Generated_Source\PSoC4/CyLib.c ****         return ((CY_SYS_WDT_CONTROL_REG >> ((CY_SYS_WDT_CNT_SHIFT * counterNum) + CY_SYS_WDT_CNT_ST
 890              		.loc 1 586 0
 891 0000 0A4B     		ldr	r3, .L70
 892              	.LBE73:
 893              	.LBE72:
 955:.\Generated_Source\PSoC4/CyLib.c ****     {
 894              		.loc 1 955 0
 895 0002 10B5     		push	{r4, lr}
 896              	.LCFI11:
ARM GAS  C:\Users\SNFU\AppData\Local\Temp\ccL8ejmf.s 			page 53


 897              		.cfi_def_cfa_offset 8
 898              		.cfi_offset 4, -8
 899              		.cfi_offset 14, -4
 955:.\Generated_Source\PSoC4/CyLib.c ****     {
 900              		.loc 1 955 0
 901 0004 041C     		mov	r4, r0
 902              	.LBB75:
 903              	.LBB74:
 586:.\Generated_Source\PSoC4/CyLib.c ****         return ((CY_SYS_WDT_CONTROL_REG >> ((CY_SYS_WDT_CNT_SHIFT * counterNum) + CY_SYS_WDT_CNT_ST
 904              		.loc 1 586 0
 905 0006 1868     		ldr	r0, [r3]
 906              	.LVL68:
 907              	.LBE74:
 908              	.LBE75:
 958:.\Generated_Source\PSoC4/CyLib.c ****         if (0u == CySysWdtReadEnabledStatus(CY_SYS_WDT_COUNTER2))
 909              		.loc 1 958 0
 910 0008 8203     		lsl	r2, r0, #14
 911 000a 0ED4     		bmi	.L67
 963:.\Generated_Source\PSoC4/CyLib.c ****             if (0u == (CY_SYS_CLK_ILO_CONFIG_REG & CY_SYS_CLK_ILO_CONFIG_ENABLE))
 912              		.loc 1 963 0
 913 000c 0849     		ldr	r1, .L70+4
 914 000e 0A68     		ldr	r2, [r1]
 915 0010 002A     		cmp	r2, #0
 916 0012 01DB     		blt	.L69
 965:.\Generated_Source\PSoC4/CyLib.c ****                 CySysClkIloStart();
 917              		.loc 1 965 0
 918 0014 FFF7FEFF 		bl	CySysClkIloStart
 919              	.LVL69:
 920              	.L69:
 968:.\Generated_Source\PSoC4/CyLib.c ****             configRegValue = CY_SYS_WDT_CONFIG_REG;
 921              		.loc 1 968 0
 922 0018 064B     		ldr	r3, .L70+8
 969:.\Generated_Source\PSoC4/CyLib.c ****             configRegValue &= (uint32)(~((uint32)(CY_SYS_WDT_CONFIG_BITS2_MASK << CY_SYS_WDT_CONFIG
 923              		.loc 1 969 0
 924 001a 074A     		ldr	r2, .L70+12
 968:.\Generated_Source\PSoC4/CyLib.c ****             configRegValue = CY_SYS_WDT_CONFIG_REG;
 925              		.loc 1 968 0
 926 001c 1868     		ldr	r0, [r3]
 927              	.LVL70:
 970:.\Generated_Source\PSoC4/CyLib.c ****             configRegValue |= ((bits & CY_SYS_WDT_CONFIG_BITS2_MASK) << CY_SYS_WDT_CONFIG_BITS2_POS
 928              		.loc 1 970 0
 929 001e 1F21     		mov	r1, #31
 930 0020 0C40     		and	r4, r1
 931              	.LVL71:
 969:.\Generated_Source\PSoC4/CyLib.c ****             configRegValue &= (uint32)(~((uint32)(CY_SYS_WDT_CONFIG_BITS2_MASK << CY_SYS_WDT_CONFIG
 932              		.loc 1 969 0
 933 0022 0240     		and	r2, r0
 934              	.LVL72:
 970:.\Generated_Source\PSoC4/CyLib.c ****             configRegValue |= ((bits & CY_SYS_WDT_CONFIG_BITS2_MASK) << CY_SYS_WDT_CONFIG_BITS2_POS
 935              		.loc 1 970 0
 936 0024 2406     		lsl	r4, r4, #24
 937 0026 1443     		orr	r4, r2
 938              	.LVL73:
 971:.\Generated_Source\PSoC4/CyLib.c ****             CY_SYS_WDT_CONFIG_REG = configRegValue;
 939              		.loc 1 971 0
 940 0028 1C60     		str	r4, [r3]
 941              	.LVL74:
ARM GAS  C:\Users\SNFU\AppData\Local\Temp\ccL8ejmf.s 			page 54


 942              	.L67:
 973:.\Generated_Source\PSoC4/CyLib.c ****     }
 943              		.loc 1 973 0
 944              		@ sp needed for prologue
 945 002a 10BD     		pop	{r4, pc}
 946              	.L71:
 947              		.align	2
 948              	.L70:
 949 002c 10020B40 		.word	1074463248
 950 0030 04010B40 		.word	1074462980
 951 0034 0C020B40 		.word	1074463244
 952 0038 FFFFFFE0 		.word	-520093697
 953              		.cfi_endproc
 954              	.LFE19:
 955              		.size	CySysWdtWriteToggleBit, .-CySysWdtWriteToggleBit
 956              		.section	.text.CySysWdtReadToggleBit,"ax",%progbits
 957              		.align	1
 958              		.global	CySysWdtReadToggleBit
 959              		.code	16
 960              		.thumb_func
 961              		.type	CySysWdtReadToggleBit, %function
 962              	CySysWdtReadToggleBit:
 963              	.LFB20:
 991:.\Generated_Source\PSoC4/CyLib.c ****     {
 964              		.loc 1 991 0
 965              		.cfi_startproc
 992:.\Generated_Source\PSoC4/CyLib.c ****         return ((CY_SYS_WDT_CONFIG_REG >> CY_SYS_WDT_CONFIG_BITS2_POS) & CY_SYS_WDT_CONFIG_BITS2_MA
 966              		.loc 1 992 0
 967 0000 024B     		ldr	r3, .L73
 993:.\Generated_Source\PSoC4/CyLib.c ****     }
 968              		.loc 1 993 0
 969              		@ sp needed for prologue
 992:.\Generated_Source\PSoC4/CyLib.c ****         return ((CY_SYS_WDT_CONFIG_REG >> CY_SYS_WDT_CONFIG_BITS2_POS) & CY_SYS_WDT_CONFIG_BITS2_MA
 970              		.loc 1 992 0
 971 0002 1868     		ldr	r0, [r3]
 972 0004 C100     		lsl	r1, r0, #3
 973 0006 C80E     		lsr	r0, r1, #27
 993:.\Generated_Source\PSoC4/CyLib.c ****     }
 974              		.loc 1 993 0
 975 0008 7047     		bx	lr
 976              	.L74:
 977 000a C046     		.align	2
 978              	.L73:
 979 000c 0C020B40 		.word	1074463244
 980              		.cfi_endproc
 981              	.LFE20:
 982              		.size	CySysWdtReadToggleBit, .-CySysWdtReadToggleBit
 983              		.section	.text.CySysWdtReadMatch,"ax",%progbits
 984              		.align	1
 985              		.global	CySysWdtReadMatch
 986              		.code	16
 987              		.thumb_func
 988              		.type	CySysWdtReadMatch, %function
 989              	CySysWdtReadMatch:
 990              	.LFB21:
1012:.\Generated_Source\PSoC4/CyLib.c ****     {
 991              		.loc 1 1012 0
ARM GAS  C:\Users\SNFU\AppData\Local\Temp\ccL8ejmf.s 			page 55


 992              		.cfi_startproc
 993              	.LVL75:
 994 0000 00B5     		push	{lr}
 995              	.LCFI12:
 996              		.cfi_def_cfa_offset 4
 997              		.cfi_offset 14, -4
1013:.\Generated_Source\PSoC4/CyLib.c ****         CYASSERT((counterNum == CY_SYS_WDT_COUNTER0) ||
 998              		.loc 1 1013 0
 999 0002 0128     		cmp	r0, #1
 1000 0004 00D9     		bls	.L76
 1001              	.LVL76:
 1002              	.LBB76:
 1003              	.LBB77:
 1004              		.loc 1 1979 0
 1005              	@ 1979 ".\Generated_Source\PSoC4\CyLib.c" 1
 1006 0006 01BE     		    bkpt    1
 1007              	@ 0 "" 2
 1008              	.LVL77:
 1009              		.code	16
 1010              	.L76:
 1011              	.LBE77:
 1012              	.LBE76:
1015:.\Generated_Source\PSoC4/CyLib.c ****         return ((uint32)(CY_SYS_WDT_MATCH_REG >> (counterNum * CY_SYS_WDT_CNT_MATCH_SHIFT)) & CY_SY
 1013              		.loc 1 1015 0
 1014 0008 024B     		ldr	r3, .L77
 1015 000a 0001     		lsl	r0, r0, #4
 1016              	.LVL78:
 1017 000c 1968     		ldr	r1, [r3]
1016:.\Generated_Source\PSoC4/CyLib.c ****     }
 1018              		.loc 1 1016 0
 1019              		@ sp needed for prologue
1015:.\Generated_Source\PSoC4/CyLib.c ****         return ((uint32)(CY_SYS_WDT_MATCH_REG >> (counterNum * CY_SYS_WDT_CNT_MATCH_SHIFT)) & CY_SY
 1020              		.loc 1 1015 0
 1021 000e C140     		lsr	r1, r1, r0
 1022 0010 88B2     		uxth	r0, r1
1016:.\Generated_Source\PSoC4/CyLib.c ****     }
 1023              		.loc 1 1016 0
 1024 0012 00BD     		pop	{pc}
 1025              	.L78:
 1026              		.align	2
 1027              	.L77:
 1028 0014 08020B40 		.word	1074463240
 1029              		.cfi_endproc
 1030              	.LFE21:
 1031              		.size	CySysWdtReadMatch, .-CySysWdtReadMatch
 1032              		.section	.text.CySysWdtReadCount,"ax",%progbits
 1033              		.align	1
 1034              		.global	CySysWdtReadCount
 1035              		.code	16
 1036              		.thumb_func
 1037              		.type	CySysWdtReadCount, %function
 1038              	CySysWdtReadCount:
 1039              	.LFB22:
1035:.\Generated_Source\PSoC4/CyLib.c ****     {
 1040              		.loc 1 1035 0
 1041              		.cfi_startproc
 1042              	.LVL79:
ARM GAS  C:\Users\SNFU\AppData\Local\Temp\ccL8ejmf.s 			page 56


 1043 0000 00B5     		push	{lr}
 1044              	.LCFI13:
 1045              		.cfi_def_cfa_offset 4
 1046              		.cfi_offset 14, -4
1038:.\Generated_Source\PSoC4/CyLib.c ****         switch(counterNum)
 1047              		.loc 1 1038 0
 1048 0002 0128     		cmp	r0, #1
 1049 0004 0AD0     		beq	.L82
 1050 0006 0028     		cmp	r0, #0
 1051 0008 04D0     		beq	.L81
 1052 000a 0228     		cmp	r0, #2
 1053 000c 0AD1     		bne	.L85
1052:.\Generated_Source\PSoC4/CyLib.c ****                 regValue = CY_SYS_WDT_CTRHIGH_REG;
 1054              		.loc 1 1052 0
 1055 000e 074B     		ldr	r3, .L86
 1056 0010 1868     		ldr	r0, [r3]
 1057              	.LVL80:
1053:.\Generated_Source\PSoC4/CyLib.c ****             break;
 1058              		.loc 1 1053 0
 1059 0012 09E0     		b	.L84
 1060              	.LVL81:
 1061              	.L81:
1042:.\Generated_Source\PSoC4/CyLib.c ****                 regValue = CY_SYS_WDT_CTRLOW_REG & CY_SYS_WDT_LOWER_16BITS_MASK;
 1062              		.loc 1 1042 0
 1063 0014 0648     		ldr	r0, .L86+4
 1064              	.LVL82:
 1065 0016 0168     		ldr	r1, [r0]
 1066 0018 88B2     		uxth	r0, r1
 1067              	.LVL83:
1043:.\Generated_Source\PSoC4/CyLib.c ****             break;
 1068              		.loc 1 1043 0
 1069 001a 05E0     		b	.L84
 1070              	.LVL84:
 1071              	.L82:
1047:.\Generated_Source\PSoC4/CyLib.c ****                 regValue = (CY_SYS_WDT_CTRLOW_REG >> CY_SYS_WDT_CNT_MATCH_SHIFT) & CY_SYS_WDT_LOWER
 1072              		.loc 1 1047 0
 1073 001c 044A     		ldr	r2, .L86+4
 1074 001e 1368     		ldr	r3, [r2]
 1075 0020 180C     		lsr	r0, r3, #16
 1076              	.LVL85:
1048:.\Generated_Source\PSoC4/CyLib.c ****             break;
 1077              		.loc 1 1048 0
 1078 0022 01E0     		b	.L84
 1079              	.LVL86:
 1080              	.L85:
 1081              	.LBB78:
 1082              	.LBB79:
 1083              		.loc 1 1979 0
 1084              	@ 1979 ".\Generated_Source\PSoC4\CyLib.c" 1
 1085 0024 01BE     		    bkpt    1
 1086              	@ 0 "" 2
1036:.\Generated_Source\PSoC4/CyLib.c ****         uint32 regValue = 0u;
 1087              		.loc 1 1036 0
 1088              		.code	16
 1089 0026 0020     		mov	r0, #0
 1090              	.LVL87:
 1091              	.L84:
ARM GAS  C:\Users\SNFU\AppData\Local\Temp\ccL8ejmf.s 			page 57


 1092              	.LBE79:
 1093              	.LBE78:
1061:.\Generated_Source\PSoC4/CyLib.c ****     }
 1094              		.loc 1 1061 0
 1095              		@ sp needed for prologue
 1096 0028 00BD     		pop	{pc}
 1097              	.L87:
 1098 002a C046     		.align	2
 1099              	.L86:
 1100 002c 04020B40 		.word	1074463236
 1101 0030 00020B40 		.word	1074463232
 1102              		.cfi_endproc
 1103              	.LFE22:
 1104              		.size	CySysWdtReadCount, .-CySysWdtReadCount
 1105              		.section	.text.CySysWdtGetInterruptSource,"ax",%progbits
 1106              		.align	1
 1107              		.global	CySysWdtGetInterruptSource
 1108              		.code	16
 1109              		.thumb_func
 1110              		.type	CySysWdtGetInterruptSource, %function
 1111              	CySysWdtGetInterruptSource:
 1112              	.LFB23:
1084:.\Generated_Source\PSoC4/CyLib.c ****     {
 1113              		.loc 1 1084 0
 1114              		.cfi_startproc
1085:.\Generated_Source\PSoC4/CyLib.c ****         return (CY_SYS_WDT_CONTROL_REG & (CY_SYS_WDT_COUNTER0_INT | CY_SYS_WDT_COUNTER1_INT | CY_SY
 1115              		.loc 1 1085 0
 1116 0000 024B     		ldr	r3, .L89
 1117 0002 0349     		ldr	r1, .L89+4
 1118 0004 1868     		ldr	r0, [r3]
1086:.\Generated_Source\PSoC4/CyLib.c ****     }
 1119              		.loc 1 1086 0
 1120              		@ sp needed for prologue
1085:.\Generated_Source\PSoC4/CyLib.c ****         return (CY_SYS_WDT_CONTROL_REG & (CY_SYS_WDT_COUNTER0_INT | CY_SYS_WDT_COUNTER1_INT | CY_SY
 1121              		.loc 1 1085 0
 1122 0006 0840     		and	r0, r1
1086:.\Generated_Source\PSoC4/CyLib.c ****     }
 1123              		.loc 1 1086 0
 1124 0008 7047     		bx	lr
 1125              	.L90:
 1126 000a C046     		.align	2
 1127              	.L89:
 1128 000c 10020B40 		.word	1074463248
 1129 0010 04040400 		.word	263172
 1130              		.cfi_endproc
 1131              	.LFE23:
 1132              		.size	CySysWdtGetInterruptSource, .-CySysWdtGetInterruptSource
 1133              		.section	.text.CySysWdtClearInterrupt,"ax",%progbits
 1134              		.align	1
 1135              		.global	CySysWdtClearInterrupt
 1136              		.code	16
 1137              		.thumb_func
 1138              		.type	CySysWdtClearInterrupt, %function
 1139              	CySysWdtClearInterrupt:
 1140              	.LFB24:
1117:.\Generated_Source\PSoC4/CyLib.c ****     {
 1141              		.loc 1 1117 0
ARM GAS  C:\Users\SNFU\AppData\Local\Temp\ccL8ejmf.s 			page 58


 1142              		.cfi_startproc
 1143              	.LVL88:
 1144 0000 70B5     		push	{r4, r5, r6, lr}
 1145              	.LCFI14:
 1146              		.cfi_def_cfa_offset 16
 1147              		.cfi_offset 4, -16
 1148              		.cfi_offset 5, -12
 1149              		.cfi_offset 6, -8
 1150              		.cfi_offset 14, -4
1117:.\Generated_Source\PSoC4/CyLib.c ****     {
 1151              		.loc 1 1117 0
 1152 0002 051C     		mov	r5, r0
1121:.\Generated_Source\PSoC4/CyLib.c ****         interruptState = CyEnterCriticalSection();
 1153              		.loc 1 1121 0
 1154 0004 FFF7FEFF 		bl	CyEnterCriticalSection
 1155              	.LVL89:
1126:.\Generated_Source\PSoC4/CyLib.c ****         if (0u == (CY_SYS_CLK_ILO_CONFIG_REG & CY_SYS_CLK_ILO_CONFIG_ENABLE))
 1156              		.loc 1 1126 0
 1157 0008 174B     		ldr	r3, .L96
1121:.\Generated_Source\PSoC4/CyLib.c ****         interruptState = CyEnterCriticalSection();
 1158              		.loc 1 1121 0
 1159 000a 041C     		mov	r4, r0
 1160              	.LVL90:
1126:.\Generated_Source\PSoC4/CyLib.c ****         if (0u == (CY_SYS_CLK_ILO_CONFIG_REG & CY_SYS_CLK_ILO_CONFIG_ENABLE))
 1161              		.loc 1 1126 0
 1162 000c 1868     		ldr	r0, [r3]
 1163              	.LVL91:
 1164 000e 0028     		cmp	r0, #0
 1165 0010 01DB     		blt	.L92
1128:.\Generated_Source\PSoC4/CyLib.c ****             CySysClkIloStart();
 1166              		.loc 1 1128 0
 1167 0012 FFF7FEFF 		bl	CySysClkIloStart
 1168              	.LVL92:
 1169              	.L92:
1131:.\Generated_Source\PSoC4/CyLib.c ****         if ((CY_SYS_CLK_SELECT_REG & (uint32)(CY_SYS_WDT_CLK_LOCK_BITS_MASK)) == CY_SYS_WDT_CLK_LOC
 1170              		.loc 1 1131 0
 1171 0016 154B     		ldr	r3, .L96+4
 1172 0018 C021     		mov	r1, #192
 1173 001a 1E68     		ldr	r6, [r3]
 1174 001c 0802     		lsl	r0, r1, #8
 1175 001e 0640     		and	r6, r0
1144:.\Generated_Source\PSoC4/CyLib.c ****             wdtLockState = 0u;
 1176              		.loc 1 1144 0
 1177 0020 0022     		mov	r2, #0
1131:.\Generated_Source\PSoC4/CyLib.c ****         if ((CY_SYS_CLK_SELECT_REG & (uint32)(CY_SYS_WDT_CLK_LOCK_BITS_MASK)) == CY_SYS_WDT_CLK_LOC
 1178              		.loc 1 1131 0
 1179 0022 8642     		cmp	r6, r0
 1180 0024 0DD1     		bne	.L93
 1181              	.LVL93:
1136:.\Generated_Source\PSoC4/CyLib.c ****             CY_SYS_CLK_SELECT_REG = ((CY_SYS_CLK_SELECT_REG & (uint32)(~CY_SYS_WDT_CLK_LOCK_BITS_MA
 1182              		.loc 1 1136 0
 1183 0026 1E68     		ldr	r6, [r3]
 1184 0028 114A     		ldr	r2, .L96+8
 1185 002a 8021     		mov	r1, #128
 1186 002c C801     		lsl	r0, r1, #7
 1187 002e 1640     		and	r6, r2
 1188 0030 0643     		orr	r6, r0
ARM GAS  C:\Users\SNFU\AppData\Local\Temp\ccL8ejmf.s 			page 59


 1189 0032 1E60     		str	r6, [r3]
1139:.\Generated_Source\PSoC4/CyLib.c ****             CY_SYS_CLK_SELECT_REG = ((CY_SYS_CLK_SELECT_REG & (uint32)(~CY_SYS_WDT_CLK_LOCK_BITS_MA
 1190              		.loc 1 1139 0
 1191 0034 1E68     		ldr	r6, [r3]
 1192 0036 8021     		mov	r1, #128
 1193 0038 3240     		and	r2, r6
 1194 003a 0802     		lsl	r0, r1, #8
 1195 003c 0243     		orr	r2, r0
 1196 003e 1A60     		str	r2, [r3]
1133:.\Generated_Source\PSoC4/CyLib.c ****             wdtLockState = 1u;
 1197              		.loc 1 1133 0
 1198 0040 0122     		mov	r2, #1
 1199              	.LVL94:
 1200              	.L93:
1152:.\Generated_Source\PSoC4/CyLib.c ****         CY_SYS_WDT_CONTROL_REG = counterMask | (CY_SYS_WDT_CONTROL_REG & ~(CY_SYS_WDT_COUNTER0_INT 
 1201              		.loc 1 1152 0
 1202 0042 0C49     		ldr	r1, .L96+12
1148:.\Generated_Source\PSoC4/CyLib.c ****         counterMask &= (CY_SYS_WDT_COUNTER0_INT |
 1203              		.loc 1 1148 0
 1204 0044 0C48     		ldr	r0, .L96+16
1152:.\Generated_Source\PSoC4/CyLib.c ****         CY_SYS_WDT_CONTROL_REG = counterMask | (CY_SYS_WDT_CONTROL_REG & ~(CY_SYS_WDT_COUNTER0_INT 
 1205              		.loc 1 1152 0
 1206 0046 0E68     		ldr	r6, [r1]
1148:.\Generated_Source\PSoC4/CyLib.c ****         counterMask &= (CY_SYS_WDT_COUNTER0_INT |
 1207              		.loc 1 1148 0
 1208 0048 0540     		and	r5, r0
 1209              	.LVL95:
1152:.\Generated_Source\PSoC4/CyLib.c ****         CY_SYS_WDT_CONTROL_REG = counterMask | (CY_SYS_WDT_CONTROL_REG & ~(CY_SYS_WDT_COUNTER0_INT 
 1210              		.loc 1 1152 0
 1211 004a 0C48     		ldr	r0, .L96+20
 1212 004c 3040     		and	r0, r6
 1213 004e 0543     		orr	r5, r0
 1214              	.LVL96:
 1215 0050 0D60     		str	r5, [r1]
1156:.\Generated_Source\PSoC4/CyLib.c ****         if (1u == wdtLockState)
 1216              		.loc 1 1156 0
 1217 0052 012A     		cmp	r2, #1
 1218 0054 04D1     		bne	.L94
1159:.\Generated_Source\PSoC4/CyLib.c ****             CY_SYS_CLK_SELECT_REG = (CY_SYS_CLK_SELECT_REG & (uint32)(~CY_SYS_WDT_CLK_LOCK_BITS_MAS
 1219              		.loc 1 1159 0
 1220 0056 1D68     		ldr	r5, [r3]
 1221 0058 C022     		mov	r2, #192
 1222              	.LVL97:
 1223 005a 1102     		lsl	r1, r2, #8
 1224 005c 2943     		orr	r1, r5
 1225 005e 1960     		str	r1, [r3]
 1226              	.L94:
1163:.\Generated_Source\PSoC4/CyLib.c ****         CyExitCriticalSection(interruptState);
 1227              		.loc 1 1163 0
 1228 0060 201C     		mov	r0, r4
 1229 0062 FFF7FEFF 		bl	CyExitCriticalSection
 1230              	.LVL98:
1164:.\Generated_Source\PSoC4/CyLib.c ****     }
 1231              		.loc 1 1164 0
 1232              		@ sp needed for prologue
 1233              	.LVL99:
 1234 0066 70BD     		pop	{r4, r5, r6, pc}
ARM GAS  C:\Users\SNFU\AppData\Local\Temp\ccL8ejmf.s 			page 60


 1235              	.L97:
 1236              		.align	2
 1237              	.L96:
 1238 0068 04010B40 		.word	1074462980
 1239 006c 00010B40 		.word	1074462976
 1240 0070 FF3FFFFF 		.word	-49153
 1241 0074 10020B40 		.word	1074463248
 1242 0078 04040400 		.word	263172
 1243 007c FBFBFBFF 		.word	-263173
 1244              		.cfi_endproc
 1245              	.LFE24:
 1246              		.size	CySysWdtClearInterrupt, .-CySysWdtClearInterrupt
 1247              		.section	.text.CySysWdtResetCounters,"ax",%progbits
 1248              		.align	1
 1249              		.global	CySysWdtResetCounters
 1250              		.code	16
 1251              		.thumb_func
 1252              		.type	CySysWdtResetCounters, %function
 1253              	CySysWdtResetCounters:
 1254              	.LFB25:
1190:.\Generated_Source\PSoC4/CyLib.c ****     {
 1255              		.loc 1 1190 0
 1256              		.cfi_startproc
 1257              	.LVL100:
1194:.\Generated_Source\PSoC4/CyLib.c ****         if (0u == (CY_SYS_CLK_ILO_CONFIG_REG & CY_SYS_CLK_ILO_CONFIG_ENABLE))
 1258              		.loc 1 1194 0
 1259 0000 074B     		ldr	r3, .L100
1190:.\Generated_Source\PSoC4/CyLib.c ****     {
 1260              		.loc 1 1190 0
 1261 0002 10B5     		push	{r4, lr}
 1262              	.LCFI15:
 1263              		.cfi_def_cfa_offset 8
 1264              		.cfi_offset 4, -8
 1265              		.cfi_offset 14, -4
1190:.\Generated_Source\PSoC4/CyLib.c ****     {
 1266              		.loc 1 1190 0
 1267 0004 041C     		mov	r4, r0
1194:.\Generated_Source\PSoC4/CyLib.c ****         if (0u == (CY_SYS_CLK_ILO_CONFIG_REG & CY_SYS_CLK_ILO_CONFIG_ENABLE))
 1268              		.loc 1 1194 0
 1269 0006 1868     		ldr	r0, [r3]
 1270              	.LVL101:
 1271 0008 0028     		cmp	r0, #0
 1272 000a 01DB     		blt	.L99
1196:.\Generated_Source\PSoC4/CyLib.c ****             CySysClkIloStart();
 1273              		.loc 1 1196 0
 1274 000c FFF7FEFF 		bl	CySysClkIloStart
 1275              	.LVL102:
 1276              	.L99:
1200:.\Generated_Source\PSoC4/CyLib.c ****         CY_SYS_WDT_CONTROL_REG |= (countersMask & (CY_SYS_WDT_COUNTER0_RESET |
 1277              		.loc 1 1200 0
 1278 0010 044B     		ldr	r3, .L100+4
 1279 0012 0549     		ldr	r1, .L100+8
 1280 0014 1A68     		ldr	r2, [r3]
 1281 0016 0C40     		and	r4, r1
 1282              	.LVL103:
 1283 0018 1443     		orr	r4, r2
 1284 001a 1C60     		str	r4, [r3]
ARM GAS  C:\Users\SNFU\AppData\Local\Temp\ccL8ejmf.s 			page 61


1202:.\Generated_Source\PSoC4/CyLib.c ****     }
 1285              		.loc 1 1202 0
 1286              		@ sp needed for prologue
 1287 001c 10BD     		pop	{r4, pc}
 1288              	.L101:
 1289 001e C046     		.align	2
 1290              	.L100:
 1291 0020 04010B40 		.word	1074462980
 1292 0024 10020B40 		.word	1074463248
 1293 0028 08080800 		.word	526344
 1294              		.cfi_endproc
 1295              	.LFE25:
 1296              		.size	CySysWdtResetCounters, .-CySysWdtResetCounters
 1297              		.section	.text.CySysLvdEnable,"ax",%progbits
 1298              		.align	1
 1299              		.global	CySysLvdEnable
 1300              		.code	16
 1301              		.thumb_func
 1302              		.type	CySysLvdEnable, %function
 1303              	CySysLvdEnable:
 1304              	.LFB26:
1524:.\Generated_Source\PSoC4/CyLib.c ****     {
 1305              		.loc 1 1524 0
 1306              		.cfi_startproc
 1307              	.LVL104:
1526:.\Generated_Source\PSoC4/CyLib.c ****         CY_LVD_PWR_VMON_CONFIG_REG = (CY_LVD_PWR_VMON_CONFIG_REG & ~CY_LVD_PWR_VMON_CONFIG_LVD_SEL_
 1308              		.loc 1 1526 0
 1309 0000 084B     		ldr	r3, .L103
1527:.\Generated_Source\PSoC4/CyLib.c ****                 ((threshold << CY_LVD_PWR_VMON_CONFIG_LVD_SEL_SHIFT) & CY_LVD_PWR_VMON_CONFIG_LVD_S
 1310              		.loc 1 1527 0
 1311 0002 1E22     		mov	r2, #30
1526:.\Generated_Source\PSoC4/CyLib.c ****         CY_LVD_PWR_VMON_CONFIG_REG = (CY_LVD_PWR_VMON_CONFIG_REG & ~CY_LVD_PWR_VMON_CONFIG_LVD_SEL_
 1312              		.loc 1 1526 0
 1313 0004 1968     		ldr	r1, [r3]
1527:.\Generated_Source\PSoC4/CyLib.c ****                 ((threshold << CY_LVD_PWR_VMON_CONFIG_LVD_SEL_SHIFT) & CY_LVD_PWR_VMON_CONFIG_LVD_S
 1314              		.loc 1 1527 0
 1315 0006 4000     		lsl	r0, r0, #1
 1316              	.LVL105:
1526:.\Generated_Source\PSoC4/CyLib.c ****         CY_LVD_PWR_VMON_CONFIG_REG = (CY_LVD_PWR_VMON_CONFIG_REG & ~CY_LVD_PWR_VMON_CONFIG_LVD_SEL_
 1317              		.loc 1 1526 0
 1318 0008 9143     		bic	r1, r2
1527:.\Generated_Source\PSoC4/CyLib.c ****                 ((threshold << CY_LVD_PWR_VMON_CONFIG_LVD_SEL_SHIFT) & CY_LVD_PWR_VMON_CONFIG_LVD_S
 1319              		.loc 1 1527 0
 1320 000a 1040     		and	r0, r2
1526:.\Generated_Source\PSoC4/CyLib.c ****         CY_LVD_PWR_VMON_CONFIG_REG = (CY_LVD_PWR_VMON_CONFIG_REG & ~CY_LVD_PWR_VMON_CONFIG_LVD_SEL_
 1321              		.loc 1 1526 0
 1322 000c 0843     		orr	r0, r1
 1323 000e 1860     		str	r0, [r3]
1529:.\Generated_Source\PSoC4/CyLib.c ****         CY_LVD_PWR_VMON_CONFIG_REG |= CY_LVD_PWR_VMON_CONFIG_LVD_EN;
 1324              		.loc 1 1529 0
 1325 0010 1868     		ldr	r0, [r3]
 1326 0012 0122     		mov	r2, #1
 1327 0014 1043     		orr	r0, r2
 1328 0016 1860     		str	r0, [r3]
1530:.\Generated_Source\PSoC4/CyLib.c ****         CY_LVD_PWR_INTR_MASK_REG   |= CY_LVD_PROPAGATE_INT_TO_CPU;
 1329              		.loc 1 1530 0
 1330 0018 034B     		ldr	r3, .L103+4
ARM GAS  C:\Users\SNFU\AppData\Local\Temp\ccL8ejmf.s 			page 62


 1331 001a 0221     		mov	r1, #2
 1332 001c 1868     		ldr	r0, [r3]
1531:.\Generated_Source\PSoC4/CyLib.c ****     }
 1333              		.loc 1 1531 0
 1334              		@ sp needed for prologue
1530:.\Generated_Source\PSoC4/CyLib.c ****         CY_LVD_PWR_INTR_MASK_REG   |= CY_LVD_PROPAGATE_INT_TO_CPU;
 1335              		.loc 1 1530 0
 1336 001e 0843     		orr	r0, r1
 1337 0020 1860     		str	r0, [r3]
1531:.\Generated_Source\PSoC4/CyLib.c ****     }
 1338              		.loc 1 1531 0
 1339 0022 7047     		bx	lr
 1340              	.L104:
 1341              		.align	2
 1342              	.L103:
 1343 0024 18000B40 		.word	1074462744
 1344 0028 08000B40 		.word	1074462728
 1345              		.cfi_endproc
 1346              	.LFE26:
 1347              		.size	CySysLvdEnable, .-CySysLvdEnable
 1348              		.section	.text.CySysLvdDisable,"ax",%progbits
 1349              		.align	1
 1350              		.global	CySysLvdDisable
 1351              		.code	16
 1352              		.thumb_func
 1353              		.type	CySysLvdDisable, %function
 1354              	CySysLvdDisable:
 1355              	.LFB27:
1549:.\Generated_Source\PSoC4/CyLib.c ****     {
 1356              		.loc 1 1549 0
 1357              		.cfi_startproc
1550:.\Generated_Source\PSoC4/CyLib.c ****         CY_LVD_PWR_INTR_MASK_REG   &= ~CY_LVD_PROPAGATE_INT_TO_CPU;
 1358              		.loc 1 1550 0
 1359 0000 054B     		ldr	r3, .L106
 1360 0002 0221     		mov	r1, #2
 1361 0004 1A68     		ldr	r2, [r3]
1551:.\Generated_Source\PSoC4/CyLib.c ****         CY_LVD_PWR_VMON_CONFIG_REG &= ~CY_LVD_PWR_VMON_CONFIG_LVD_EN;
 1362              		.loc 1 1551 0
 1363 0006 0548     		ldr	r0, .L106+4
1550:.\Generated_Source\PSoC4/CyLib.c ****         CY_LVD_PWR_INTR_MASK_REG   &= ~CY_LVD_PROPAGATE_INT_TO_CPU;
 1364              		.loc 1 1550 0
 1365 0008 8A43     		bic	r2, r1
 1366 000a 1A60     		str	r2, [r3]
1551:.\Generated_Source\PSoC4/CyLib.c ****         CY_LVD_PWR_VMON_CONFIG_REG &= ~CY_LVD_PWR_VMON_CONFIG_LVD_EN;
 1367              		.loc 1 1551 0
 1368 000c 0368     		ldr	r3, [r0]
 1369 000e 0122     		mov	r2, #1
 1370 0010 9343     		bic	r3, r2
 1371 0012 0360     		str	r3, [r0]
1552:.\Generated_Source\PSoC4/CyLib.c ****     }
 1372              		.loc 1 1552 0
 1373              		@ sp needed for prologue
 1374 0014 7047     		bx	lr
 1375              	.L107:
 1376 0016 C046     		.align	2
 1377              	.L106:
 1378 0018 08000B40 		.word	1074462728
ARM GAS  C:\Users\SNFU\AppData\Local\Temp\ccL8ejmf.s 			page 63


 1379 001c 18000B40 		.word	1074462744
 1380              		.cfi_endproc
 1381              	.LFE27:
 1382              		.size	CySysLvdDisable, .-CySysLvdDisable
 1383              		.section	.text.CySysLvdGetInterruptSource,"ax",%progbits
 1384              		.align	1
 1385              		.global	CySysLvdGetInterruptSource
 1386              		.code	16
 1387              		.thumb_func
 1388              		.type	CySysLvdGetInterruptSource, %function
 1389              	CySysLvdGetInterruptSource:
 1390              	.LFB28:
1571:.\Generated_Source\PSoC4/CyLib.c ****     {
 1391              		.loc 1 1571 0
 1392              		.cfi_startproc
1572:.\Generated_Source\PSoC4/CyLib.c ****         return (CY_LVD_PWR_INTR_REG & CY_SYS_LVD_INT);
 1393              		.loc 1 1572 0
 1394 0000 024B     		ldr	r3, .L109
 1395 0002 0221     		mov	r1, #2
 1396 0004 1868     		ldr	r0, [r3]
1573:.\Generated_Source\PSoC4/CyLib.c ****     }
 1397              		.loc 1 1573 0
 1398              		@ sp needed for prologue
1572:.\Generated_Source\PSoC4/CyLib.c ****         return (CY_LVD_PWR_INTR_REG & CY_SYS_LVD_INT);
 1399              		.loc 1 1572 0
 1400 0006 0840     		and	r0, r1
1573:.\Generated_Source\PSoC4/CyLib.c ****     }
 1401              		.loc 1 1573 0
 1402 0008 7047     		bx	lr
 1403              	.L110:
 1404 000a C046     		.align	2
 1405              	.L109:
 1406 000c 04000B40 		.word	1074462724
 1407              		.cfi_endproc
 1408              	.LFE28:
 1409              		.size	CySysLvdGetInterruptSource, .-CySysLvdGetInterruptSource
 1410              		.section	.text.CySysLvdClearInterrupt,"ax",%progbits
 1411              		.align	1
 1412              		.global	CySysLvdClearInterrupt
 1413              		.code	16
 1414              		.thumb_func
 1415              		.type	CySysLvdClearInterrupt, %function
 1416              	CySysLvdClearInterrupt:
 1417              	.LFB29:
1591:.\Generated_Source\PSoC4/CyLib.c ****     {
 1418              		.loc 1 1591 0
 1419              		.cfi_startproc
1592:.\Generated_Source\PSoC4/CyLib.c ****         CY_LVD_PWR_INTR_REG = CY_SYS_LVD_INT;
 1420              		.loc 1 1592 0
 1421 0000 014B     		ldr	r3, .L112
 1422 0002 0222     		mov	r2, #2
 1423 0004 1A60     		str	r2, [r3]
1593:.\Generated_Source\PSoC4/CyLib.c ****     }
 1424              		.loc 1 1593 0
 1425              		@ sp needed for prologue
 1426 0006 7047     		bx	lr
 1427              	.L113:
ARM GAS  C:\Users\SNFU\AppData\Local\Temp\ccL8ejmf.s 			page 64


 1428              		.align	2
 1429              	.L112:
 1430 0008 04000B40 		.word	1074462724
 1431              		.cfi_endproc
 1432              	.LFE29:
 1433              		.size	CySysLvdClearInterrupt, .-CySysLvdClearInterrupt
 1434              		.section	.text.CySysGetResetReason,"ax",%progbits
 1435              		.align	1
 1436              		.global	CySysGetResetReason
 1437              		.code	16
 1438              		.thumb_func
 1439              		.type	CySysGetResetReason, %function
 1440              	CySysGetResetReason:
 1441              	.LFB30:
1619:.\Generated_Source\PSoC4/CyLib.c **** {
 1442              		.loc 1 1619 0
 1443              		.cfi_startproc
 1444              	.LVL106:
1623:.\Generated_Source\PSoC4/CyLib.c ****     status = CY_SYS_RES_CAUSE_REG &
 1445              		.loc 1 1623 0
 1446 0000 034A     		ldr	r2, .L115
1622:.\Generated_Source\PSoC4/CyLib.c ****     reason &= (CY_SYS_RESET_WDT | CY_SYS_RESET_PROTFAULT | CY_SYS_RESET_SW);
 1447              		.loc 1 1622 0
 1448 0002 1923     		mov	r3, #25
 1449 0004 011C     		mov	r1, r0
1623:.\Generated_Source\PSoC4/CyLib.c ****     status = CY_SYS_RES_CAUSE_REG &
 1450              		.loc 1 1623 0
 1451 0006 1068     		ldr	r0, [r2]
 1452              	.LVL107:
1622:.\Generated_Source\PSoC4/CyLib.c ****     reason &= (CY_SYS_RESET_WDT | CY_SYS_RESET_PROTFAULT | CY_SYS_RESET_SW);
 1453              		.loc 1 1622 0
 1454 0008 1940     		and	r1, r3
 1455              	.LVL108:
1623:.\Generated_Source\PSoC4/CyLib.c ****     status = CY_SYS_RES_CAUSE_REG &
 1456              		.loc 1 1623 0
 1457 000a 1840     		and	r0, r3
 1458              	.LVL109:
1625:.\Generated_Source\PSoC4/CyLib.c ****     CY_SYS_RES_CAUSE_REG = reason;
 1459              		.loc 1 1625 0
 1460 000c 1160     		str	r1, [r2]
1628:.\Generated_Source\PSoC4/CyLib.c **** }
 1461              		.loc 1 1628 0
 1462              		@ sp needed for prologue
 1463 000e 7047     		bx	lr
 1464              	.L116:
 1465              		.align	2
 1466              	.L115:
 1467 0010 00030B40 		.word	1074463488
 1468              		.cfi_endproc
 1469              	.LFE30:
 1470              		.size	CySysGetResetReason, .-CySysGetResetReason
 1471              		.section	.text.CyDisableInts,"ax",%progbits
 1472              		.align	1
 1473              		.global	CyDisableInts
 1474              		.code	16
 1475              		.thumb_func
 1476              		.type	CyDisableInts, %function
ARM GAS  C:\Users\SNFU\AppData\Local\Temp\ccL8ejmf.s 			page 65


 1477              	CyDisableInts:
 1478              	.LFB31:
1646:.\Generated_Source\PSoC4/CyLib.c **** {
 1479              		.loc 1 1646 0
 1480              		.cfi_startproc
1650:.\Generated_Source\PSoC4/CyLib.c ****     intState = CY_INT_CLEAR_REG;
 1481              		.loc 1 1650 0
 1482 0000 024B     		ldr	r3, .L118
1653:.\Generated_Source\PSoC4/CyLib.c ****     CY_INT_CLEAR_REG = CY_INT_CLEAR_DISABLE_ALL;
 1483              		.loc 1 1653 0
 1484 0002 0122     		mov	r2, #1
 1485 0004 5142     		neg	r1, r2
1650:.\Generated_Source\PSoC4/CyLib.c ****     intState = CY_INT_CLEAR_REG;
 1486              		.loc 1 1650 0
 1487 0006 1868     		ldr	r0, [r3]
 1488              	.LVL110:
1656:.\Generated_Source\PSoC4/CyLib.c **** }
 1489              		.loc 1 1656 0
 1490              		@ sp needed for prologue
1653:.\Generated_Source\PSoC4/CyLib.c ****     CY_INT_CLEAR_REG = CY_INT_CLEAR_DISABLE_ALL;
 1491              		.loc 1 1653 0
 1492 0008 1960     		str	r1, [r3]
1656:.\Generated_Source\PSoC4/CyLib.c **** }
 1493              		.loc 1 1656 0
 1494 000a 7047     		bx	lr
 1495              	.L119:
 1496              		.align	2
 1497              	.L118:
 1498 000c 80E100E0 		.word	-536813184
 1499              		.cfi_endproc
 1500              	.LFE31:
 1501              		.size	CyDisableInts, .-CyDisableInts
 1502              		.section	.text.CyEnableInts,"ax",%progbits
 1503              		.align	1
 1504              		.global	CyEnableInts
 1505              		.code	16
 1506              		.thumb_func
 1507              		.type	CyEnableInts, %function
 1508              	CyEnableInts:
 1509              	.LFB32:
1674:.\Generated_Source\PSoC4/CyLib.c **** {
 1510              		.loc 1 1674 0
 1511              		.cfi_startproc
 1512              	.LVL111:
1675:.\Generated_Source\PSoC4/CyLib.c ****     CY_INT_ENABLE_REG = mask;
 1513              		.loc 1 1675 0
 1514 0000 014B     		ldr	r3, .L121
1676:.\Generated_Source\PSoC4/CyLib.c **** }
 1515              		.loc 1 1676 0
 1516              		@ sp needed for prologue
1675:.\Generated_Source\PSoC4/CyLib.c ****     CY_INT_ENABLE_REG = mask;
 1517              		.loc 1 1675 0
 1518 0002 1860     		str	r0, [r3]
1676:.\Generated_Source\PSoC4/CyLib.c **** }
 1519              		.loc 1 1676 0
 1520 0004 7047     		bx	lr
 1521              	.L122:
ARM GAS  C:\Users\SNFU\AppData\Local\Temp\ccL8ejmf.s 			page 66


 1522 0006 C046     		.align	2
 1523              	.L121:
 1524 0008 00E100E0 		.word	-536813312
 1525              		.cfi_endproc
 1526              	.LFE32:
 1527              		.size	CyEnableInts, .-CyEnableInts
 1528              		.section	.text.CyIntSetSysVector,"ax",%progbits
 1529              		.align	1
 1530              		.global	CyIntSetSysVector
 1531              		.code	16
 1532              		.thumb_func
 1533              		.type	CyIntSetSysVector, %function
 1534              	CyIntSetSysVector:
 1535              	.LFB33:
1696:.\Generated_Source\PSoC4/CyLib.c **** {
 1536              		.loc 1 1696 0
 1537              		.cfi_startproc
 1538              	.LVL112:
 1539 0000 00B5     		push	{lr}
 1540              	.LCFI16:
 1541              		.cfi_def_cfa_offset 4
 1542              		.cfi_offset 14, -4
1700:.\Generated_Source\PSoC4/CyLib.c ****     CYASSERT(number < CY_INT_IRQ_BASE);
 1543              		.loc 1 1700 0
 1544 0002 0F28     		cmp	r0, #15
 1545 0004 00D9     		bls	.L124
 1546              	.LVL113:
 1547              	.LBB80:
 1548              	.LBB81:
 1549              		.loc 1 1979 0
 1550              	@ 1979 ".\Generated_Source\PSoC4\CyLib.c" 1
 1551 0006 01BE     		    bkpt    1
 1552              	@ 0 "" 2
 1553              	.LVL114:
 1554              		.code	16
 1555              	.L124:
 1556              	.LBE81:
 1557              	.LBE80:
1703:.\Generated_Source\PSoC4/CyLib.c ****     oldIsr = ramVectorTable[number];
 1558              		.loc 1 1703 0
 1559 0008 8022     		mov	r2, #128
 1560 000a 8000     		lsl	r0, r0, #2
 1561              	.LVL115:
 1562 000c 9305     		lsl	r3, r2, #22
 1563 000e C218     		add	r2, r0, r3
 1564 0010 1068     		ldr	r0, [r2]
 1565              	.LVL116:
1709:.\Generated_Source\PSoC4/CyLib.c **** }
 1566              		.loc 1 1709 0
 1567              		@ sp needed for prologue
1706:.\Generated_Source\PSoC4/CyLib.c ****     ramVectorTable[number] = address;
 1568              		.loc 1 1706 0
 1569 0012 1160     		str	r1, [r2]
1709:.\Generated_Source\PSoC4/CyLib.c **** }
 1570              		.loc 1 1709 0
 1571 0014 00BD     		pop	{pc}
 1572              		.cfi_endproc
ARM GAS  C:\Users\SNFU\AppData\Local\Temp\ccL8ejmf.s 			page 67


 1573              	.LFE33:
 1574              		.size	CyIntSetSysVector, .-CyIntSetSysVector
 1575              		.section	.text.CyIntGetSysVector,"ax",%progbits
 1576              		.align	1
 1577              		.global	CyIntGetSysVector
 1578              		.code	16
 1579              		.thumb_func
 1580              		.type	CyIntGetSysVector, %function
 1581              	CyIntGetSysVector:
 1582              	.LFB34:
1728:.\Generated_Source\PSoC4/CyLib.c **** {
 1583              		.loc 1 1728 0
 1584              		.cfi_startproc
 1585              	.LVL117:
 1586 0000 00B5     		push	{lr}
 1587              	.LCFI17:
 1588              		.cfi_def_cfa_offset 4
 1589              		.cfi_offset 14, -4
1731:.\Generated_Source\PSoC4/CyLib.c ****     CYASSERT(number < CY_INT_IRQ_BASE);
 1590              		.loc 1 1731 0
 1591 0002 0F28     		cmp	r0, #15
 1592 0004 00D9     		bls	.L126
 1593              	.LVL118:
 1594              	.LBB82:
 1595              	.LBB83:
 1596              		.loc 1 1979 0
 1597              	@ 1979 ".\Generated_Source\PSoC4\CyLib.c" 1
 1598 0006 01BE     		    bkpt    1
 1599              	@ 0 "" 2
 1600              	.LVL119:
 1601              		.code	16
 1602              	.L126:
 1603              	.LBE83:
 1604              	.LBE82:
1733:.\Generated_Source\PSoC4/CyLib.c ****     return(ramVectorTable[number]);
 1605              		.loc 1 1733 0
 1606 0008 8023     		mov	r3, #128
 1607 000a 8000     		lsl	r0, r0, #2
 1608              	.LVL120:
 1609 000c 9905     		lsl	r1, r3, #22
 1610 000e 4218     		add	r2, r0, r1
 1611 0010 1068     		ldr	r0, [r2]
1734:.\Generated_Source\PSoC4/CyLib.c **** }
 1612              		.loc 1 1734 0
 1613              		@ sp needed for prologue
 1614 0012 00BD     		pop	{pc}
 1615              		.cfi_endproc
 1616              	.LFE34:
 1617              		.size	CyIntGetSysVector, .-CyIntGetSysVector
 1618              		.section	.text.CyIntSetVector,"ax",%progbits
 1619              		.align	1
 1620              		.global	CyIntSetVector
 1621              		.code	16
 1622              		.thumb_func
 1623              		.type	CyIntSetVector, %function
 1624              	CyIntSetVector:
 1625              	.LFB35:
ARM GAS  C:\Users\SNFU\AppData\Local\Temp\ccL8ejmf.s 			page 68


1753:.\Generated_Source\PSoC4/CyLib.c **** {
 1626              		.loc 1 1753 0
 1627              		.cfi_startproc
 1628              	.LVL121:
 1629 0000 00B5     		push	{lr}
 1630              	.LCFI18:
 1631              		.cfi_def_cfa_offset 4
 1632              		.cfi_offset 14, -4
1757:.\Generated_Source\PSoC4/CyLib.c ****     CYASSERT(number < CY_NUM_INTERRUPTS);
 1633              		.loc 1 1757 0
 1634 0002 1F28     		cmp	r0, #31
 1635 0004 00D9     		bls	.L128
 1636              	.LVL122:
 1637              	.LBB84:
 1638              	.LBB85:
 1639              		.loc 1 1979 0
 1640              	@ 1979 ".\Generated_Source\PSoC4\CyLib.c" 1
 1641 0006 01BE     		    bkpt    1
 1642              	@ 0 "" 2
 1643              	.LVL123:
 1644              		.code	16
 1645              	.L128:
 1646              	.LBE85:
 1647              	.LBE84:
1760:.\Generated_Source\PSoC4/CyLib.c ****     oldIsr = ramVectorTable[CY_INT_IRQ_BASE + number];
 1648              		.loc 1 1760 0
 1649 0008 024A     		ldr	r2, .L129
 1650 000a 8000     		lsl	r0, r0, #2
 1651              	.LVL124:
 1652 000c 8318     		add	r3, r0, r2
 1653 000e 1868     		ldr	r0, [r3]
 1654              	.LVL125:
1766:.\Generated_Source\PSoC4/CyLib.c **** }
 1655              		.loc 1 1766 0
 1656              		@ sp needed for prologue
1763:.\Generated_Source\PSoC4/CyLib.c ****     ramVectorTable[CY_INT_IRQ_BASE + number] = address;
 1657              		.loc 1 1763 0
 1658 0010 1960     		str	r1, [r3]
1766:.\Generated_Source\PSoC4/CyLib.c **** }
 1659              		.loc 1 1766 0
 1660 0012 00BD     		pop	{pc}
 1661              	.L130:
 1662              		.align	2
 1663              	.L129:
 1664 0014 40000020 		.word	536870976
 1665              		.cfi_endproc
 1666              	.LFE35:
 1667              		.size	CyIntSetVector, .-CyIntSetVector
 1668              		.section	.text.CyIntGetVector,"ax",%progbits
 1669              		.align	1
 1670              		.global	CyIntGetVector
 1671              		.code	16
 1672              		.thumb_func
 1673              		.type	CyIntGetVector, %function
 1674              	CyIntGetVector:
 1675              	.LFB36:
1784:.\Generated_Source\PSoC4/CyLib.c **** {
ARM GAS  C:\Users\SNFU\AppData\Local\Temp\ccL8ejmf.s 			page 69


 1676              		.loc 1 1784 0
 1677              		.cfi_startproc
 1678              	.LVL126:
 1679 0000 00B5     		push	{lr}
 1680              	.LCFI19:
 1681              		.cfi_def_cfa_offset 4
 1682              		.cfi_offset 14, -4
1787:.\Generated_Source\PSoC4/CyLib.c ****     CYASSERT(number < CY_NUM_INTERRUPTS);
 1683              		.loc 1 1787 0
 1684 0002 1F28     		cmp	r0, #31
 1685 0004 00D9     		bls	.L132
 1686              	.LVL127:
 1687              	.LBB86:
 1688              	.LBB87:
 1689              		.loc 1 1979 0
 1690              	@ 1979 ".\Generated_Source\PSoC4\CyLib.c" 1
 1691 0006 01BE     		    bkpt    1
 1692              	@ 0 "" 2
 1693              	.LVL128:
 1694              		.code	16
 1695              	.L132:
 1696              	.LBE87:
 1697              	.LBE86:
1789:.\Generated_Source\PSoC4/CyLib.c ****     return (ramVectorTable[CY_INT_IRQ_BASE + number]);
 1698              		.loc 1 1789 0
 1699 0008 024B     		ldr	r3, .L133
 1700 000a 8000     		lsl	r0, r0, #2
 1701              	.LVL129:
 1702 000c C118     		add	r1, r0, r3
 1703 000e 0868     		ldr	r0, [r1]
1790:.\Generated_Source\PSoC4/CyLib.c **** }
 1704              		.loc 1 1790 0
 1705              		@ sp needed for prologue
 1706 0010 00BD     		pop	{pc}
 1707              	.L134:
 1708 0012 C046     		.align	2
 1709              	.L133:
 1710 0014 40000020 		.word	536870976
 1711              		.cfi_endproc
 1712              	.LFE36:
 1713              		.size	CyIntGetVector, .-CyIntGetVector
 1714              		.section	.text.CyIntSetPriority,"ax",%progbits
 1715              		.align	1
 1716              		.global	CyIntSetPriority
 1717              		.code	16
 1718              		.thumb_func
 1719              		.type	CyIntSetPriority, %function
 1720              	CyIntSetPriority:
 1721              	.LFB37:
1808:.\Generated_Source\PSoC4/CyLib.c **** {
 1722              		.loc 1 1808 0
 1723              		.cfi_startproc
 1724              	.LVL130:
 1725 0000 38B5     		push	{r3, r4, r5, lr}
 1726              	.LCFI20:
 1727              		.cfi_def_cfa_offset 16
 1728              		.cfi_offset 3, -16
ARM GAS  C:\Users\SNFU\AppData\Local\Temp\ccL8ejmf.s 			page 70


 1729              		.cfi_offset 4, -12
 1730              		.cfi_offset 5, -8
 1731              		.cfi_offset 14, -4
1808:.\Generated_Source\PSoC4/CyLib.c **** {
 1732              		.loc 1 1808 0
 1733 0002 041C     		mov	r4, r0
 1734 0004 0D1E     		sub	r5, r1, #0
1813:.\Generated_Source\PSoC4/CyLib.c ****     CYASSERT(priority <= CY_MIN_PRIORITY);
 1735              		.loc 1 1813 0
 1736 0006 032D     		cmp	r5, #3
 1737 0008 00D9     		bls	.L136
 1738              	.LVL131:
 1739              	.LBB88:
 1740              	.LBB89:
 1741              		.loc 1 1979 0
 1742              	@ 1979 ".\Generated_Source\PSoC4\CyLib.c" 1
 1743 000a 01BE     		    bkpt    1
 1744              	@ 0 "" 2
 1745              	.LVL132:
 1746              		.code	16
 1747              	.L136:
 1748              	.LBE89:
 1749              	.LBE88:
1814:.\Generated_Source\PSoC4/CyLib.c ****     CYASSERT(number < CY_NUM_INTERRUPTS);
 1750              		.loc 1 1814 0
 1751 000c 1F2C     		cmp	r4, #31
 1752 000e 00D9     		bls	.L137
 1753              	.LVL133:
 1754              	.LBB90:
 1755              	.LBB91:
 1756              		.loc 1 1979 0
 1757              	@ 1979 ".\Generated_Source\PSoC4\CyLib.c" 1
 1758 0010 01BE     		    bkpt    1
 1759              	@ 0 "" 2
 1760              	.LVL134:
 1761              		.code	16
 1762              	.L137:
 1763              	.LBE91:
 1764              	.LBE90:
1818:.\Generated_Source\PSoC4/CyLib.c ****     interruptState = CyEnterCriticalSection();
 1765              		.loc 1 1818 0
 1766 0012 FFF7FEFF 		bl	CyEnterCriticalSection
 1767              	.LVL135:
1820:.\Generated_Source\PSoC4/CyLib.c ****     value = CY_INT_PRIORITY_REG(number);
 1768              		.loc 1 1820 0
 1769 0016 A308     		lsr	r3, r4, #2
 1770 0018 084A     		ldr	r2, .L138
 1771 001a 9900     		lsl	r1, r3, #2
 1772 001c 8B18     		add	r3, r1, r2
1816:.\Generated_Source\PSoC4/CyLib.c ****     shift = CY_INT_PRIORITY_SHIFT(number);
 1773              		.loc 1 1816 0
 1774 001e 0322     		mov	r2, #3
 1775 0020 1440     		and	r4, r2
 1776              	.LVL136:
 1777 0022 9440     		lsl	r4, r4, r2
1820:.\Generated_Source\PSoC4/CyLib.c ****     value = CY_INT_PRIORITY_REG(number);
 1778              		.loc 1 1820 0
ARM GAS  C:\Users\SNFU\AppData\Local\Temp\ccL8ejmf.s 			page 71


 1779 0024 1968     		ldr	r1, [r3]
 1780              	.LVL137:
1816:.\Generated_Source\PSoC4/CyLib.c ****     shift = CY_INT_PRIORITY_SHIFT(number);
 1781              		.loc 1 1816 0
 1782 0026 0634     		add	r4, r4, #6
1821:.\Generated_Source\PSoC4/CyLib.c ****     value &= (uint32)(~((uint32)(CY_INT_PRIORITY_MASK << shift)));
 1783              		.loc 1 1821 0
 1784 0028 A240     		lsl	r2, r2, r4
 1785 002a 9143     		bic	r1, r2
 1786              	.LVL138:
1822:.\Generated_Source\PSoC4/CyLib.c ****     value |= ((uint32)priority << shift);
 1787              		.loc 1 1822 0
 1788 002c A540     		lsl	r5, r5, r4
 1789 002e 0C1C     		mov	r4, r1
 1790 0030 2C43     		orr	r4, r5
 1791              	.LVL139:
1823:.\Generated_Source\PSoC4/CyLib.c ****     CY_INT_PRIORITY_REG(number) = value;
 1792              		.loc 1 1823 0
 1793 0032 1C60     		str	r4, [r3]
1825:.\Generated_Source\PSoC4/CyLib.c ****     CyExitCriticalSection(interruptState);
 1794              		.loc 1 1825 0
 1795 0034 FFF7FEFF 		bl	CyExitCriticalSection
 1796              	.LVL140:
1826:.\Generated_Source\PSoC4/CyLib.c **** }
 1797              		.loc 1 1826 0
 1798              		@ sp needed for prologue
 1799              	.LVL141:
 1800 0038 38BD     		pop	{r3, r4, r5, pc}
 1801              	.L139:
 1802 003a C046     		.align	2
 1803              	.L138:
 1804 003c 00E400E0 		.word	-536812544
 1805              		.cfi_endproc
 1806              	.LFE37:
 1807              		.size	CyIntSetPriority, .-CyIntSetPriority
 1808              		.section	.text.CyIntGetPriority,"ax",%progbits
 1809              		.align	1
 1810              		.global	CyIntGetPriority
 1811              		.code	16
 1812              		.thumb_func
 1813              		.type	CyIntGetPriority, %function
 1814              	CyIntGetPriority:
 1815              	.LFB38:
1844:.\Generated_Source\PSoC4/CyLib.c **** {
 1816              		.loc 1 1844 0
 1817              		.cfi_startproc
 1818              	.LVL142:
 1819 0000 00B5     		push	{lr}
 1820              	.LCFI21:
 1821              		.cfi_def_cfa_offset 4
 1822              		.cfi_offset 14, -4
1847:.\Generated_Source\PSoC4/CyLib.c ****     CYASSERT(number < CY_NUM_INTERRUPTS);
 1823              		.loc 1 1847 0
 1824 0002 1F28     		cmp	r0, #31
 1825 0004 00D9     		bls	.L141
 1826              	.LVL143:
 1827              	.LBB92:
ARM GAS  C:\Users\SNFU\AppData\Local\Temp\ccL8ejmf.s 			page 72


 1828              	.LBB93:
 1829              		.loc 1 1979 0
 1830              	@ 1979 ".\Generated_Source\PSoC4\CyLib.c" 1
 1831 0006 01BE     		    bkpt    1
 1832              	@ 0 "" 2
 1833              	.LVL144:
 1834              		.code	16
 1835              	.L141:
 1836              	.LBE93:
 1837              	.LBE92:
1849:.\Generated_Source\PSoC4/CyLib.c ****     priority = (uint8) (CY_INT_PRIORITY_REG(number) >> CY_INT_PRIORITY_SHIFT(number));
 1838              		.loc 1 1849 0
 1839 0008 8308     		lsr	r3, r0, #2
 1840 000a 064A     		ldr	r2, .L142
 1841 000c 9900     		lsl	r1, r3, #2
 1842 000e 8B18     		add	r3, r1, r2
 1843 0010 0322     		mov	r2, #3
 1844 0012 1040     		and	r0, r2
 1845              	.LVL145:
 1846 0014 1968     		ldr	r1, [r3]
 1847 0016 9040     		lsl	r0, r0, r2
 1848 0018 0630     		add	r0, r0, #6
 1849 001a C140     		lsr	r1, r1, r0
 1850 001c 081C     		mov	r0, r1
1851:.\Generated_Source\PSoC4/CyLib.c ****     return (priority & (uint8) CY_INT_PRIORITY_MASK);
 1851              		.loc 1 1851 0
 1852 001e 1040     		and	r0, r2
1852:.\Generated_Source\PSoC4/CyLib.c **** }
 1853              		.loc 1 1852 0
 1854              		@ sp needed for prologue
 1855 0020 00BD     		pop	{pc}
 1856              	.L143:
 1857 0022 C046     		.align	2
 1858              	.L142:
 1859 0024 00E400E0 		.word	-536812544
 1860              		.cfi_endproc
 1861              	.LFE38:
 1862              		.size	CyIntGetPriority, .-CyIntGetPriority
 1863              		.section	.text.CyIntEnable,"ax",%progbits
 1864              		.align	1
 1865              		.global	CyIntEnable
 1866              		.code	16
 1867              		.thumb_func
 1868              		.type	CyIntEnable, %function
 1869              	CyIntEnable:
 1870              	.LFB39:
1870:.\Generated_Source\PSoC4/CyLib.c **** {
 1871              		.loc 1 1870 0
 1872              		.cfi_startproc
 1873              	.LVL146:
1871:.\Generated_Source\PSoC4/CyLib.c ****     CY_INT_ENABLE_REG = ((uint32) 0x01u << (CY_INT_ENABLE_RANGE_MASK & number));
 1874              		.loc 1 1871 0
 1875 0000 1F23     		mov	r3, #31
 1876 0002 1840     		and	r0, r3
 1877              	.LVL147:
 1878 0004 024A     		ldr	r2, .L145
 1879 0006 0121     		mov	r1, #1
ARM GAS  C:\Users\SNFU\AppData\Local\Temp\ccL8ejmf.s 			page 73


 1880 0008 8140     		lsl	r1, r1, r0
 1881 000a 1160     		str	r1, [r2]
1872:.\Generated_Source\PSoC4/CyLib.c **** }
 1882              		.loc 1 1872 0
 1883              		@ sp needed for prologue
 1884 000c 7047     		bx	lr
 1885              	.L146:
 1886 000e C046     		.align	2
 1887              	.L145:
 1888 0010 00E100E0 		.word	-536813312
 1889              		.cfi_endproc
 1890              	.LFE39:
 1891              		.size	CyIntEnable, .-CyIntEnable
 1892              		.section	.text.CyIntGetState,"ax",%progbits
 1893              		.align	1
 1894              		.global	CyIntGetState
 1895              		.code	16
 1896              		.thumb_func
 1897              		.type	CyIntGetState, %function
 1898              	CyIntGetState:
 1899              	.LFB40:
1890:.\Generated_Source\PSoC4/CyLib.c **** {
 1900              		.loc 1 1890 0
 1901              		.cfi_startproc
 1902              	.LVL148:
1892:.\Generated_Source\PSoC4/CyLib.c ****     return ((0u != (CY_INT_ENABLE_REG & ((uint32) 0x01u << (CY_INT_ENABLE_RANGE_MASK & number)))) ?
 1903              		.loc 1 1892 0
 1904 0000 044B     		ldr	r3, .L148
 1905 0002 1F22     		mov	r2, #31
 1906 0004 1968     		ldr	r1, [r3]
 1907 0006 1040     		and	r0, r2
 1908              	.LVL149:
 1909 0008 C140     		lsr	r1, r1, r0
 1910 000a 081C     		mov	r0, r1
 1911 000c 0123     		mov	r3, #1
 1912 000e 1840     		and	r0, r3
1893:.\Generated_Source\PSoC4/CyLib.c **** }
 1913              		.loc 1 1893 0
 1914              		@ sp needed for prologue
 1915 0010 7047     		bx	lr
 1916              	.L149:
 1917 0012 C046     		.align	2
 1918              	.L148:
 1919 0014 00E100E0 		.word	-536813312
 1920              		.cfi_endproc
 1921              	.LFE40:
 1922              		.size	CyIntGetState, .-CyIntGetState
 1923              		.section	.text.CyIntDisable,"ax",%progbits
 1924              		.align	1
 1925              		.global	CyIntDisable
 1926              		.code	16
 1927              		.thumb_func
 1928              		.type	CyIntDisable, %function
 1929              	CyIntDisable:
 1930              	.LFB41:
1911:.\Generated_Source\PSoC4/CyLib.c **** {
 1931              		.loc 1 1911 0
ARM GAS  C:\Users\SNFU\AppData\Local\Temp\ccL8ejmf.s 			page 74


 1932              		.cfi_startproc
 1933              	.LVL150:
1912:.\Generated_Source\PSoC4/CyLib.c ****     CY_INT_CLEAR_REG = ((uint32) 0x01u << (CY_INT_ENABLE_RANGE_MASK & number));
 1934              		.loc 1 1912 0
 1935 0000 1F23     		mov	r3, #31
 1936 0002 1840     		and	r0, r3
 1937              	.LVL151:
 1938 0004 024A     		ldr	r2, .L151
 1939 0006 0121     		mov	r1, #1
 1940 0008 8140     		lsl	r1, r1, r0
 1941 000a 1160     		str	r1, [r2]
1913:.\Generated_Source\PSoC4/CyLib.c **** }
 1942              		.loc 1 1913 0
 1943              		@ sp needed for prologue
 1944 000c 7047     		bx	lr
 1945              	.L152:
 1946 000e C046     		.align	2
 1947              	.L151:
 1948 0010 80E100E0 		.word	-536813184
 1949              		.cfi_endproc
 1950              	.LFE41:
 1951              		.size	CyIntDisable, .-CyIntDisable
 1952              		.section	.text.CyIntSetPending,"ax",%progbits
 1953              		.align	1
 1954              		.global	CyIntSetPending
 1955              		.code	16
 1956              		.thumb_func
 1957              		.type	CyIntSetPending, %function
 1958              	CyIntSetPending:
 1959              	.LFB42:
1930:.\Generated_Source\PSoC4/CyLib.c **** {
 1960              		.loc 1 1930 0
 1961              		.cfi_startproc
 1962              	.LVL152:
1931:.\Generated_Source\PSoC4/CyLib.c ****     CY_INT_SET_PEND_REG = ((uint32) 0x01u << (CY_INT_ENABLE_RANGE_MASK & number));
 1963              		.loc 1 1931 0
 1964 0000 1F23     		mov	r3, #31
 1965 0002 1840     		and	r0, r3
 1966              	.LVL153:
 1967 0004 024A     		ldr	r2, .L154
 1968 0006 0121     		mov	r1, #1
 1969 0008 8140     		lsl	r1, r1, r0
 1970 000a 1160     		str	r1, [r2]
1932:.\Generated_Source\PSoC4/CyLib.c **** }
 1971              		.loc 1 1932 0
 1972              		@ sp needed for prologue
 1973 000c 7047     		bx	lr
 1974              	.L155:
 1975 000e C046     		.align	2
 1976              	.L154:
 1977 0010 00E200E0 		.word	-536813056
 1978              		.cfi_endproc
 1979              	.LFE42:
 1980              		.size	CyIntSetPending, .-CyIntSetPending
 1981              		.section	.text.CyIntClearPending,"ax",%progbits
 1982              		.align	1
 1983              		.global	CyIntClearPending
ARM GAS  C:\Users\SNFU\AppData\Local\Temp\ccL8ejmf.s 			page 75


 1984              		.code	16
 1985              		.thumb_func
 1986              		.type	CyIntClearPending, %function
 1987              	CyIntClearPending:
 1988              	.LFB43:
1950:.\Generated_Source\PSoC4/CyLib.c **** {
