ARM GAS  C:\Users\SNFU\AppData\Local\Temp\cc73kyWG.s 			page 1


   1              		.cpu cortex-m0
   2              		.fpu softvfp
   3              		.eabi_attribute 20, 1
   4              		.eabi_attribute 21, 1
   5              		.eabi_attribute 23, 3
   6              		.eabi_attribute 24, 1
   7              		.eabi_attribute 25, 1
   8              		.eabi_attribute 26, 1
   9              		.eabi_attribute 30, 6
  10              		.eabi_attribute 34, 0
  11              		.eabi_attribute 18, 4
  12              		.code	16
  13              		.file	"I2C.c"
  14              		.text
  15              	.Ltext0:
  16              		.cfi_sections	.debug_frame
  17              		.section	.text.I2C_SendStart,"ax",%progbits
  18              		.align	2
  19              		.global	I2C_SendStart
  20              		.code	16
  21              		.thumb_func
  22              		.type	I2C_SendStart, %function
  23              	I2C_SendStart:
  24              	.LFB33:
  25              		.file 1 ".\\I2C.c"
   1:.\I2C.c       **** /* ========================================
   2:.\I2C.c       ****  *
   3:.\I2C.c       ****  * Copyright YOUR COMPANY, THE YEAR
   4:.\I2C.c       ****  * All Rights Reserved
   5:.\I2C.c       ****  * UNPUBLISHED, LICENSED SOFTWARE.
   6:.\I2C.c       ****  *
   7:.\I2C.c       ****  * CONFIDENTIAL AND PROPRIETARY INFORMATION
   8:.\I2C.c       ****  * WHICH IS THE PROPERTY OF your company.
   9:.\I2C.c       ****  *
  10:.\I2C.c       ****  * ========================================
  11:.\I2C.c       **** */
  12:.\I2C.c       **** 
  13:.\I2C.c       **** #include <I2C.h>
  14:.\I2C.c       **** 
  15:.\I2C.c       **** void I2C_SendStart(void)
  16:.\I2C.c       **** {
  26              		.loc 1 16 0
  27              		.cfi_startproc
  28 0000 80B5     		push	{r7, lr}
  29              	.LCFI0:
  30              		.cfi_def_cfa_offset 8
  31              		.cfi_offset 7, -8
  32              		.cfi_offset 14, -4
  33 0002 00AF     		add	r7, sp, #0
  34              	.LCFI1:
  35              		.cfi_def_cfa_register 7
  17:.\I2C.c       ****             I2CM_I2C_MASTER_GENERATE_START;
  36              		.loc 1 17 0
  37 0004 024B     		ldr	r3, .L2
  38 0006 0222     		mov	r2, #2
  39 0008 1A60     		str	r2, [r3]
  18:.\I2C.c       **** }
ARM GAS  C:\Users\SNFU\AppData\Local\Temp\cc73kyWG.s 			page 2


  40              		.loc 1 18 0
  41 000a BD46     		mov	sp, r7
  42              		@ sp needed for prologue
  43 000c 80BD     		pop	{r7, pc}
  44              	.L3:
  45 000e C046     		.align	2
  46              	.L2:
  47 0010 68000740 		.word	1074200680
  48              		.cfi_endproc
  49              	.LFE33:
  50              		.size	I2C_SendStart, .-I2C_SendStart
  51              		.section	.text.I2C_WriteByte,"ax",%progbits
  52              		.align	2
  53              		.global	I2C_WriteByte
  54              		.code	16
  55              		.thumb_func
  56              		.type	I2C_WriteByte, %function
  57              	I2C_WriteByte:
  58              	.LFB34:
  19:.\I2C.c       **** 
  20:.\I2C.c       **** void I2C_WriteByte(uint8_t byte)
  21:.\I2C.c       **** {
  59              		.loc 1 21 0
  60              		.cfi_startproc
  61 0000 80B5     		push	{r7, lr}
  62              	.LCFI2:
  63              		.cfi_def_cfa_offset 8
  64              		.cfi_offset 7, -8
  65              		.cfi_offset 14, -4
  66 0002 82B0     		sub	sp, sp, #8
  67              	.LCFI3:
  68              		.cfi_def_cfa_offset 16
  69 0004 00AF     		add	r7, sp, #0
  70              	.LCFI4:
  71              		.cfi_def_cfa_register 7
  72 0006 021C     		mov	r2, r0
  73 0008 FB1D     		add	r3, r7, #7
  74 000a 1A70     		strb	r2, [r3]
  22:.\I2C.c       ****         I2CM_TX_FIFO_WR_REG = byte;
  75              		.loc 1 22 0
  76 000c 064B     		ldr	r3, .L6
  77 000e FA1D     		add	r2, r7, #7
  78 0010 1278     		ldrb	r2, [r2]
  79 0012 1A60     		str	r2, [r3]
  23:.\I2C.c       **** 
  24:.\I2C.c       ****         while(!I2CM_CHECK_INTR_MASTER(I2CM_INTR_MASTER_I2C_ACK      |
  80              		.loc 1 24 0
  81 0014 C046     		mov	r8, r8
  82              	.L5:
  83              		.loc 1 24 0 is_stmt 0 discriminator 1
  84 0016 054B     		ldr	r3, .L6+4
  85 0018 1A68     		ldr	r2, [r3]
  86 001a 054B     		ldr	r3, .L6+8
  87 001c 1340     		and	r3, r2
  88 001e FAD0     		beq	.L5
  25:.\I2C.c       ****                                                   I2CM_INTR_MASTER_I2C_NACK     |
  26:.\I2C.c       ****                                                   I2CM_INTR_MASTER_I2C_ARB_LOST |
ARM GAS  C:\Users\SNFU\AppData\Local\Temp\cc73kyWG.s 			page 3


  27:.\I2C.c       ****                                                   I2CM_INTR_MASTER_I2C_BUS_ERROR))
  28:.\I2C.c       ****         {
  29:.\I2C.c       ****             /* Wait until byte has been transferred */
  30:.\I2C.c       ****         }
  31:.\I2C.c       **** }
  89              		.loc 1 31 0 is_stmt 1
  90 0020 BD46     		mov	sp, r7
  91 0022 02B0     		add	sp, sp, #8
  92              		@ sp needed for prologue
  93 0024 80BD     		pop	{r7, pc}
  94              	.L7:
  95 0026 C046     		.align	2
  96              	.L6:
  97 0028 40020740 		.word	1074201152
  98 002c 000F0740 		.word	1074204416
  99 0030 07010000 		.word	263
 100              		.cfi_endproc
 101              	.LFE34:
 102              		.size	I2C_WriteByte, .-I2C_WriteByte
 103              		.section	.text.I2C_SendReStart,"ax",%progbits
 104              		.align	2
 105              		.global	I2C_SendReStart
 106              		.code	16
 107              		.thumb_func
 108              		.type	I2C_SendReStart, %function
 109              	I2C_SendReStart:
 110              	.LFB35:
  32:.\I2C.c       **** 
  33:.\I2C.c       **** void I2C_SendReStart(void)
  34:.\I2C.c       **** {
 111              		.loc 1 34 0
 112              		.cfi_startproc
 113 0000 80B5     		push	{r7, lr}
 114              	.LCFI5:
 115              		.cfi_def_cfa_offset 8
 116              		.cfi_offset 7, -8
 117              		.cfi_offset 14, -4
 118 0002 00AF     		add	r7, sp, #0
 119              	.LCFI6:
 120              		.cfi_def_cfa_register 7
  35:.\I2C.c       ****         I2CM_I2C_MASTER_GENERATE_RESTART;
 121              		.loc 1 35 0
 122 0004 FFF7FEFF 		bl	I2CM_I2CReStartGeneration
  36:.\I2C.c       **** 
  37:.\I2C.c       ****         while(I2CM_CHECK_I2C_MASTER_CMD(I2CM_I2C_MASTER_CMD_M_START))
 123              		.loc 1 37 0
 124 0008 C046     		mov	r8, r8
 125              	.L9:
 126              		.loc 1 37 0 is_stmt 0 discriminator 1
 127 000a 034B     		ldr	r3, .L10
 128 000c 1A68     		ldr	r2, [r3]
 129 000e 0123     		mov	r3, #1
 130 0010 1340     		and	r3, r2
 131 0012 FAD1     		bne	.L9
  38:.\I2C.c       ****         {
  39:.\I2C.c       ****             /* Wait until ReStart has been generated */
  40:.\I2C.c       ****         }
ARM GAS  C:\Users\SNFU\AppData\Local\Temp\cc73kyWG.s 			page 4


  41:.\I2C.c       **** }
 132              		.loc 1 41 0 is_stmt 1
 133 0014 BD46     		mov	sp, r7
 134              		@ sp needed for prologue
 135 0016 80BD     		pop	{r7, pc}
 136              	.L11:
 137              		.align	2
 138              	.L10:
 139 0018 68000740 		.word	1074200680
 140              		.cfi_endproc
 141              	.LFE35:
 142              		.size	I2C_SendReStart, .-I2C_SendReStart
 143              		.section	.text.I2C_SendStop,"ax",%progbits
 144              		.align	2
 145              		.global	I2C_SendStop
 146              		.code	16
 147              		.thumb_func
 148              		.type	I2C_SendStop, %function
 149              	I2C_SendStop:
 150              	.LFB36:
  42:.\I2C.c       **** 
  43:.\I2C.c       **** void I2C_SendStop(void)
  44:.\I2C.c       **** {
 151              		.loc 1 44 0
 152              		.cfi_startproc
 153 0000 80B5     		push	{r7, lr}
 154              	.LCFI7:
 155              		.cfi_def_cfa_offset 8
 156              		.cfi_offset 7, -8
 157              		.cfi_offset 14, -4
 158 0002 00AF     		add	r7, sp, #0
 159              	.LCFI8:
 160              		.cfi_def_cfa_register 7
  45:.\I2C.c       ****         I2CM_I2C_MASTER_GENERATE_STOP;
 161              		.loc 1 45 0
 162 0004 084B     		ldr	r3, .L16
 163 0006 094A     		ldr	r2, .L16+4
 164 0008 1168     		ldr	r1, [r2]
 165 000a 2022     		mov	r2, #32
 166 000c 0A40     		and	r2, r1
 167 000e 01D0     		beq	.L13
 168              		.loc 1 45 0 is_stmt 0 discriminator 1
 169 0010 1822     		mov	r2, #24
 170 0012 00E0     		b	.L14
 171              	.L13:
 172              		.loc 1 45 0 discriminator 2
 173 0014 1022     		mov	r2, #16
 174              	.L14:
 175              		.loc 1 45 0 discriminator 3
 176 0016 1A60     		str	r2, [r3]
  46:.\I2C.c       **** 
  47:.\I2C.c       ****         while(!I2CM_CHECK_INTR_MASTER(I2CM_INTR_MASTER_I2C_STOP     |
 177              		.loc 1 47 0 is_stmt 1
 178 0018 C046     		mov	r8, r8
 179              	.L15:
 180              		.loc 1 47 0 is_stmt 0 discriminator 1
 181 001a 054B     		ldr	r3, .L16+8
ARM GAS  C:\Users\SNFU\AppData\Local\Temp\cc73kyWG.s 			page 5


 182 001c 1A68     		ldr	r2, [r3]
 183 001e 054B     		ldr	r3, .L16+12
 184 0020 1340     		and	r3, r2
 185 0022 FAD0     		beq	.L15
  48:.\I2C.c       ****                                                   I2CM_INTR_MASTER_I2C_ARB_LOST |
  49:.\I2C.c       ****                                                   I2CM_INTR_MASTER_I2C_BUS_ERROR))
  50:.\I2C.c       ****         {
  51:.\I2C.c       ****             /* Wait until Stop has been generated */
  52:.\I2C.c       ****         }
  53:.\I2C.c       **** }
 186              		.loc 1 53 0 is_stmt 1
 187 0024 BD46     		mov	sp, r7
 188              		@ sp needed for prologue
 189 0026 80BD     		pop	{r7, pc}
 190              	.L17:
 191              		.align	2
 192              	.L16:
 193 0028 68000740 		.word	1074200680
 194 002c 64000740 		.word	1074200676
 195 0030 000F0740 		.word	1074204416
 196 0034 11010000 		.word	273
 197              		.cfi_endproc
 198              	.LFE36:
 199              		.size	I2C_SendStop, .-I2C_SendStop
 200              		.section	.text.I2C_SendStart_Orig,"ax",%progbits
 201              		.align	2
 202              		.global	I2C_SendStart_Orig
 203              		.code	16
 204              		.thumb_func
 205              		.type	I2C_SendStart_Orig, %function
 206              	I2C_SendStart_Orig:
 207              	.LFB37:
  54:.\I2C.c       **** 
  55:.\I2C.c       **** 
  56:.\I2C.c       **** 
  57:.\I2C.c       **** uint32 I2C_SendStart_Orig(uint8_t slaveAddress, uint8_t bitRnW)
  58:.\I2C.c       **** {
 208              		.loc 1 58 0
 209              		.cfi_startproc
 210 0000 80B5     		push	{r7, lr}
 211              	.LCFI9:
 212              		.cfi_def_cfa_offset 8
 213              		.cfi_offset 7, -8
 214              		.cfi_offset 14, -4
 215 0002 84B0     		sub	sp, sp, #16
 216              	.LCFI10:
 217              		.cfi_def_cfa_offset 24
 218 0004 00AF     		add	r7, sp, #0
 219              	.LCFI11:
 220              		.cfi_def_cfa_register 7
 221 0006 0A1C     		mov	r2, r1
 222 0008 FB1D     		add	r3, r7, #7
 223 000a 011C     		add	r1, r0, #0
 224 000c 1970     		strb	r1, [r3]
 225 000e BB1D     		add	r3, r7, #6
 226 0010 1A70     		strb	r2, [r3]
  59:.\I2C.c       ****     uint32  resetIp;
ARM GAS  C:\Users\SNFU\AppData\Local\Temp\cc73kyWG.s 			page 6


  60:.\I2C.c       ****     uint32 errStatus;
  61:.\I2C.c       **** 
  62:.\I2C.c       ****     resetIp   = 0u;
 227              		.loc 1 62 0
 228 0012 0023     		mov	r3, #0
 229 0014 FB60     		str	r3, [r7, #12]
  63:.\I2C.c       ****     errStatus = I2CM_I2C_MSTR_NOT_READY;
 230              		.loc 1 63 0
 231 0016 0423     		mov	r3, #4
 232 0018 BB60     		str	r3, [r7, #8]
  64:.\I2C.c       **** 
  65:.\I2C.c       ****     /* Check FSM state before generating Start condition */
  66:.\I2C.c       ****     if(I2CM_CHECK_I2C_FSM_IDLE)
 233              		.loc 1 66 0
 234 001a 384B     		ldr	r3, .L29
 235 001c 1B78     		ldrb	r3, [r3]
 236 001e DBB2     		uxtb	r3, r3
 237 0020 102B     		cmp	r3, #16
 238 0022 66D1     		bne	.L19
  67:.\I2C.c       ****     {
  68:.\I2C.c       ****         /* If bus is free, generate Start condition */
  69:.\I2C.c       ****         if(I2CM_CHECK_I2C_STATUS(I2CM_I2C_STATUS_BUS_BUSY))
 239              		.loc 1 69 0
 240 0024 364B     		ldr	r3, .L29+4
 241 0026 1A68     		ldr	r2, [r3]
 242 0028 0123     		mov	r3, #1
 243 002a 1340     		and	r3, r2
 244 002c 02D0     		beq	.L20
  70:.\I2C.c       ****         {
  71:.\I2C.c       ****             errStatus = I2CM_I2C_MSTR_BUS_BUSY;
 245              		.loc 1 71 0
 246 002e 0823     		mov	r3, #8
 247 0030 BB60     		str	r3, [r7, #8]
 248 0032 5EE0     		b	.L19
 249              	.L20:
  72:.\I2C.c       ****         }
  73:.\I2C.c       ****         else
  74:.\I2C.c       ****         {
  75:.\I2C.c       **** 
  76:.\I2C.c       ****             //slaveAddress = I2CM_GET_I2C_8BIT_ADDRESS(slaveAddress);
  77:.\I2C.c       **** 
  78:.\I2C.c       ****             if(0u == bitRnW) /* Write direction */
 250              		.loc 1 78 0
 251 0034 BB1D     		add	r3, r7, #6
 252 0036 1B78     		ldrb	r3, [r3]
 253 0038 002B     		cmp	r3, #0
 254 003a 08D1     		bne	.L21
  79:.\I2C.c       ****             {
  80:.\I2C.c       ****                 slaveAddress = (slaveAddress << 1); 
 255              		.loc 1 80 0
 256 003c FB1D     		add	r3, r7, #7
 257 003e FA1D     		add	r2, r7, #7
 258 0040 1278     		ldrb	r2, [r2]
 259 0042 5200     		lsl	r2, r2, #1
 260 0044 1A70     		strb	r2, [r3]
  81:.\I2C.c       ****                 I2CM_state = I2CM_I2C_FSM_MSTR_WR_DATA;
 261              		.loc 1 81 0
ARM GAS  C:\Users\SNFU\AppData\Local\Temp\cc73kyWG.s 			page 7


 262 0046 2D4B     		ldr	r3, .L29
 263 0048 2422     		mov	r2, #36
 264 004a 1A70     		strb	r2, [r3]
 265 004c 09E0     		b	.L22
 266              	.L21:
  82:.\I2C.c       ****                 
  83:.\I2C.c       ****             }
  84:.\I2C.c       ****             else /* Read direction */
  85:.\I2C.c       ****             {
  86:.\I2C.c       ****                 slaveAddress = (slaveAddress << 1)+ 0b1;
 267              		.loc 1 86 0
 268 004e FB1D     		add	r3, r7, #7
 269 0050 1B78     		ldrb	r3, [r3]
 270 0052 5B00     		lsl	r3, r3, #1
 271 0054 DAB2     		uxtb	r2, r3
 272 0056 FB1D     		add	r3, r7, #7
 273 0058 0132     		add	r2, r2, #1
 274 005a 1A70     		strb	r2, [r3]
  87:.\I2C.c       ****                 I2CM_state = I2CM_I2C_FSM_MSTR_RD_DATA;
 275              		.loc 1 87 0
 276 005c 274B     		ldr	r3, .L29
 277 005e 2522     		mov	r2, #37
 278 0060 1A70     		strb	r2, [r3]
 279              	.L22:
  88:.\I2C.c       ****                 
  89:.\I2C.c       ****             }
  90:.\I2C.c       **** 
  91:.\I2C.c       ****             /* The TX and RX FIFO have to be EMPTY */
  92:.\I2C.c       **** 
  93:.\I2C.c       ****             I2CM_TX_FIFO_WR_REG = slaveAddress; /* Put address in TX FIFO */
 280              		.loc 1 93 0
 281 0062 284B     		ldr	r3, .L29+8
 282 0064 FA1D     		add	r2, r7, #7
 283 0066 1278     		ldrb	r2, [r2]
 284 0068 1A60     		str	r2, [r3]
  94:.\I2C.c       ****             I2CM_ClearMasterInterruptSource(I2CM_INTR_MASTER_ALL);
 285              		.loc 1 94 0
 286 006a 274B     		ldr	r3, .L29+12
 287 006c 274A     		ldr	r2, .L29+16
 288 006e 1A60     		str	r2, [r3]
  95:.\I2C.c       **** 
  96:.\I2C.c       ****             I2CM_I2C_MASTER_GENERATE_START;
 289              		.loc 1 96 0
 290 0070 274B     		ldr	r3, .L29+20
 291 0072 0222     		mov	r2, #2
 292 0074 1A60     		str	r2, [r3]
  97:.\I2C.c       **** 
  98:.\I2C.c       **** 
  99:.\I2C.c       ****             while(!I2CM_CHECK_INTR_MASTER(I2CM_INTR_MASTER_I2C_ACK      |
 293              		.loc 1 99 0
 294 0076 C046     		mov	r8, r8
 295              	.L23:
 296              		.loc 1 99 0 is_stmt 0 discriminator 1
 297 0078 234B     		ldr	r3, .L29+12
 298 007a 1A68     		ldr	r2, [r3]
 299 007c 254B     		ldr	r3, .L29+24
 300 007e 1340     		and	r3, r2
ARM GAS  C:\Users\SNFU\AppData\Local\Temp\cc73kyWG.s 			page 8


 301 0080 FAD0     		beq	.L23
 100:.\I2C.c       ****                                                       I2CM_INTR_MASTER_I2C_NACK     |
 101:.\I2C.c       ****                                                       I2CM_INTR_MASTER_I2C_ARB_LOST |
 102:.\I2C.c       ****                                                       I2CM_INTR_MASTER_I2C_BUS_ERROR))
 103:.\I2C.c       ****             {
 104:.\I2C.c       ****                 /*
 105:.\I2C.c       ****                 * Write: wait until address has been transferred
 106:.\I2C.c       ****                 * Read : wait until address has been transferred, data byte is going to RX FIFO as 
 107:.\I2C.c       ****                 */
 108:.\I2C.c       ****             }
 109:.\I2C.c       **** 
 110:.\I2C.c       ****             /* Check the results of the address phase */
 111:.\I2C.c       ****             if(I2CM_CHECK_INTR_MASTER(I2CM_INTR_MASTER_I2C_ACK))
 302              		.loc 1 111 0 is_stmt 1
 303 0082 214B     		ldr	r3, .L29+12
 304 0084 1A68     		ldr	r2, [r3]
 305 0086 0423     		mov	r3, #4
 306 0088 1340     		and	r3, r2
 307 008a 02D0     		beq	.L24
 112:.\I2C.c       ****             {
 113:.\I2C.c       ****                 errStatus = I2CM_I2C_MSTR_NO_ERROR;
 308              		.loc 1 113 0
 309 008c 0023     		mov	r3, #0
 310 008e BB60     		str	r3, [r7, #8]
 311 0090 1CE0     		b	.L25
 312              	.L24:
 114:.\I2C.c       ****             }
 115:.\I2C.c       ****             else if(I2CM_CHECK_INTR_MASTER(I2CM_INTR_MASTER_I2C_NACK))
 313              		.loc 1 115 0
 314 0092 1D4B     		ldr	r3, .L29+12
 315 0094 1A68     		ldr	r2, [r3]
 316 0096 0223     		mov	r3, #2
 317 0098 1340     		and	r3, r2
 318 009a 02D0     		beq	.L26
 116:.\I2C.c       ****             {
 117:.\I2C.c       ****                 errStatus = I2CM_I2C_MSTR_ERR_LB_NAK;
 319              		.loc 1 117 0
 320 009c 0223     		mov	r3, #2
 321 009e BB60     		str	r3, [r7, #8]
 322 00a0 14E0     		b	.L25
 323              	.L26:
 118:.\I2C.c       ****             }
 119:.\I2C.c       ****             else if(I2CM_CHECK_INTR_MASTER(I2CM_INTR_MASTER_I2C_ARB_LOST))
 324              		.loc 1 119 0
 325 00a2 194B     		ldr	r3, .L29+12
 326 00a4 1A68     		ldr	r2, [r3]
 327 00a6 0123     		mov	r3, #1
 328 00a8 1340     		and	r3, r2
 329 00aa 07D0     		beq	.L27
 120:.\I2C.c       ****             {
 121:.\I2C.c       ****                 I2CM_state = I2CM_I2C_FSM_IDLE;
 330              		.loc 1 121 0
 331 00ac 134B     		ldr	r3, .L29
 332 00ae 1022     		mov	r2, #16
 333 00b0 1A70     		strb	r2, [r3]
 122:.\I2C.c       ****                              errStatus = I2CM_I2C_MSTR_ERR_ARB_LOST;
 334              		.loc 1 122 0
ARM GAS  C:\Users\SNFU\AppData\Local\Temp\cc73kyWG.s 			page 9


 335 00b2 0123     		mov	r3, #1
 336 00b4 BB60     		str	r3, [r7, #8]
 123:.\I2C.c       ****                              resetIp   = I2CM_I2C_RESET_ERROR;
 337              		.loc 1 123 0
 338 00b6 0123     		mov	r3, #1
 339 00b8 FB60     		str	r3, [r7, #12]
 340 00ba 07E0     		b	.L25
 341              	.L27:
 124:.\I2C.c       ****             }
 125:.\I2C.c       ****             else /* I2CM_INTR_MASTER_I2C_BUS_ERROR set is else condition */
 126:.\I2C.c       ****             {
 127:.\I2C.c       ****                 I2CM_state = I2CM_I2C_FSM_IDLE;
 342              		.loc 1 127 0
 343 00bc 0F4B     		ldr	r3, .L29
 344 00be 1022     		mov	r2, #16
 345 00c0 1A70     		strb	r2, [r3]
 128:.\I2C.c       ****                              errStatus = I2CM_I2C_MSTR_ERR_BUS_ERR;
 346              		.loc 1 128 0
 347 00c2 8023     		mov	r3, #128
 348 00c4 5B00     		lsl	r3, r3, #1
 349 00c6 BB60     		str	r3, [r7, #8]
 129:.\I2C.c       ****                              resetIp   = I2CM_I2C_RESET_ERROR;
 350              		.loc 1 129 0
 351 00c8 0123     		mov	r3, #1
 352 00ca FB60     		str	r3, [r7, #12]
 353              	.L25:
 130:.\I2C.c       ****             }
 131:.\I2C.c       **** 
 132:.\I2C.c       ****             I2CM_ClearMasterInterruptSource(I2CM_INTR_MASTER_I2C_ACK      |
 354              		.loc 1 132 0
 355 00cc 0E4B     		ldr	r3, .L29+12
 356 00ce 114A     		ldr	r2, .L29+24
 357 00d0 1A60     		str	r2, [r3]
 133:.\I2C.c       ****                                                         I2CM_INTR_MASTER_I2C_NACK     |
 134:.\I2C.c       ****                                                         I2CM_INTR_MASTER_I2C_ARB_LOST |
 135:.\I2C.c       ****                                                         I2CM_INTR_MASTER_I2C_BUS_ERROR);
 136:.\I2C.c       **** 
 137:.\I2C.c       ****             /* Reset block in case of: LOST_ARB or BUS_ERR */
 138:.\I2C.c       ****             if(0u != resetIp)
 358              		.loc 1 138 0
 359 00d2 FB68     		ldr	r3, [r7, #12]
 360 00d4 002B     		cmp	r3, #0
 361 00d6 0CD0     		beq	.L19
 139:.\I2C.c       ****             {
 140:.\I2C.c       ****                 I2CM_SCB_SW_RESET;
 362              		.loc 1 140 0
 363 00d8 0F4B     		ldr	r3, .L29+28
 364 00da 0F4A     		ldr	r2, .L29+28
 365 00dc 1268     		ldr	r2, [r2]
 366 00de 5200     		lsl	r2, r2, #1
 367 00e0 5208     		lsr	r2, r2, #1
 368 00e2 1A60     		str	r2, [r3]
 369 00e4 0C4B     		ldr	r3, .L29+28
 370 00e6 0C4A     		ldr	r2, .L29+28
 371 00e8 1268     		ldr	r2, [r2]
 372 00ea 8021     		mov	r1, #128
 373 00ec 0906     		lsl	r1, r1, #24
ARM GAS  C:\Users\SNFU\AppData\Local\Temp\cc73kyWG.s 			page 10


 374 00ee 0A43     		orr	r2, r1
 375 00f0 1A60     		str	r2, [r3]
 376              	.L19:
 141:.\I2C.c       ****             }
 142:.\I2C.c       ****         }
 143:.\I2C.c       ****     }
 144:.\I2C.c       **** 
 145:.\I2C.c       ****     return(errStatus);
 377              		.loc 1 145 0
 378 00f2 BB68     		ldr	r3, [r7, #8]
 146:.\I2C.c       **** }
 379              		.loc 1 146 0
 380 00f4 181C     		mov	r0, r3
 381 00f6 BD46     		mov	sp, r7
 382 00f8 04B0     		add	sp, sp, #16
 383              		@ sp needed for prologue
 384 00fa 80BD     		pop	{r7, pc}
 385              	.L30:
 386              		.align	2
 387              	.L29:
 388 00fc 00000000 		.word	I2CM_state
 389 0100 64000740 		.word	1074200676
 390 0104 40020740 		.word	1074201152
 391 0108 000F0740 		.word	1074204416
 392 010c 17030000 		.word	791
 393 0110 68000740 		.word	1074200680
 394 0114 07010000 		.word	263
 395 0118 00000740 		.word	1074200576
 396              		.cfi_endproc
 397              	.LFE37:
 398              		.size	I2C_SendStart_Orig, .-I2C_SendStart_Orig
 399              		.text
 400              	.Letext0:
 401              		.file 2 "c:\\program files\\cypress\\psoc creator\\3.0\\psoc creator\\import\\gnu_cs\\arm\\4.7.3\\
 402              		.file 3 "./Generated_Source/PSoC4/cytypes.h"
 403              		.file 4 "./Generated_Source/PSoC4/I2CM_I2C_PVT.h"