ARM GAS  C:\Users\SNFU\AppData\Local\Temp\ccWz7PgS.s 			page 1


   1              		.cpu cortex-m0
   2              		.fpu softvfp
   3              		.eabi_attribute 20, 1
   4              		.eabi_attribute 21, 1
   5              		.eabi_attribute 23, 3
   6              		.eabi_attribute 24, 1
   7              		.eabi_attribute 25, 1
   8              		.eabi_attribute 26, 1
   9              		.eabi_attribute 30, 4
  10              		.eabi_attribute 34, 0
  11              		.eabi_attribute 18, 4
  12              		.code	16
  13              		.file	"I2CM_I2C.c"
  14              		.text
  15              	.Ltext0:
  16              		.cfi_sections	.debug_frame
  17              		.section	.text.I2CM_I2CInit,"ax",%progbits
  18              		.align	1
  19              		.global	I2CM_I2CInit
  20              		.code	16
  21              		.thumb_func
  22              		.type	I2CM_I2CInit, %function
  23              	I2CM_I2CInit:
  24              	.LFB0:
  25              		.file 1 ".\\Generated_Source\\PSoC4\\I2CM_I2C.c"
   1:.\Generated_Source\PSoC4/I2CM_I2C.c **** /*******************************************************************************
   2:.\Generated_Source\PSoC4/I2CM_I2C.c **** * File Name: I2CM_I2C.c
   3:.\Generated_Source\PSoC4/I2CM_I2C.c **** * Version 1.20
   4:.\Generated_Source\PSoC4/I2CM_I2C.c **** *
   5:.\Generated_Source\PSoC4/I2CM_I2C.c **** * Description:
   6:.\Generated_Source\PSoC4/I2CM_I2C.c **** *  This file provides the source code to the API for the SCB Component in
   7:.\Generated_Source\PSoC4/I2CM_I2C.c **** *  I2C mode.
   8:.\Generated_Source\PSoC4/I2CM_I2C.c **** *
   9:.\Generated_Source\PSoC4/I2CM_I2C.c **** * Note:
  10:.\Generated_Source\PSoC4/I2CM_I2C.c **** *
  11:.\Generated_Source\PSoC4/I2CM_I2C.c **** *******************************************************************************
  12:.\Generated_Source\PSoC4/I2CM_I2C.c **** * Copyright 2013-2014, Cypress Semiconductor Corporation.  All rights reserved.
  13:.\Generated_Source\PSoC4/I2CM_I2C.c **** * You may use this file only in accordance with the license, terms, conditions,
  14:.\Generated_Source\PSoC4/I2CM_I2C.c **** * disclaimers, and limitations in the end user license agreement accompanying
  15:.\Generated_Source\PSoC4/I2CM_I2C.c **** * the software package with which this file was provided.
  16:.\Generated_Source\PSoC4/I2CM_I2C.c **** *******************************************************************************/
  17:.\Generated_Source\PSoC4/I2CM_I2C.c **** 
  18:.\Generated_Source\PSoC4/I2CM_I2C.c **** #include "I2CM_PVT.h"
  19:.\Generated_Source\PSoC4/I2CM_I2C.c **** #include "I2CM_I2C_PVT.h"
  20:.\Generated_Source\PSoC4/I2CM_I2C.c **** 
  21:.\Generated_Source\PSoC4/I2CM_I2C.c **** 
  22:.\Generated_Source\PSoC4/I2CM_I2C.c **** /***************************************
  23:.\Generated_Source\PSoC4/I2CM_I2C.c **** *      I2C Private Vars
  24:.\Generated_Source\PSoC4/I2CM_I2C.c **** ***************************************/
  25:.\Generated_Source\PSoC4/I2CM_I2C.c **** 
  26:.\Generated_Source\PSoC4/I2CM_I2C.c **** volatile uint8 I2CM_state;  /* Current state of I2C FSM */
  27:.\Generated_Source\PSoC4/I2CM_I2C.c **** 
  28:.\Generated_Source\PSoC4/I2CM_I2C.c **** 
  29:.\Generated_Source\PSoC4/I2CM_I2C.c **** #if(I2CM_SCB_MODE_UNCONFIG_CONST_CFG)
  30:.\Generated_Source\PSoC4/I2CM_I2C.c **** 
  31:.\Generated_Source\PSoC4/I2CM_I2C.c ****     /***************************************
  32:.\Generated_Source\PSoC4/I2CM_I2C.c ****     *  Config Structure Initialization
ARM GAS  C:\Users\SNFU\AppData\Local\Temp\ccWz7PgS.s 			page 2


  33:.\Generated_Source\PSoC4/I2CM_I2C.c ****     ***************************************/
  34:.\Generated_Source\PSoC4/I2CM_I2C.c **** 
  35:.\Generated_Source\PSoC4/I2CM_I2C.c ****     /* Constant configuration of I2C */
  36:.\Generated_Source\PSoC4/I2CM_I2C.c ****     const I2CM_I2C_INIT_STRUCT I2CM_configI2C =
  37:.\Generated_Source\PSoC4/I2CM_I2C.c ****     {
  38:.\Generated_Source\PSoC4/I2CM_I2C.c ****         I2CM_I2C_MODE,
  39:.\Generated_Source\PSoC4/I2CM_I2C.c ****         I2CM_I2C_OVS_FACTOR_LOW,
  40:.\Generated_Source\PSoC4/I2CM_I2C.c ****         I2CM_I2C_OVS_FACTOR_HIGH,
  41:.\Generated_Source\PSoC4/I2CM_I2C.c ****         I2CM_I2C_MEDIAN_FILTER_ENABLE,
  42:.\Generated_Source\PSoC4/I2CM_I2C.c ****         I2CM_I2C_SLAVE_ADDRESS,
  43:.\Generated_Source\PSoC4/I2CM_I2C.c ****         I2CM_I2C_SLAVE_ADDRESS_MASK,
  44:.\Generated_Source\PSoC4/I2CM_I2C.c ****         I2CM_I2C_ACCEPT_ADDRESS,
  45:.\Generated_Source\PSoC4/I2CM_I2C.c ****         I2CM_I2C_WAKE_ENABLE
  46:.\Generated_Source\PSoC4/I2CM_I2C.c ****     };
  47:.\Generated_Source\PSoC4/I2CM_I2C.c **** 
  48:.\Generated_Source\PSoC4/I2CM_I2C.c ****     /*******************************************************************************
  49:.\Generated_Source\PSoC4/I2CM_I2C.c ****     * Function Name: I2CM_I2CInit
  50:.\Generated_Source\PSoC4/I2CM_I2C.c ****     ********************************************************************************
  51:.\Generated_Source\PSoC4/I2CM_I2C.c ****     *
  52:.\Generated_Source\PSoC4/I2CM_I2C.c ****     * Summary:
  53:.\Generated_Source\PSoC4/I2CM_I2C.c ****     *  Configures the SCB for I2C operation.
  54:.\Generated_Source\PSoC4/I2CM_I2C.c ****     *
  55:.\Generated_Source\PSoC4/I2CM_I2C.c ****     * Parameters:
  56:.\Generated_Source\PSoC4/I2CM_I2C.c ****     *  config:  Pointer to a structure that contains the following ordered list of
  57:.\Generated_Source\PSoC4/I2CM_I2C.c ****     *           fields. These fields match the selections available in the
  58:.\Generated_Source\PSoC4/I2CM_I2C.c ****     *           customizer.
  59:.\Generated_Source\PSoC4/I2CM_I2C.c ****     *
  60:.\Generated_Source\PSoC4/I2CM_I2C.c ****     * Return:
  61:.\Generated_Source\PSoC4/I2CM_I2C.c ****     *  None
  62:.\Generated_Source\PSoC4/I2CM_I2C.c ****     *
  63:.\Generated_Source\PSoC4/I2CM_I2C.c ****     *******************************************************************************/
  64:.\Generated_Source\PSoC4/I2CM_I2C.c ****     void I2CM_I2CInit(const I2CM_I2C_INIT_STRUCT *config)
  65:.\Generated_Source\PSoC4/I2CM_I2C.c ****     {
  66:.\Generated_Source\PSoC4/I2CM_I2C.c ****         if(NULL == config)
  67:.\Generated_Source\PSoC4/I2CM_I2C.c ****         {
  68:.\Generated_Source\PSoC4/I2CM_I2C.c ****             CYASSERT(0u != 0u); /* Halt execution due bad function parameter */
  69:.\Generated_Source\PSoC4/I2CM_I2C.c ****         }
  70:.\Generated_Source\PSoC4/I2CM_I2C.c ****         else
  71:.\Generated_Source\PSoC4/I2CM_I2C.c ****         {
  72:.\Generated_Source\PSoC4/I2CM_I2C.c ****             /* Configure pins */
  73:.\Generated_Source\PSoC4/I2CM_I2C.c ****             I2CM_SetPins(I2CM_SCB_MODE_I2C, I2CM_DUMMY_PARAM,
  74:.\Generated_Source\PSoC4/I2CM_I2C.c ****                                                                     I2CM_DUMMY_PARAM);
  75:.\Generated_Source\PSoC4/I2CM_I2C.c **** 
  76:.\Generated_Source\PSoC4/I2CM_I2C.c ****             /* Store internal configuration */
  77:.\Generated_Source\PSoC4/I2CM_I2C.c ****             I2CM_scbMode       = (uint8) I2CM_SCB_MODE_I2C;
  78:.\Generated_Source\PSoC4/I2CM_I2C.c ****             I2CM_scbEnableWake = (uint8) config->enableWake;
  79:.\Generated_Source\PSoC4/I2CM_I2C.c ****             I2CM_scbEnableIntr = (uint8) I2CM_SCB_IRQ_INTERNAL;
  80:.\Generated_Source\PSoC4/I2CM_I2C.c **** 
  81:.\Generated_Source\PSoC4/I2CM_I2C.c ****             I2CM_mode          = (uint8) config->mode;
  82:.\Generated_Source\PSoC4/I2CM_I2C.c ****             I2CM_acceptAddr    = (uint8) config->acceptAddr;
  83:.\Generated_Source\PSoC4/I2CM_I2C.c **** 
  84:.\Generated_Source\PSoC4/I2CM_I2C.c ****             /* Configure I2C interface */
  85:.\Generated_Source\PSoC4/I2CM_I2C.c ****             I2CM_CTRL_REG     = I2CM_GET_CTRL_ADDR_ACCEPT(config->acceptAddr) |
  86:.\Generated_Source\PSoC4/I2CM_I2C.c ****                                             I2CM_GET_CTRL_EC_AM_MODE (config->enableWake);
  87:.\Generated_Source\PSoC4/I2CM_I2C.c **** 
  88:.\Generated_Source\PSoC4/I2CM_I2C.c ****             I2CM_I2C_CTRL_REG = I2CM_GET_I2C_CTRL_HIGH_PHASE_OVS(config->oversampleHigh) |
  89:.\Generated_Source\PSoC4/I2CM_I2C.c ****                                             I2CM_GET_I2C_CTRL_LOW_PHASE_OVS (config->oversampleLow)
ARM GAS  C:\Users\SNFU\AppData\Local\Temp\ccWz7PgS.s 			page 3


  90:.\Generated_Source\PSoC4/I2CM_I2C.c ****                                             I2CM_GET_I2C_CTRL_SL_MSTR_MODE  (config->mode)         
  91:.\Generated_Source\PSoC4/I2CM_I2C.c ****                                             I2CM_I2C_CTRL;
  92:.\Generated_Source\PSoC4/I2CM_I2C.c **** 
  93:.\Generated_Source\PSoC4/I2CM_I2C.c ****         #if(I2CM_CY_SCBIP_V0)
  94:.\Generated_Source\PSoC4/I2CM_I2C.c ****             /* Adjust SDA filter settings. Ticket ID#150521 */
  95:.\Generated_Source\PSoC4/I2CM_I2C.c ****             I2CM_SET_I2C_CFG_SDA_FILT_TRIM(I2CM_EC_AM_I2C_CFG_SDA_FILT_TRIM);
  96:.\Generated_Source\PSoC4/I2CM_I2C.c ****         #endif /* (I2CM_CY_SCBIP_V0) */
  97:.\Generated_Source\PSoC4/I2CM_I2C.c **** 
  98:.\Generated_Source\PSoC4/I2CM_I2C.c ****             /* Configure RX direction */
  99:.\Generated_Source\PSoC4/I2CM_I2C.c ****             I2CM_RX_CTRL_REG      = I2CM_GET_RX_CTRL_MEDIAN(config->enableMedianFilter) |
 100:.\Generated_Source\PSoC4/I2CM_I2C.c ****                                                 I2CM_I2C_RX_CTRL;
 101:.\Generated_Source\PSoC4/I2CM_I2C.c ****             I2CM_RX_FIFO_CTRL_REG = I2CM_CLEAR_REG;
 102:.\Generated_Source\PSoC4/I2CM_I2C.c **** 
 103:.\Generated_Source\PSoC4/I2CM_I2C.c ****             /* Set default address and mask */
 104:.\Generated_Source\PSoC4/I2CM_I2C.c ****             I2CM_RX_MATCH_REG    = ((I2CM_I2C_SLAVE) ?
 105:.\Generated_Source\PSoC4/I2CM_I2C.c ****                                                 (I2CM_GET_I2C_8BIT_ADDRESS(config->slaveAddr) |
 106:.\Generated_Source\PSoC4/I2CM_I2C.c ****                                                  I2CM_GET_RX_MATCH_MASK(config->slaveAddrMask)) :
 107:.\Generated_Source\PSoC4/I2CM_I2C.c ****                                                 (I2CM_CLEAR_REG));
 108:.\Generated_Source\PSoC4/I2CM_I2C.c **** 
 109:.\Generated_Source\PSoC4/I2CM_I2C.c **** 
 110:.\Generated_Source\PSoC4/I2CM_I2C.c ****             /* Configure TX direction */
 111:.\Generated_Source\PSoC4/I2CM_I2C.c ****             I2CM_TX_CTRL_REG      = I2CM_I2C_TX_CTRL;
 112:.\Generated_Source\PSoC4/I2CM_I2C.c ****             I2CM_TX_FIFO_CTRL_REG = I2CM_CLEAR_REG;
 113:.\Generated_Source\PSoC4/I2CM_I2C.c **** 
 114:.\Generated_Source\PSoC4/I2CM_I2C.c ****             /* Configure interrupt with I2C handler but do not enable it */
 115:.\Generated_Source\PSoC4/I2CM_I2C.c ****             CyIntDisable    (I2CM_ISR_NUMBER);
 116:.\Generated_Source\PSoC4/I2CM_I2C.c ****             CyIntSetPriority(I2CM_ISR_NUMBER, I2CM_ISR_PRIORITY);
 117:.\Generated_Source\PSoC4/I2CM_I2C.c ****             (void) CyIntSetVector(I2CM_ISR_NUMBER, &I2CM_I2C_ISR);
 118:.\Generated_Source\PSoC4/I2CM_I2C.c **** 
 119:.\Generated_Source\PSoC4/I2CM_I2C.c ****             /* Configure interrupt sources */
 120:.\Generated_Source\PSoC4/I2CM_I2C.c ****         #if(!I2CM_CY_SCBIP_V1_I2C_ONLY)
 121:.\Generated_Source\PSoC4/I2CM_I2C.c ****             I2CM_INTR_SPI_EC_MASK_REG = I2CM_NO_INTR_SOURCES;
 122:.\Generated_Source\PSoC4/I2CM_I2C.c ****         #endif /* (!I2CM_CY_SCBIP_V1_I2C_ONLY) */
 123:.\Generated_Source\PSoC4/I2CM_I2C.c **** 
 124:.\Generated_Source\PSoC4/I2CM_I2C.c ****             I2CM_INTR_I2C_EC_MASK_REG = I2CM_NO_INTR_SOURCES;
 125:.\Generated_Source\PSoC4/I2CM_I2C.c ****             I2CM_INTR_RX_MASK_REG     = I2CM_NO_INTR_SOURCES;
 126:.\Generated_Source\PSoC4/I2CM_I2C.c ****             I2CM_INTR_TX_MASK_REG     = I2CM_NO_INTR_SOURCES;
 127:.\Generated_Source\PSoC4/I2CM_I2C.c **** 
 128:.\Generated_Source\PSoC4/I2CM_I2C.c ****             I2CM_INTR_SLAVE_MASK_REG  = ((I2CM_I2C_SLAVE) ?
 129:.\Generated_Source\PSoC4/I2CM_I2C.c ****                                                      (I2CM_I2C_INTR_SLAVE_MASK) :
 130:.\Generated_Source\PSoC4/I2CM_I2C.c ****                                                      (I2CM_CLEAR_REG));
 131:.\Generated_Source\PSoC4/I2CM_I2C.c **** 
 132:.\Generated_Source\PSoC4/I2CM_I2C.c ****             I2CM_INTR_MASTER_MASK_REG = ((I2CM_I2C_MASTER) ?
 133:.\Generated_Source\PSoC4/I2CM_I2C.c ****                                                      (I2CM_I2C_INTR_MASTER_MASK) :
 134:.\Generated_Source\PSoC4/I2CM_I2C.c ****                                                      (I2CM_CLEAR_REG));
 135:.\Generated_Source\PSoC4/I2CM_I2C.c **** 
 136:.\Generated_Source\PSoC4/I2CM_I2C.c ****             /* Configure global variables */
 137:.\Generated_Source\PSoC4/I2CM_I2C.c ****             I2CM_state = I2CM_I2C_FSM_IDLE;
 138:.\Generated_Source\PSoC4/I2CM_I2C.c **** 
 139:.\Generated_Source\PSoC4/I2CM_I2C.c ****             /* Internal slave variables */
 140:.\Generated_Source\PSoC4/I2CM_I2C.c ****             I2CM_slStatus        = 0u;
 141:.\Generated_Source\PSoC4/I2CM_I2C.c ****             I2CM_slRdBufIndex    = 0u;
 142:.\Generated_Source\PSoC4/I2CM_I2C.c ****             I2CM_slWrBufIndex    = 0u;
 143:.\Generated_Source\PSoC4/I2CM_I2C.c ****             I2CM_slOverFlowCount = 0u;
 144:.\Generated_Source\PSoC4/I2CM_I2C.c **** 
 145:.\Generated_Source\PSoC4/I2CM_I2C.c ****             /* Internal master variables */
 146:.\Generated_Source\PSoC4/I2CM_I2C.c ****             I2CM_mstrStatus     = 0u;
ARM GAS  C:\Users\SNFU\AppData\Local\Temp\ccWz7PgS.s 			page 4


 147:.\Generated_Source\PSoC4/I2CM_I2C.c ****             I2CM_mstrRdBufIndex = 0u;
 148:.\Generated_Source\PSoC4/I2CM_I2C.c ****             I2CM_mstrWrBufIndex = 0u;
 149:.\Generated_Source\PSoC4/I2CM_I2C.c ****         }
 150:.\Generated_Source\PSoC4/I2CM_I2C.c ****     }
 151:.\Generated_Source\PSoC4/I2CM_I2C.c **** 
 152:.\Generated_Source\PSoC4/I2CM_I2C.c **** #else
 153:.\Generated_Source\PSoC4/I2CM_I2C.c **** 
 154:.\Generated_Source\PSoC4/I2CM_I2C.c ****     /*******************************************************************************
 155:.\Generated_Source\PSoC4/I2CM_I2C.c ****     * Function Name: I2CM_I2CInit
 156:.\Generated_Source\PSoC4/I2CM_I2C.c ****     ********************************************************************************
 157:.\Generated_Source\PSoC4/I2CM_I2C.c ****     *
 158:.\Generated_Source\PSoC4/I2CM_I2C.c ****     * Summary:
 159:.\Generated_Source\PSoC4/I2CM_I2C.c ****     *  Configures the SCB for the I2C operation.
 160:.\Generated_Source\PSoC4/I2CM_I2C.c ****     *
 161:.\Generated_Source\PSoC4/I2CM_I2C.c ****     * Parameters:
 162:.\Generated_Source\PSoC4/I2CM_I2C.c ****     *  None
 163:.\Generated_Source\PSoC4/I2CM_I2C.c ****     *
 164:.\Generated_Source\PSoC4/I2CM_I2C.c ****     * Return:
 165:.\Generated_Source\PSoC4/I2CM_I2C.c ****     *  None
 166:.\Generated_Source\PSoC4/I2CM_I2C.c ****     *
 167:.\Generated_Source\PSoC4/I2CM_I2C.c ****     *******************************************************************************/
 168:.\Generated_Source\PSoC4/I2CM_I2C.c ****     void I2CM_I2CInit(void)
 169:.\Generated_Source\PSoC4/I2CM_I2C.c ****     {
  26              		.loc 1 169 0
  27              		.cfi_startproc
 170:.\Generated_Source\PSoC4/I2CM_I2C.c ****         /* Configure I2C interface */
 171:.\Generated_Source\PSoC4/I2CM_I2C.c ****         I2CM_CTRL_REG     = I2CM_I2C_DEFAULT_CTRL;
  28              		.loc 1 171 0
  29 0000 1C4B     		ldr	r3, .L2
 169:.\Generated_Source\PSoC4/I2CM_I2C.c ****     {
  30              		.loc 1 169 0
  31 0002 10B5     		push	{r4, lr}
  32              	.LCFI0:
  33              		.cfi_def_cfa_offset 8
  34              		.cfi_offset 4, -8
  35              		.cfi_offset 14, -4
 172:.\Generated_Source\PSoC4/I2CM_I2C.c ****         I2CM_I2C_CTRL_REG = I2CM_I2C_DEFAULT_I2C_CTRL;
  36              		.loc 1 172 0
  37 0004 1C4A     		ldr	r2, .L2+4
 171:.\Generated_Source\PSoC4/I2CM_I2C.c ****         I2CM_CTRL_REG     = I2CM_I2C_DEFAULT_CTRL;
  38              		.loc 1 171 0
  39 0006 0024     		mov	r4, #0
  40              		.loc 1 172 0
  41 0008 1C48     		ldr	r0, .L2+8
 171:.\Generated_Source\PSoC4/I2CM_I2C.c ****         I2CM_CTRL_REG     = I2CM_I2C_DEFAULT_CTRL;
  42              		.loc 1 171 0
  43 000a 1C60     		str	r4, [r3]
 173:.\Generated_Source\PSoC4/I2CM_I2C.c **** 
 174:.\Generated_Source\PSoC4/I2CM_I2C.c ****     #if(I2CM_CY_SCBIP_V0)
 175:.\Generated_Source\PSoC4/I2CM_I2C.c ****         /* Adjust SDA filter settings. Ticket ID#150521 */
 176:.\Generated_Source\PSoC4/I2CM_I2C.c ****         I2CM_SET_I2C_CFG_SDA_FILT_TRIM(I2CM_EC_AM_I2C_CFG_SDA_FILT_TRIM);
  44              		.loc 1 176 0
  45 000c 1C4B     		ldr	r3, .L2+12
 172:.\Generated_Source\PSoC4/I2CM_I2C.c ****         I2CM_I2C_CTRL_REG = I2CM_I2C_DEFAULT_I2C_CTRL;
  46              		.loc 1 172 0
  47 000e 0260     		str	r2, [r0]
  48              		.loc 1 176 0
ARM GAS  C:\Users\SNFU\AppData\Local\Temp\ccWz7PgS.s 			page 5


  49 0010 1A68     		ldr	r2, [r3]
  50 0012 0C21     		mov	r1, #12
  51 0014 0A43     		orr	r2, r1
  52 0016 1A60     		str	r2, [r3]
 177:.\Generated_Source\PSoC4/I2CM_I2C.c ****     #endif /* (I2CM_CY_SCBIP_V0) */
 178:.\Generated_Source\PSoC4/I2CM_I2C.c **** 
 179:.\Generated_Source\PSoC4/I2CM_I2C.c ****         /* Configure RX direction */
 180:.\Generated_Source\PSoC4/I2CM_I2C.c ****         I2CM_RX_CTRL_REG      = I2CM_I2C_DEFAULT_RX_CTRL;
  53              		.loc 1 180 0
  54 0018 1A48     		ldr	r0, .L2+16
  55 001a 1B4B     		ldr	r3, .L2+20
 181:.\Generated_Source\PSoC4/I2CM_I2C.c ****         I2CM_RX_FIFO_CTRL_REG = I2CM_I2C_DEFAULT_RX_FIFO_CTRL;
  56              		.loc 1 181 0
  57 001c 1B4A     		ldr	r2, .L2+24
 180:.\Generated_Source\PSoC4/I2CM_I2C.c ****         I2CM_RX_CTRL_REG      = I2CM_I2C_DEFAULT_RX_CTRL;
  58              		.loc 1 180 0
  59 001e 1860     		str	r0, [r3]
 182:.\Generated_Source\PSoC4/I2CM_I2C.c **** 
 183:.\Generated_Source\PSoC4/I2CM_I2C.c ****         /* Set default address and mask */
 184:.\Generated_Source\PSoC4/I2CM_I2C.c ****         I2CM_RX_MATCH_REG     = I2CM_I2C_DEFAULT_RX_MATCH;
  60              		.loc 1 184 0
  61 0020 1B49     		ldr	r1, .L2+28
 181:.\Generated_Source\PSoC4/I2CM_I2C.c ****         I2CM_RX_FIFO_CTRL_REG = I2CM_I2C_DEFAULT_RX_FIFO_CTRL;
  62              		.loc 1 181 0
  63 0022 1460     		str	r4, [r2]
 185:.\Generated_Source\PSoC4/I2CM_I2C.c **** 
 186:.\Generated_Source\PSoC4/I2CM_I2C.c ****         /* Configure TX direction */
 187:.\Generated_Source\PSoC4/I2CM_I2C.c ****         I2CM_TX_CTRL_REG      = I2CM_I2C_DEFAULT_TX_CTRL;
  64              		.loc 1 187 0
  65 0024 1B4B     		ldr	r3, .L2+32
 188:.\Generated_Source\PSoC4/I2CM_I2C.c ****         I2CM_TX_FIFO_CTRL_REG = I2CM_I2C_DEFAULT_TX_FIFO_CTRL;
  66              		.loc 1 188 0
  67 0026 1C4A     		ldr	r2, .L2+36
 187:.\Generated_Source\PSoC4/I2CM_I2C.c ****         I2CM_TX_CTRL_REG      = I2CM_I2C_DEFAULT_TX_CTRL;
  68              		.loc 1 187 0
  69 0028 1C48     		ldr	r0, .L2+40
 184:.\Generated_Source\PSoC4/I2CM_I2C.c ****         I2CM_RX_MATCH_REG     = I2CM_I2C_DEFAULT_RX_MATCH;
  70              		.loc 1 184 0
  71 002a 0C60     		str	r4, [r1]
 187:.\Generated_Source\PSoC4/I2CM_I2C.c ****         I2CM_TX_CTRL_REG      = I2CM_I2C_DEFAULT_TX_CTRL;
  72              		.loc 1 187 0
  73 002c 1860     		str	r0, [r3]
  74              		.loc 1 188 0
  75 002e 1460     		str	r4, [r2]
 189:.\Generated_Source\PSoC4/I2CM_I2C.c **** 
 190:.\Generated_Source\PSoC4/I2CM_I2C.c ****         /* Configure interrupt with I2C handler but do not enable it */
 191:.\Generated_Source\PSoC4/I2CM_I2C.c ****         CyIntDisable    (I2CM_ISR_NUMBER);
  76              		.loc 1 191 0
  77 0030 0B20     		mov	r0, #11
  78 0032 FFF7FEFF 		bl	CyIntDisable
  79              	.LVL0:
 192:.\Generated_Source\PSoC4/I2CM_I2C.c ****         CyIntSetPriority(I2CM_ISR_NUMBER, I2CM_ISR_PRIORITY);
  80              		.loc 1 192 0
  81 0036 0B20     		mov	r0, #11
  82 0038 0321     		mov	r1, #3
  83 003a FFF7FEFF 		bl	CyIntSetPriority
  84              	.LVL1:
ARM GAS  C:\Users\SNFU\AppData\Local\Temp\ccWz7PgS.s 			page 6


 193:.\Generated_Source\PSoC4/I2CM_I2C.c ****     #if(!I2CM_I2C_EXTERN_INTR_HANDLER)
 194:.\Generated_Source\PSoC4/I2CM_I2C.c ****         (void) CyIntSetVector(I2CM_ISR_NUMBER, &I2CM_I2C_ISR);
  85              		.loc 1 194 0
  86 003e 1849     		ldr	r1, .L2+44
  87 0040 0B20     		mov	r0, #11
  88 0042 FFF7FEFF 		bl	CyIntSetVector
  89              	.LVL2:
 195:.\Generated_Source\PSoC4/I2CM_I2C.c ****     #endif /* (I2CM_I2C_EXTERN_INTR_HANDLER) */
 196:.\Generated_Source\PSoC4/I2CM_I2C.c **** 
 197:.\Generated_Source\PSoC4/I2CM_I2C.c ****         /* Configure interrupt sources */
 198:.\Generated_Source\PSoC4/I2CM_I2C.c ****     #if(!I2CM_CY_SCBIP_V1_I2C_ONLY)
 199:.\Generated_Source\PSoC4/I2CM_I2C.c ****         I2CM_INTR_SPI_EC_MASK_REG = I2CM_I2C_DEFAULT_INTR_SPI_EC_MASK;
  90              		.loc 1 199 0
  91 0046 1749     		ldr	r1, .L2+48
 200:.\Generated_Source\PSoC4/I2CM_I2C.c ****     #endif /* (!I2CM_CY_SCBIP_V1_I2C_ONLY) */
 201:.\Generated_Source\PSoC4/I2CM_I2C.c **** 
 202:.\Generated_Source\PSoC4/I2CM_I2C.c ****         I2CM_INTR_I2C_EC_MASK_REG = I2CM_I2C_DEFAULT_INTR_I2C_EC_MASK;
  92              		.loc 1 202 0
  93 0048 1748     		ldr	r0, .L2+52
 199:.\Generated_Source\PSoC4/I2CM_I2C.c ****         I2CM_INTR_SPI_EC_MASK_REG = I2CM_I2C_DEFAULT_INTR_SPI_EC_MASK;
  94              		.loc 1 199 0
  95 004a 0C60     		str	r4, [r1]
 203:.\Generated_Source\PSoC4/I2CM_I2C.c ****         I2CM_INTR_SLAVE_MASK_REG  = I2CM_I2C_DEFAULT_INTR_SLAVE_MASK;
  96              		.loc 1 203 0
  97 004c 174B     		ldr	r3, .L2+56
 204:.\Generated_Source\PSoC4/I2CM_I2C.c ****         I2CM_INTR_MASTER_MASK_REG = I2CM_I2C_DEFAULT_INTR_MASTER_MASK;
  98              		.loc 1 204 0
  99 004e 184A     		ldr	r2, .L2+60
 100 0050 1849     		ldr	r1, .L2+64
 202:.\Generated_Source\PSoC4/I2CM_I2C.c ****         I2CM_INTR_I2C_EC_MASK_REG = I2CM_I2C_DEFAULT_INTR_I2C_EC_MASK;
 101              		.loc 1 202 0
 102 0052 0460     		str	r4, [r0]
 203:.\Generated_Source\PSoC4/I2CM_I2C.c ****         I2CM_INTR_SLAVE_MASK_REG  = I2CM_I2C_DEFAULT_INTR_SLAVE_MASK;
 103              		.loc 1 203 0
 104 0054 1C60     		str	r4, [r3]
 205:.\Generated_Source\PSoC4/I2CM_I2C.c ****         I2CM_INTR_RX_MASK_REG     = I2CM_I2C_DEFAULT_INTR_RX_MASK;
 105              		.loc 1 205 0
 106 0056 1848     		ldr	r0, .L2+68
 204:.\Generated_Source\PSoC4/I2CM_I2C.c ****         I2CM_INTR_MASTER_MASK_REG = I2CM_I2C_DEFAULT_INTR_MASTER_MASK;
 107              		.loc 1 204 0
 108 0058 0A60     		str	r2, [r1]
 206:.\Generated_Source\PSoC4/I2CM_I2C.c ****         I2CM_INTR_TX_MASK_REG     = I2CM_I2C_DEFAULT_INTR_TX_MASK;
 109              		.loc 1 206 0
 110 005a 184B     		ldr	r3, .L2+72
 207:.\Generated_Source\PSoC4/I2CM_I2C.c **** 
 208:.\Generated_Source\PSoC4/I2CM_I2C.c ****         /* Configure global variables */
 209:.\Generated_Source\PSoC4/I2CM_I2C.c ****         I2CM_state = I2CM_I2C_FSM_IDLE;
 111              		.loc 1 209 0
 112 005c 1849     		ldr	r1, .L2+76
 113 005e 1022     		mov	r2, #16
 205:.\Generated_Source\PSoC4/I2CM_I2C.c ****         I2CM_INTR_RX_MASK_REG     = I2CM_I2C_DEFAULT_INTR_RX_MASK;
 114              		.loc 1 205 0
 115 0060 0460     		str	r4, [r0]
 206:.\Generated_Source\PSoC4/I2CM_I2C.c ****         I2CM_INTR_TX_MASK_REG     = I2CM_I2C_DEFAULT_INTR_TX_MASK;
 116              		.loc 1 206 0
 117 0062 1C60     		str	r4, [r3]
 210:.\Generated_Source\PSoC4/I2CM_I2C.c **** 
ARM GAS  C:\Users\SNFU\AppData\Local\Temp\ccWz7PgS.s 			page 7


 211:.\Generated_Source\PSoC4/I2CM_I2C.c ****     #if(I2CM_I2C_SLAVE)
 212:.\Generated_Source\PSoC4/I2CM_I2C.c ****         /* Internal slave variable */
 213:.\Generated_Source\PSoC4/I2CM_I2C.c ****         I2CM_slStatus        = 0u;
 214:.\Generated_Source\PSoC4/I2CM_I2C.c ****         I2CM_slRdBufIndex    = 0u;
 215:.\Generated_Source\PSoC4/I2CM_I2C.c ****         I2CM_slWrBufIndex    = 0u;
 216:.\Generated_Source\PSoC4/I2CM_I2C.c ****         I2CM_slOverFlowCount = 0u;
 217:.\Generated_Source\PSoC4/I2CM_I2C.c ****     #endif /* (I2CM_I2C_SLAVE) */
 218:.\Generated_Source\PSoC4/I2CM_I2C.c **** 
 219:.\Generated_Source\PSoC4/I2CM_I2C.c ****     #if(I2CM_I2C_MASTER)
 220:.\Generated_Source\PSoC4/I2CM_I2C.c ****     /* Internal master variable */
 221:.\Generated_Source\PSoC4/I2CM_I2C.c ****         I2CM_mstrStatus     = 0u;
 118              		.loc 1 221 0
 119 0064 1748     		ldr	r0, .L2+80
 209:.\Generated_Source\PSoC4/I2CM_I2C.c ****         I2CM_state = I2CM_I2C_FSM_IDLE;
 120              		.loc 1 209 0
 121 0066 0A70     		strb	r2, [r1]
 222:.\Generated_Source\PSoC4/I2CM_I2C.c ****         I2CM_mstrRdBufIndex = 0u;
 122              		.loc 1 222 0
 123 0068 174B     		ldr	r3, .L2+84
 223:.\Generated_Source\PSoC4/I2CM_I2C.c ****         I2CM_mstrWrBufIndex = 0u;
 124              		.loc 1 223 0
 125 006a 184A     		ldr	r2, .L2+88
 221:.\Generated_Source\PSoC4/I2CM_I2C.c ****         I2CM_mstrStatus     = 0u;
 126              		.loc 1 221 0
 127 006c 0480     		strh	r4, [r0]
 224:.\Generated_Source\PSoC4/I2CM_I2C.c ****     #endif /* (I2CM_I2C_MASTER) */
 225:.\Generated_Source\PSoC4/I2CM_I2C.c ****     }
 128              		.loc 1 225 0
 129              		@ sp needed for prologue
 222:.\Generated_Source\PSoC4/I2CM_I2C.c ****         I2CM_mstrRdBufIndex = 0u;
 130              		.loc 1 222 0
 131 006e 1C60     		str	r4, [r3]
 223:.\Generated_Source\PSoC4/I2CM_I2C.c ****         I2CM_mstrWrBufIndex = 0u;
 132              		.loc 1 223 0
 133 0070 1460     		str	r4, [r2]
 134              		.loc 1 225 0
 135 0072 10BD     		pop	{r4, pc}
 136              	.L3:
 137              		.align	2
 138              	.L2:
 139 0074 00000740 		.word	1074200576
 140 0078 77080080 		.word	-2147481481
 141 007c 60000740 		.word	1074200672
 142 0080 70000740 		.word	1074200688
 143 0084 07030080 		.word	-2147482873
 144 0088 00030740 		.word	1074201344
 145 008c 04030740 		.word	1074201348
 146 0090 10030740 		.word	1074201360
 147 0094 00020740 		.word	1074201088
 148 0098 04020740 		.word	1074201092
 149 009c 07010080 		.word	-2147483385
 150 00a0 00000000 		.word	I2CM_I2C_ISR
 151 00a4 C80E0740 		.word	1074204360
 152 00a8 880E0740 		.word	1074204296
 153 00ac 480F0740 		.word	1074204488
 154 00b0 13010000 		.word	275
 155 00b4 080F0740 		.word	1074204424
ARM GAS  C:\Users\SNFU\AppData\Local\Temp\ccWz7PgS.s 			page 8


 156 00b8 C80F0740 		.word	1074204616
 157 00bc 880F0740 		.word	1074204552
 158 00c0 00000000 		.word	I2CM_state
 159 00c4 00000000 		.word	I2CM_mstrStatus
 160 00c8 00000000 		.word	I2CM_mstrRdBufIndex
 161 00cc 00000000 		.word	I2CM_mstrWrBufIndex
 162              		.cfi_endproc
 163              	.LFE0:
 164              		.size	I2CM_I2CInit, .-I2CM_I2CInit
 165              		.section	.text.I2CM_I2CStop,"ax",%progbits
 166              		.align	1
 167              		.global	I2CM_I2CStop
 168              		.code	16
 169              		.thumb_func
 170              		.type	I2CM_I2CStop, %function
 171              	I2CM_I2CStop:
 172              	.LFB1:
 226:.\Generated_Source\PSoC4/I2CM_I2C.c **** #endif /* (I2CM_SCB_MODE_UNCONFIG_CONST_CFG) */
 227:.\Generated_Source\PSoC4/I2CM_I2C.c **** 
 228:.\Generated_Source\PSoC4/I2CM_I2C.c **** 
 229:.\Generated_Source\PSoC4/I2CM_I2C.c **** /*******************************************************************************
 230:.\Generated_Source\PSoC4/I2CM_I2C.c **** * Function Name: I2CM_I2CStop
 231:.\Generated_Source\PSoC4/I2CM_I2C.c **** ********************************************************************************
 232:.\Generated_Source\PSoC4/I2CM_I2C.c **** *
 233:.\Generated_Source\PSoC4/I2CM_I2C.c **** * Summary:
 234:.\Generated_Source\PSoC4/I2CM_I2C.c **** *  Resets the I2C FSM into the default state and disables TX interrupt sources.
 235:.\Generated_Source\PSoC4/I2CM_I2C.c **** *
 236:.\Generated_Source\PSoC4/I2CM_I2C.c **** * Parameters:
 237:.\Generated_Source\PSoC4/I2CM_I2C.c **** *  None
 238:.\Generated_Source\PSoC4/I2CM_I2C.c **** *
 239:.\Generated_Source\PSoC4/I2CM_I2C.c **** * Return:
 240:.\Generated_Source\PSoC4/I2CM_I2C.c **** *  None
 241:.\Generated_Source\PSoC4/I2CM_I2C.c **** *
 242:.\Generated_Source\PSoC4/I2CM_I2C.c **** * Global variables:
 243:.\Generated_Source\PSoC4/I2CM_I2C.c **** *
 244:.\Generated_Source\PSoC4/I2CM_I2C.c **** *
 245:.\Generated_Source\PSoC4/I2CM_I2C.c **** *******************************************************************************/
 246:.\Generated_Source\PSoC4/I2CM_I2C.c **** void I2CM_I2CStop(void)
 247:.\Generated_Source\PSoC4/I2CM_I2C.c **** {
 173              		.loc 1 247 0
 174              		.cfi_startproc
 175 0000 08B5     		push	{r3, lr}
 176              	.LCFI1:
 177              		.cfi_def_cfa_offset 8
 178              		.cfi_offset 3, -8
 179              		.cfi_offset 14, -4
 248:.\Generated_Source\PSoC4/I2CM_I2C.c ****     /* Disable TX interrupt sources in order not to cause a false trigger.
 249:.\Generated_Source\PSoC4/I2CM_I2C.c ****     * The incoming transaction will enable an appropriate TX interrupt.
 250:.\Generated_Source\PSoC4/I2CM_I2C.c ****     */
 251:.\Generated_Source\PSoC4/I2CM_I2C.c ****     I2CM_SetTxInterruptMode(I2CM_NO_INTR_SOURCES);
 180              		.loc 1 251 0
 181 0002 054B     		ldr	r3, .L5
 182 0004 0022     		mov	r2, #0
 252:.\Generated_Source\PSoC4/I2CM_I2C.c **** 
 253:.\Generated_Source\PSoC4/I2CM_I2C.c **** #if(I2CM_CY_SCBIP_V0)
 254:.\Generated_Source\PSoC4/I2CM_I2C.c ****     /* Clear pending interrupt as TX FIFO becomes empty and block does not gate interrupt trigger w
 255:.\Generated_Source\PSoC4/I2CM_I2C.c ****     I2CM_ClearPendingInt();
ARM GAS  C:\Users\SNFU\AppData\Local\Temp\ccWz7PgS.s 			page 9


 183              		.loc 1 255 0
 184 0006 0B20     		mov	r0, #11
 251:.\Generated_Source\PSoC4/I2CM_I2C.c ****     I2CM_SetTxInterruptMode(I2CM_NO_INTR_SOURCES);
 185              		.loc 1 251 0
 186 0008 1A60     		str	r2, [r3]
 187              		.loc 1 255 0
 188 000a FFF7FEFF 		bl	CyIntClearPending
 189              	.LVL3:
 256:.\Generated_Source\PSoC4/I2CM_I2C.c **** #endif /* (I2CM_CY_SCBIP_V0) */
 257:.\Generated_Source\PSoC4/I2CM_I2C.c **** 
 258:.\Generated_Source\PSoC4/I2CM_I2C.c ****     I2CM_state = I2CM_I2C_FSM_IDLE;
 190              		.loc 1 258 0
 191 000e 0349     		ldr	r1, .L5+4
 192 0010 1020     		mov	r0, #16
 193 0012 0870     		strb	r0, [r1]
 259:.\Generated_Source\PSoC4/I2CM_I2C.c **** }
 194              		.loc 1 259 0
 195              		@ sp needed for prologue
 196 0014 08BD     		pop	{r3, pc}
 197              	.L6:
 198 0016 C046     		.align	2
 199              	.L5:
 200 0018 880F0740 		.word	1074204552
 201 001c 00000000 		.word	I2CM_state
 202              		.cfi_endproc
 203              	.LFE1:
 204              		.size	I2CM_I2CStop, .-I2CM_I2CStop
 205              		.comm	I2CM_state,1,1
 206              		.text
 207              	.Letext0:
 208              		.file 2 "./Generated_Source/PSoC4/cytypes.h"
 209              		.file 3 ".\\Generated_Source\\PSoC4\\I2CM_I2C_PVT.h"
 210              		.file 4 "./Generated_Source/PSoC4/CyLib.h"