ARM GAS  C:\Users\SNFU\AppData\Local\Temp\ccDApkRi.s 			page 1


   1              		.cpu cortex-m0
   2              		.fpu softvfp
   3              		.eabi_attribute 20, 1
   4              		.eabi_attribute 21, 1
   5              		.eabi_attribute 23, 3
   6              		.eabi_attribute 24, 1
   7              		.eabi_attribute 25, 1
   8              		.eabi_attribute 26, 1
   9              		.eabi_attribute 30, 6
  10              		.eabi_attribute 34, 0
  11              		.eabi_attribute 18, 4
  12              		.code	16
  13              		.file	"I2CM_I2C_MASTER.c"
  14              		.text
  15              	.Ltext0:
  16              		.cfi_sections	.debug_frame
  17              		.comm	I2CM_mstrStatus,2,2
  18              		.comm	I2CM_mstrControl,1,1
  19              		.comm	I2CM_mstrRdBufPtr,4,4
  20              		.comm	I2CM_mstrRdBufSize,4,4
  21              		.comm	I2CM_mstrRdBufIndex,4,4
  22              		.comm	I2CM_mstrWrBufPtr,4,4
  23              		.comm	I2CM_mstrWrBufSize,4,4
  24              		.comm	I2CM_mstrWrBufIndex,4,4
  25              		.comm	I2CM_mstrWrBufIndexTmp,4,4
  26              		.section	.text.I2CM_I2CMasterWriteBuf,"ax",%progbits
  27              		.align	2
  28              		.global	I2CM_I2CMasterWriteBuf
  29              		.code	16
  30              		.thumb_func
  31              		.type	I2CM_I2CMasterWriteBuf, %function
  32              	I2CM_I2CMasterWriteBuf:
  33              	.LFB0:
  34              		.file 1 ".\\Generated_Source\\PSoC4\\I2CM_I2C_MASTER.c"
   1:.\Generated_Source\PSoC4/I2CM_I2C_MASTER.c **** /*******************************************************************************
   2:.\Generated_Source\PSoC4/I2CM_I2C_MASTER.c **** * File Name: I2CM_I2C_MASTER.c
   3:.\Generated_Source\PSoC4/I2CM_I2C_MASTER.c **** * Version 1.20
   4:.\Generated_Source\PSoC4/I2CM_I2C_MASTER.c **** *
   5:.\Generated_Source\PSoC4/I2CM_I2C_MASTER.c **** * Description:
   6:.\Generated_Source\PSoC4/I2CM_I2C_MASTER.c **** *  This file provides the source code to the API for the SCB Component in
   7:.\Generated_Source\PSoC4/I2CM_I2C_MASTER.c **** *  I2C Master mode.
   8:.\Generated_Source\PSoC4/I2CM_I2C_MASTER.c **** *
   9:.\Generated_Source\PSoC4/I2CM_I2C_MASTER.c **** * Note:
  10:.\Generated_Source\PSoC4/I2CM_I2C_MASTER.c **** *
  11:.\Generated_Source\PSoC4/I2CM_I2C_MASTER.c **** *******************************************************************************
  12:.\Generated_Source\PSoC4/I2CM_I2C_MASTER.c **** * Copyright 2013-2014, Cypress Semiconductor Corporation.  All rights reserved.
  13:.\Generated_Source\PSoC4/I2CM_I2C_MASTER.c **** * You may use this file only in accordance with the license, terms, conditions,
  14:.\Generated_Source\PSoC4/I2CM_I2C_MASTER.c **** * disclaimers, and limitations in the end user license agreement accompanying
  15:.\Generated_Source\PSoC4/I2CM_I2C_MASTER.c **** * the software package with which this file was provided.
  16:.\Generated_Source\PSoC4/I2CM_I2C_MASTER.c **** *******************************************************************************/
  17:.\Generated_Source\PSoC4/I2CM_I2C_MASTER.c **** 
  18:.\Generated_Source\PSoC4/I2CM_I2C_MASTER.c **** #include "I2CM_PVT.h"
  19:.\Generated_Source\PSoC4/I2CM_I2C_MASTER.c **** #include "I2CM_I2C_PVT.h"
  20:.\Generated_Source\PSoC4/I2CM_I2C_MASTER.c **** 
  21:.\Generated_Source\PSoC4/I2CM_I2C_MASTER.c **** #if(I2CM_I2C_MASTER_CONST)
  22:.\Generated_Source\PSoC4/I2CM_I2C_MASTER.c **** 
  23:.\Generated_Source\PSoC4/I2CM_I2C_MASTER.c **** /***************************************
ARM GAS  C:\Users\SNFU\AppData\Local\Temp\ccDApkRi.s 			page 2


  24:.\Generated_Source\PSoC4/I2CM_I2C_MASTER.c **** *      I2C Master Private Vars
  25:.\Generated_Source\PSoC4/I2CM_I2C_MASTER.c **** ***************************************/
  26:.\Generated_Source\PSoC4/I2CM_I2C_MASTER.c **** 
  27:.\Generated_Source\PSoC4/I2CM_I2C_MASTER.c **** /* Master variables */
  28:.\Generated_Source\PSoC4/I2CM_I2C_MASTER.c **** volatile uint16 I2CM_mstrStatus;      /* Master Status byte  */
  29:.\Generated_Source\PSoC4/I2CM_I2C_MASTER.c **** volatile uint8  I2CM_mstrControl;     /* Master Control byte */
  30:.\Generated_Source\PSoC4/I2CM_I2C_MASTER.c **** 
  31:.\Generated_Source\PSoC4/I2CM_I2C_MASTER.c **** /* Receive buffer variables */
  32:.\Generated_Source\PSoC4/I2CM_I2C_MASTER.c **** volatile uint8 * I2CM_mstrRdBufPtr;   /* Pointer to Master Read buffer */
  33:.\Generated_Source\PSoC4/I2CM_I2C_MASTER.c **** volatile uint32  I2CM_mstrRdBufSize;  /* Master Read buffer size       */
  34:.\Generated_Source\PSoC4/I2CM_I2C_MASTER.c **** volatile uint32  I2CM_mstrRdBufIndex; /* Master Read buffer Index      */
  35:.\Generated_Source\PSoC4/I2CM_I2C_MASTER.c **** 
  36:.\Generated_Source\PSoC4/I2CM_I2C_MASTER.c **** /* Transmit buffer variables */
  37:.\Generated_Source\PSoC4/I2CM_I2C_MASTER.c **** volatile uint8 * I2CM_mstrWrBufPtr;   /* Pointer to Master Write buffer */
  38:.\Generated_Source\PSoC4/I2CM_I2C_MASTER.c **** volatile uint32  I2CM_mstrWrBufSize;  /* Master Write buffer size       */
  39:.\Generated_Source\PSoC4/I2CM_I2C_MASTER.c **** volatile uint32  I2CM_mstrWrBufIndex; /* Master Write buffer Index      */
  40:.\Generated_Source\PSoC4/I2CM_I2C_MASTER.c **** volatile uint32  I2CM_mstrWrBufIndexTmp; /* Master Write buffer Index Tmp */
  41:.\Generated_Source\PSoC4/I2CM_I2C_MASTER.c **** 
  42:.\Generated_Source\PSoC4/I2CM_I2C_MASTER.c **** 
  43:.\Generated_Source\PSoC4/I2CM_I2C_MASTER.c **** /*******************************************************************************
  44:.\Generated_Source\PSoC4/I2CM_I2C_MASTER.c **** * Function Name: I2CM_I2CMasterWriteBuf
  45:.\Generated_Source\PSoC4/I2CM_I2C_MASTER.c **** ********************************************************************************
  46:.\Generated_Source\PSoC4/I2CM_I2C_MASTER.c **** *
  47:.\Generated_Source\PSoC4/I2CM_I2C_MASTER.c **** * Summary:
  48:.\Generated_Source\PSoC4/I2CM_I2C_MASTER.c **** * Automatically writes an entire buffer of data to a slave device.
  49:.\Generated_Source\PSoC4/I2CM_I2C_MASTER.c **** * Once the data transfer is initiated by this function, further data transfer
  50:.\Generated_Source\PSoC4/I2CM_I2C_MASTER.c **** * is handled by the included ISR.
  51:.\Generated_Source\PSoC4/I2CM_I2C_MASTER.c **** * Enables the I2C interrupt and clears SCB_ I2C_MSTAT_WR_CMPLT status.
  52:.\Generated_Source\PSoC4/I2CM_I2C_MASTER.c **** *
  53:.\Generated_Source\PSoC4/I2CM_I2C_MASTER.c **** * Parameters:
  54:.\Generated_Source\PSoC4/I2CM_I2C_MASTER.c **** *  slaveAddr: 7-bit slave address.
  55:.\Generated_Source\PSoC4/I2CM_I2C_MASTER.c **** *  xferData:  Pointer to buffer of data to be sent.
  56:.\Generated_Source\PSoC4/I2CM_I2C_MASTER.c **** *  cnt:       Size of buffer to send.
  57:.\Generated_Source\PSoC4/I2CM_I2C_MASTER.c **** *  mode:      Transfer mode defines: start or restart condition generation at
  58:.\Generated_Source\PSoC4/I2CM_I2C_MASTER.c **** *             begin of the transfer and complete the transfer or halt before
  59:.\Generated_Source\PSoC4/I2CM_I2C_MASTER.c **** *             generating a stop.
  60:.\Generated_Source\PSoC4/I2CM_I2C_MASTER.c **** *
  61:.\Generated_Source\PSoC4/I2CM_I2C_MASTER.c **** * Return:
  62:.\Generated_Source\PSoC4/I2CM_I2C_MASTER.c **** *  Error status.
  63:.\Generated_Source\PSoC4/I2CM_I2C_MASTER.c **** *
  64:.\Generated_Source\PSoC4/I2CM_I2C_MASTER.c **** * Global variables:
  65:.\Generated_Source\PSoC4/I2CM_I2C_MASTER.c **** *  I2CM_mstrStatus  - used to store current status of I2C Master.
  66:.\Generated_Source\PSoC4/I2CM_I2C_MASTER.c **** *  I2CM_state       - used to store current state of software FSM.
  67:.\Generated_Source\PSoC4/I2CM_I2C_MASTER.c **** *  I2CM_mstrControl - used to control master end of transaction with
  68:.\Generated_Source\PSoC4/I2CM_I2C_MASTER.c **** *  or without the Stop generation.
  69:.\Generated_Source\PSoC4/I2CM_I2C_MASTER.c **** *  I2CM_mstrWrBufPtr - used to store pointer to master write buffer.
  70:.\Generated_Source\PSoC4/I2CM_I2C_MASTER.c **** *  I2CM_mstrWrBufIndex - used to current index within master write
  71:.\Generated_Source\PSoC4/I2CM_I2C_MASTER.c **** *  buffer.
  72:.\Generated_Source\PSoC4/I2CM_I2C_MASTER.c **** *  I2CM_mstrWrBufSize - used to store master write buffer size.
  73:.\Generated_Source\PSoC4/I2CM_I2C_MASTER.c **** *
  74:.\Generated_Source\PSoC4/I2CM_I2C_MASTER.c **** *******************************************************************************/
  75:.\Generated_Source\PSoC4/I2CM_I2C_MASTER.c **** uint32 I2CM_I2CMasterWriteBuf(uint32 slaveAddress, uint8 * wrData, uint32 cnt, uint32 mode)
  76:.\Generated_Source\PSoC4/I2CM_I2C_MASTER.c **** {
  35              		.loc 1 76 0
  36              		.cfi_startproc
  37 0000 80B5     		push	{r7, lr}
  38              	.LCFI0:
ARM GAS  C:\Users\SNFU\AppData\Local\Temp\ccDApkRi.s 			page 3


  39              		.cfi_def_cfa_offset 8
  40              		.cfi_offset 7, -8
  41              		.cfi_offset 14, -4
  42 0002 86B0     		sub	sp, sp, #24
  43              	.LCFI1:
  44              		.cfi_def_cfa_offset 32
  45 0004 00AF     		add	r7, sp, #0
  46              	.LCFI2:
  47              		.cfi_def_cfa_register 7
  48 0006 F860     		str	r0, [r7, #12]
  49 0008 B960     		str	r1, [r7, #8]
  50 000a 7A60     		str	r2, [r7, #4]
  51 000c 3B60     		str	r3, [r7]
  77:.\Generated_Source\PSoC4/I2CM_I2C_MASTER.c ****     uint32 errStatus;
  78:.\Generated_Source\PSoC4/I2CM_I2C_MASTER.c **** 
  79:.\Generated_Source\PSoC4/I2CM_I2C_MASTER.c ****     errStatus = I2CM_I2C_MSTR_NOT_READY;
  52              		.loc 1 79 0
  53 000e 0423     		mov	r3, #4
  54 0010 7B61     		str	r3, [r7, #20]
  80:.\Generated_Source\PSoC4/I2CM_I2C_MASTER.c **** 
  81:.\Generated_Source\PSoC4/I2CM_I2C_MASTER.c ****     if(NULL != wrData)  /* Check buffer pointer */
  55              		.loc 1 81 0
  56 0012 BB68     		ldr	r3, [r7, #8]
  57 0014 002B     		cmp	r3, #0
  58 0016 20D0     		beq	.L2
  82:.\Generated_Source\PSoC4/I2CM_I2C_MASTER.c ****     {
  83:.\Generated_Source\PSoC4/I2CM_I2C_MASTER.c ****         /* Check FSM state and bus before generating Start/ReStart condition */
  84:.\Generated_Source\PSoC4/I2CM_I2C_MASTER.c ****         if(I2CM_CHECK_I2C_FSM_IDLE)
  59              		.loc 1 84 0
  60 0018 324B     		ldr	r3, .L10
  61 001a 1B78     		ldrb	r3, [r3]
  62 001c DBB2     		uxtb	r3, r3
  63 001e 102B     		cmp	r3, #16
  64 0020 0CD1     		bne	.L3
  85:.\Generated_Source\PSoC4/I2CM_I2C_MASTER.c ****         {
  86:.\Generated_Source\PSoC4/I2CM_I2C_MASTER.c ****             I2CM_DisableInt();
  65              		.loc 1 86 0
  66 0022 0B20     		mov	r0, #11
  67 0024 FFF7FEFF 		bl	CyIntDisable
  87:.\Generated_Source\PSoC4/I2CM_I2C_MASTER.c **** 
  88:.\Generated_Source\PSoC4/I2CM_I2C_MASTER.c ****             /* Check bus state */
  89:.\Generated_Source\PSoC4/I2CM_I2C_MASTER.c ****             errStatus = I2CM_CHECK_I2C_STATUS(I2CM_I2C_STATUS_BUS_BUSY) ?
  68              		.loc 1 89 0
  69 0028 2F4B     		ldr	r3, .L10+4
  70 002a 1A68     		ldr	r2, [r3]
  71 002c 0123     		mov	r3, #1
  72 002e 1340     		and	r3, r2
  73 0030 01D0     		beq	.L4
  74              		.loc 1 89 0 is_stmt 0 discriminator 1
  75 0032 0823     		mov	r3, #8
  76 0034 00E0     		b	.L5
  77              	.L4:
  78              		.loc 1 89 0 discriminator 2
  79 0036 0023     		mov	r3, #0
  80              	.L5:
  81              		.loc 1 89 0 discriminator 3
  82 0038 7B61     		str	r3, [r7, #20]
ARM GAS  C:\Users\SNFU\AppData\Local\Temp\ccDApkRi.s 			page 4


  83 003a 0EE0     		b	.L2
  84              	.L3:
  90:.\Generated_Source\PSoC4/I2CM_I2C_MASTER.c ****                             I2CM_I2C_MSTR_BUS_BUSY : I2CM_I2C_MSTR_NO_ERROR;
  91:.\Generated_Source\PSoC4/I2CM_I2C_MASTER.c ****         }
  92:.\Generated_Source\PSoC4/I2CM_I2C_MASTER.c ****         else if(I2CM_CHECK_I2C_FSM_HALT)
  85              		.loc 1 92 0 is_stmt 1
  86 003c 294B     		ldr	r3, .L10
  87 003e 1B78     		ldrb	r3, [r3]
  88 0040 DBB2     		uxtb	r3, r3
  89 0042 602B     		cmp	r3, #96
  90 0044 09D1     		bne	.L2
  93:.\Generated_Source\PSoC4/I2CM_I2C_MASTER.c ****         {
  94:.\Generated_Source\PSoC4/I2CM_I2C_MASTER.c ****             I2CM_mstrStatus &= (uint16) ~I2CM_I2C_MSTAT_XFER_HALT;
  91              		.loc 1 94 0
  92 0046 294B     		ldr	r3, .L10+8
  93 0048 1B88     		ldrh	r3, [r3]
  94 004a 9BB2     		uxth	r3, r3
  95 004c 0822     		mov	r2, #8
  96 004e 9343     		bic	r3, r2
  97 0050 9AB2     		uxth	r2, r3
  98 0052 264B     		ldr	r3, .L10+8
  99 0054 1A80     		strh	r2, [r3]
  95:.\Generated_Source\PSoC4/I2CM_I2C_MASTER.c ****                               errStatus  = I2CM_I2C_MSTR_NO_ERROR;
 100              		.loc 1 95 0
 101 0056 0023     		mov	r3, #0
 102 0058 7B61     		str	r3, [r7, #20]
 103              	.L2:
  96:.\Generated_Source\PSoC4/I2CM_I2C_MASTER.c ****         }
  97:.\Generated_Source\PSoC4/I2CM_I2C_MASTER.c ****         else
  98:.\Generated_Source\PSoC4/I2CM_I2C_MASTER.c ****         {
  99:.\Generated_Source\PSoC4/I2CM_I2C_MASTER.c ****             /* Unexpected FSM state: exit */
 100:.\Generated_Source\PSoC4/I2CM_I2C_MASTER.c ****         }
 101:.\Generated_Source\PSoC4/I2CM_I2C_MASTER.c ****     }
 102:.\Generated_Source\PSoC4/I2CM_I2C_MASTER.c **** 
 103:.\Generated_Source\PSoC4/I2CM_I2C_MASTER.c **** 
 104:.\Generated_Source\PSoC4/I2CM_I2C_MASTER.c ****     /* Check if master is ready to start  */
 105:.\Generated_Source\PSoC4/I2CM_I2C_MASTER.c ****     if(I2CM_I2C_MSTR_NO_ERROR == errStatus) /* No error proceed */
 104              		.loc 1 105 0
 105 005a 7B69     		ldr	r3, [r7, #20]
 106 005c 002B     		cmp	r3, #0
 107 005e 38D1     		bne	.L6
 106:.\Generated_Source\PSoC4/I2CM_I2C_MASTER.c ****     {
 107:.\Generated_Source\PSoC4/I2CM_I2C_MASTER.c ****         /* Set up write transaction */
 108:.\Generated_Source\PSoC4/I2CM_I2C_MASTER.c ****         I2CM_state = I2CM_I2C_FSM_MSTR_WR_ADDR;
 108              		.loc 1 108 0
 109 0060 204B     		ldr	r3, .L10
 110 0062 2822     		mov	r2, #40
 111 0064 1A70     		strb	r2, [r3]
 109:.\Generated_Source\PSoC4/I2CM_I2C_MASTER.c ****         I2CM_mstrWrBufIndexTmp = 0u;
 112              		.loc 1 109 0
 113 0066 224B     		ldr	r3, .L10+12
 114 0068 0022     		mov	r2, #0
 115 006a 1A60     		str	r2, [r3]
 110:.\Generated_Source\PSoC4/I2CM_I2C_MASTER.c ****         I2CM_mstrWrBufIndex    = 0u;
 116              		.loc 1 110 0
 117 006c 214B     		ldr	r3, .L10+16
 118 006e 0022     		mov	r2, #0
ARM GAS  C:\Users\SNFU\AppData\Local\Temp\ccDApkRi.s 			page 5


 119 0070 1A60     		str	r2, [r3]
 111:.\Generated_Source\PSoC4/I2CM_I2C_MASTER.c ****         I2CM_mstrWrBufSize     = cnt;
 120              		.loc 1 111 0
 121 0072 214B     		ldr	r3, .L10+20
 122 0074 7A68     		ldr	r2, [r7, #4]
 123 0076 1A60     		str	r2, [r3]
 112:.\Generated_Source\PSoC4/I2CM_I2C_MASTER.c ****         I2CM_mstrWrBufPtr      = (volatile uint8 *) wrData;
 124              		.loc 1 112 0
 125 0078 204B     		ldr	r3, .L10+24
 126 007a BA68     		ldr	r2, [r7, #8]
 127 007c 1A60     		str	r2, [r3]
 113:.\Generated_Source\PSoC4/I2CM_I2C_MASTER.c ****         I2CM_mstrControl       = (uint8) mode;
 128              		.loc 1 113 0
 129 007e 3B68     		ldr	r3, [r7]
 130 0080 DAB2     		uxtb	r2, r3
 131 0082 1F4B     		ldr	r3, .L10+28
 132 0084 1A70     		strb	r2, [r3]
 114:.\Generated_Source\PSoC4/I2CM_I2C_MASTER.c **** 
 115:.\Generated_Source\PSoC4/I2CM_I2C_MASTER.c ****         slaveAddress = I2CM_GET_I2C_8BIT_ADDRESS(slaveAddress);
 133              		.loc 1 115 0
 134 0086 FB68     		ldr	r3, [r7, #12]
 135 0088 5A00     		lsl	r2, r3, #1
 136 008a FF23     		mov	r3, #255
 137 008c 1340     		and	r3, r2
 138 008e FB60     		str	r3, [r7, #12]
 116:.\Generated_Source\PSoC4/I2CM_I2C_MASTER.c **** 
 117:.\Generated_Source\PSoC4/I2CM_I2C_MASTER.c ****         I2CM_mstrStatus &= (uint16) ~I2CM_I2C_MSTAT_WR_CMPLT;
 139              		.loc 1 117 0
 140 0090 164B     		ldr	r3, .L10+8
 141 0092 1B88     		ldrh	r3, [r3]
 142 0094 9BB2     		uxth	r3, r3
 143 0096 0222     		mov	r2, #2
 144 0098 9343     		bic	r3, r2
 145 009a 9AB2     		uxth	r2, r3
 146 009c 134B     		ldr	r3, .L10+8
 147 009e 1A80     		strh	r2, [r3]
 118:.\Generated_Source\PSoC4/I2CM_I2C_MASTER.c **** 
 119:.\Generated_Source\PSoC4/I2CM_I2C_MASTER.c ****         I2CM_ClearMasterInterruptSource(I2CM_INTR_MASTER_ALL);
 148              		.loc 1 119 0
 149 00a0 184B     		ldr	r3, .L10+32
 150 00a2 194A     		ldr	r2, .L10+36
 151 00a4 1A60     		str	r2, [r3]
 120:.\Generated_Source\PSoC4/I2CM_I2C_MASTER.c ****         I2CM_ClearTxInterruptSource(I2CM_INTR_TX_UNDERFLOW);
 152              		.loc 1 120 0
 153 00a6 194B     		ldr	r3, .L10+40
 154 00a8 4022     		mov	r2, #64
 155 00aa 1A60     		str	r2, [r3]
 121:.\Generated_Source\PSoC4/I2CM_I2C_MASTER.c ****         /* The TX and RX FIFO have to be EMPTY */
 122:.\Generated_Source\PSoC4/I2CM_I2C_MASTER.c **** 
 123:.\Generated_Source\PSoC4/I2CM_I2C_MASTER.c ****         /* Generate Start or ReStart */
 124:.\Generated_Source\PSoC4/I2CM_I2C_MASTER.c ****         if(I2CM_CHECK_I2C_MODE_RESTART(mode))
 156              		.loc 1 124 0
 157 00ac 3A68     		ldr	r2, [r7]
 158 00ae 0123     		mov	r3, #1
 159 00b0 1340     		and	r3, r2
 160 00b2 05D0     		beq	.L7
 125:.\Generated_Source\PSoC4/I2CM_I2C_MASTER.c ****         {
ARM GAS  C:\Users\SNFU\AppData\Local\Temp\ccDApkRi.s 			page 6


 126:.\Generated_Source\PSoC4/I2CM_I2C_MASTER.c ****             I2CM_I2C_MASTER_GENERATE_RESTART;
 161              		.loc 1 126 0
 162 00b4 FFF7FEFF 		bl	I2CM_I2CReStartGeneration
 127:.\Generated_Source\PSoC4/I2CM_I2C_MASTER.c ****             I2CM_TX_FIFO_WR_REG = slaveAddress;
 163              		.loc 1 127 0
 164 00b8 154B     		ldr	r3, .L10+44
 165 00ba FA68     		ldr	r2, [r7, #12]
 166 00bc 1A60     		str	r2, [r3]
 167 00be 05E0     		b	.L8
 168              	.L7:
 128:.\Generated_Source\PSoC4/I2CM_I2C_MASTER.c ****         }
 129:.\Generated_Source\PSoC4/I2CM_I2C_MASTER.c ****         else
 130:.\Generated_Source\PSoC4/I2CM_I2C_MASTER.c ****         {
 131:.\Generated_Source\PSoC4/I2CM_I2C_MASTER.c ****             I2CM_TX_FIFO_WR_REG = slaveAddress;
 169              		.loc 1 131 0
 170 00c0 134B     		ldr	r3, .L10+44
 171 00c2 FA68     		ldr	r2, [r7, #12]
 172 00c4 1A60     		str	r2, [r3]
 132:.\Generated_Source\PSoC4/I2CM_I2C_MASTER.c ****             I2CM_I2C_MASTER_GENERATE_START;
 173              		.loc 1 132 0
 174 00c6 134B     		ldr	r3, .L10+48
 175 00c8 0222     		mov	r2, #2
 176 00ca 1A60     		str	r2, [r3]
 177              	.L8:
 133:.\Generated_Source\PSoC4/I2CM_I2C_MASTER.c ****         }
 134:.\Generated_Source\PSoC4/I2CM_I2C_MASTER.c **** 
 135:.\Generated_Source\PSoC4/I2CM_I2C_MASTER.c ****          /* Catch when address is sent */
 136:.\Generated_Source\PSoC4/I2CM_I2C_MASTER.c ****         I2CM_SetTxInterruptMode(I2CM_INTR_TX_UNDERFLOW);
 178              		.loc 1 136 0
 179 00cc 124B     		ldr	r3, .L10+52
 180 00ce 4022     		mov	r2, #64
 181 00d0 1A60     		str	r2, [r3]
 182              	.L6:
 137:.\Generated_Source\PSoC4/I2CM_I2C_MASTER.c ****     }
 138:.\Generated_Source\PSoC4/I2CM_I2C_MASTER.c **** 
 139:.\Generated_Source\PSoC4/I2CM_I2C_MASTER.c ****     I2CM_EnableInt();
 183              		.loc 1 139 0
 184 00d2 0B20     		mov	r0, #11
 185 00d4 FFF7FEFF 		bl	CyIntEnable
 140:.\Generated_Source\PSoC4/I2CM_I2C_MASTER.c **** 
 141:.\Generated_Source\PSoC4/I2CM_I2C_MASTER.c ****     return(errStatus);
 186              		.loc 1 141 0
 187 00d8 7B69     		ldr	r3, [r7, #20]
 142:.\Generated_Source\PSoC4/I2CM_I2C_MASTER.c **** }
 188              		.loc 1 142 0
 189 00da 181C     		mov	r0, r3
 190 00dc BD46     		mov	sp, r7
 191 00de 06B0     		add	sp, sp, #24
 192              		@ sp needed for prologue
 193 00e0 80BD     		pop	{r7, pc}
 194              	.L11:
 195 00e2 C046     		.align	2
 196              	.L10:
 197 00e4 00000000 		.word	I2CM_state
 198 00e8 64000740 		.word	1074200676
 199 00ec 00000000 		.word	I2CM_mstrStatus
 200 00f0 00000000 		.word	I2CM_mstrWrBufIndexTmp
ARM GAS  C:\Users\SNFU\AppData\Local\Temp\ccDApkRi.s 			page 7


 201 00f4 00000000 		.word	I2CM_mstrWrBufIndex
 202 00f8 00000000 		.word	I2CM_mstrWrBufSize
 203 00fc 00000000 		.word	I2CM_mstrWrBufPtr
 204 0100 00000000 		.word	I2CM_mstrControl
 205 0104 000F0740 		.word	1074204416
 206 0108 17030000 		.word	791
 207 010c 800F0740 		.word	1074204544
 208 0110 40020740 		.word	1074201152
 209 0114 68000740 		.word	1074200680
 210 0118 880F0740 		.word	1074204552
 211              		.cfi_endproc
 212              	.LFE0:
 213              		.size	I2CM_I2CMasterWriteBuf, .-I2CM_I2CMasterWriteBuf
 214              		.section	.text.I2CM_I2CMasterReadBuf,"ax",%progbits
 215              		.align	2
 216              		.global	I2CM_I2CMasterReadBuf
 217              		.code	16
 218              		.thumb_func
 219              		.type	I2CM_I2CMasterReadBuf, %function
 220              	I2CM_I2CMasterReadBuf:
 221              	.LFB1:
 143:.\Generated_Source\PSoC4/I2CM_I2C_MASTER.c **** 
 144:.\Generated_Source\PSoC4/I2CM_I2C_MASTER.c **** 
 145:.\Generated_Source\PSoC4/I2CM_I2C_MASTER.c **** /*******************************************************************************
 146:.\Generated_Source\PSoC4/I2CM_I2C_MASTER.c **** * Function Name: I2CM_I2CMasterReadBuf
 147:.\Generated_Source\PSoC4/I2CM_I2C_MASTER.c **** ********************************************************************************
 148:.\Generated_Source\PSoC4/I2CM_I2C_MASTER.c **** *
 149:.\Generated_Source\PSoC4/I2CM_I2C_MASTER.c **** * Summary:
 150:.\Generated_Source\PSoC4/I2CM_I2C_MASTER.c **** *  Automatically reads an entire buffer of data from a slave device.
 151:.\Generated_Source\PSoC4/I2CM_I2C_MASTER.c **** *  Once the data transfer is initiated by this function, further data transfer
 152:.\Generated_Source\PSoC4/I2CM_I2C_MASTER.c **** *  is handled by the included ISR.
 153:.\Generated_Source\PSoC4/I2CM_I2C_MASTER.c **** * Enables the I2C interrupt and clears SCB_ I2C_MSTAT_RD_CMPLT status.
 154:.\Generated_Source\PSoC4/I2CM_I2C_MASTER.c **** *
 155:.\Generated_Source\PSoC4/I2CM_I2C_MASTER.c **** * Parameters:
 156:.\Generated_Source\PSoC4/I2CM_I2C_MASTER.c **** *  slaveAddr: 7-bit slave address.
 157:.\Generated_Source\PSoC4/I2CM_I2C_MASTER.c **** *  xferData:  Pointer to buffer where to put data from slave.
 158:.\Generated_Source\PSoC4/I2CM_I2C_MASTER.c **** *  cnt:       Size of buffer to read.
 159:.\Generated_Source\PSoC4/I2CM_I2C_MASTER.c **** *  mode:      Transfer mode defines: start or restart condition generation at
 160:.\Generated_Source\PSoC4/I2CM_I2C_MASTER.c **** *             begin of the transfer and complete the transfer or halt before
 161:.\Generated_Source\PSoC4/I2CM_I2C_MASTER.c **** *             generating a stop.
 162:.\Generated_Source\PSoC4/I2CM_I2C_MASTER.c **** *
 163:.\Generated_Source\PSoC4/I2CM_I2C_MASTER.c **** * Return:
 164:.\Generated_Source\PSoC4/I2CM_I2C_MASTER.c **** *  Error status.
 165:.\Generated_Source\PSoC4/I2CM_I2C_MASTER.c **** *
 166:.\Generated_Source\PSoC4/I2CM_I2C_MASTER.c **** * Global variables:
 167:.\Generated_Source\PSoC4/I2CM_I2C_MASTER.c **** *  I2CM_mstrStatus  - used to store current status of I2C Master.
 168:.\Generated_Source\PSoC4/I2CM_I2C_MASTER.c **** *  I2CM_state       - used to store current state of software FSM.
 169:.\Generated_Source\PSoC4/I2CM_I2C_MASTER.c **** *  I2CM_mstrControl - used to control master end of transaction with
 170:.\Generated_Source\PSoC4/I2CM_I2C_MASTER.c **** *  or without the Stop generation.
 171:.\Generated_Source\PSoC4/I2CM_I2C_MASTER.c **** *  I2CM_mstrRdBufPtr - used to store pointer to master write buffer.
 172:.\Generated_Source\PSoC4/I2CM_I2C_MASTER.c **** *  I2CM_mstrRdBufIndex - used to current index within master write
 173:.\Generated_Source\PSoC4/I2CM_I2C_MASTER.c **** *  buffer.
 174:.\Generated_Source\PSoC4/I2CM_I2C_MASTER.c **** *  I2CM_mstrRdBufSize - used to store master write buffer size.
 175:.\Generated_Source\PSoC4/I2CM_I2C_MASTER.c **** *
 176:.\Generated_Source\PSoC4/I2CM_I2C_MASTER.c **** *******************************************************************************/
 177:.\Generated_Source\PSoC4/I2CM_I2C_MASTER.c **** uint32 I2CM_I2CMasterReadBuf(uint32 slaveAddress, uint8 * rdData, uint32 cnt, uint32 mode)
 178:.\Generated_Source\PSoC4/I2CM_I2C_MASTER.c **** {
ARM GAS  C:\Users\SNFU\AppData\Local\Temp\ccDApkRi.s 			page 8


 222              		.loc 1 178 0
 223              		.cfi_startproc
 224 0000 80B5     		push	{r7, lr}
 225              	.LCFI3:
 226              		.cfi_def_cfa_offset 8
 227              		.cfi_offset 7, -8
 228              		.cfi_offset 14, -4
 229 0002 86B0     		sub	sp, sp, #24
 230              	.LCFI4:
 231              		.cfi_def_cfa_offset 32
 232 0004 00AF     		add	r7, sp, #0
 233              	.LCFI5:
 234              		.cfi_def_cfa_register 7
 235 0006 F860     		str	r0, [r7, #12]
 236 0008 B960     		str	r1, [r7, #8]
 237 000a 7A60     		str	r2, [r7, #4]
 238 000c 3B60     		str	r3, [r7]
 179:.\Generated_Source\PSoC4/I2CM_I2C_MASTER.c ****     uint32 errStatus;
 180:.\Generated_Source\PSoC4/I2CM_I2C_MASTER.c **** 
 181:.\Generated_Source\PSoC4/I2CM_I2C_MASTER.c ****     errStatus = I2CM_I2C_MSTR_NOT_READY;
 239              		.loc 1 181 0
 240 000e 0423     		mov	r3, #4
 241 0010 7B61     		str	r3, [r7, #20]
 182:.\Generated_Source\PSoC4/I2CM_I2C_MASTER.c **** 
 183:.\Generated_Source\PSoC4/I2CM_I2C_MASTER.c ****     if(NULL != rdData)
 242              		.loc 1 183 0
 243 0012 BB68     		ldr	r3, [r7, #8]
 244 0014 002B     		cmp	r3, #0
 245 0016 20D0     		beq	.L13
 184:.\Generated_Source\PSoC4/I2CM_I2C_MASTER.c ****     {
 185:.\Generated_Source\PSoC4/I2CM_I2C_MASTER.c ****         /* Check FSM state and bus before generating Start/ReStart condition */
 186:.\Generated_Source\PSoC4/I2CM_I2C_MASTER.c ****         if(I2CM_CHECK_I2C_FSM_IDLE)
 246              		.loc 1 186 0
 247 0018 374B     		ldr	r3, .L22
 248 001a 1B78     		ldrb	r3, [r3]
 249 001c DBB2     		uxtb	r3, r3
 250 001e 102B     		cmp	r3, #16
 251 0020 0CD1     		bne	.L14
 187:.\Generated_Source\PSoC4/I2CM_I2C_MASTER.c ****         {
 188:.\Generated_Source\PSoC4/I2CM_I2C_MASTER.c ****             I2CM_DisableInt();
 252              		.loc 1 188 0
 253 0022 0B20     		mov	r0, #11
 254 0024 FFF7FEFF 		bl	CyIntDisable
 189:.\Generated_Source\PSoC4/I2CM_I2C_MASTER.c **** 
 190:.\Generated_Source\PSoC4/I2CM_I2C_MASTER.c ****             /* Check bus state */
 191:.\Generated_Source\PSoC4/I2CM_I2C_MASTER.c ****             errStatus = I2CM_CHECK_I2C_STATUS(I2CM_I2C_STATUS_BUS_BUSY) ?
 255              		.loc 1 191 0
 256 0028 344B     		ldr	r3, .L22+4
 257 002a 1A68     		ldr	r2, [r3]
 258 002c 0123     		mov	r3, #1
 259 002e 1340     		and	r3, r2
 260 0030 01D0     		beq	.L15
 261              		.loc 1 191 0 is_stmt 0 discriminator 1
 262 0032 0823     		mov	r3, #8
 263 0034 00E0     		b	.L16
 264              	.L15:
 265              		.loc 1 191 0 discriminator 2
ARM GAS  C:\Users\SNFU\AppData\Local\Temp\ccDApkRi.s 			page 9


 266 0036 0023     		mov	r3, #0
 267              	.L16:
 268              		.loc 1 191 0 discriminator 3
 269 0038 7B61     		str	r3, [r7, #20]
 270 003a 0EE0     		b	.L13
 271              	.L14:
 192:.\Generated_Source\PSoC4/I2CM_I2C_MASTER.c ****                             I2CM_I2C_MSTR_BUS_BUSY : I2CM_I2C_MSTR_NO_ERROR;
 193:.\Generated_Source\PSoC4/I2CM_I2C_MASTER.c ****         }
 194:.\Generated_Source\PSoC4/I2CM_I2C_MASTER.c ****         else if(I2CM_CHECK_I2C_FSM_HALT)
 272              		.loc 1 194 0 is_stmt 1
 273 003c 2E4B     		ldr	r3, .L22
 274 003e 1B78     		ldrb	r3, [r3]
 275 0040 DBB2     		uxtb	r3, r3
 276 0042 602B     		cmp	r3, #96
 277 0044 09D1     		bne	.L13
 195:.\Generated_Source\PSoC4/I2CM_I2C_MASTER.c ****         {
 196:.\Generated_Source\PSoC4/I2CM_I2C_MASTER.c ****             I2CM_mstrStatus &= (uint16) ~I2CM_I2C_MSTAT_XFER_HALT;
 278              		.loc 1 196 0
 279 0046 2E4B     		ldr	r3, .L22+8
 280 0048 1B88     		ldrh	r3, [r3]
 281 004a 9BB2     		uxth	r3, r3
 282 004c 0822     		mov	r2, #8
 283 004e 9343     		bic	r3, r2
 284 0050 9AB2     		uxth	r2, r3
 285 0052 2B4B     		ldr	r3, .L22+8
 286 0054 1A80     		strh	r2, [r3]
 197:.\Generated_Source\PSoC4/I2CM_I2C_MASTER.c ****                               errStatus  =  I2CM_I2C_MSTR_NO_ERROR;
 287              		.loc 1 197 0
 288 0056 0023     		mov	r3, #0
 289 0058 7B61     		str	r3, [r7, #20]
 290              	.L13:
 198:.\Generated_Source\PSoC4/I2CM_I2C_MASTER.c ****         }
 199:.\Generated_Source\PSoC4/I2CM_I2C_MASTER.c ****         else
 200:.\Generated_Source\PSoC4/I2CM_I2C_MASTER.c ****         {
 201:.\Generated_Source\PSoC4/I2CM_I2C_MASTER.c ****             /* Unexpected FSM state: exit */
 202:.\Generated_Source\PSoC4/I2CM_I2C_MASTER.c ****         }
 203:.\Generated_Source\PSoC4/I2CM_I2C_MASTER.c ****     }
 204:.\Generated_Source\PSoC4/I2CM_I2C_MASTER.c **** 
 205:.\Generated_Source\PSoC4/I2CM_I2C_MASTER.c ****     /* Check master ready to proceed */
 206:.\Generated_Source\PSoC4/I2CM_I2C_MASTER.c ****     if(I2CM_I2C_MSTR_NO_ERROR == errStatus) /* No error proceed */
 291              		.loc 1 206 0
 292 005a 7B69     		ldr	r3, [r7, #20]
 293 005c 002B     		cmp	r3, #0
 294 005e 43D1     		bne	.L17
 207:.\Generated_Source\PSoC4/I2CM_I2C_MASTER.c ****     {
 208:.\Generated_Source\PSoC4/I2CM_I2C_MASTER.c ****         /* Set up read transaction */
 209:.\Generated_Source\PSoC4/I2CM_I2C_MASTER.c ****         I2CM_state = I2CM_I2C_FSM_MSTR_RD_ADDR;
 295              		.loc 1 209 0
 296 0060 254B     		ldr	r3, .L22
 297 0062 2922     		mov	r2, #41
 298 0064 1A70     		strb	r2, [r3]
 210:.\Generated_Source\PSoC4/I2CM_I2C_MASTER.c ****         I2CM_mstrRdBufIndex = 0u;
 299              		.loc 1 210 0
 300 0066 274B     		ldr	r3, .L22+12
 301 0068 0022     		mov	r2, #0
 302 006a 1A60     		str	r2, [r3]
 211:.\Generated_Source\PSoC4/I2CM_I2C_MASTER.c ****         I2CM_mstrRdBufSize  = cnt;
ARM GAS  C:\Users\SNFU\AppData\Local\Temp\ccDApkRi.s 			page 10


 303              		.loc 1 211 0
 304 006c 264B     		ldr	r3, .L22+16
 305 006e 7A68     		ldr	r2, [r7, #4]
 306 0070 1A60     		str	r2, [r3]
 212:.\Generated_Source\PSoC4/I2CM_I2C_MASTER.c ****         I2CM_mstrRdBufPtr   = (volatile uint8 *) rdData;
 307              		.loc 1 212 0
 308 0072 264B     		ldr	r3, .L22+20
 309 0074 BA68     		ldr	r2, [r7, #8]
 310 0076 1A60     		str	r2, [r3]
 213:.\Generated_Source\PSoC4/I2CM_I2C_MASTER.c ****         I2CM_mstrControl    = (uint8) mode;
 311              		.loc 1 213 0
 312 0078 3B68     		ldr	r3, [r7]
 313 007a DAB2     		uxtb	r2, r3
 314 007c 244B     		ldr	r3, .L22+24
 315 007e 1A70     		strb	r2, [r3]
 214:.\Generated_Source\PSoC4/I2CM_I2C_MASTER.c **** 
 215:.\Generated_Source\PSoC4/I2CM_I2C_MASTER.c ****         slaveAddress = (I2CM_GET_I2C_8BIT_ADDRESS(slaveAddress) | I2CM_I2C_READ_FLAG);
 316              		.loc 1 215 0
 317 0080 FB68     		ldr	r3, [r7, #12]
 318 0082 5A00     		lsl	r2, r3, #1
 319 0084 FF23     		mov	r3, #255
 320 0086 1340     		and	r3, r2
 321 0088 0122     		mov	r2, #1
 322 008a 1343     		orr	r3, r2
 323 008c FB60     		str	r3, [r7, #12]
 216:.\Generated_Source\PSoC4/I2CM_I2C_MASTER.c **** 
 217:.\Generated_Source\PSoC4/I2CM_I2C_MASTER.c ****         I2CM_mstrStatus &= (uint16) ~I2CM_I2C_MSTAT_RD_CMPLT;
 324              		.loc 1 217 0
 325 008e 1C4B     		ldr	r3, .L22+8
 326 0090 1B88     		ldrh	r3, [r3]
 327 0092 9BB2     		uxth	r3, r3
 328 0094 0122     		mov	r2, #1
 329 0096 9343     		bic	r3, r2
 330 0098 9AB2     		uxth	r2, r3
 331 009a 194B     		ldr	r3, .L22+8
 332 009c 1A80     		strh	r2, [r3]
 218:.\Generated_Source\PSoC4/I2CM_I2C_MASTER.c **** 
 219:.\Generated_Source\PSoC4/I2CM_I2C_MASTER.c ****         I2CM_ClearMasterInterruptSource(I2CM_INTR_MASTER_ALL);
 333              		.loc 1 219 0
 334 009e 1D4B     		ldr	r3, .L22+28
 335 00a0 1D4A     		ldr	r2, .L22+32
 336 00a2 1A60     		str	r2, [r3]
 220:.\Generated_Source\PSoC4/I2CM_I2C_MASTER.c **** 
 221:.\Generated_Source\PSoC4/I2CM_I2C_MASTER.c ****         /* The TX and RX FIFO have to be EMPTY */
 222:.\Generated_Source\PSoC4/I2CM_I2C_MASTER.c **** 
 223:.\Generated_Source\PSoC4/I2CM_I2C_MASTER.c ****         /* Generate Start or ReStart */
 224:.\Generated_Source\PSoC4/I2CM_I2C_MASTER.c ****         if(I2CM_CHECK_I2C_MODE_RESTART(mode))
 337              		.loc 1 224 0
 338 00a4 3A68     		ldr	r2, [r7]
 339 00a6 0123     		mov	r3, #1
 340 00a8 1340     		and	r3, r2
 341 00aa 05D0     		beq	.L18
 225:.\Generated_Source\PSoC4/I2CM_I2C_MASTER.c ****         {
 226:.\Generated_Source\PSoC4/I2CM_I2C_MASTER.c ****             I2CM_I2C_MASTER_GENERATE_RESTART;
 342              		.loc 1 226 0
 343 00ac FFF7FEFF 		bl	I2CM_I2CReStartGeneration
 227:.\Generated_Source\PSoC4/I2CM_I2C_MASTER.c ****             I2CM_TX_FIFO_WR_REG = (slaveAddress);
ARM GAS  C:\Users\SNFU\AppData\Local\Temp\ccDApkRi.s 			page 11


 344              		.loc 1 227 0
 345 00b0 1A4B     		ldr	r3, .L22+36
 346 00b2 FA68     		ldr	r2, [r7, #12]
 347 00b4 1A60     		str	r2, [r3]
 348 00b6 05E0     		b	.L19
 349              	.L18:
 228:.\Generated_Source\PSoC4/I2CM_I2C_MASTER.c ****         }
 229:.\Generated_Source\PSoC4/I2CM_I2C_MASTER.c ****         else
 230:.\Generated_Source\PSoC4/I2CM_I2C_MASTER.c ****         {
 231:.\Generated_Source\PSoC4/I2CM_I2C_MASTER.c ****             I2CM_TX_FIFO_WR_REG = (slaveAddress);
 350              		.loc 1 231 0
 351 00b8 184B     		ldr	r3, .L22+36
 352 00ba FA68     		ldr	r2, [r7, #12]
 353 00bc 1A60     		str	r2, [r3]
 232:.\Generated_Source\PSoC4/I2CM_I2C_MASTER.c ****             I2CM_I2C_MASTER_GENERATE_START;
 354              		.loc 1 232 0
 355 00be 184B     		ldr	r3, .L22+40
 356 00c0 0222     		mov	r2, #2
 357 00c2 1A60     		str	r2, [r3]
 358              	.L19:
 233:.\Generated_Source\PSoC4/I2CM_I2C_MASTER.c ****         }
 234:.\Generated_Source\PSoC4/I2CM_I2C_MASTER.c **** 
 235:.\Generated_Source\PSoC4/I2CM_I2C_MASTER.c ****         /* Prepare reading */
 236:.\Generated_Source\PSoC4/I2CM_I2C_MASTER.c ****         if(I2CM_mstrRdBufSize < I2CM_I2C_FIFO_SIZE) /* Reading byte-by-byte */
 359              		.loc 1 236 0
 360 00c4 104B     		ldr	r3, .L22+16
 361 00c6 1B68     		ldr	r3, [r3]
 362 00c8 072B     		cmp	r3, #7
 363 00ca 03D8     		bhi	.L20
 237:.\Generated_Source\PSoC4/I2CM_I2C_MASTER.c ****         {
 238:.\Generated_Source\PSoC4/I2CM_I2C_MASTER.c ****             I2CM_SetRxInterruptMode(I2CM_INTR_RX_NOT_EMPTY);
 364              		.loc 1 238 0
 365 00cc 154B     		ldr	r3, .L22+44
 366 00ce 0422     		mov	r2, #4
 367 00d0 1A60     		str	r2, [r3]
 368 00d2 09E0     		b	.L17
 369              	.L20:
 239:.\Generated_Source\PSoC4/I2CM_I2C_MASTER.c ****         }
 240:.\Generated_Source\PSoC4/I2CM_I2C_MASTER.c ****         else /* Reading use RX FIFO */
 241:.\Generated_Source\PSoC4/I2CM_I2C_MASTER.c ****         {
 242:.\Generated_Source\PSoC4/I2CM_I2C_MASTER.c ****             I2CM_ENABLE_MASTER_AUTO_DATA_ACK;
 370              		.loc 1 242 0
 371 00d4 144B     		ldr	r3, .L22+48
 372 00d6 144A     		ldr	r2, .L22+48
 373 00d8 1268     		ldr	r2, [r2]
 374 00da 8021     		mov	r1, #128
 375 00dc 4900     		lsl	r1, r1, #1
 376 00de 0A43     		orr	r2, r1
 377 00e0 1A60     		str	r2, [r3]
 243:.\Generated_Source\PSoC4/I2CM_I2C_MASTER.c ****             I2CM_SetRxInterruptMode(I2CM_INTR_RX_FULL);
 378              		.loc 1 243 0
 379 00e2 104B     		ldr	r3, .L22+44
 380 00e4 0822     		mov	r2, #8
 381 00e6 1A60     		str	r2, [r3]
 382              	.L17:
 244:.\Generated_Source\PSoC4/I2CM_I2C_MASTER.c ****         }
 245:.\Generated_Source\PSoC4/I2CM_I2C_MASTER.c ****     }
ARM GAS  C:\Users\SNFU\AppData\Local\Temp\ccDApkRi.s 			page 12


 246:.\Generated_Source\PSoC4/I2CM_I2C_MASTER.c **** 
 247:.\Generated_Source\PSoC4/I2CM_I2C_MASTER.c ****     I2CM_EnableInt();
 383              		.loc 1 247 0
 384 00e8 0B20     		mov	r0, #11
 385 00ea FFF7FEFF 		bl	CyIntEnable
 248:.\Generated_Source\PSoC4/I2CM_I2C_MASTER.c **** 
 249:.\Generated_Source\PSoC4/I2CM_I2C_MASTER.c ****     return(errStatus);
 386              		.loc 1 249 0
 387 00ee 7B69     		ldr	r3, [r7, #20]
 250:.\Generated_Source\PSoC4/I2CM_I2C_MASTER.c **** }
 388              		.loc 1 250 0
 389 00f0 181C     		mov	r0, r3
 390 00f2 BD46     		mov	sp, r7
 391 00f4 06B0     		add	sp, sp, #24
 392              		@ sp needed for prologue
 393 00f6 80BD     		pop	{r7, pc}
 394              	.L23:
 395              		.align	2
 396              	.L22:
 397 00f8 00000000 		.word	I2CM_state
 398 00fc 64000740 		.word	1074200676
 399 0100 00000000 		.word	I2CM_mstrStatus
 400 0104 00000000 		.word	I2CM_mstrRdBufIndex
 401 0108 00000000 		.word	I2CM_mstrRdBufSize
 402 010c 00000000 		.word	I2CM_mstrRdBufPtr
 403 0110 00000000 		.word	I2CM_mstrControl
 404 0114 000F0740 		.word	1074204416
 405 0118 17030000 		.word	791
 406 011c 40020740 		.word	1074201152
 407 0120 68000740 		.word	1074200680
 408 0124 C80F0740 		.word	1074204616
 409 0128 60000740 		.word	1074200672
 410              		.cfi_endproc
 411              	.LFE1:
 412              		.size	I2CM_I2CMasterReadBuf, .-I2CM_I2CMasterReadBuf
 413              		.section	.text.I2CM_I2CMasterSendStart,"ax",%progbits
 414              		.align	2
 415              		.global	I2CM_I2CMasterSendStart
 416              		.code	16
 417              		.thumb_func
 418              		.type	I2CM_I2CMasterSendStart, %function
 419              	I2CM_I2CMasterSendStart:
 420              	.LFB2:
 251:.\Generated_Source\PSoC4/I2CM_I2C_MASTER.c **** 
 252:.\Generated_Source\PSoC4/I2CM_I2C_MASTER.c **** 
 253:.\Generated_Source\PSoC4/I2CM_I2C_MASTER.c **** /*******************************************************************************
 254:.\Generated_Source\PSoC4/I2CM_I2C_MASTER.c **** * Function Name: I2CM_I2CMasterSendStart
 255:.\Generated_Source\PSoC4/I2CM_I2C_MASTER.c **** ********************************************************************************
 256:.\Generated_Source\PSoC4/I2CM_I2C_MASTER.c **** *
 257:.\Generated_Source\PSoC4/I2CM_I2C_MASTER.c **** * Summary:
 258:.\Generated_Source\PSoC4/I2CM_I2C_MASTER.c **** *  Generates Start condition and sends slave address with read/write bit.
 259:.\Generated_Source\PSoC4/I2CM_I2C_MASTER.c **** *  Disables the I2C interrupt.
 260:.\Generated_Source\PSoC4/I2CM_I2C_MASTER.c **** *  This function is blocking and does not return until start condition and
 261:.\Generated_Source\PSoC4/I2CM_I2C_MASTER.c **** *  address byte are sent and ACK/NACK response is received or errors occurred.
 262:.\Generated_Source\PSoC4/I2CM_I2C_MASTER.c **** *
 263:.\Generated_Source\PSoC4/I2CM_I2C_MASTER.c **** * Parameters:
 264:.\Generated_Source\PSoC4/I2CM_I2C_MASTER.c **** *  slaveAddress: Right justified 7-bit Slave address (valid range 8 to 120).
ARM GAS  C:\Users\SNFU\AppData\Local\Temp\ccDApkRi.s 			page 13


 265:.\Generated_Source\PSoC4/I2CM_I2C_MASTER.c **** *  bitRnW:       Direction of the following transfer. It is defined by
 266:.\Generated_Source\PSoC4/I2CM_I2C_MASTER.c **** *                read/write bit within address byte.
 267:.\Generated_Source\PSoC4/I2CM_I2C_MASTER.c **** *
 268:.\Generated_Source\PSoC4/I2CM_I2C_MASTER.c **** * Return:
 269:.\Generated_Source\PSoC4/I2CM_I2C_MASTER.c **** *  Erorr status.
 270:.\Generated_Source\PSoC4/I2CM_I2C_MASTER.c **** *
 271:.\Generated_Source\PSoC4/I2CM_I2C_MASTER.c **** * Global variables:
 272:.\Generated_Source\PSoC4/I2CM_I2C_MASTER.c **** *  I2CM_state - used to store current state of software FSM.
 273:.\Generated_Source\PSoC4/I2CM_I2C_MASTER.c **** *
 274:.\Generated_Source\PSoC4/I2CM_I2C_MASTER.c **** *******************************************************************************/
 275:.\Generated_Source\PSoC4/I2CM_I2C_MASTER.c **** uint32 I2CM_I2CMasterSendStart(uint32 slaveAddress, uint32 bitRnW)
 276:.\Generated_Source\PSoC4/I2CM_I2C_MASTER.c **** {
 421              		.loc 1 276 0
 422              		.cfi_startproc
 423 0000 80B5     		push	{r7, lr}
 424              	.LCFI6:
 425              		.cfi_def_cfa_offset 8
 426              		.cfi_offset 7, -8
 427              		.cfi_offset 14, -4
 428 0002 84B0     		sub	sp, sp, #16
 429              	.LCFI7:
 430              		.cfi_def_cfa_offset 24
 431 0004 00AF     		add	r7, sp, #0
 432              	.LCFI8:
 433              		.cfi_def_cfa_register 7
 434 0006 7860     		str	r0, [r7, #4]
 435 0008 3960     		str	r1, [r7]
 277:.\Generated_Source\PSoC4/I2CM_I2C_MASTER.c ****     uint32  resetIp;
 278:.\Generated_Source\PSoC4/I2CM_I2C_MASTER.c ****     uint32 errStatus;
 279:.\Generated_Source\PSoC4/I2CM_I2C_MASTER.c **** 
 280:.\Generated_Source\PSoC4/I2CM_I2C_MASTER.c ****     resetIp   = 0u;
 436              		.loc 1 280 0
 437 000a 0023     		mov	r3, #0
 438 000c FB60     		str	r3, [r7, #12]
 281:.\Generated_Source\PSoC4/I2CM_I2C_MASTER.c ****     errStatus = I2CM_I2C_MSTR_NOT_READY;
 439              		.loc 1 281 0
 440 000e 0423     		mov	r3, #4
 441 0010 BB60     		str	r3, [r7, #8]
 282:.\Generated_Source\PSoC4/I2CM_I2C_MASTER.c **** 
 283:.\Generated_Source\PSoC4/I2CM_I2C_MASTER.c ****     /* Check FSM state before generating Start condition */
 284:.\Generated_Source\PSoC4/I2CM_I2C_MASTER.c ****     if(I2CM_CHECK_I2C_FSM_IDLE)
 442              		.loc 1 284 0
 443 0012 364B     		ldr	r3, .L35
 444 0014 1B78     		ldrb	r3, [r3]
 445 0016 DBB2     		uxtb	r3, r3
 446 0018 102B     		cmp	r3, #16
 447 001a 61D1     		bne	.L25
 285:.\Generated_Source\PSoC4/I2CM_I2C_MASTER.c ****     {
 286:.\Generated_Source\PSoC4/I2CM_I2C_MASTER.c ****         /* If bus is free, generate Start condition */
 287:.\Generated_Source\PSoC4/I2CM_I2C_MASTER.c ****         if(I2CM_CHECK_I2C_STATUS(I2CM_I2C_STATUS_BUS_BUSY))
 448              		.loc 1 287 0
 449 001c 344B     		ldr	r3, .L35+4
 450 001e 1A68     		ldr	r2, [r3]
 451 0020 0123     		mov	r3, #1
 452 0022 1340     		and	r3, r2
 453 0024 02D0     		beq	.L26
 288:.\Generated_Source\PSoC4/I2CM_I2C_MASTER.c ****         {
ARM GAS  C:\Users\SNFU\AppData\Local\Temp\ccDApkRi.s 			page 14


 289:.\Generated_Source\PSoC4/I2CM_I2C_MASTER.c ****             errStatus = I2CM_I2C_MSTR_BUS_BUSY;
 454              		.loc 1 289 0
 455 0026 0823     		mov	r3, #8
 456 0028 BB60     		str	r3, [r7, #8]
 457 002a 59E0     		b	.L25
 458              	.L26:
 290:.\Generated_Source\PSoC4/I2CM_I2C_MASTER.c ****         }
 291:.\Generated_Source\PSoC4/I2CM_I2C_MASTER.c ****         else
 292:.\Generated_Source\PSoC4/I2CM_I2C_MASTER.c ****         {
 293:.\Generated_Source\PSoC4/I2CM_I2C_MASTER.c ****             //I2CM_DisableInt();
 294:.\Generated_Source\PSoC4/I2CM_I2C_MASTER.c **** 
 295:.\Generated_Source\PSoC4/I2CM_I2C_MASTER.c ****             slaveAddress = I2CM_GET_I2C_8BIT_ADDRESS(slaveAddress);
 459              		.loc 1 295 0
 460 002c 7B68     		ldr	r3, [r7, #4]
 461 002e 5A00     		lsl	r2, r3, #1
 462 0030 FF23     		mov	r3, #255
 463 0032 1340     		and	r3, r2
 464 0034 7B60     		str	r3, [r7, #4]
 296:.\Generated_Source\PSoC4/I2CM_I2C_MASTER.c **** 
 297:.\Generated_Source\PSoC4/I2CM_I2C_MASTER.c ****             if(0u == bitRnW) /* Write direction */
 465              		.loc 1 297 0
 466 0036 3B68     		ldr	r3, [r7]
 467 0038 002B     		cmp	r3, #0
 468 003a 03D1     		bne	.L27
 298:.\Generated_Source\PSoC4/I2CM_I2C_MASTER.c ****             {
 299:.\Generated_Source\PSoC4/I2CM_I2C_MASTER.c ****                 I2CM_state = I2CM_I2C_FSM_MSTR_WR_DATA;
 469              		.loc 1 299 0
 470 003c 2B4B     		ldr	r3, .L35
 471 003e 2422     		mov	r2, #36
 472 0040 1A70     		strb	r2, [r3]
 473 0042 06E0     		b	.L28
 474              	.L27:
 300:.\Generated_Source\PSoC4/I2CM_I2C_MASTER.c ****             }
 301:.\Generated_Source\PSoC4/I2CM_I2C_MASTER.c ****             else /* Read direction */
 302:.\Generated_Source\PSoC4/I2CM_I2C_MASTER.c ****             {
 303:.\Generated_Source\PSoC4/I2CM_I2C_MASTER.c ****                 I2CM_state = I2CM_I2C_FSM_MSTR_RD_DATA;
 475              		.loc 1 303 0
 476 0044 294B     		ldr	r3, .L35
 477 0046 2522     		mov	r2, #37
 478 0048 1A70     		strb	r2, [r3]
 304:.\Generated_Source\PSoC4/I2CM_I2C_MASTER.c ****                          slaveAddress |= I2CM_I2C_READ_FLAG;
 479              		.loc 1 304 0
 480 004a 7B68     		ldr	r3, [r7, #4]
 481 004c 0122     		mov	r2, #1
 482 004e 1343     		orr	r3, r2
 483 0050 7B60     		str	r3, [r7, #4]
 484              	.L28:
 305:.\Generated_Source\PSoC4/I2CM_I2C_MASTER.c ****             }
 306:.\Generated_Source\PSoC4/I2CM_I2C_MASTER.c **** 
 307:.\Generated_Source\PSoC4/I2CM_I2C_MASTER.c ****             /* The TX and RX FIFO have to be EMPTY */
 308:.\Generated_Source\PSoC4/I2CM_I2C_MASTER.c **** 
 309:.\Generated_Source\PSoC4/I2CM_I2C_MASTER.c ****             I2CM_TX_FIFO_WR_REG = slaveAddress; /* Put address in TX FIFO */
 485              		.loc 1 309 0
 486 0052 284B     		ldr	r3, .L35+8
 487 0054 7A68     		ldr	r2, [r7, #4]
 488 0056 1A60     		str	r2, [r3]
 310:.\Generated_Source\PSoC4/I2CM_I2C_MASTER.c ****             I2CM_ClearMasterInterruptSource(I2CM_INTR_MASTER_ALL);
ARM GAS  C:\Users\SNFU\AppData\Local\Temp\ccDApkRi.s 			page 15


 489              		.loc 1 310 0
 490 0058 274B     		ldr	r3, .L35+12
 491 005a 284A     		ldr	r2, .L35+16
 492 005c 1A60     		str	r2, [r3]
 311:.\Generated_Source\PSoC4/I2CM_I2C_MASTER.c **** 
 312:.\Generated_Source\PSoC4/I2CM_I2C_MASTER.c ****             I2CM_I2C_MASTER_GENERATE_START;
 493              		.loc 1 312 0
 494 005e 284B     		ldr	r3, .L35+20
 495 0060 0222     		mov	r2, #2
 496 0062 1A60     		str	r2, [r3]
 313:.\Generated_Source\PSoC4/I2CM_I2C_MASTER.c **** 
 314:.\Generated_Source\PSoC4/I2CM_I2C_MASTER.c **** 
 315:.\Generated_Source\PSoC4/I2CM_I2C_MASTER.c ****             while(!I2CM_CHECK_INTR_MASTER(I2CM_INTR_MASTER_I2C_ACK      |
 497              		.loc 1 315 0
 498 0064 C046     		mov	r8, r8
 499              	.L29:
 500              		.loc 1 315 0 is_stmt 0 discriminator 1
 501 0066 244B     		ldr	r3, .L35+12
 502 0068 1A68     		ldr	r2, [r3]
 503 006a 264B     		ldr	r3, .L35+24
 504 006c 1340     		and	r3, r2
 505 006e FAD0     		beq	.L29
 316:.\Generated_Source\PSoC4/I2CM_I2C_MASTER.c ****                                                       I2CM_INTR_MASTER_I2C_NACK     |
 317:.\Generated_Source\PSoC4/I2CM_I2C_MASTER.c ****                                                       I2CM_INTR_MASTER_I2C_ARB_LOST |
 318:.\Generated_Source\PSoC4/I2CM_I2C_MASTER.c ****                                                       I2CM_INTR_MASTER_I2C_BUS_ERROR))
 319:.\Generated_Source\PSoC4/I2CM_I2C_MASTER.c ****             {
 320:.\Generated_Source\PSoC4/I2CM_I2C_MASTER.c ****                 /*
 321:.\Generated_Source\PSoC4/I2CM_I2C_MASTER.c ****                 * Write: wait until address has been transferred
 322:.\Generated_Source\PSoC4/I2CM_I2C_MASTER.c ****                 * Read : wait until address has been transferred, data byte is going to RX FIFO as 
 323:.\Generated_Source\PSoC4/I2CM_I2C_MASTER.c ****                 */
 324:.\Generated_Source\PSoC4/I2CM_I2C_MASTER.c ****             }
 325:.\Generated_Source\PSoC4/I2CM_I2C_MASTER.c **** 
 326:.\Generated_Source\PSoC4/I2CM_I2C_MASTER.c ****             /* Check the results of the address phase */
 327:.\Generated_Source\PSoC4/I2CM_I2C_MASTER.c ****             if(I2CM_CHECK_INTR_MASTER(I2CM_INTR_MASTER_I2C_ACK))
 506              		.loc 1 327 0 is_stmt 1
 507 0070 214B     		ldr	r3, .L35+12
 508 0072 1A68     		ldr	r2, [r3]
 509 0074 0423     		mov	r3, #4
 510 0076 1340     		and	r3, r2
 511 0078 02D0     		beq	.L30
 328:.\Generated_Source\PSoC4/I2CM_I2C_MASTER.c ****             {
 329:.\Generated_Source\PSoC4/I2CM_I2C_MASTER.c ****                 errStatus = I2CM_I2C_MSTR_NO_ERROR;
 512              		.loc 1 329 0
 513 007a 0023     		mov	r3, #0
 514 007c BB60     		str	r3, [r7, #8]
 515 007e 1CE0     		b	.L31
 516              	.L30:
 330:.\Generated_Source\PSoC4/I2CM_I2C_MASTER.c ****             }
 331:.\Generated_Source\PSoC4/I2CM_I2C_MASTER.c ****             else if(I2CM_CHECK_INTR_MASTER(I2CM_INTR_MASTER_I2C_NACK))
 517              		.loc 1 331 0
 518 0080 1D4B     		ldr	r3, .L35+12
 519 0082 1A68     		ldr	r2, [r3]
 520 0084 0223     		mov	r3, #2
 521 0086 1340     		and	r3, r2
 522 0088 02D0     		beq	.L32
 332:.\Generated_Source\PSoC4/I2CM_I2C_MASTER.c ****             {
 333:.\Generated_Source\PSoC4/I2CM_I2C_MASTER.c ****                 errStatus = I2CM_I2C_MSTR_ERR_LB_NAK;
ARM GAS  C:\Users\SNFU\AppData\Local\Temp\ccDApkRi.s 			page 16


 523              		.loc 1 333 0
 524 008a 0223     		mov	r3, #2
 525 008c BB60     		str	r3, [r7, #8]
 526 008e 14E0     		b	.L31
 527              	.L32:
 334:.\Generated_Source\PSoC4/I2CM_I2C_MASTER.c ****             }
 335:.\Generated_Source\PSoC4/I2CM_I2C_MASTER.c ****             else if(I2CM_CHECK_INTR_MASTER(I2CM_INTR_MASTER_I2C_ARB_LOST))
 528              		.loc 1 335 0
 529 0090 194B     		ldr	r3, .L35+12
 530 0092 1A68     		ldr	r2, [r3]
 531 0094 0123     		mov	r3, #1
 532 0096 1340     		and	r3, r2
 533 0098 07D0     		beq	.L33
 336:.\Generated_Source\PSoC4/I2CM_I2C_MASTER.c ****             {
 337:.\Generated_Source\PSoC4/I2CM_I2C_MASTER.c ****                 I2CM_state = I2CM_I2C_FSM_IDLE;
 534              		.loc 1 337 0
 535 009a 144B     		ldr	r3, .L35
 536 009c 1022     		mov	r2, #16
 537 009e 1A70     		strb	r2, [r3]
 338:.\Generated_Source\PSoC4/I2CM_I2C_MASTER.c ****                              errStatus = I2CM_I2C_MSTR_ERR_ARB_LOST;
 538              		.loc 1 338 0
 539 00a0 0123     		mov	r3, #1
 540 00a2 BB60     		str	r3, [r7, #8]
 339:.\Generated_Source\PSoC4/I2CM_I2C_MASTER.c ****                              resetIp   = I2CM_I2C_RESET_ERROR;
 541              		.loc 1 339 0
 542 00a4 0123     		mov	r3, #1
 543 00a6 FB60     		str	r3, [r7, #12]
 544 00a8 07E0     		b	.L31
 545              	.L33:
 340:.\Generated_Source\PSoC4/I2CM_I2C_MASTER.c ****             }
 341:.\Generated_Source\PSoC4/I2CM_I2C_MASTER.c ****             else /* I2CM_INTR_MASTER_I2C_BUS_ERROR set is else condition */
 342:.\Generated_Source\PSoC4/I2CM_I2C_MASTER.c ****             {
 343:.\Generated_Source\PSoC4/I2CM_I2C_MASTER.c ****                 I2CM_state = I2CM_I2C_FSM_IDLE;
 546              		.loc 1 343 0
 547 00aa 104B     		ldr	r3, .L35
 548 00ac 1022     		mov	r2, #16
 549 00ae 1A70     		strb	r2, [r3]
 344:.\Generated_Source\PSoC4/I2CM_I2C_MASTER.c ****                              errStatus = I2CM_I2C_MSTR_ERR_BUS_ERR;
 550              		.loc 1 344 0
 551 00b0 8023     		mov	r3, #128
 552 00b2 5B00     		lsl	r3, r3, #1
 553 00b4 BB60     		str	r3, [r7, #8]
 345:.\Generated_Source\PSoC4/I2CM_I2C_MASTER.c ****                              resetIp   = I2CM_I2C_RESET_ERROR;
 554              		.loc 1 345 0
 555 00b6 0123     		mov	r3, #1
 556 00b8 FB60     		str	r3, [r7, #12]
 557              	.L31:
 346:.\Generated_Source\PSoC4/I2CM_I2C_MASTER.c ****             }
 347:.\Generated_Source\PSoC4/I2CM_I2C_MASTER.c **** 
 348:.\Generated_Source\PSoC4/I2CM_I2C_MASTER.c ****             I2CM_ClearMasterInterruptSource(I2CM_INTR_MASTER_I2C_ACK      |
 558              		.loc 1 348 0
 559 00ba 0F4B     		ldr	r3, .L35+12
 560 00bc 114A     		ldr	r2, .L35+24
 561 00be 1A60     		str	r2, [r3]
 349:.\Generated_Source\PSoC4/I2CM_I2C_MASTER.c ****                                                         I2CM_INTR_MASTER_I2C_NACK     |
 350:.\Generated_Source\PSoC4/I2CM_I2C_MASTER.c ****                                                         I2CM_INTR_MASTER_I2C_ARB_LOST |
 351:.\Generated_Source\PSoC4/I2CM_I2C_MASTER.c ****                                                         I2CM_INTR_MASTER_I2C_BUS_ERROR);
ARM GAS  C:\Users\SNFU\AppData\Local\Temp\ccDApkRi.s 			page 17


 352:.\Generated_Source\PSoC4/I2CM_I2C_MASTER.c **** 
 353:.\Generated_Source\PSoC4/I2CM_I2C_MASTER.c ****             /* Reset block in case of: LOST_ARB or BUS_ERR */
 354:.\Generated_Source\PSoC4/I2CM_I2C_MASTER.c ****             if(0u != resetIp)
 562              		.loc 1 354 0
 563 00c0 FB68     		ldr	r3, [r7, #12]
 564 00c2 002B     		cmp	r3, #0
 565 00c4 0CD0     		beq	.L25
 355:.\Generated_Source\PSoC4/I2CM_I2C_MASTER.c ****             {
 356:.\Generated_Source\PSoC4/I2CM_I2C_MASTER.c ****                 I2CM_SCB_SW_RESET;
 566              		.loc 1 356 0
 567 00c6 104B     		ldr	r3, .L35+28
 568 00c8 0F4A     		ldr	r2, .L35+28
 569 00ca 1268     		ldr	r2, [r2]
 570 00cc 5200     		lsl	r2, r2, #1
 571 00ce 5208     		lsr	r2, r2, #1
 572 00d0 1A60     		str	r2, [r3]
 573 00d2 0D4B     		ldr	r3, .L35+28
 574 00d4 0C4A     		ldr	r2, .L35+28
 575 00d6 1268     		ldr	r2, [r2]
 576 00d8 8021     		mov	r1, #128
 577 00da 0906     		lsl	r1, r1, #24
 578 00dc 0A43     		orr	r2, r1
 579 00de 1A60     		str	r2, [r3]
 580              	.L25:
 357:.\Generated_Source\PSoC4/I2CM_I2C_MASTER.c ****             }
 358:.\Generated_Source\PSoC4/I2CM_I2C_MASTER.c ****         }
 359:.\Generated_Source\PSoC4/I2CM_I2C_MASTER.c ****     }
 360:.\Generated_Source\PSoC4/I2CM_I2C_MASTER.c **** 
 361:.\Generated_Source\PSoC4/I2CM_I2C_MASTER.c ****     return(errStatus);
 581              		.loc 1 361 0
 582 00e0 BB68     		ldr	r3, [r7, #8]
 362:.\Generated_Source\PSoC4/I2CM_I2C_MASTER.c **** }
 583              		.loc 1 362 0
 584 00e2 181C     		mov	r0, r3
 585 00e4 BD46     		mov	sp, r7
 586 00e6 04B0     		add	sp, sp, #16
 587              		@ sp needed for prologue
 588 00e8 80BD     		pop	{r7, pc}
 589              	.L36:
 590 00ea C046     		.align	2
 591              	.L35:
 592 00ec 00000000 		.word	I2CM_state
 593 00f0 64000740 		.word	1074200676
 594 00f4 40020740 		.word	1074201152
 595 00f8 000F0740 		.word	1074204416
 596 00fc 17030000 		.word	791
 597 0100 68000740 		.word	1074200680
 598 0104 07010000 		.word	263
 599 0108 00000740 		.word	1074200576
 600              		.cfi_endproc
 601              	.LFE2:
 602              		.size	I2CM_I2CMasterSendStart, .-I2CM_I2CMasterSendStart
 603              		.section	.text.I2CM_I2CMasterSendRestart,"ax",%progbits
 604              		.align	2
 605              		.global	I2CM_I2CMasterSendRestart
 606              		.code	16
 607              		.thumb_func
ARM GAS  C:\Users\SNFU\AppData\Local\Temp\ccDApkRi.s 			page 18


 608              		.type	I2CM_I2CMasterSendRestart, %function
 609              	I2CM_I2CMasterSendRestart:
 610              	.LFB3:
 363:.\Generated_Source\PSoC4/I2CM_I2C_MASTER.c **** 
 364:.\Generated_Source\PSoC4/I2CM_I2C_MASTER.c **** 
 365:.\Generated_Source\PSoC4/I2CM_I2C_MASTER.c **** /*******************************************************************************
 366:.\Generated_Source\PSoC4/I2CM_I2C_MASTER.c **** * Function Name: I2CM_I2CMasterSendRestart
 367:.\Generated_Source\PSoC4/I2CM_I2C_MASTER.c **** ********************************************************************************
 368:.\Generated_Source\PSoC4/I2CM_I2C_MASTER.c **** *
 369:.\Generated_Source\PSoC4/I2CM_I2C_MASTER.c **** * Summary:
 370:.\Generated_Source\PSoC4/I2CM_I2C_MASTER.c **** *  Generates Restart condition and sends slave address with read/write bit.
 371:.\Generated_Source\PSoC4/I2CM_I2C_MASTER.c **** *  This function is blocking and does not return until start condition and
 372:.\Generated_Source\PSoC4/I2CM_I2C_MASTER.c **** *  address are sent and ACK/NACK response is received or errors occurred.
 373:.\Generated_Source\PSoC4/I2CM_I2C_MASTER.c **** *
 374:.\Generated_Source\PSoC4/I2CM_I2C_MASTER.c **** * Parameters:
 375:.\Generated_Source\PSoC4/I2CM_I2C_MASTER.c **** *  slaveAddress: Right justified 7-bit Slave address (valid range 8 to 120).
 376:.\Generated_Source\PSoC4/I2CM_I2C_MASTER.c **** *  bitRnW:       Direction of the following transfer. It is defined by
 377:.\Generated_Source\PSoC4/I2CM_I2C_MASTER.c **** *                read/write bit within address byte.
 378:.\Generated_Source\PSoC4/I2CM_I2C_MASTER.c **** *
 379:.\Generated_Source\PSoC4/I2CM_I2C_MASTER.c **** * Return:
 380:.\Generated_Source\PSoC4/I2CM_I2C_MASTER.c **** *  Error status
 381:.\Generated_Source\PSoC4/I2CM_I2C_MASTER.c **** *
 382:.\Generated_Source\PSoC4/I2CM_I2C_MASTER.c **** *
 383:.\Generated_Source\PSoC4/I2CM_I2C_MASTER.c **** * Global variables:
 384:.\Generated_Source\PSoC4/I2CM_I2C_MASTER.c **** *  I2CM_state - used to store current state of software FSM.
 385:.\Generated_Source\PSoC4/I2CM_I2C_MASTER.c **** *
 386:.\Generated_Source\PSoC4/I2CM_I2C_MASTER.c **** *******************************************************************************/
 387:.\Generated_Source\PSoC4/I2CM_I2C_MASTER.c **** uint32 I2CM_I2CMasterSendRestart(uint32 slaveAddress, uint32 bitRnW)
 388:.\Generated_Source\PSoC4/I2CM_I2C_MASTER.c **** {
 611              		.loc 1 388 0
 612              		.cfi_startproc
 613 0000 80B5     		push	{r7, lr}
 614              	.LCFI9:
 615              		.cfi_def_cfa_offset 8
 616              		.cfi_offset 7, -8
 617              		.cfi_offset 14, -4
 618 0002 84B0     		sub	sp, sp, #16
 619              	.LCFI10:
 620              		.cfi_def_cfa_offset 24
 621 0004 00AF     		add	r7, sp, #0
 622              	.LCFI11:
 623              		.cfi_def_cfa_register 7
 624 0006 7860     		str	r0, [r7, #4]
 625 0008 3960     		str	r1, [r7]
 389:.\Generated_Source\PSoC4/I2CM_I2C_MASTER.c ****     uint32 resetIp;
 390:.\Generated_Source\PSoC4/I2CM_I2C_MASTER.c ****     uint32 errStatus;
 391:.\Generated_Source\PSoC4/I2CM_I2C_MASTER.c **** 
 392:.\Generated_Source\PSoC4/I2CM_I2C_MASTER.c ****     resetIp   = 0u;
 626              		.loc 1 392 0
 627 000a 0023     		mov	r3, #0
 628 000c FB60     		str	r3, [r7, #12]
 393:.\Generated_Source\PSoC4/I2CM_I2C_MASTER.c ****     errStatus = I2CM_I2C_MSTR_NOT_READY;
 629              		.loc 1 393 0
 630 000e 0423     		mov	r3, #4
 631 0010 BB60     		str	r3, [r7, #8]
 394:.\Generated_Source\PSoC4/I2CM_I2C_MASTER.c **** 
 395:.\Generated_Source\PSoC4/I2CM_I2C_MASTER.c ****     /* Check FSM state before generating ReStart condition */
ARM GAS  C:\Users\SNFU\AppData\Local\Temp\ccDApkRi.s 			page 19


 396:.\Generated_Source\PSoC4/I2CM_I2C_MASTER.c ****     if(I2CM_CHECK_I2C_MASTER_ACTIVE)
 632              		.loc 1 396 0
 633 0012 364B     		ldr	r3, .L48
 634 0014 1B78     		ldrb	r3, [r3]
 635 0016 DAB2     		uxtb	r2, r3
 636 0018 2023     		mov	r3, #32
 637 001a 1340     		and	r3, r2
 638 001c DBB2     		uxtb	r3, r3
 639 001e 002B     		cmp	r3, #0
 640 0020 5ED0     		beq	.L38
 397:.\Generated_Source\PSoC4/I2CM_I2C_MASTER.c ****     {
 398:.\Generated_Source\PSoC4/I2CM_I2C_MASTER.c ****         slaveAddress = I2CM_GET_I2C_8BIT_ADDRESS(slaveAddress);
 641              		.loc 1 398 0
 642 0022 7B68     		ldr	r3, [r7, #4]
 643 0024 5A00     		lsl	r2, r3, #1
 644 0026 FF23     		mov	r3, #255
 645 0028 1340     		and	r3, r2
 646 002a 7B60     		str	r3, [r7, #4]
 399:.\Generated_Source\PSoC4/I2CM_I2C_MASTER.c **** 
 400:.\Generated_Source\PSoC4/I2CM_I2C_MASTER.c ****         if(0u == bitRnW) /* Write direction */
 647              		.loc 1 400 0
 648 002c 3B68     		ldr	r3, [r7]
 649 002e 002B     		cmp	r3, #0
 650 0030 03D1     		bne	.L39
 401:.\Generated_Source\PSoC4/I2CM_I2C_MASTER.c ****         {
 402:.\Generated_Source\PSoC4/I2CM_I2C_MASTER.c ****             I2CM_state = I2CM_I2C_FSM_MSTR_WR_DATA;
 651              		.loc 1 402 0
 652 0032 2E4B     		ldr	r3, .L48
 653 0034 2422     		mov	r2, #36
 654 0036 1A70     		strb	r2, [r3]
 655 0038 06E0     		b	.L40
 656              	.L39:
 403:.\Generated_Source\PSoC4/I2CM_I2C_MASTER.c ****         }
 404:.\Generated_Source\PSoC4/I2CM_I2C_MASTER.c ****         else  /* Read direction */
 405:.\Generated_Source\PSoC4/I2CM_I2C_MASTER.c ****         {
 406:.\Generated_Source\PSoC4/I2CM_I2C_MASTER.c ****             I2CM_state  = I2CM_I2C_FSM_MSTR_RD_DATA;
 657              		.loc 1 406 0
 658 003a 2C4B     		ldr	r3, .L48
 659 003c 2522     		mov	r2, #37
 660 003e 1A70     		strb	r2, [r3]
 407:.\Generated_Source\PSoC4/I2CM_I2C_MASTER.c ****                       slaveAddress |= I2CM_I2C_READ_FLAG;
 661              		.loc 1 407 0
 662 0040 7B68     		ldr	r3, [r7, #4]
 663 0042 0122     		mov	r2, #1
 664 0044 1343     		orr	r3, r2
 665 0046 7B60     		str	r3, [r7, #4]
 666              	.L40:
 408:.\Generated_Source\PSoC4/I2CM_I2C_MASTER.c ****         }
 409:.\Generated_Source\PSoC4/I2CM_I2C_MASTER.c **** 
 410:.\Generated_Source\PSoC4/I2CM_I2C_MASTER.c ****         /* The TX and RX FIFO have to be EMPTY */
 411:.\Generated_Source\PSoC4/I2CM_I2C_MASTER.c **** 
 412:.\Generated_Source\PSoC4/I2CM_I2C_MASTER.c ****         /* Clean-up interrupt status */
 413:.\Generated_Source\PSoC4/I2CM_I2C_MASTER.c ****         I2CM_ClearMasterInterruptSource(I2CM_INTR_MASTER_ALL);
 667              		.loc 1 413 0
 668 0048 294B     		ldr	r3, .L48+4
 669 004a 2A4A     		ldr	r2, .L48+8
 670 004c 1A60     		str	r2, [r3]
ARM GAS  C:\Users\SNFU\AppData\Local\Temp\ccDApkRi.s 			page 20


 414:.\Generated_Source\PSoC4/I2CM_I2C_MASTER.c **** 
 415:.\Generated_Source\PSoC4/I2CM_I2C_MASTER.c ****         /* Proper ReStart sequence is: generate ReStart then put address byte in the TX FIFO.
 416:.\Generated_Source\PSoC4/I2CM_I2C_MASTER.c ****         * Otherwise master treats address in the TX FIFO as data byte if previous transfer is write
 417:.\Generated_Source\PSoC4/I2CM_I2C_MASTER.c ****         * The write transfer continue instead of ReStart.
 418:.\Generated_Source\PSoC4/I2CM_I2C_MASTER.c ****         */
 419:.\Generated_Source\PSoC4/I2CM_I2C_MASTER.c ****         I2CM_I2C_MASTER_GENERATE_RESTART;
 671              		.loc 1 419 0
 672 004e FFF7FEFF 		bl	I2CM_I2CReStartGeneration
 420:.\Generated_Source\PSoC4/I2CM_I2C_MASTER.c **** 
 421:.\Generated_Source\PSoC4/I2CM_I2C_MASTER.c ****         while(I2CM_CHECK_I2C_MASTER_CMD(I2CM_I2C_MASTER_CMD_M_START))
 673              		.loc 1 421 0
 674 0052 C046     		mov	r8, r8
 675              	.L41:
 676              		.loc 1 421 0 is_stmt 0 discriminator 1
 677 0054 284B     		ldr	r3, .L48+12
 678 0056 1A68     		ldr	r2, [r3]
 679 0058 0123     		mov	r3, #1
 680 005a 1340     		and	r3, r2
 681 005c FAD1     		bne	.L41
 422:.\Generated_Source\PSoC4/I2CM_I2C_MASTER.c ****         {
 423:.\Generated_Source\PSoC4/I2CM_I2C_MASTER.c ****             /* Wait until ReStart has been generated */
 424:.\Generated_Source\PSoC4/I2CM_I2C_MASTER.c ****         }
 425:.\Generated_Source\PSoC4/I2CM_I2C_MASTER.c **** 
 426:.\Generated_Source\PSoC4/I2CM_I2C_MASTER.c ****         /* Put address into TX FIFO */
 427:.\Generated_Source\PSoC4/I2CM_I2C_MASTER.c ****         I2CM_TX_FIFO_WR_REG = slaveAddress;
 682              		.loc 1 427 0 is_stmt 1
 683 005e 274B     		ldr	r3, .L48+16
 684 0060 7A68     		ldr	r2, [r7, #4]
 685 0062 1A60     		str	r2, [r3]
 428:.\Generated_Source\PSoC4/I2CM_I2C_MASTER.c **** 
 429:.\Generated_Source\PSoC4/I2CM_I2C_MASTER.c ****         /* Wait for address to be transferred */
 430:.\Generated_Source\PSoC4/I2CM_I2C_MASTER.c ****         while(!I2CM_CHECK_INTR_MASTER(I2CM_INTR_MASTER_I2C_ACK      |
 686              		.loc 1 430 0
 687 0064 C046     		mov	r8, r8
 688              	.L42:
 689              		.loc 1 430 0 is_stmt 0 discriminator 1
 690 0066 224B     		ldr	r3, .L48+4
 691 0068 1A68     		ldr	r2, [r3]
 692 006a 254B     		ldr	r3, .L48+20
 693 006c 1340     		and	r3, r2
 694 006e FAD0     		beq	.L42
 431:.\Generated_Source\PSoC4/I2CM_I2C_MASTER.c ****                                                   I2CM_INTR_MASTER_I2C_NACK     |
 432:.\Generated_Source\PSoC4/I2CM_I2C_MASTER.c ****                                                   I2CM_INTR_MASTER_I2C_ARB_LOST |
 433:.\Generated_Source\PSoC4/I2CM_I2C_MASTER.c ****                                                   I2CM_INTR_MASTER_I2C_BUS_ERROR))
 434:.\Generated_Source\PSoC4/I2CM_I2C_MASTER.c ****         {
 435:.\Generated_Source\PSoC4/I2CM_I2C_MASTER.c ****             /* Wait until address has been transferred */
 436:.\Generated_Source\PSoC4/I2CM_I2C_MASTER.c ****         }
 437:.\Generated_Source\PSoC4/I2CM_I2C_MASTER.c **** 
 438:.\Generated_Source\PSoC4/I2CM_I2C_MASTER.c ****         /* Check results of address phase */
 439:.\Generated_Source\PSoC4/I2CM_I2C_MASTER.c ****         if(I2CM_CHECK_INTR_MASTER(I2CM_INTR_MASTER_I2C_ACK))
 695              		.loc 1 439 0 is_stmt 1
 696 0070 1F4B     		ldr	r3, .L48+4
 697 0072 1A68     		ldr	r2, [r3]
 698 0074 0423     		mov	r3, #4
 699 0076 1340     		and	r3, r2
 700 0078 02D0     		beq	.L43
 440:.\Generated_Source\PSoC4/I2CM_I2C_MASTER.c ****         {
ARM GAS  C:\Users\SNFU\AppData\Local\Temp\ccDApkRi.s 			page 21


 441:.\Generated_Source\PSoC4/I2CM_I2C_MASTER.c ****             errStatus = I2CM_I2C_MSTR_NO_ERROR;
 701              		.loc 1 441 0
 702 007a 0023     		mov	r3, #0
 703 007c BB60     		str	r3, [r7, #8]
 704 007e 1CE0     		b	.L44
 705              	.L43:
 442:.\Generated_Source\PSoC4/I2CM_I2C_MASTER.c ****         }
 443:.\Generated_Source\PSoC4/I2CM_I2C_MASTER.c ****         else if(I2CM_CHECK_INTR_MASTER(I2CM_INTR_MASTER_I2C_NACK))
 706              		.loc 1 443 0
 707 0080 1B4B     		ldr	r3, .L48+4
 708 0082 1A68     		ldr	r2, [r3]
 709 0084 0223     		mov	r3, #2
 710 0086 1340     		and	r3, r2
 711 0088 02D0     		beq	.L45
 444:.\Generated_Source\PSoC4/I2CM_I2C_MASTER.c ****         {
 445:.\Generated_Source\PSoC4/I2CM_I2C_MASTER.c ****              errStatus = I2CM_I2C_MSTR_ERR_LB_NAK;
 712              		.loc 1 445 0
 713 008a 0223     		mov	r3, #2
 714 008c BB60     		str	r3, [r7, #8]
 715 008e 14E0     		b	.L44
 716              	.L45:
 446:.\Generated_Source\PSoC4/I2CM_I2C_MASTER.c ****         }
 447:.\Generated_Source\PSoC4/I2CM_I2C_MASTER.c ****         else if(I2CM_CHECK_INTR_MASTER(I2CM_INTR_MASTER_I2C_ARB_LOST))
 717              		.loc 1 447 0
 718 0090 174B     		ldr	r3, .L48+4
 719 0092 1A68     		ldr	r2, [r3]
 720 0094 0123     		mov	r3, #1
 721 0096 1340     		and	r3, r2
 722 0098 07D0     		beq	.L46
 448:.\Generated_Source\PSoC4/I2CM_I2C_MASTER.c ****         {
 449:.\Generated_Source\PSoC4/I2CM_I2C_MASTER.c ****             I2CM_state = I2CM_I2C_FSM_IDLE;
 723              		.loc 1 449 0
 724 009a 144B     		ldr	r3, .L48
 725 009c 1022     		mov	r2, #16
 726 009e 1A70     		strb	r2, [r3]
 450:.\Generated_Source\PSoC4/I2CM_I2C_MASTER.c ****                          errStatus = I2CM_I2C_MSTR_ERR_ARB_LOST;
 727              		.loc 1 450 0
 728 00a0 0123     		mov	r3, #1
 729 00a2 BB60     		str	r3, [r7, #8]
 451:.\Generated_Source\PSoC4/I2CM_I2C_MASTER.c ****                          resetIp   = I2CM_I2C_RESET_ERROR;
 730              		.loc 1 451 0
 731 00a4 0123     		mov	r3, #1
 732 00a6 FB60     		str	r3, [r7, #12]
 733 00a8 07E0     		b	.L44
 734              	.L46:
 452:.\Generated_Source\PSoC4/I2CM_I2C_MASTER.c ****         }
 453:.\Generated_Source\PSoC4/I2CM_I2C_MASTER.c ****         else /* I2CM_INTR_MASTER_I2C_BUS_ERROR set is else condition */
 454:.\Generated_Source\PSoC4/I2CM_I2C_MASTER.c ****         {
 455:.\Generated_Source\PSoC4/I2CM_I2C_MASTER.c ****             I2CM_state = I2CM_I2C_FSM_IDLE;
 735              		.loc 1 455 0
 736 00aa 104B     		ldr	r3, .L48
 737 00ac 1022     		mov	r2, #16
 738 00ae 1A70     		strb	r2, [r3]
 456:.\Generated_Source\PSoC4/I2CM_I2C_MASTER.c ****                          errStatus = I2CM_I2C_MSTR_ERR_BUS_ERR;
 739              		.loc 1 456 0
 740 00b0 8023     		mov	r3, #128
 741 00b2 5B00     		lsl	r3, r3, #1
ARM GAS  C:\Users\SNFU\AppData\Local\Temp\ccDApkRi.s 			page 22


 742 00b4 BB60     		str	r3, [r7, #8]
 457:.\Generated_Source\PSoC4/I2CM_I2C_MASTER.c ****                          resetIp   = I2CM_I2C_RESET_ERROR;
 743              		.loc 1 457 0
 744 00b6 0123     		mov	r3, #1
 745 00b8 FB60     		str	r3, [r7, #12]
 746              	.L44:
 458:.\Generated_Source\PSoC4/I2CM_I2C_MASTER.c ****         }
 459:.\Generated_Source\PSoC4/I2CM_I2C_MASTER.c **** 
 460:.\Generated_Source\PSoC4/I2CM_I2C_MASTER.c ****         I2CM_ClearMasterInterruptSource(I2CM_INTR_MASTER_I2C_ACK      |
 747              		.loc 1 460 0
 748 00ba 0D4B     		ldr	r3, .L48+4
 749 00bc 104A     		ldr	r2, .L48+20
 750 00be 1A60     		str	r2, [r3]
 461:.\Generated_Source\PSoC4/I2CM_I2C_MASTER.c ****                                                     I2CM_INTR_MASTER_I2C_NACK     |
 462:.\Generated_Source\PSoC4/I2CM_I2C_MASTER.c ****                                                     I2CM_INTR_MASTER_I2C_ARB_LOST |
 463:.\Generated_Source\PSoC4/I2CM_I2C_MASTER.c ****                                                     I2CM_INTR_MASTER_I2C_BUS_ERROR);
 464:.\Generated_Source\PSoC4/I2CM_I2C_MASTER.c **** 
 465:.\Generated_Source\PSoC4/I2CM_I2C_MASTER.c ****         /* Reset block in case of: LOST_ARB or BUS_ERR */
 466:.\Generated_Source\PSoC4/I2CM_I2C_MASTER.c ****         if(0u != resetIp)
 751              		.loc 1 466 0
 752 00c0 FB68     		ldr	r3, [r7, #12]
 753 00c2 002B     		cmp	r3, #0
 754 00c4 0CD0     		beq	.L38
 467:.\Generated_Source\PSoC4/I2CM_I2C_MASTER.c ****         {
 468:.\Generated_Source\PSoC4/I2CM_I2C_MASTER.c ****             I2CM_SCB_SW_RESET;
 755              		.loc 1 468 0
 756 00c6 0F4B     		ldr	r3, .L48+24
 757 00c8 0E4A     		ldr	r2, .L48+24
 758 00ca 1268     		ldr	r2, [r2]
 759 00cc 5200     		lsl	r2, r2, #1
 760 00ce 5208     		lsr	r2, r2, #1
 761 00d0 1A60     		str	r2, [r3]
 762 00d2 0C4B     		ldr	r3, .L48+24
 763 00d4 0B4A     		ldr	r2, .L48+24
 764 00d6 1268     		ldr	r2, [r2]
 765 00d8 8021     		mov	r1, #128
 766 00da 0906     		lsl	r1, r1, #24
 767 00dc 0A43     		orr	r2, r1
 768 00de 1A60     		str	r2, [r3]
 769              	.L38:
 469:.\Generated_Source\PSoC4/I2CM_I2C_MASTER.c ****         }
 470:.\Generated_Source\PSoC4/I2CM_I2C_MASTER.c ****     }
 471:.\Generated_Source\PSoC4/I2CM_I2C_MASTER.c **** 
 472:.\Generated_Source\PSoC4/I2CM_I2C_MASTER.c ****     return(errStatus);
 770              		.loc 1 472 0
 771 00e0 BB68     		ldr	r3, [r7, #8]
 473:.\Generated_Source\PSoC4/I2CM_I2C_MASTER.c **** }
 772              		.loc 1 473 0
 773 00e2 181C     		mov	r0, r3
 774 00e4 BD46     		mov	sp, r7
 775 00e6 04B0     		add	sp, sp, #16
 776              		@ sp needed for prologue
 777 00e8 80BD     		pop	{r7, pc}
 778              	.L49:
 779 00ea C046     		.align	2
 780              	.L48:
 781 00ec 00000000 		.word	I2CM_state
ARM GAS  C:\Users\SNFU\AppData\Local\Temp\ccDApkRi.s 			page 23


 782 00f0 000F0740 		.word	1074204416
 783 00f4 17030000 		.word	791
 784 00f8 68000740 		.word	1074200680
 785 00fc 40020740 		.word	1074201152
 786 0100 07010000 		.word	263
 787 0104 00000740 		.word	1074200576
 788              		.cfi_endproc
 789              	.LFE3:
 790              		.size	I2CM_I2CMasterSendRestart, .-I2CM_I2CMasterSendRestart
 791              		.section	.text.I2CM_I2CMasterSendStop,"ax",%progbits
 792              		.align	2
 793              		.global	I2CM_I2CMasterSendStop
 794              		.code	16
 795              		.thumb_func
 796              		.type	I2CM_I2CMasterSendStop, %function
 797              	I2CM_I2CMasterSendStop:
 798              	.LFB4:
 474:.\Generated_Source\PSoC4/I2CM_I2C_MASTER.c **** 
 475:.\Generated_Source\PSoC4/I2CM_I2C_MASTER.c **** 
 476:.\Generated_Source\PSoC4/I2CM_I2C_MASTER.c **** /*******************************************************************************
 477:.\Generated_Source\PSoC4/I2CM_I2C_MASTER.c **** * Function Name: I2CM_I2CMasterSendStop
 478:.\Generated_Source\PSoC4/I2CM_I2C_MASTER.c **** ********************************************************************************
 479:.\Generated_Source\PSoC4/I2CM_I2C_MASTER.c **** *
 480:.\Generated_Source\PSoC4/I2CM_I2C_MASTER.c **** * Summary:
 481:.\Generated_Source\PSoC4/I2CM_I2C_MASTER.c **** *  Generates Stop condition on the bus.
 482:.\Generated_Source\PSoC4/I2CM_I2C_MASTER.c **** *  At least one byte has to be read if start or restart condition with read
 483:.\Generated_Source\PSoC4/I2CM_I2C_MASTER.c **** *  direction was generated before.
 484:.\Generated_Source\PSoC4/I2CM_I2C_MASTER.c **** *  This function is blocking and does not return until a stop condition
 485:.\Generated_Source\PSoC4/I2CM_I2C_MASTER.c **** *  is generated or error occurred.
 486:.\Generated_Source\PSoC4/I2CM_I2C_MASTER.c **** *
 487:.\Generated_Source\PSoC4/I2CM_I2C_MASTER.c **** * Parameters:
 488:.\Generated_Source\PSoC4/I2CM_I2C_MASTER.c **** *  None
 489:.\Generated_Source\PSoC4/I2CM_I2C_MASTER.c **** *
 490:.\Generated_Source\PSoC4/I2CM_I2C_MASTER.c **** * Return:
 491:.\Generated_Source\PSoC4/I2CM_I2C_MASTER.c **** *  Error status
 492:.\Generated_Source\PSoC4/I2CM_I2C_MASTER.c **** *
 493:.\Generated_Source\PSoC4/I2CM_I2C_MASTER.c **** * Side Effects:
 494:.\Generated_Source\PSoC4/I2CM_I2C_MASTER.c **** *  A valid Start or ReStart condition must be generated before calling
 495:.\Generated_Source\PSoC4/I2CM_I2C_MASTER.c **** *  this function. This function does nothing if Start or ReStart condition
 496:.\Generated_Source\PSoC4/I2CM_I2C_MASTER.c **** *  failed before this function was called.
 497:.\Generated_Source\PSoC4/I2CM_I2C_MASTER.c **** *  For read transfer, at least one byte has to be read before Stop generation.
 498:.\Generated_Source\PSoC4/I2CM_I2C_MASTER.c **** *
 499:.\Generated_Source\PSoC4/I2CM_I2C_MASTER.c **** * Global variables:
 500:.\Generated_Source\PSoC4/I2CM_I2C_MASTER.c **** *  I2CM_state - used to store current state of software FSM.
 501:.\Generated_Source\PSoC4/I2CM_I2C_MASTER.c **** *
 502:.\Generated_Source\PSoC4/I2CM_I2C_MASTER.c **** *******************************************************************************/
 503:.\Generated_Source\PSoC4/I2CM_I2C_MASTER.c **** uint32 I2CM_I2CMasterSendStop(void)
 504:.\Generated_Source\PSoC4/I2CM_I2C_MASTER.c **** {
 799              		.loc 1 504 0
 800              		.cfi_startproc
 801 0000 80B5     		push	{r7, lr}
 802              	.LCFI12:
 803              		.cfi_def_cfa_offset 8
 804              		.cfi_offset 7, -8
 805              		.cfi_offset 14, -4
 806 0002 82B0     		sub	sp, sp, #8
 807              	.LCFI13:
ARM GAS  C:\Users\SNFU\AppData\Local\Temp\ccDApkRi.s 			page 24


 808              		.cfi_def_cfa_offset 16
 809 0004 00AF     		add	r7, sp, #0
 810              	.LCFI14:
 811              		.cfi_def_cfa_register 7
 505:.\Generated_Source\PSoC4/I2CM_I2C_MASTER.c ****     uint32 resetIp;
 506:.\Generated_Source\PSoC4/I2CM_I2C_MASTER.c ****     uint32 errStatus;
 507:.\Generated_Source\PSoC4/I2CM_I2C_MASTER.c **** 
 508:.\Generated_Source\PSoC4/I2CM_I2C_MASTER.c ****     resetIp   = 0u;
 812              		.loc 1 508 0
 813 0006 0023     		mov	r3, #0
 814 0008 7B60     		str	r3, [r7, #4]
 509:.\Generated_Source\PSoC4/I2CM_I2C_MASTER.c ****     errStatus = I2CM_I2C_MSTR_NOT_READY;
 815              		.loc 1 509 0
 816 000a 0423     		mov	r3, #4
 817 000c 3B60     		str	r3, [r7]
 510:.\Generated_Source\PSoC4/I2CM_I2C_MASTER.c **** 
 511:.\Generated_Source\PSoC4/I2CM_I2C_MASTER.c ****     /* Check FSM state before generating Stop condition */
 512:.\Generated_Source\PSoC4/I2CM_I2C_MASTER.c ****     if(I2CM_CHECK_I2C_MASTER_ACTIVE)
 818              		.loc 1 512 0
 819 000e 254B     		ldr	r3, .L59
 820 0010 1B78     		ldrb	r3, [r3]
 821 0012 DAB2     		uxtb	r2, r3
 822 0014 2023     		mov	r3, #32
 823 0016 1340     		and	r3, r2
 824 0018 DBB2     		uxtb	r3, r3
 825 001a 002B     		cmp	r3, #0
 826 001c 3CD0     		beq	.L51
 513:.\Generated_Source\PSoC4/I2CM_I2C_MASTER.c ****     {
 514:.\Generated_Source\PSoC4/I2CM_I2C_MASTER.c ****         /*
 515:.\Generated_Source\PSoC4/I2CM_I2C_MASTER.c ****         * Write direction: generates Stop
 516:.\Generated_Source\PSoC4/I2CM_I2C_MASTER.c ****         * Read  direction: generates NACK and Stop
 517:.\Generated_Source\PSoC4/I2CM_I2C_MASTER.c ****         */
 518:.\Generated_Source\PSoC4/I2CM_I2C_MASTER.c ****         I2CM_I2C_MASTER_GENERATE_STOP;
 827              		.loc 1 518 0
 828 001e 224B     		ldr	r3, .L59+4
 829 0020 224A     		ldr	r2, .L59+8
 830 0022 1168     		ldr	r1, [r2]
 831 0024 2022     		mov	r2, #32
 832 0026 0A40     		and	r2, r1
 833 0028 01D0     		beq	.L52
 834              		.loc 1 518 0 is_stmt 0 discriminator 1
 835 002a 1822     		mov	r2, #24
 836 002c 00E0     		b	.L53
 837              	.L52:
 838              		.loc 1 518 0 discriminator 2
 839 002e 1022     		mov	r2, #16
 840              	.L53:
 841              		.loc 1 518 0 discriminator 3
 842 0030 1A60     		str	r2, [r3]
 519:.\Generated_Source\PSoC4/I2CM_I2C_MASTER.c **** 
 520:.\Generated_Source\PSoC4/I2CM_I2C_MASTER.c ****         while(!I2CM_CHECK_INTR_MASTER(I2CM_INTR_MASTER_I2C_STOP     |
 843              		.loc 1 520 0 is_stmt 1
 844 0032 C046     		mov	r8, r8
 845              	.L54:
 846              		.loc 1 520 0 is_stmt 0 discriminator 1
 847 0034 1E4B     		ldr	r3, .L59+12
 848 0036 1A68     		ldr	r2, [r3]
ARM GAS  C:\Users\SNFU\AppData\Local\Temp\ccDApkRi.s 			page 25


 849 0038 1E4B     		ldr	r3, .L59+16
 850 003a 1340     		and	r3, r2
 851 003c FAD0     		beq	.L54
 521:.\Generated_Source\PSoC4/I2CM_I2C_MASTER.c ****                                                   I2CM_INTR_MASTER_I2C_ARB_LOST |
 522:.\Generated_Source\PSoC4/I2CM_I2C_MASTER.c ****                                                   I2CM_INTR_MASTER_I2C_BUS_ERROR))
 523:.\Generated_Source\PSoC4/I2CM_I2C_MASTER.c ****         {
 524:.\Generated_Source\PSoC4/I2CM_I2C_MASTER.c ****             /* Wait until Stop has been generated */
 525:.\Generated_Source\PSoC4/I2CM_I2C_MASTER.c ****         }
 526:.\Generated_Source\PSoC4/I2CM_I2C_MASTER.c **** 
 527:.\Generated_Source\PSoC4/I2CM_I2C_MASTER.c ****         /* Check Stop generation */
 528:.\Generated_Source\PSoC4/I2CM_I2C_MASTER.c ****         if(I2CM_CHECK_INTR_MASTER(I2CM_INTR_MASTER_I2C_STOP))
 852              		.loc 1 528 0 is_stmt 1
 853 003e 1C4B     		ldr	r3, .L59+12
 854 0040 1A68     		ldr	r2, [r3]
 855 0042 1023     		mov	r3, #16
 856 0044 1340     		and	r3, r2
 857 0046 02D0     		beq	.L55
 529:.\Generated_Source\PSoC4/I2CM_I2C_MASTER.c ****         {
 530:.\Generated_Source\PSoC4/I2CM_I2C_MASTER.c ****             errStatus = I2CM_I2C_MSTR_NO_ERROR;
 858              		.loc 1 530 0
 859 0048 0023     		mov	r3, #0
 860 004a 3B60     		str	r3, [r7]
 861 004c 0EE0     		b	.L56
 862              	.L55:
 531:.\Generated_Source\PSoC4/I2CM_I2C_MASTER.c ****         }
 532:.\Generated_Source\PSoC4/I2CM_I2C_MASTER.c ****         else if(I2CM_CHECK_INTR_MASTER(I2CM_INTR_MASTER_I2C_ARB_LOST))
 863              		.loc 1 532 0
 864 004e 184B     		ldr	r3, .L59+12
 865 0050 1A68     		ldr	r2, [r3]
 866 0052 0123     		mov	r3, #1
 867 0054 1340     		and	r3, r2
 868 0056 04D0     		beq	.L57
 533:.\Generated_Source\PSoC4/I2CM_I2C_MASTER.c ****         {
 534:.\Generated_Source\PSoC4/I2CM_I2C_MASTER.c ****             errStatus = I2CM_I2C_MSTR_ERR_ARB_LOST;
 869              		.loc 1 534 0
 870 0058 0123     		mov	r3, #1
 871 005a 3B60     		str	r3, [r7]
 535:.\Generated_Source\PSoC4/I2CM_I2C_MASTER.c ****             resetIp   = I2CM_I2C_RESET_ERROR;
 872              		.loc 1 535 0
 873 005c 0123     		mov	r3, #1
 874 005e 7B60     		str	r3, [r7, #4]
 875 0060 04E0     		b	.L56
 876              	.L57:
 536:.\Generated_Source\PSoC4/I2CM_I2C_MASTER.c ****         }
 537:.\Generated_Source\PSoC4/I2CM_I2C_MASTER.c ****         else /* I2CM_INTR_MASTER_I2C_BUS_ERROR is set */
 538:.\Generated_Source\PSoC4/I2CM_I2C_MASTER.c ****         {
 539:.\Generated_Source\PSoC4/I2CM_I2C_MASTER.c ****             errStatus = I2CM_I2C_MSTR_ERR_BUS_ERR;
 877              		.loc 1 539 0
 878 0062 8023     		mov	r3, #128
 879 0064 5B00     		lsl	r3, r3, #1
 880 0066 3B60     		str	r3, [r7]
 540:.\Generated_Source\PSoC4/I2CM_I2C_MASTER.c ****             resetIp   = I2CM_I2C_RESET_ERROR;
 881              		.loc 1 540 0
 882 0068 0123     		mov	r3, #1
 883 006a 7B60     		str	r3, [r7, #4]
 884              	.L56:
 541:.\Generated_Source\PSoC4/I2CM_I2C_MASTER.c ****         }
ARM GAS  C:\Users\SNFU\AppData\Local\Temp\ccDApkRi.s 			page 26


 542:.\Generated_Source\PSoC4/I2CM_I2C_MASTER.c **** 
 543:.\Generated_Source\PSoC4/I2CM_I2C_MASTER.c ****         I2CM_ClearMasterInterruptSource(I2CM_INTR_MASTER_I2C_STOP     |
 885              		.loc 1 543 0
 886 006c 104B     		ldr	r3, .L59+12
 887 006e 114A     		ldr	r2, .L59+16
 888 0070 1A60     		str	r2, [r3]
 544:.\Generated_Source\PSoC4/I2CM_I2C_MASTER.c ****                                                     I2CM_INTR_MASTER_I2C_ARB_LOST |
 545:.\Generated_Source\PSoC4/I2CM_I2C_MASTER.c ****                                                     I2CM_INTR_MASTER_I2C_BUS_ERROR);
 546:.\Generated_Source\PSoC4/I2CM_I2C_MASTER.c **** 
 547:.\Generated_Source\PSoC4/I2CM_I2C_MASTER.c ****         I2CM_state = I2CM_I2C_FSM_IDLE;
 889              		.loc 1 547 0
 890 0072 0C4B     		ldr	r3, .L59
 891 0074 1022     		mov	r2, #16
 892 0076 1A70     		strb	r2, [r3]
 548:.\Generated_Source\PSoC4/I2CM_I2C_MASTER.c **** 
 549:.\Generated_Source\PSoC4/I2CM_I2C_MASTER.c ****         /* Reset block in case of: LOST_ARB or BUS_ERR */
 550:.\Generated_Source\PSoC4/I2CM_I2C_MASTER.c ****         if(0u != resetIp)
 893              		.loc 1 550 0
 894 0078 7B68     		ldr	r3, [r7, #4]
 895 007a 002B     		cmp	r3, #0
 896 007c 0CD0     		beq	.L51
 551:.\Generated_Source\PSoC4/I2CM_I2C_MASTER.c ****         {
 552:.\Generated_Source\PSoC4/I2CM_I2C_MASTER.c ****             I2CM_SCB_SW_RESET;
 897              		.loc 1 552 0
 898 007e 0E4B     		ldr	r3, .L59+20
 899 0080 0D4A     		ldr	r2, .L59+20
 900 0082 1268     		ldr	r2, [r2]
 901 0084 5200     		lsl	r2, r2, #1
 902 0086 5208     		lsr	r2, r2, #1
 903 0088 1A60     		str	r2, [r3]
 904 008a 0B4B     		ldr	r3, .L59+20
 905 008c 0A4A     		ldr	r2, .L59+20
 906 008e 1268     		ldr	r2, [r2]
 907 0090 8021     		mov	r1, #128
 908 0092 0906     		lsl	r1, r1, #24
 909 0094 0A43     		orr	r2, r1
 910 0096 1A60     		str	r2, [r3]
 911              	.L51:
 553:.\Generated_Source\PSoC4/I2CM_I2C_MASTER.c ****         }
 554:.\Generated_Source\PSoC4/I2CM_I2C_MASTER.c ****     }
 555:.\Generated_Source\PSoC4/I2CM_I2C_MASTER.c **** 
 556:.\Generated_Source\PSoC4/I2CM_I2C_MASTER.c ****     return(errStatus);
 912              		.loc 1 556 0
 913 0098 3B68     		ldr	r3, [r7]
 557:.\Generated_Source\PSoC4/I2CM_I2C_MASTER.c **** }
 914              		.loc 1 557 0
 915 009a 181C     		mov	r0, r3
 916 009c BD46     		mov	sp, r7
 917 009e 02B0     		add	sp, sp, #8
 918              		@ sp needed for prologue
 919 00a0 80BD     		pop	{r7, pc}
 920              	.L60:
 921 00a2 C046     		.align	2
 922              	.L59:
 923 00a4 00000000 		.word	I2CM_state
 924 00a8 68000740 		.word	1074200680
 925 00ac 64000740 		.word	1074200676
ARM GAS  C:\Users\SNFU\AppData\Local\Temp\ccDApkRi.s 			page 27


 926 00b0 000F0740 		.word	1074204416
 927 00b4 11010000 		.word	273
 928 00b8 00000740 		.word	1074200576
 929              		.cfi_endproc
 930              	.LFE4:
 931              		.size	I2CM_I2CMasterSendStop, .-I2CM_I2CMasterSendStop
 932              		.section	.text.I2CM_I2CMasterWriteByte,"ax",%progbits
 933              		.align	2
 934              		.global	I2CM_I2CMasterWriteByte
 935              		.code	16
 936              		.thumb_func
 937              		.type	I2CM_I2CMasterWriteByte, %function
 938              	I2CM_I2CMasterWriteByte:
 939              	.LFB5:
 558:.\Generated_Source\PSoC4/I2CM_I2C_MASTER.c **** 
 559:.\Generated_Source\PSoC4/I2CM_I2C_MASTER.c **** 
 560:.\Generated_Source\PSoC4/I2CM_I2C_MASTER.c **** /*******************************************************************************
 561:.\Generated_Source\PSoC4/I2CM_I2C_MASTER.c **** * Function Name: I2CM_I2CMasterWriteByte
 562:.\Generated_Source\PSoC4/I2CM_I2C_MASTER.c **** ********************************************************************************
 563:.\Generated_Source\PSoC4/I2CM_I2C_MASTER.c **** *
 564:.\Generated_Source\PSoC4/I2CM_I2C_MASTER.c **** * Summary:
 565:.\Generated_Source\PSoC4/I2CM_I2C_MASTER.c **** *  Sends one byte to a slave.
 566:.\Generated_Source\PSoC4/I2CM_I2C_MASTER.c **** *  This function is blocking and does not return until byte is transmitted
 567:.\Generated_Source\PSoC4/I2CM_I2C_MASTER.c **** *  or error occurred.
 568:.\Generated_Source\PSoC4/I2CM_I2C_MASTER.c **** *
 569:.\Generated_Source\PSoC4/I2CM_I2C_MASTER.c **** * Parameters:
 570:.\Generated_Source\PSoC4/I2CM_I2C_MASTER.c **** *  data: The data byte to send to the slave.
 571:.\Generated_Source\PSoC4/I2CM_I2C_MASTER.c **** *
 572:.\Generated_Source\PSoC4/I2CM_I2C_MASTER.c **** * Return:
 573:.\Generated_Source\PSoC4/I2CM_I2C_MASTER.c **** *  Error status
 574:.\Generated_Source\PSoC4/I2CM_I2C_MASTER.c **** *
 575:.\Generated_Source\PSoC4/I2CM_I2C_MASTER.c **** * Side Effects:
 576:.\Generated_Source\PSoC4/I2CM_I2C_MASTER.c **** *  A valid Start or ReStart condition must be generated before calling
 577:.\Generated_Source\PSoC4/I2CM_I2C_MASTER.c **** *  this function. This function does nothing if Start or ReStart condition
 578:.\Generated_Source\PSoC4/I2CM_I2C_MASTER.c **** *  failed before this function was called.
 579:.\Generated_Source\PSoC4/I2CM_I2C_MASTER.c **** *
 580:.\Generated_Source\PSoC4/I2CM_I2C_MASTER.c **** * Global variables:
 581:.\Generated_Source\PSoC4/I2CM_I2C_MASTER.c **** *  I2CM_state - used to store current state of software FSM.
 582:.\Generated_Source\PSoC4/I2CM_I2C_MASTER.c **** *
 583:.\Generated_Source\PSoC4/I2CM_I2C_MASTER.c **** *******************************************************************************/
 584:.\Generated_Source\PSoC4/I2CM_I2C_MASTER.c **** uint32 I2CM_I2CMasterWriteByte(uint32 theByte)
 585:.\Generated_Source\PSoC4/I2CM_I2C_MASTER.c **** {
 940              		.loc 1 585 0
 941              		.cfi_startproc
 942 0000 80B5     		push	{r7, lr}
 943              	.LCFI15:
 944              		.cfi_def_cfa_offset 8
 945              		.cfi_offset 7, -8
 946              		.cfi_offset 14, -4
 947 0002 84B0     		sub	sp, sp, #16
 948              	.LCFI16:
 949              		.cfi_def_cfa_offset 24
 950 0004 00AF     		add	r7, sp, #0
 951              	.LCFI17:
 952              		.cfi_def_cfa_register 7
 953 0006 7860     		str	r0, [r7, #4]
 586:.\Generated_Source\PSoC4/I2CM_I2C_MASTER.c ****     uint32 resetIp;
ARM GAS  C:\Users\SNFU\AppData\Local\Temp\ccDApkRi.s 			page 28


 587:.\Generated_Source\PSoC4/I2CM_I2C_MASTER.c ****     uint32 errStatus;
 588:.\Generated_Source\PSoC4/I2CM_I2C_MASTER.c **** 
 589:.\Generated_Source\PSoC4/I2CM_I2C_MASTER.c ****     resetIp   = 0u;
 954              		.loc 1 589 0
 955 0008 0023     		mov	r3, #0
 956 000a FB60     		str	r3, [r7, #12]
 590:.\Generated_Source\PSoC4/I2CM_I2C_MASTER.c ****     errStatus = I2CM_I2C_MSTR_NOT_READY;
 957              		.loc 1 590 0
 958 000c 0423     		mov	r3, #4
 959 000e BB60     		str	r3, [r7, #8]
 591:.\Generated_Source\PSoC4/I2CM_I2C_MASTER.c **** 
 592:.\Generated_Source\PSoC4/I2CM_I2C_MASTER.c ****     /* Check FSM state before write byte */
 593:.\Generated_Source\PSoC4/I2CM_I2C_MASTER.c ****     if(I2CM_CHECK_I2C_MASTER_ACTIVE)
 960              		.loc 1 593 0
 961 0010 294B     		ldr	r3, .L69
 962 0012 1B78     		ldrb	r3, [r3]
 963 0014 DAB2     		uxtb	r2, r3
 964 0016 2023     		mov	r3, #32
 965 0018 1340     		and	r3, r2
 966 001a DBB2     		uxtb	r3, r3
 967 001c 002B     		cmp	r3, #0
 968 001e 46D0     		beq	.L62
 594:.\Generated_Source\PSoC4/I2CM_I2C_MASTER.c ****     {
 595:.\Generated_Source\PSoC4/I2CM_I2C_MASTER.c ****         I2CM_TX_FIFO_WR_REG = theByte;
 969              		.loc 1 595 0
 970 0020 264B     		ldr	r3, .L69+4
 971 0022 7A68     		ldr	r2, [r7, #4]
 972 0024 1A60     		str	r2, [r3]
 596:.\Generated_Source\PSoC4/I2CM_I2C_MASTER.c **** 
 597:.\Generated_Source\PSoC4/I2CM_I2C_MASTER.c ****         while(!I2CM_CHECK_INTR_MASTER(I2CM_INTR_MASTER_I2C_ACK      |
 973              		.loc 1 597 0
 974 0026 C046     		mov	r8, r8
 975              	.L63:
 976              		.loc 1 597 0 is_stmt 0 discriminator 1
 977 0028 254B     		ldr	r3, .L69+8
 978 002a 1A68     		ldr	r2, [r3]
 979 002c 254B     		ldr	r3, .L69+12
 980 002e 1340     		and	r3, r2
 981 0030 FAD0     		beq	.L63
 598:.\Generated_Source\PSoC4/I2CM_I2C_MASTER.c ****                                                   I2CM_INTR_MASTER_I2C_NACK     |
 599:.\Generated_Source\PSoC4/I2CM_I2C_MASTER.c ****                                                   I2CM_INTR_MASTER_I2C_ARB_LOST |
 600:.\Generated_Source\PSoC4/I2CM_I2C_MASTER.c ****                                                   I2CM_INTR_MASTER_I2C_BUS_ERROR))
 601:.\Generated_Source\PSoC4/I2CM_I2C_MASTER.c ****         {
 602:.\Generated_Source\PSoC4/I2CM_I2C_MASTER.c ****             /* Wait until byte has been transferred */
 603:.\Generated_Source\PSoC4/I2CM_I2C_MASTER.c ****         }
 604:.\Generated_Source\PSoC4/I2CM_I2C_MASTER.c **** 
 605:.\Generated_Source\PSoC4/I2CM_I2C_MASTER.c ****         /* Check the results after byte was sent */
 606:.\Generated_Source\PSoC4/I2CM_I2C_MASTER.c ****         if(I2CM_CHECK_INTR_MASTER(I2CM_INTR_MASTER_I2C_ACK))
 982              		.loc 1 606 0 is_stmt 1
 983 0032 234B     		ldr	r3, .L69+8
 984 0034 1A68     		ldr	r2, [r3]
 985 0036 0423     		mov	r3, #4
 986 0038 1340     		and	r3, r2
 987 003a 05D0     		beq	.L64
 607:.\Generated_Source\PSoC4/I2CM_I2C_MASTER.c ****         {
 608:.\Generated_Source\PSoC4/I2CM_I2C_MASTER.c ****             I2CM_state = I2CM_I2C_FSM_MSTR_HALT;
 988              		.loc 1 608 0
ARM GAS  C:\Users\SNFU\AppData\Local\Temp\ccDApkRi.s 			page 29


 989 003c 1E4B     		ldr	r3, .L69
 990 003e 6022     		mov	r2, #96
 991 0040 1A70     		strb	r2, [r3]
 609:.\Generated_Source\PSoC4/I2CM_I2C_MASTER.c ****                          errStatus = I2CM_I2C_MSTR_NO_ERROR;
 992              		.loc 1 609 0
 993 0042 0023     		mov	r3, #0
 994 0044 BB60     		str	r3, [r7, #8]
 995 0046 1FE0     		b	.L65
 996              	.L64:
 610:.\Generated_Source\PSoC4/I2CM_I2C_MASTER.c ****         }
 611:.\Generated_Source\PSoC4/I2CM_I2C_MASTER.c ****         else if(I2CM_CHECK_INTR_MASTER(I2CM_INTR_MASTER_I2C_NACK))
 997              		.loc 1 611 0
 998 0048 1D4B     		ldr	r3, .L69+8
 999 004a 1A68     		ldr	r2, [r3]
 1000 004c 0223     		mov	r3, #2
 1001 004e 1340     		and	r3, r2
 1002 0050 05D0     		beq	.L66
 612:.\Generated_Source\PSoC4/I2CM_I2C_MASTER.c ****         {
 613:.\Generated_Source\PSoC4/I2CM_I2C_MASTER.c ****             I2CM_state = I2CM_I2C_FSM_MSTR_HALT;
 1003              		.loc 1 613 0
 1004 0052 194B     		ldr	r3, .L69
 1005 0054 6022     		mov	r2, #96
 1006 0056 1A70     		strb	r2, [r3]
 614:.\Generated_Source\PSoC4/I2CM_I2C_MASTER.c ****                          errStatus = I2CM_I2C_MSTR_ERR_LB_NAK;
 1007              		.loc 1 614 0
 1008 0058 0223     		mov	r3, #2
 1009 005a BB60     		str	r3, [r7, #8]
 1010 005c 14E0     		b	.L65
 1011              	.L66:
 615:.\Generated_Source\PSoC4/I2CM_I2C_MASTER.c ****         }
 616:.\Generated_Source\PSoC4/I2CM_I2C_MASTER.c ****         else if(I2CM_CHECK_INTR_MASTER(I2CM_INTR_MASTER_I2C_ARB_LOST))
 1012              		.loc 1 616 0
 1013 005e 184B     		ldr	r3, .L69+8
 1014 0060 1A68     		ldr	r2, [r3]
 1015 0062 0123     		mov	r3, #1
 1016 0064 1340     		and	r3, r2
 1017 0066 07D0     		beq	.L67
 617:.\Generated_Source\PSoC4/I2CM_I2C_MASTER.c ****         {
 618:.\Generated_Source\PSoC4/I2CM_I2C_MASTER.c ****             I2CM_state = I2CM_I2C_FSM_IDLE;
 1018              		.loc 1 618 0
 1019 0068 134B     		ldr	r3, .L69
 1020 006a 1022     		mov	r2, #16
 1021 006c 1A70     		strb	r2, [r3]
 619:.\Generated_Source\PSoC4/I2CM_I2C_MASTER.c ****                          errStatus = I2CM_I2C_MSTR_ERR_ARB_LOST;
 1022              		.loc 1 619 0
 1023 006e 0123     		mov	r3, #1
 1024 0070 BB60     		str	r3, [r7, #8]
 620:.\Generated_Source\PSoC4/I2CM_I2C_MASTER.c ****                          resetIp   = I2CM_I2C_RESET_ERROR;
 1025              		.loc 1 620 0
 1026 0072 0123     		mov	r3, #1
 1027 0074 FB60     		str	r3, [r7, #12]
 1028 0076 07E0     		b	.L65
 1029              	.L67:
 621:.\Generated_Source\PSoC4/I2CM_I2C_MASTER.c ****         }
 622:.\Generated_Source\PSoC4/I2CM_I2C_MASTER.c ****         else /* I2CM_INTR_MASTER_I2C_BUS_ERROR set is */
 623:.\Generated_Source\PSoC4/I2CM_I2C_MASTER.c ****         {
 624:.\Generated_Source\PSoC4/I2CM_I2C_MASTER.c ****             I2CM_state = I2CM_I2C_FSM_IDLE;
ARM GAS  C:\Users\SNFU\AppData\Local\Temp\ccDApkRi.s 			page 30


 1030              		.loc 1 624 0
 1031 0078 0F4B     		ldr	r3, .L69
 1032 007a 1022     		mov	r2, #16
 1033 007c 1A70     		strb	r2, [r3]
 625:.\Generated_Source\PSoC4/I2CM_I2C_MASTER.c ****                          errStatus = I2CM_I2C_MSTR_ERR_BUS_ERR;
 1034              		.loc 1 625 0
 1035 007e 8023     		mov	r3, #128
 1036 0080 5B00     		lsl	r3, r3, #1
 1037 0082 BB60     		str	r3, [r7, #8]
 626:.\Generated_Source\PSoC4/I2CM_I2C_MASTER.c ****                          resetIp   = I2CM_I2C_RESET_ERROR;
 1038              		.loc 1 626 0
 1039 0084 0123     		mov	r3, #1
 1040 0086 FB60     		str	r3, [r7, #12]
 1041              	.L65:
 627:.\Generated_Source\PSoC4/I2CM_I2C_MASTER.c ****         }
 628:.\Generated_Source\PSoC4/I2CM_I2C_MASTER.c **** 
 629:.\Generated_Source\PSoC4/I2CM_I2C_MASTER.c ****         I2CM_ClearMasterInterruptSource(I2CM_INTR_MASTER_I2C_ACK      |
 1042              		.loc 1 629 0
 1043 0088 0D4B     		ldr	r3, .L69+8
 1044 008a 0E4A     		ldr	r2, .L69+12
 1045 008c 1A60     		str	r2, [r3]
 630:.\Generated_Source\PSoC4/I2CM_I2C_MASTER.c ****                                                     I2CM_INTR_MASTER_I2C_NACK     |
 631:.\Generated_Source\PSoC4/I2CM_I2C_MASTER.c ****                                                     I2CM_INTR_MASTER_I2C_ARB_LOST |
 632:.\Generated_Source\PSoC4/I2CM_I2C_MASTER.c ****                                                     I2CM_INTR_MASTER_I2C_BUS_ERROR);
 633:.\Generated_Source\PSoC4/I2CM_I2C_MASTER.c **** 
 634:.\Generated_Source\PSoC4/I2CM_I2C_MASTER.c ****         /* Reset block in case of: LOST_ARB or BUS_ERR */
 635:.\Generated_Source\PSoC4/I2CM_I2C_MASTER.c ****         if(0u != resetIp)
 1046              		.loc 1 635 0
 1047 008e FB68     		ldr	r3, [r7, #12]
 1048 0090 002B     		cmp	r3, #0
 1049 0092 0CD0     		beq	.L62
 636:.\Generated_Source\PSoC4/I2CM_I2C_MASTER.c ****         {
 637:.\Generated_Source\PSoC4/I2CM_I2C_MASTER.c ****             I2CM_SCB_SW_RESET;
 1050              		.loc 1 637 0
 1051 0094 0C4B     		ldr	r3, .L69+16
 1052 0096 0C4A     		ldr	r2, .L69+16
 1053 0098 1268     		ldr	r2, [r2]
 1054 009a 5200     		lsl	r2, r2, #1
 1055 009c 5208     		lsr	r2, r2, #1
 1056 009e 1A60     		str	r2, [r3]
 1057 00a0 094B     		ldr	r3, .L69+16
 1058 00a2 094A     		ldr	r2, .L69+16
 1059 00a4 1268     		ldr	r2, [r2]
 1060 00a6 8021     		mov	r1, #128
 1061 00a8 0906     		lsl	r1, r1, #24
 1062 00aa 0A43     		orr	r2, r1
 1063 00ac 1A60     		str	r2, [r3]
 1064              	.L62:
 638:.\Generated_Source\PSoC4/I2CM_I2C_MASTER.c ****         }
 639:.\Generated_Source\PSoC4/I2CM_I2C_MASTER.c ****     }
 640:.\Generated_Source\PSoC4/I2CM_I2C_MASTER.c **** 
 641:.\Generated_Source\PSoC4/I2CM_I2C_MASTER.c ****     return(errStatus);
 1065              		.loc 1 641 0
 1066 00ae BB68     		ldr	r3, [r7, #8]
 642:.\Generated_Source\PSoC4/I2CM_I2C_MASTER.c **** }
 1067              		.loc 1 642 0
 1068 00b0 181C     		mov	r0, r3
ARM GAS  C:\Users\SNFU\AppData\Local\Temp\ccDApkRi.s 			page 31


 1069 00b2 BD46     		mov	sp, r7
 1070 00b4 04B0     		add	sp, sp, #16
 1071              		@ sp needed for prologue
 1072 00b6 80BD     		pop	{r7, pc}
 1073              	.L70:
 1074              		.align	2
 1075              	.L69:
 1076 00b8 00000000 		.word	I2CM_state
 1077 00bc 40020740 		.word	1074201152
 1078 00c0 000F0740 		.word	1074204416
 1079 00c4 07010000 		.word	263
 1080 00c8 00000740 		.word	1074200576
 1081              		.cfi_endproc
 1082              	.LFE5:
 1083              		.size	I2CM_I2CMasterWriteByte, .-I2CM_I2CMasterWriteByte
 1084              		.section	.text.I2CM_I2CMasterReadByte,"ax",%progbits
 1085              		.align	2
 1086              		.global	I2CM_I2CMasterReadByte
 1087              		.code	16
 1088              		.thumb_func
 1089              		.type	I2CM_I2CMasterReadByte, %function
 1090              	I2CM_I2CMasterReadByte:
 1091              	.LFB6:
 643:.\Generated_Source\PSoC4/I2CM_I2C_MASTER.c **** 
 644:.\Generated_Source\PSoC4/I2CM_I2C_MASTER.c **** 
 645:.\Generated_Source\PSoC4/I2CM_I2C_MASTER.c **** /*******************************************************************************
 646:.\Generated_Source\PSoC4/I2CM_I2C_MASTER.c **** * Function Name: I2CM_I2CMasterReadByte
 647:.\Generated_Source\PSoC4/I2CM_I2C_MASTER.c **** ********************************************************************************
 648:.\Generated_Source\PSoC4/I2CM_I2C_MASTER.c **** *
 649:.\Generated_Source\PSoC4/I2CM_I2C_MASTER.c **** * Summary:
 650:.\Generated_Source\PSoC4/I2CM_I2C_MASTER.c **** *  Reads one byte from a slave and ACKs or NAKs received byte.
 651:.\Generated_Source\PSoC4/I2CM_I2C_MASTER.c **** *  This function does not generate NAK explicitly. The following call
 652:.\Generated_Source\PSoC4/I2CM_I2C_MASTER.c **** *  SCB_I2CMasterSendStop() or SCB_I2CMasterSendRestart() will generate NAK and
 653:.\Generated_Source\PSoC4/I2CM_I2C_MASTER.c **** *  Stop or ReStart condition appropriately.
 654:.\Generated_Source\PSoC4/I2CM_I2C_MASTER.c **** *  This function is blocking and does not return until byte is received
 655:.\Generated_Source\PSoC4/I2CM_I2C_MASTER.c **** *  or error occurred.
 656:.\Generated_Source\PSoC4/I2CM_I2C_MASTER.c **** *
 657:.\Generated_Source\PSoC4/I2CM_I2C_MASTER.c **** * Parameters:
 658:.\Generated_Source\PSoC4/I2CM_I2C_MASTER.c **** *  ackNack: Response to received byte.
 659:.\Generated_Source\PSoC4/I2CM_I2C_MASTER.c **** *
 660:.\Generated_Source\PSoC4/I2CM_I2C_MASTER.c **** * Return:
 661:.\Generated_Source\PSoC4/I2CM_I2C_MASTER.c **** *  Byte read from the slave. In case of error the MSB of returned data
 662:.\Generated_Source\PSoC4/I2CM_I2C_MASTER.c **** *  is set to 1.
 663:.\Generated_Source\PSoC4/I2CM_I2C_MASTER.c **** *
 664:.\Generated_Source\PSoC4/I2CM_I2C_MASTER.c **** * Side Effects:
 665:.\Generated_Source\PSoC4/I2CM_I2C_MASTER.c **** *  A valid Start or ReStart condition must be generated before calling this
 666:.\Generated_Source\PSoC4/I2CM_I2C_MASTER.c **** *  function. This function does nothing and returns invalid byte value
 667:.\Generated_Source\PSoC4/I2CM_I2C_MASTER.c **** *  if Start or ReStart conditions failed before this function was called.
 668:.\Generated_Source\PSoC4/I2CM_I2C_MASTER.c **** *
 669:.\Generated_Source\PSoC4/I2CM_I2C_MASTER.c **** * Global variables:
 670:.\Generated_Source\PSoC4/I2CM_I2C_MASTER.c **** *  I2CM_state - used to store current state of software FSM.
 671:.\Generated_Source\PSoC4/I2CM_I2C_MASTER.c **** *
 672:.\Generated_Source\PSoC4/I2CM_I2C_MASTER.c **** *******************************************************************************/
 673:.\Generated_Source\PSoC4/I2CM_I2C_MASTER.c **** uint32 I2CM_I2CMasterReadByte(uint32 ackNack)
 674:.\Generated_Source\PSoC4/I2CM_I2C_MASTER.c **** {
 1092              		.loc 1 674 0
 1093              		.cfi_startproc
ARM GAS  C:\Users\SNFU\AppData\Local\Temp\ccDApkRi.s 			page 32


 1094 0000 80B5     		push	{r7, lr}
 1095              	.LCFI18:
 1096              		.cfi_def_cfa_offset 8
 1097              		.cfi_offset 7, -8
 1098              		.cfi_offset 14, -4
 1099 0002 84B0     		sub	sp, sp, #16
 1100              	.LCFI19:
 1101              		.cfi_def_cfa_offset 24
 1102 0004 00AF     		add	r7, sp, #0
 1103              	.LCFI20:
 1104              		.cfi_def_cfa_register 7
 1105 0006 7860     		str	r0, [r7, #4]
 675:.\Generated_Source\PSoC4/I2CM_I2C_MASTER.c ****     uint32 theByte;
 676:.\Generated_Source\PSoC4/I2CM_I2C_MASTER.c **** 
 677:.\Generated_Source\PSoC4/I2CM_I2C_MASTER.c ****     /* Return invalid byte in case BUS_ERR happen during receiving */
 678:.\Generated_Source\PSoC4/I2CM_I2C_MASTER.c ****     theByte = I2CM_I2C_INVALID_BYTE;
 1106              		.loc 1 678 0
 1107 0008 0123     		mov	r3, #1
 1108 000a 5B42     		neg	r3, r3
 1109 000c FB60     		str	r3, [r7, #12]
 679:.\Generated_Source\PSoC4/I2CM_I2C_MASTER.c **** 
 680:.\Generated_Source\PSoC4/I2CM_I2C_MASTER.c ****     /* Check FSM state before read byte */
 681:.\Generated_Source\PSoC4/I2CM_I2C_MASTER.c ****     if(I2CM_CHECK_I2C_MASTER_ACTIVE)
 1110              		.loc 1 681 0
 1111 000e 1F4B     		ldr	r3, .L78
 1112 0010 1B78     		ldrb	r3, [r3]
 1113 0012 DAB2     		uxtb	r2, r3
 1114 0014 2023     		mov	r3, #32
 1115 0016 1340     		and	r3, r2
 1116 0018 DBB2     		uxtb	r3, r3
 1117 001a 002B     		cmp	r3, #0
 1118 001c 30D0     		beq	.L72
 682:.\Generated_Source\PSoC4/I2CM_I2C_MASTER.c ****     {
 683:.\Generated_Source\PSoC4/I2CM_I2C_MASTER.c ****         while((!I2CM_CHECK_INTR_RX(I2CM_INTR_RX_NOT_EMPTY)) &&
 1119              		.loc 1 683 0
 1120 001e C046     		mov	r8, r8
 1121              	.L74:
 1122              		.loc 1 683 0 is_stmt 0 discriminator 1
 1123 0020 1B4B     		ldr	r3, .L78+4
 1124 0022 1A68     		ldr	r2, [r3]
 1125 0024 0423     		mov	r3, #4
 1126 0026 1340     		and	r3, r2
 1127 0028 04D1     		bne	.L73
 684:.\Generated_Source\PSoC4/I2CM_I2C_MASTER.c ****               (!I2CM_CHECK_INTR_MASTER(I2CM_INTR_MASTER_I2C_ARB_LOST |
 1128              		.loc 1 684 0 is_stmt 1 discriminator 2
 1129 002a 1A4B     		ldr	r3, .L78+8
 1130 002c 1A68     		ldr	r2, [r3]
 1131 002e 1A4B     		ldr	r3, .L78+12
 1132 0030 1340     		and	r3, r2
 683:.\Generated_Source\PSoC4/I2CM_I2C_MASTER.c ****         while((!I2CM_CHECK_INTR_RX(I2CM_INTR_RX_NOT_EMPTY)) &&
 1133              		.loc 1 683 0 discriminator 2
 1134 0032 F5D0     		beq	.L74
 1135              	.L73:
 685:.\Generated_Source\PSoC4/I2CM_I2C_MASTER.c ****                                                   I2CM_INTR_MASTER_I2C_BUS_ERROR)))
 686:.\Generated_Source\PSoC4/I2CM_I2C_MASTER.c ****         {
 687:.\Generated_Source\PSoC4/I2CM_I2C_MASTER.c ****             /* Wait until byte has been received */
 688:.\Generated_Source\PSoC4/I2CM_I2C_MASTER.c ****         }
ARM GAS  C:\Users\SNFU\AppData\Local\Temp\ccDApkRi.s 			page 33


 689:.\Generated_Source\PSoC4/I2CM_I2C_MASTER.c **** 
 690:.\Generated_Source\PSoC4/I2CM_I2C_MASTER.c ****         /* Check the results after the byte was sent */
 691:.\Generated_Source\PSoC4/I2CM_I2C_MASTER.c ****         if(I2CM_CHECK_INTR_RX(I2CM_INTR_RX_NOT_EMPTY))
 1136              		.loc 1 691 0
 1137 0034 164B     		ldr	r3, .L78+4
 1138 0036 1A68     		ldr	r2, [r3]
 1139 0038 0423     		mov	r3, #4
 1140 003a 1340     		and	r3, r2
 1141 003c 10D0     		beq	.L75
 692:.\Generated_Source\PSoC4/I2CM_I2C_MASTER.c ****         {
 693:.\Generated_Source\PSoC4/I2CM_I2C_MASTER.c ****             theByte = I2CM_RX_FIFO_RD_REG;
 1142              		.loc 1 693 0
 1143 003e 174B     		ldr	r3, .L78+16
 1144 0040 1B68     		ldr	r3, [r3]
 1145 0042 FB60     		str	r3, [r7, #12]
 694:.\Generated_Source\PSoC4/I2CM_I2C_MASTER.c **** 
 695:.\Generated_Source\PSoC4/I2CM_I2C_MASTER.c ****             I2CM_ClearRxInterruptSource(I2CM_INTR_RX_NOT_EMPTY);
 1146              		.loc 1 695 0
 1147 0044 124B     		ldr	r3, .L78+4
 1148 0046 0422     		mov	r2, #4
 1149 0048 1A60     		str	r2, [r3]
 696:.\Generated_Source\PSoC4/I2CM_I2C_MASTER.c **** 
 697:.\Generated_Source\PSoC4/I2CM_I2C_MASTER.c ****             if(0u == ackNack)
 1150              		.loc 1 697 0
 1151 004a 7B68     		ldr	r3, [r7, #4]
 1152 004c 002B     		cmp	r3, #0
 1153 004e 03D1     		bne	.L76
 698:.\Generated_Source\PSoC4/I2CM_I2C_MASTER.c ****             {
 699:.\Generated_Source\PSoC4/I2CM_I2C_MASTER.c ****                 I2CM_I2C_MASTER_GENERATE_ACK;
 1154              		.loc 1 699 0
 1155 0050 134B     		ldr	r3, .L78+20
 1156 0052 0422     		mov	r2, #4
 1157 0054 1A60     		str	r2, [r3]
 1158 0056 13E0     		b	.L72
 1159              	.L76:
 700:.\Generated_Source\PSoC4/I2CM_I2C_MASTER.c ****             }
 701:.\Generated_Source\PSoC4/I2CM_I2C_MASTER.c ****             else
 702:.\Generated_Source\PSoC4/I2CM_I2C_MASTER.c ****             {
 703:.\Generated_Source\PSoC4/I2CM_I2C_MASTER.c ****                 /* NACK is generated by Stop or ReStart command*/
 704:.\Generated_Source\PSoC4/I2CM_I2C_MASTER.c ****                 I2CM_state = I2CM_I2C_FSM_MSTR_HALT;
 1160              		.loc 1 704 0
 1161 0058 0C4B     		ldr	r3, .L78
 1162 005a 6022     		mov	r2, #96
 1163 005c 1A70     		strb	r2, [r3]
 1164 005e 0FE0     		b	.L72
 1165              	.L75:
 705:.\Generated_Source\PSoC4/I2CM_I2C_MASTER.c ****             }
 706:.\Generated_Source\PSoC4/I2CM_I2C_MASTER.c ****         }
 707:.\Generated_Source\PSoC4/I2CM_I2C_MASTER.c ****         else
 708:.\Generated_Source\PSoC4/I2CM_I2C_MASTER.c ****         {
 709:.\Generated_Source\PSoC4/I2CM_I2C_MASTER.c ****             I2CM_ClearMasterInterruptSource(I2CM_INTR_MASTER_ALL);
 1166              		.loc 1 709 0
 1167 0060 0C4B     		ldr	r3, .L78+8
 1168 0062 104A     		ldr	r2, .L78+24
 1169 0064 1A60     		str	r2, [r3]
 710:.\Generated_Source\PSoC4/I2CM_I2C_MASTER.c **** 
 711:.\Generated_Source\PSoC4/I2CM_I2C_MASTER.c ****             /* Reset block in case of: LOST_ARB or BUS_ERR */
ARM GAS  C:\Users\SNFU\AppData\Local\Temp\ccDApkRi.s 			page 34


 712:.\Generated_Source\PSoC4/I2CM_I2C_MASTER.c ****             I2CM_SCB_SW_RESET;
 1170              		.loc 1 712 0
 1171 0066 104B     		ldr	r3, .L78+28
 1172 0068 0F4A     		ldr	r2, .L78+28
 1173 006a 1268     		ldr	r2, [r2]
 1174 006c 5200     		lsl	r2, r2, #1
 1175 006e 5208     		lsr	r2, r2, #1
 1176 0070 1A60     		str	r2, [r3]
 1177 0072 0D4B     		ldr	r3, .L78+28
 1178 0074 0C4A     		ldr	r2, .L78+28
 1179 0076 1268     		ldr	r2, [r2]
 1180 0078 8021     		mov	r1, #128
 1181 007a 0906     		lsl	r1, r1, #24
 1182 007c 0A43     		orr	r2, r1
 1183 007e 1A60     		str	r2, [r3]
 1184              	.L72:
 713:.\Generated_Source\PSoC4/I2CM_I2C_MASTER.c ****         }
 714:.\Generated_Source\PSoC4/I2CM_I2C_MASTER.c ****     }
 715:.\Generated_Source\PSoC4/I2CM_I2C_MASTER.c **** 
 716:.\Generated_Source\PSoC4/I2CM_I2C_MASTER.c ****     return(theByte);
 1185              		.loc 1 716 0
 1186 0080 FB68     		ldr	r3, [r7, #12]
 717:.\Generated_Source\PSoC4/I2CM_I2C_MASTER.c **** }
 1187              		.loc 1 717 0
 1188 0082 181C     		mov	r0, r3
 1189 0084 BD46     		mov	sp, r7
 1190 0086 04B0     		add	sp, sp, #16
 1191              		@ sp needed for prologue
 1192 0088 80BD     		pop	{r7, pc}
 1193              	.L79:
 1194 008a C046     		.align	2
 1195              	.L78:
 1196 008c 00000000 		.word	I2CM_state
 1197 0090 C00F0740 		.word	1074204608
 1198 0094 000F0740 		.word	1074204416
 1199 0098 01010000 		.word	257
 1200 009c 40030740 		.word	1074201408
 1201 00a0 68000740 		.word	1074200680
 1202 00a4 17030000 		.word	791
 1203 00a8 00000740 		.word	1074200576
 1204              		.cfi_endproc
 1205              	.LFE6:
 1206              		.size	I2CM_I2CMasterReadByte, .-I2CM_I2CMasterReadByte
 1207              		.section	.text.I2CM_I2CMasterGetReadBufSize,"ax",%progbits
 1208              		.align	2
 1209              		.global	I2CM_I2CMasterGetReadBufSize
 1210              		.code	16
 1211              		.thumb_func
 1212              		.type	I2CM_I2CMasterGetReadBufSize, %function
 1213              	I2CM_I2CMasterGetReadBufSize:
 1214              	.LFB7:
 718:.\Generated_Source\PSoC4/I2CM_I2C_MASTER.c **** 
 719:.\Generated_Source\PSoC4/I2CM_I2C_MASTER.c **** 
 720:.\Generated_Source\PSoC4/I2CM_I2C_MASTER.c **** /*******************************************************************************
 721:.\Generated_Source\PSoC4/I2CM_I2C_MASTER.c **** * Function Name: I2CM_I2CMasterGetReadBufSize
 722:.\Generated_Source\PSoC4/I2CM_I2C_MASTER.c **** ********************************************************************************
 723:.\Generated_Source\PSoC4/I2CM_I2C_MASTER.c **** *
ARM GAS  C:\Users\SNFU\AppData\Local\Temp\ccDApkRi.s 			page 35


 724:.\Generated_Source\PSoC4/I2CM_I2C_MASTER.c **** * Summary:
 725:.\Generated_Source\PSoC4/I2CM_I2C_MASTER.c **** *  Returns the number of bytes that has been transferred with an
 726:.\Generated_Source\PSoC4/I2CM_I2C_MASTER.c **** *  SCB_I2CMasterReadBuf() function.
 727:.\Generated_Source\PSoC4/I2CM_I2C_MASTER.c **** *
 728:.\Generated_Source\PSoC4/I2CM_I2C_MASTER.c **** * Parameters:
 729:.\Generated_Source\PSoC4/I2CM_I2C_MASTER.c **** *  None
 730:.\Generated_Source\PSoC4/I2CM_I2C_MASTER.c **** *
 731:.\Generated_Source\PSoC4/I2CM_I2C_MASTER.c **** * Return:
 732:.\Generated_Source\PSoC4/I2CM_I2C_MASTER.c **** *  Byte count of transfer. If the transfer is not yet complete, it returns
 733:.\Generated_Source\PSoC4/I2CM_I2C_MASTER.c **** *  the byte count transferred so far.
 734:.\Generated_Source\PSoC4/I2CM_I2C_MASTER.c **** *
 735:.\Generated_Source\PSoC4/I2CM_I2C_MASTER.c **** * Side Effects:
 736:.\Generated_Source\PSoC4/I2CM_I2C_MASTER.c **** *  This function returns not valid value if SCB_I2C_MSTAT_ERR_ARB_LOST
 737:.\Generated_Source\PSoC4/I2CM_I2C_MASTER.c **** *  or SCB_I2C_MSTAT_ERR_BUS_ERROR occurred while read transfer.
 738:.\Generated_Source\PSoC4/I2CM_I2C_MASTER.c **** *
 739:.\Generated_Source\PSoC4/I2CM_I2C_MASTER.c **** * Global variables:
 740:.\Generated_Source\PSoC4/I2CM_I2C_MASTER.c **** *  I2CM_mstrRdBufIndex - used to current index within master read
 741:.\Generated_Source\PSoC4/I2CM_I2C_MASTER.c **** *  buffer.
 742:.\Generated_Source\PSoC4/I2CM_I2C_MASTER.c **** *
 743:.\Generated_Source\PSoC4/I2CM_I2C_MASTER.c **** *******************************************************************************/
 744:.\Generated_Source\PSoC4/I2CM_I2C_MASTER.c **** uint32 I2CM_I2CMasterGetReadBufSize(void)
 745:.\Generated_Source\PSoC4/I2CM_I2C_MASTER.c **** {
 1215              		.loc 1 745 0
 1216              		.cfi_startproc
 1217 0000 80B5     		push	{r7, lr}
 1218              	.LCFI21:
 1219              		.cfi_def_cfa_offset 8
 1220              		.cfi_offset 7, -8
 1221              		.cfi_offset 14, -4
 1222 0002 00AF     		add	r7, sp, #0
 1223              	.LCFI22:
 1224              		.cfi_def_cfa_register 7
 746:.\Generated_Source\PSoC4/I2CM_I2C_MASTER.c ****     return(I2CM_mstrRdBufIndex);
 1225              		.loc 1 746 0
 1226 0004 024B     		ldr	r3, .L82
 1227 0006 1B68     		ldr	r3, [r3]
 747:.\Generated_Source\PSoC4/I2CM_I2C_MASTER.c **** }
 1228              		.loc 1 747 0
 1229 0008 181C     		mov	r0, r3
 1230 000a BD46     		mov	sp, r7
 1231              		@ sp needed for prologue
 1232 000c 80BD     		pop	{r7, pc}
 1233              	.L83:
 1234 000e C046     		.align	2
 1235              	.L82:
 1236 0010 00000000 		.word	I2CM_mstrRdBufIndex
 1237              		.cfi_endproc
 1238              	.LFE7:
 1239              		.size	I2CM_I2CMasterGetReadBufSize, .-I2CM_I2CMasterGetReadBufSize
 1240              		.section	.text.I2CM_I2CMasterGetWriteBufSize,"ax",%progbits
 1241              		.align	2
 1242              		.global	I2CM_I2CMasterGetWriteBufSize
 1243              		.code	16
 1244              		.thumb_func
 1245              		.type	I2CM_I2CMasterGetWriteBufSize, %function
 1246              	I2CM_I2CMasterGetWriteBufSize:
 1247              	.LFB8:
ARM GAS  C:\Users\SNFU\AppData\Local\Temp\ccDApkRi.s 			page 36


 748:.\Generated_Source\PSoC4/I2CM_I2C_MASTER.c **** 
 749:.\Generated_Source\PSoC4/I2CM_I2C_MASTER.c **** 
 750:.\Generated_Source\PSoC4/I2CM_I2C_MASTER.c **** /*******************************************************************************
 751:.\Generated_Source\PSoC4/I2CM_I2C_MASTER.c **** * Function Name: I2CM_I2CMasterGetWriteBufSize
 752:.\Generated_Source\PSoC4/I2CM_I2C_MASTER.c **** ********************************************************************************
 753:.\Generated_Source\PSoC4/I2CM_I2C_MASTER.c **** *
 754:.\Generated_Source\PSoC4/I2CM_I2C_MASTER.c **** * Summary:
 755:.\Generated_Source\PSoC4/I2CM_I2C_MASTER.c **** *  Returns the number of bytes that have been transferred with an
 756:.\Generated_Source\PSoC4/I2CM_I2C_MASTER.c **** *  SCB_I2CMasterWriteBuf() function.
 757:.\Generated_Source\PSoC4/I2CM_I2C_MASTER.c **** *
 758:.\Generated_Source\PSoC4/I2CM_I2C_MASTER.c **** * Parameters:
 759:.\Generated_Source\PSoC4/I2CM_I2C_MASTER.c **** *  None
 760:.\Generated_Source\PSoC4/I2CM_I2C_MASTER.c **** *
 761:.\Generated_Source\PSoC4/I2CM_I2C_MASTER.c **** * Return:
 762:.\Generated_Source\PSoC4/I2CM_I2C_MASTER.c **** *  Byte count of transfer. If the transfer is not yet complete, it returns
 763:.\Generated_Source\PSoC4/I2CM_I2C_MASTER.c **** *  zero unit transfer completion.
 764:.\Generated_Source\PSoC4/I2CM_I2C_MASTER.c **** *
 765:.\Generated_Source\PSoC4/I2CM_I2C_MASTER.c **** * Side Effects:
 766:.\Generated_Source\PSoC4/I2CM_I2C_MASTER.c **** *  This function returns not valid value if SCB_I2C_MSTAT_ERR_ARB_LOST
 767:.\Generated_Source\PSoC4/I2CM_I2C_MASTER.c **** *  or SCB_I2C_MSTAT_ERR_BUS_ERROR occurred while read transfer.
 768:.\Generated_Source\PSoC4/I2CM_I2C_MASTER.c **** *
 769:.\Generated_Source\PSoC4/I2CM_I2C_MASTER.c **** * Global variables:
 770:.\Generated_Source\PSoC4/I2CM_I2C_MASTER.c **** *  I2CM_mstrWrBufIndex - used to current index within master write
 771:.\Generated_Source\PSoC4/I2CM_I2C_MASTER.c **** *  buffer.
 772:.\Generated_Source\PSoC4/I2CM_I2C_MASTER.c **** *
 773:.\Generated_Source\PSoC4/I2CM_I2C_MASTER.c **** *******************************************************************************/
 774:.\Generated_Source\PSoC4/I2CM_I2C_MASTER.c **** uint32 I2CM_I2CMasterGetWriteBufSize(void)
 775:.\Generated_Source\PSoC4/I2CM_I2C_MASTER.c **** {
 1248              		.loc 1 775 0
 1249              		.cfi_startproc
 1250 0000 80B5     		push	{r7, lr}
 1251              	.LCFI23:
 1252              		.cfi_def_cfa_offset 8
 1253              		.cfi_offset 7, -8
 1254              		.cfi_offset 14, -4
 1255 0002 00AF     		add	r7, sp, #0
 1256              	.LCFI24:
 1257              		.cfi_def_cfa_register 7
 776:.\Generated_Source\PSoC4/I2CM_I2C_MASTER.c ****     return(I2CM_mstrWrBufIndex);
 1258              		.loc 1 776 0
 1259 0004 024B     		ldr	r3, .L86
 1260 0006 1B68     		ldr	r3, [r3]
 777:.\Generated_Source\PSoC4/I2CM_I2C_MASTER.c **** }
 1261              		.loc 1 777 0
 1262 0008 181C     		mov	r0, r3
 1263 000a BD46     		mov	sp, r7
 1264              		@ sp needed for prologue
 1265 000c 80BD     		pop	{r7, pc}
 1266              	.L87:
 1267 000e C046     		.align	2
 1268              	.L86:
 1269 0010 00000000 		.word	I2CM_mstrWrBufIndex
 1270              		.cfi_endproc
 1271              	.LFE8:
 1272              		.size	I2CM_I2CMasterGetWriteBufSize, .-I2CM_I2CMasterGetWriteBufSize
 1273              		.section	.text.I2CM_I2CMasterClearReadBuf,"ax",%progbits
 1274              		.align	2
ARM GAS  C:\Users\SNFU\AppData\Local\Temp\ccDApkRi.s 			page 37


 1275              		.global	I2CM_I2CMasterClearReadBuf
 1276              		.code	16
 1277              		.thumb_func
 1278              		.type	I2CM_I2CMasterClearReadBuf, %function
 1279              	I2CM_I2CMasterClearReadBuf:
 1280              	.LFB9:
 778:.\Generated_Source\PSoC4/I2CM_I2C_MASTER.c **** 
 779:.\Generated_Source\PSoC4/I2CM_I2C_MASTER.c **** 
 780:.\Generated_Source\PSoC4/I2CM_I2C_MASTER.c **** /*******************************************************************************
 781:.\Generated_Source\PSoC4/I2CM_I2C_MASTER.c **** * Function Name: I2CM_I2CMasterClearReadBuf
 782:.\Generated_Source\PSoC4/I2CM_I2C_MASTER.c **** ********************************************************************************
 783:.\Generated_Source\PSoC4/I2CM_I2C_MASTER.c **** *
 784:.\Generated_Source\PSoC4/I2CM_I2C_MASTER.c **** * Summary:
 785:.\Generated_Source\PSoC4/I2CM_I2C_MASTER.c **** *  Resets the read buffer pointer back to the first byte in the buffer.
 786:.\Generated_Source\PSoC4/I2CM_I2C_MASTER.c **** *
 787:.\Generated_Source\PSoC4/I2CM_I2C_MASTER.c **** * Parameters:
 788:.\Generated_Source\PSoC4/I2CM_I2C_MASTER.c **** *  None
 789:.\Generated_Source\PSoC4/I2CM_I2C_MASTER.c **** *
 790:.\Generated_Source\PSoC4/I2CM_I2C_MASTER.c **** * Return:
 791:.\Generated_Source\PSoC4/I2CM_I2C_MASTER.c **** *  None
 792:.\Generated_Source\PSoC4/I2CM_I2C_MASTER.c **** *
 793:.\Generated_Source\PSoC4/I2CM_I2C_MASTER.c **** * Global variables:
 794:.\Generated_Source\PSoC4/I2CM_I2C_MASTER.c **** *  I2CM_mstrRdBufIndex - used to current index within master read
 795:.\Generated_Source\PSoC4/I2CM_I2C_MASTER.c **** *   buffer.
 796:.\Generated_Source\PSoC4/I2CM_I2C_MASTER.c **** *  I2CM_mstrStatus - used to store current status of I2C Master.
 797:.\Generated_Source\PSoC4/I2CM_I2C_MASTER.c **** *
 798:.\Generated_Source\PSoC4/I2CM_I2C_MASTER.c **** *******************************************************************************/
 799:.\Generated_Source\PSoC4/I2CM_I2C_MASTER.c **** void I2CM_I2CMasterClearReadBuf(void)
 800:.\Generated_Source\PSoC4/I2CM_I2C_MASTER.c **** {
 1281              		.loc 1 800 0
 1282              		.cfi_startproc
 1283 0000 80B5     		push	{r7, lr}
 1284              	.LCFI25:
 1285              		.cfi_def_cfa_offset 8
 1286              		.cfi_offset 7, -8
 1287              		.cfi_offset 14, -4
 1288 0002 00AF     		add	r7, sp, #0
 1289              	.LCFI26:
 1290              		.cfi_def_cfa_register 7
 801:.\Generated_Source\PSoC4/I2CM_I2C_MASTER.c ****     I2CM_mstrRdBufIndex = 0u;
 1291              		.loc 1 801 0
 1292 0004 064B     		ldr	r3, .L89
 1293 0006 0022     		mov	r2, #0
 1294 0008 1A60     		str	r2, [r3]
 802:.\Generated_Source\PSoC4/I2CM_I2C_MASTER.c ****     I2CM_mstrStatus    &= (uint16) ~I2CM_I2C_MSTAT_RD_CMPLT;
 1295              		.loc 1 802 0
 1296 000a 064B     		ldr	r3, .L89+4
 1297 000c 1B88     		ldrh	r3, [r3]
 1298 000e 9BB2     		uxth	r3, r3
 1299 0010 0122     		mov	r2, #1
 1300 0012 9343     		bic	r3, r2
 1301 0014 9AB2     		uxth	r2, r3
 1302 0016 034B     		ldr	r3, .L89+4
 1303 0018 1A80     		strh	r2, [r3]
 803:.\Generated_Source\PSoC4/I2CM_I2C_MASTER.c **** }
 1304              		.loc 1 803 0
 1305 001a BD46     		mov	sp, r7
ARM GAS  C:\Users\SNFU\AppData\Local\Temp\ccDApkRi.s 			page 38


 1306              		@ sp needed for prologue
 1307 001c 80BD     		pop	{r7, pc}
 1308              	.L90:
 1309 001e C046     		.align	2
 1310              	.L89:
 1311 0020 00000000 		.word	I2CM_mstrRdBufIndex
 1312 0024 00000000 		.word	I2CM_mstrStatus
 1313              		.cfi_endproc
 1314              	.LFE9:
 1315              		.size	I2CM_I2CMasterClearReadBuf, .-I2CM_I2CMasterClearReadBuf
 1316              		.section	.text.I2CM_I2CMasterClearWriteBuf,"ax",%progbits
 1317              		.align	2
 1318              		.global	I2CM_I2CMasterClearWriteBuf
 1319              		.code	16
 1320              		.thumb_func
 1321              		.type	I2CM_I2CMasterClearWriteBuf, %function
 1322              	I2CM_I2CMasterClearWriteBuf:
 1323              	.LFB10:
 804:.\Generated_Source\PSoC4/I2CM_I2C_MASTER.c **** 
 805:.\Generated_Source\PSoC4/I2CM_I2C_MASTER.c **** 
 806:.\Generated_Source\PSoC4/I2CM_I2C_MASTER.c **** /*******************************************************************************
 807:.\Generated_Source\PSoC4/I2CM_I2C_MASTER.c **** * Function Name: I2CM_I2CMasterClearWriteBuf
 808:.\Generated_Source\PSoC4/I2CM_I2C_MASTER.c **** ********************************************************************************
 809:.\Generated_Source\PSoC4/I2CM_I2C_MASTER.c **** *
 810:.\Generated_Source\PSoC4/I2CM_I2C_MASTER.c **** * Summary:
 811:.\Generated_Source\PSoC4/I2CM_I2C_MASTER.c **** *  Resets the write buffer pointer back to the first byte in the buffer.
 812:.\Generated_Source\PSoC4/I2CM_I2C_MASTER.c **** *
 813:.\Generated_Source\PSoC4/I2CM_I2C_MASTER.c **** * Parameters:
 814:.\Generated_Source\PSoC4/I2CM_I2C_MASTER.c **** *  None
 815:.\Generated_Source\PSoC4/I2CM_I2C_MASTER.c **** *
 816:.\Generated_Source\PSoC4/I2CM_I2C_MASTER.c **** * Return:
 817:.\Generated_Source\PSoC4/I2CM_I2C_MASTER.c **** *  None
 818:.\Generated_Source\PSoC4/I2CM_I2C_MASTER.c **** *
 819:.\Generated_Source\PSoC4/I2CM_I2C_MASTER.c **** * Global variables:
 820:.\Generated_Source\PSoC4/I2CM_I2C_MASTER.c **** *  I2CM_mstrRdBufIndex - used to current index within master read
 821:.\Generated_Source\PSoC4/I2CM_I2C_MASTER.c **** *   buffer.
 822:.\Generated_Source\PSoC4/I2CM_I2C_MASTER.c **** *  I2CM_mstrStatus - used to store current status of I2C Master.
 823:.\Generated_Source\PSoC4/I2CM_I2C_MASTER.c **** *
 824:.\Generated_Source\PSoC4/I2CM_I2C_MASTER.c **** *******************************************************************************/
 825:.\Generated_Source\PSoC4/I2CM_I2C_MASTER.c **** void I2CM_I2CMasterClearWriteBuf(void)
 826:.\Generated_Source\PSoC4/I2CM_I2C_MASTER.c **** {
 1324              		.loc 1 826 0
 1325              		.cfi_startproc
 1326 0000 80B5     		push	{r7, lr}
 1327              	.LCFI27:
 1328              		.cfi_def_cfa_offset 8
 1329              		.cfi_offset 7, -8
 1330              		.cfi_offset 14, -4
 1331 0002 00AF     		add	r7, sp, #0
 1332              	.LCFI28:
 1333              		.cfi_def_cfa_register 7
 827:.\Generated_Source\PSoC4/I2CM_I2C_MASTER.c ****     I2CM_mstrWrBufIndex = 0u;
 1334              		.loc 1 827 0
 1335 0004 064B     		ldr	r3, .L92
 1336 0006 0022     		mov	r2, #0
 1337 0008 1A60     		str	r2, [r3]
 828:.\Generated_Source\PSoC4/I2CM_I2C_MASTER.c ****     I2CM_mstrStatus    &= (uint16) ~I2CM_I2C_MSTAT_WR_CMPLT;
ARM GAS  C:\Users\SNFU\AppData\Local\Temp\ccDApkRi.s 			page 39


 1338              		.loc 1 828 0
 1339 000a 064B     		ldr	r3, .L92+4
 1340 000c 1B88     		ldrh	r3, [r3]
 1341 000e 9BB2     		uxth	r3, r3
 1342 0010 0222     		mov	r2, #2
 1343 0012 9343     		bic	r3, r2
 1344 0014 9AB2     		uxth	r2, r3
 1345 0016 034B     		ldr	r3, .L92+4
 1346 0018 1A80     		strh	r2, [r3]
 829:.\Generated_Source\PSoC4/I2CM_I2C_MASTER.c **** }
 1347              		.loc 1 829 0
 1348 001a BD46     		mov	sp, r7
 1349              		@ sp needed for prologue
 1350 001c 80BD     		pop	{r7, pc}
 1351              	.L93:
 1352 001e C046     		.align	2
 1353              	.L92:
 1354 0020 00000000 		.word	I2CM_mstrWrBufIndex
 1355 0024 00000000 		.word	I2CM_mstrStatus
 1356              		.cfi_endproc
 1357              	.LFE10:
 1358              		.size	I2CM_I2CMasterClearWriteBuf, .-I2CM_I2CMasterClearWriteBuf
 1359              		.section	.text.I2CM_I2CMasterStatus,"ax",%progbits
 1360              		.align	2
 1361              		.global	I2CM_I2CMasterStatus
 1362              		.code	16
 1363              		.thumb_func
 1364              		.type	I2CM_I2CMasterStatus, %function
 1365              	I2CM_I2CMasterStatus:
 1366              	.LFB11:
 830:.\Generated_Source\PSoC4/I2CM_I2C_MASTER.c **** 
 831:.\Generated_Source\PSoC4/I2CM_I2C_MASTER.c **** 
 832:.\Generated_Source\PSoC4/I2CM_I2C_MASTER.c **** /*******************************************************************************
 833:.\Generated_Source\PSoC4/I2CM_I2C_MASTER.c **** * Function Name: I2CM_I2CMasterStatus
 834:.\Generated_Source\PSoC4/I2CM_I2C_MASTER.c **** ********************************************************************************
 835:.\Generated_Source\PSoC4/I2CM_I2C_MASTER.c **** *
 836:.\Generated_Source\PSoC4/I2CM_I2C_MASTER.c **** * Summary:
 837:.\Generated_Source\PSoC4/I2CM_I2C_MASTER.c **** *  Returns the master's communication status.
 838:.\Generated_Source\PSoC4/I2CM_I2C_MASTER.c **** *
 839:.\Generated_Source\PSoC4/I2CM_I2C_MASTER.c **** * Parameters:
 840:.\Generated_Source\PSoC4/I2CM_I2C_MASTER.c **** *  None
 841:.\Generated_Source\PSoC4/I2CM_I2C_MASTER.c **** *
 842:.\Generated_Source\PSoC4/I2CM_I2C_MASTER.c **** * Return:
 843:.\Generated_Source\PSoC4/I2CM_I2C_MASTER.c **** *  Current status of I2C master.
 844:.\Generated_Source\PSoC4/I2CM_I2C_MASTER.c **** *
 845:.\Generated_Source\PSoC4/I2CM_I2C_MASTER.c **** * Global variables:
 846:.\Generated_Source\PSoC4/I2CM_I2C_MASTER.c **** *  I2CM_mstrStatus - used to store current status of I2C Master.
 847:.\Generated_Source\PSoC4/I2CM_I2C_MASTER.c **** *
 848:.\Generated_Source\PSoC4/I2CM_I2C_MASTER.c **** *******************************************************************************/
 849:.\Generated_Source\PSoC4/I2CM_I2C_MASTER.c **** uint32 I2CM_I2CMasterStatus(void)
 850:.\Generated_Source\PSoC4/I2CM_I2C_MASTER.c **** {
 1367              		.loc 1 850 0
 1368              		.cfi_startproc
 1369 0000 80B5     		push	{r7, lr}
 1370              	.LCFI29:
 1371              		.cfi_def_cfa_offset 8
 1372              		.cfi_offset 7, -8
ARM GAS  C:\Users\SNFU\AppData\Local\Temp\ccDApkRi.s 			page 40


 1373              		.cfi_offset 14, -4
 1374 0002 82B0     		sub	sp, sp, #8
 1375              	.LCFI30:
 1376              		.cfi_def_cfa_offset 16
 1377 0004 00AF     		add	r7, sp, #0
 1378              	.LCFI31:
 1379              		.cfi_def_cfa_register 7
 851:.\Generated_Source\PSoC4/I2CM_I2C_MASTER.c ****     uint32 status;
 852:.\Generated_Source\PSoC4/I2CM_I2C_MASTER.c **** 
 853:.\Generated_Source\PSoC4/I2CM_I2C_MASTER.c ****     status = (uint32) I2CM_mstrStatus;
 1380              		.loc 1 853 0
 1381 0006 0A4B     		ldr	r3, .L97
 1382 0008 1B88     		ldrh	r3, [r3]
 1383 000a 9BB2     		uxth	r3, r3
 1384 000c 7B60     		str	r3, [r7, #4]
 854:.\Generated_Source\PSoC4/I2CM_I2C_MASTER.c **** 
 855:.\Generated_Source\PSoC4/I2CM_I2C_MASTER.c ****     if(I2CM_CHECK_I2C_MASTER_ACTIVE)
 1385              		.loc 1 855 0
 1386 000e 094B     		ldr	r3, .L97+4
 1387 0010 1B78     		ldrb	r3, [r3]
 1388 0012 DAB2     		uxtb	r2, r3
 1389 0014 2023     		mov	r3, #32
 1390 0016 1340     		and	r3, r2
 1391 0018 DBB2     		uxtb	r3, r3
 1392 001a 002B     		cmp	r3, #0
 1393 001c 03D0     		beq	.L95
 856:.\Generated_Source\PSoC4/I2CM_I2C_MASTER.c ****     {
 857:.\Generated_Source\PSoC4/I2CM_I2C_MASTER.c ****         /* Add status of master pending transaction: MSTAT_XFER_INP */
 858:.\Generated_Source\PSoC4/I2CM_I2C_MASTER.c ****         status |= (uint32) I2CM_I2C_MSTAT_XFER_INP;
 1394              		.loc 1 858 0
 1395 001e 7B68     		ldr	r3, [r7, #4]
 1396 0020 0422     		mov	r2, #4
 1397 0022 1343     		orr	r3, r2
 1398 0024 7B60     		str	r3, [r7, #4]
 1399              	.L95:
 859:.\Generated_Source\PSoC4/I2CM_I2C_MASTER.c ****     }
 860:.\Generated_Source\PSoC4/I2CM_I2C_MASTER.c **** 
 861:.\Generated_Source\PSoC4/I2CM_I2C_MASTER.c ****     return(status);
 1400              		.loc 1 861 0
 1401 0026 7B68     		ldr	r3, [r7, #4]
 862:.\Generated_Source\PSoC4/I2CM_I2C_MASTER.c **** }
 1402              		.loc 1 862 0
 1403 0028 181C     		mov	r0, r3
 1404 002a BD46     		mov	sp, r7
 1405 002c 02B0     		add	sp, sp, #8
 1406              		@ sp needed for prologue
 1407 002e 80BD     		pop	{r7, pc}
 1408              	.L98:
 1409              		.align	2
 1410              	.L97:
 1411 0030 00000000 		.word	I2CM_mstrStatus
 1412 0034 00000000 		.word	I2CM_state
 1413              		.cfi_endproc
 1414              	.LFE11:
 1415              		.size	I2CM_I2CMasterStatus, .-I2CM_I2CMasterStatus
 1416              		.section	.text.I2CM_I2CMasterClearStatus,"ax",%progbits
 1417              		.align	2
ARM GAS  C:\Users\SNFU\AppData\Local\Temp\ccDApkRi.s 			page 41


 1418              		.global	I2CM_I2CMasterClearStatus
 1419              		.code	16
 1420              		.thumb_func
 1421              		.type	I2CM_I2CMasterClearStatus, %function
 1422              	I2CM_I2CMasterClearStatus:
 1423              	.LFB12:
 863:.\Generated_Source\PSoC4/I2CM_I2C_MASTER.c **** 
 864:.\Generated_Source\PSoC4/I2CM_I2C_MASTER.c **** 
 865:.\Generated_Source\PSoC4/I2CM_I2C_MASTER.c **** /*******************************************************************************
 866:.\Generated_Source\PSoC4/I2CM_I2C_MASTER.c **** * Function Name: I2CM_I2CMasterClearStatus
 867:.\Generated_Source\PSoC4/I2CM_I2C_MASTER.c **** ********************************************************************************
 868:.\Generated_Source\PSoC4/I2CM_I2C_MASTER.c **** *
 869:.\Generated_Source\PSoC4/I2CM_I2C_MASTER.c **** * Summary:
 870:.\Generated_Source\PSoC4/I2CM_I2C_MASTER.c **** *  Clears all status flags and returns the master status.
 871:.\Generated_Source\PSoC4/I2CM_I2C_MASTER.c **** *
 872:.\Generated_Source\PSoC4/I2CM_I2C_MASTER.c **** * Parameters:
 873:.\Generated_Source\PSoC4/I2CM_I2C_MASTER.c **** *  None
 874:.\Generated_Source\PSoC4/I2CM_I2C_MASTER.c **** *
 875:.\Generated_Source\PSoC4/I2CM_I2C_MASTER.c **** * Return:
 876:.\Generated_Source\PSoC4/I2CM_I2C_MASTER.c **** *  Current status of I2C master.
 877:.\Generated_Source\PSoC4/I2CM_I2C_MASTER.c **** *
 878:.\Generated_Source\PSoC4/I2CM_I2C_MASTER.c **** * Global variables:
 879:.\Generated_Source\PSoC4/I2CM_I2C_MASTER.c **** *  I2CM_mstrStatus - used to store current status of I2C Master.
 880:.\Generated_Source\PSoC4/I2CM_I2C_MASTER.c **** *
 881:.\Generated_Source\PSoC4/I2CM_I2C_MASTER.c **** *******************************************************************************/
 882:.\Generated_Source\PSoC4/I2CM_I2C_MASTER.c **** uint32 I2CM_I2CMasterClearStatus(void)
 883:.\Generated_Source\PSoC4/I2CM_I2C_MASTER.c **** {
 1424              		.loc 1 883 0
 1425              		.cfi_startproc
 1426 0000 80B5     		push	{r7, lr}
 1427              	.LCFI32:
 1428              		.cfi_def_cfa_offset 8
 1429              		.cfi_offset 7, -8
 1430              		.cfi_offset 14, -4
 1431 0002 82B0     		sub	sp, sp, #8
 1432              	.LCFI33:
 1433              		.cfi_def_cfa_offset 16
 1434 0004 00AF     		add	r7, sp, #0
 1435              	.LCFI34:
 1436              		.cfi_def_cfa_register 7
 884:.\Generated_Source\PSoC4/I2CM_I2C_MASTER.c ****     uint32 status;
 885:.\Generated_Source\PSoC4/I2CM_I2C_MASTER.c **** 
 886:.\Generated_Source\PSoC4/I2CM_I2C_MASTER.c ****     /* Read and clear master status */
 887:.\Generated_Source\PSoC4/I2CM_I2C_MASTER.c ****     status = (uint32) I2CM_mstrStatus;
 1437              		.loc 1 887 0
 1438 0006 064B     		ldr	r3, .L101
 1439 0008 1B88     		ldrh	r3, [r3]
 1440 000a 9BB2     		uxth	r3, r3
 1441 000c 7B60     		str	r3, [r7, #4]
 888:.\Generated_Source\PSoC4/I2CM_I2C_MASTER.c ****     I2CM_mstrStatus = I2CM_I2C_MSTAT_CLEAR;
 1442              		.loc 1 888 0
 1443 000e 044B     		ldr	r3, .L101
 1444 0010 0022     		mov	r2, #0
 1445 0012 1A80     		strh	r2, [r3]
 889:.\Generated_Source\PSoC4/I2CM_I2C_MASTER.c **** 
 890:.\Generated_Source\PSoC4/I2CM_I2C_MASTER.c ****     return(status);
 1446              		.loc 1 890 0
ARM GAS  C:\Users\SNFU\AppData\Local\Temp\ccDApkRi.s 			page 42


 1447 0014 7B68     		ldr	r3, [r7, #4]
 891:.\Generated_Source\PSoC4/I2CM_I2C_MASTER.c **** }
 1448              		.loc 1 891 0
 1449 0016 181C     		mov	r0, r3
 1450 0018 BD46     		mov	sp, r7
 1451 001a 02B0     		add	sp, sp, #8
 1452              		@ sp needed for prologue
 1453 001c 80BD     		pop	{r7, pc}
 1454              	.L102:
 1455 001e C046     		.align	2
 1456              	.L101:
 1457 0020 00000000 		.word	I2CM_mstrStatus
 1458              		.cfi_endproc
 1459              	.LFE12:
 1460              		.size	I2CM_I2CMasterClearStatus, .-I2CM_I2CMasterClearStatus
 1461              		.section	.text.I2CM_I2CReStartGeneration,"ax",%progbits
 1462              		.align	2
 1463              		.global	I2CM_I2CReStartGeneration
 1464              		.code	16
 1465              		.thumb_func
 1466              		.type	I2CM_I2CReStartGeneration, %function
 1467              	I2CM_I2CReStartGeneration:
 1468              	.LFB13:
 892:.\Generated_Source\PSoC4/I2CM_I2C_MASTER.c **** 
 893:.\Generated_Source\PSoC4/I2CM_I2C_MASTER.c **** 
 894:.\Generated_Source\PSoC4/I2CM_I2C_MASTER.c **** /*******************************************************************************
 895:.\Generated_Source\PSoC4/I2CM_I2C_MASTER.c **** * Function Name: I2CM_I2CReStartGeneration
 896:.\Generated_Source\PSoC4/I2CM_I2C_MASTER.c **** ********************************************************************************
 897:.\Generated_Source\PSoC4/I2CM_I2C_MASTER.c **** *
 898:.\Generated_Source\PSoC4/I2CM_I2C_MASTER.c **** * Summary:
 899:.\Generated_Source\PSoC4/I2CM_I2C_MASTER.c **** *  Generates a ReStart condition:
 900:.\Generated_Source\PSoC4/I2CM_I2C_MASTER.c **** *  SCB IP V1 and later: Generates ReStart using the scb IP functionality
 901:.\Generated_Source\PSoC4/I2CM_I2C_MASTER.c **** *    Sets the I2C_MASTER_CMD_M_START and I2C_MASTER_CMD_M_NACK (if the previous
 902:.\Generated_Source\PSoC4/I2CM_I2C_MASTER.c **** *    transaction was read) bits in the SCB.I2C_MASTER_CMD register. This combination
 903:.\Generated_Source\PSoC4/I2CM_I2C_MASTER.c **** *    forces the master to generate ReStart.
 904:.\Generated_Source\PSoC4/I2CM_I2C_MASTER.c **** *
 905:.\Generated_Source\PSoC4/I2CM_I2C_MASTER.c **** *  SCB IP V0: Generates Restart using the GPIO and scb IP functionality.
 906:.\Generated_Source\PSoC4/I2CM_I2C_MASTER.c **** *   After the master completes write or read, the SCL is stretched. The master waits
 907:.\Generated_Source\PSoC4/I2CM_I2C_MASTER.c **** *   until SDA line is released by the slave. Then the GPIO function is enabled and
 908:.\Generated_Source\PSoC4/I2CM_I2C_MASTER.c **** *   the scb IP disabled as it already does not drive the bus. In case of the previous
 909:.\Generated_Source\PSoC4/I2CM_I2C_MASTER.c **** *   transfer was read, the NACK is generated by the GPIO. The delay of tLOW is
 910:.\Generated_Source\PSoC4/I2CM_I2C_MASTER.c **** *   added to manage the hold time. Set I2C_M_CMD.START and enable the scb IP.
 911:.\Generated_Source\PSoC4/I2CM_I2C_MASTER.c **** *   The ReStart generation is started after the I2C function is enabled for the SCL.
 912:.\Generated_Source\PSoC4/I2CM_I2C_MASTER.c **** *   Note1: the scb IP due re-enable generates Start but on the I2C bus it
 913:.\Generated_Source\PSoC4/I2CM_I2C_MASTER.c **** *          appears as ReStart.
 914:.\Generated_Source\PSoC4/I2CM_I2C_MASTER.c **** *   Note2: the I2C_M_CMD.START is queued if scb IP is disabled.
 915:.\Generated_Source\PSoC4/I2CM_I2C_MASTER.c **** *   Note3: the I2C_STATUS_M_READ is cleared is address was NACKed before.
 916:.\Generated_Source\PSoC4/I2CM_I2C_MASTER.c **** *
 917:.\Generated_Source\PSoC4/I2CM_I2C_MASTER.c **** * Parameters:
 918:.\Generated_Source\PSoC4/I2CM_I2C_MASTER.c **** *  None
 919:.\Generated_Source\PSoC4/I2CM_I2C_MASTER.c **** *
 920:.\Generated_Source\PSoC4/I2CM_I2C_MASTER.c **** * Return:
 921:.\Generated_Source\PSoC4/I2CM_I2C_MASTER.c **** *  None
 922:.\Generated_Source\PSoC4/I2CM_I2C_MASTER.c **** *
 923:.\Generated_Source\PSoC4/I2CM_I2C_MASTER.c **** * Side Effects:
 924:.\Generated_Source\PSoC4/I2CM_I2C_MASTER.c **** *  SCB IP V0: The NACK generation by the GPIO may cause a greater SCL period than
 925:.\Generated_Source\PSoC4/I2CM_I2C_MASTER.c **** *  expected for the selected master data rate.
ARM GAS  C:\Users\SNFU\AppData\Local\Temp\ccDApkRi.s 			page 43


 926:.\Generated_Source\PSoC4/I2CM_I2C_MASTER.c **** *
 927:.\Generated_Source\PSoC4/I2CM_I2C_MASTER.c **** *******************************************************************************/
 928:.\Generated_Source\PSoC4/I2CM_I2C_MASTER.c **** void I2CM_I2CReStartGeneration(void)
 929:.\Generated_Source\PSoC4/I2CM_I2C_MASTER.c **** {
 1469              		.loc 1 929 0
 1470              		.cfi_startproc
 1471 0000 80B5     		push	{r7, lr}
 1472              	.LCFI35:
 1473              		.cfi_def_cfa_offset 8
 1474              		.cfi_offset 7, -8
 1475              		.cfi_offset 14, -4
 1476 0002 82B0     		sub	sp, sp, #8
 1477              	.LCFI36:
 1478              		.cfi_def_cfa_offset 16
 1479 0004 00AF     		add	r7, sp, #0
 1480              	.LCFI37:
 1481              		.cfi_def_cfa_register 7
 930:.\Generated_Source\PSoC4/I2CM_I2C_MASTER.c **** #if(I2CM_CY_SCBIP_V0)
 931:.\Generated_Source\PSoC4/I2CM_I2C_MASTER.c ****     /* Generates Restart use GPIO and scb IP functionality. Ticket ID#143715,
 932:.\Generated_Source\PSoC4/I2CM_I2C_MASTER.c ****     ID#145238 and ID#173656 */
 933:.\Generated_Source\PSoC4/I2CM_I2C_MASTER.c ****     uint32 status = I2CM_I2C_STATUS_REG;
 1482              		.loc 1 933 0
 1483 0006 264B     		ldr	r3, .L107
 1484 0008 1B68     		ldr	r3, [r3]
 1485 000a 7B60     		str	r3, [r7, #4]
 934:.\Generated_Source\PSoC4/I2CM_I2C_MASTER.c **** 
 935:.\Generated_Source\PSoC4/I2CM_I2C_MASTER.c ****     while(I2CM_WAIT_SDA_SET_HIGH)
 1486              		.loc 1 935 0
 1487 000c C046     		mov	r8, r8
 1488              	.L104:
 1489              		.loc 1 935 0 is_stmt 0 discriminator 1
 1490 000e FFF7FEFF 		bl	I2CM_sda_Read
 1491 0012 031C     		mov	r3, r0
 1492 0014 002B     		cmp	r3, #0
 1493 0016 FAD0     		beq	.L104
 936:.\Generated_Source\PSoC4/I2CM_I2C_MASTER.c ****     {
 937:.\Generated_Source\PSoC4/I2CM_I2C_MASTER.c ****         /* Wait when slave release SDA line: SCL tHIGH is complete */
 938:.\Generated_Source\PSoC4/I2CM_I2C_MASTER.c ****     }
 939:.\Generated_Source\PSoC4/I2CM_I2C_MASTER.c **** 
 940:.\Generated_Source\PSoC4/I2CM_I2C_MASTER.c ****     /* Prepare DR register to drive SCL line */
 941:.\Generated_Source\PSoC4/I2CM_I2C_MASTER.c ****     I2CM_SET_I2C_SCL_DR(I2CM_I2C_SCL_LOW);
 1494              		.loc 1 941 0 is_stmt 1
 1495 0018 0020     		mov	r0, #0
 1496 001a FFF7FEFF 		bl	I2CM_scl_Write
 942:.\Generated_Source\PSoC4/I2CM_I2C_MASTER.c **** 
 943:.\Generated_Source\PSoC4/I2CM_I2C_MASTER.c ****     /* Switch HSIOM to GPIO: SCL goes low */
 944:.\Generated_Source\PSoC4/I2CM_I2C_MASTER.c ****     I2CM_SET_I2C_SCL_HSIOM_SEL(I2CM_HSIOM_GPIO_SEL);
 1497              		.loc 1 944 0
 1498 001e 214B     		ldr	r3, .L107+4
 1499 0020 204A     		ldr	r2, .L107+4
 1500 0022 1268     		ldr	r2, [r2]
 1501 0024 0F21     		mov	r1, #15
 1502 0026 8A43     		bic	r2, r1
 1503 0028 1A60     		str	r2, [r3]
 945:.\Generated_Source\PSoC4/I2CM_I2C_MASTER.c **** 
 946:.\Generated_Source\PSoC4/I2CM_I2C_MASTER.c ****     /* Disable SCB block */
 947:.\Generated_Source\PSoC4/I2CM_I2C_MASTER.c ****     I2CM_CTRL_REG &= (uint32) ~I2CM_CTRL_ENABLED;
ARM GAS  C:\Users\SNFU\AppData\Local\Temp\ccDApkRi.s 			page 44


 1504              		.loc 1 947 0
 1505 002a 1F4B     		ldr	r3, .L107+8
 1506 002c 1E4A     		ldr	r2, .L107+8
 1507 002e 1268     		ldr	r2, [r2]
 1508 0030 5200     		lsl	r2, r2, #1
 1509 0032 5208     		lsr	r2, r2, #1
 1510 0034 1A60     		str	r2, [r3]
 948:.\Generated_Source\PSoC4/I2CM_I2C_MASTER.c **** 
 949:.\Generated_Source\PSoC4/I2CM_I2C_MASTER.c ****     if(0u != (status & I2CM_I2C_STATUS_M_READ))
 1511              		.loc 1 949 0
 1512 0036 7A68     		ldr	r2, [r7, #4]
 1513 0038 2023     		mov	r3, #32
 1514 003a 1340     		and	r3, r2
 1515 003c 11D0     		beq	.L105
 950:.\Generated_Source\PSoC4/I2CM_I2C_MASTER.c ****     {
 951:.\Generated_Source\PSoC4/I2CM_I2C_MASTER.c ****         /* Generate NACK use GPIO functionality */
 952:.\Generated_Source\PSoC4/I2CM_I2C_MASTER.c ****         I2CM_SET_I2C_SCL_DR(I2CM_I2C_SCL_LOW);
 1516              		.loc 1 952 0
 1517 003e 0020     		mov	r0, #0
 1518 0040 FFF7FEFF 		bl	I2CM_scl_Write
 953:.\Generated_Source\PSoC4/I2CM_I2C_MASTER.c ****         CyDelayUs(I2CM_I2C_TLOW_TIME); /* Count tLOW */
 1519              		.loc 1 953 0
 1520 0044 0320     		mov	r0, #3
 1521 0046 FFF7FEFF 		bl	CyDelayUs
 954:.\Generated_Source\PSoC4/I2CM_I2C_MASTER.c **** 
 955:.\Generated_Source\PSoC4/I2CM_I2C_MASTER.c ****         I2CM_SET_I2C_SCL_DR(I2CM_I2C_SCL_HIGH);
 1522              		.loc 1 955 0
 1523 004a 0120     		mov	r0, #1
 1524 004c FFF7FEFF 		bl	I2CM_scl_Write
 956:.\Generated_Source\PSoC4/I2CM_I2C_MASTER.c ****         while(I2CM_WAIT_SCL_SET_HIGH)
 1525              		.loc 1 956 0
 1526 0050 C046     		mov	r8, r8
 1527              	.L106:
 1528              		.loc 1 956 0 is_stmt 0 discriminator 1
 1529 0052 FFF7FEFF 		bl	I2CM_scl_Read
 1530 0056 031C     		mov	r3, r0
 1531 0058 002B     		cmp	r3, #0
 1532 005a FAD0     		beq	.L106
 957:.\Generated_Source\PSoC4/I2CM_I2C_MASTER.c ****         {
 958:.\Generated_Source\PSoC4/I2CM_I2C_MASTER.c ****             /* Wait until slave releases SCL in case if it stretches */
 959:.\Generated_Source\PSoC4/I2CM_I2C_MASTER.c ****         }
 960:.\Generated_Source\PSoC4/I2CM_I2C_MASTER.c ****         CyDelayUs(I2CM_I2C_THIGH_TIME); /* Count tHIGH */
 1533              		.loc 1 960 0 is_stmt 1
 1534 005c 0320     		mov	r0, #3
 1535 005e FFF7FEFF 		bl	CyDelayUs
 1536              	.L105:
 961:.\Generated_Source\PSoC4/I2CM_I2C_MASTER.c ****     }
 962:.\Generated_Source\PSoC4/I2CM_I2C_MASTER.c **** 
 963:.\Generated_Source\PSoC4/I2CM_I2C_MASTER.c ****     /* Count tLOW as hold time for write and read */
 964:.\Generated_Source\PSoC4/I2CM_I2C_MASTER.c ****     I2CM_SET_I2C_SCL_DR(I2CM_I2C_SCL_LOW);
 1537              		.loc 1 964 0
 1538 0062 0020     		mov	r0, #0
 1539 0064 FFF7FEFF 		bl	I2CM_scl_Write
 965:.\Generated_Source\PSoC4/I2CM_I2C_MASTER.c ****     CyDelayUs(I2CM_I2C_TLOW_TIME); /* Count tLOW */
 1540              		.loc 1 965 0
 1541 0068 0320     		mov	r0, #3
 1542 006a FFF7FEFF 		bl	CyDelayUs
ARM GAS  C:\Users\SNFU\AppData\Local\Temp\ccDApkRi.s 			page 45


 966:.\Generated_Source\PSoC4/I2CM_I2C_MASTER.c **** 
 967:.\Generated_Source\PSoC4/I2CM_I2C_MASTER.c ****     /* Set command for Start generation: it will appear */
 968:.\Generated_Source\PSoC4/I2CM_I2C_MASTER.c ****     I2CM_I2C_MASTER_CMD_REG = I2CM_I2C_MASTER_CMD_M_START;
 1543              		.loc 1 968 0
 1544 006e 0F4B     		ldr	r3, .L107+12
 1545 0070 0122     		mov	r2, #1
 1546 0072 1A60     		str	r2, [r3]
 969:.\Generated_Source\PSoC4/I2CM_I2C_MASTER.c **** 
 970:.\Generated_Source\PSoC4/I2CM_I2C_MASTER.c ****     /* Enable SCB block */
 971:.\Generated_Source\PSoC4/I2CM_I2C_MASTER.c ****     I2CM_CTRL_REG |= (uint32) I2CM_CTRL_ENABLED;
 1547              		.loc 1 971 0
 1548 0074 0C4B     		ldr	r3, .L107+8
 1549 0076 0C4A     		ldr	r2, .L107+8
 1550 0078 1268     		ldr	r2, [r2]
 1551 007a 8021     		mov	r1, #128
 1552 007c 0906     		lsl	r1, r1, #24
 1553 007e 0A43     		orr	r2, r1
 1554 0080 1A60     		str	r2, [r3]
 972:.\Generated_Source\PSoC4/I2CM_I2C_MASTER.c **** 
 973:.\Generated_Source\PSoC4/I2CM_I2C_MASTER.c ****     /* Switch HSIOM to I2C: */
 974:.\Generated_Source\PSoC4/I2CM_I2C_MASTER.c ****     I2CM_SET_I2C_SCL_HSIOM_SEL(I2CM_HSIOM_I2C_SEL);
 1555              		.loc 1 974 0
 1556 0082 084B     		ldr	r3, .L107+4
 1557 0084 074A     		ldr	r2, .L107+4
 1558 0086 1268     		ldr	r2, [r2]
 1559 0088 0F21     		mov	r1, #15
 1560 008a 8A43     		bic	r2, r1
 1561 008c 0E21     		mov	r1, #14
 1562 008e 0A43     		orr	r2, r1
 1563 0090 1A60     		str	r2, [r3]
 975:.\Generated_Source\PSoC4/I2CM_I2C_MASTER.c **** 
 976:.\Generated_Source\PSoC4/I2CM_I2C_MASTER.c ****     /* Revert SCL DR register */
 977:.\Generated_Source\PSoC4/I2CM_I2C_MASTER.c ****     I2CM_SET_I2C_SCL_DR(I2CM_I2C_SCL_HIGH);
 1564              		.loc 1 977 0
 1565 0092 0120     		mov	r0, #1
 1566 0094 FFF7FEFF 		bl	I2CM_scl_Write
 978:.\Generated_Source\PSoC4/I2CM_I2C_MASTER.c **** #else
 979:.\Generated_Source\PSoC4/I2CM_I2C_MASTER.c ****     uint32 cmd;
 980:.\Generated_Source\PSoC4/I2CM_I2C_MASTER.c **** 
 981:.\Generated_Source\PSoC4/I2CM_I2C_MASTER.c ****     /* Generates ReStart use scb IP functionality */
 982:.\Generated_Source\PSoC4/I2CM_I2C_MASTER.c ****     cmd  = I2CM_I2C_MASTER_CMD_M_START;
 983:.\Generated_Source\PSoC4/I2CM_I2C_MASTER.c ****     cmd |= I2CM_CHECK_I2C_STATUS(I2CM_I2C_STATUS_M_READ) ?
 984:.\Generated_Source\PSoC4/I2CM_I2C_MASTER.c ****                 (I2CM_I2C_MASTER_CMD_M_NACK) : (0u);
 985:.\Generated_Source\PSoC4/I2CM_I2C_MASTER.c **** 
 986:.\Generated_Source\PSoC4/I2CM_I2C_MASTER.c ****     I2CM_I2C_MASTER_CMD_REG = cmd;
 987:.\Generated_Source\PSoC4/I2CM_I2C_MASTER.c **** #endif /* (I2CM_CY_SCBIP_V1) */
 988:.\Generated_Source\PSoC4/I2CM_I2C_MASTER.c **** }
 1567              		.loc 1 988 0
 1568 0098 BD46     		mov	sp, r7
 1569 009a 02B0     		add	sp, sp, #8
 1570              		@ sp needed for prologue
 1571 009c 80BD     		pop	{r7, pc}
 1572              	.L108:
 1573 009e C046     		.align	2
 1574              	.L107:
 1575 00a0 64000740 		.word	1074200676
 1576 00a4 0C000140 		.word	1073807372
ARM GAS  C:\Users\SNFU\AppData\Local\Temp\ccDApkRi.s 			page 46


 1577 00a8 00000740 		.word	1074200576
 1578 00ac 68000740 		.word	1074200680
 1579              		.cfi_endproc
 1580              	.LFE13:
 1581              		.size	I2CM_I2CReStartGeneration, .-I2CM_I2CReStartGeneration
 1582              		.text
 1583              	.Letext0:
 1584              		.file 2 "./Generated_Source/PSoC4/cytypes.h"
 1585              		.file 3 ".\\Generated_Source\\PSoC4\\I2CM_I2C_PVT.h"