ARM GAS  C:\Users\SNFU\AppData\Local\Temp\cc8vMHud.s 			page 1


   1              		.cpu cortex-m0
   2              		.fpu softvfp
   3              		.eabi_attribute 20, 1
   4              		.eabi_attribute 21, 1
   5              		.eabi_attribute 23, 3
   6              		.eabi_attribute 24, 1
   7              		.eabi_attribute 25, 1
   8              		.eabi_attribute 26, 1
   9              		.eabi_attribute 30, 4
  10              		.eabi_attribute 34, 0
  11              		.eabi_attribute 18, 4
  12              		.code	16
  13              		.file	"I2CM.c"
  14              		.text
  15              	.Ltext0:
  16              		.cfi_sections	.debug_frame
  17              		.section	.text.I2CM_Init,"ax",%progbits
  18              		.align	1
  19              		.global	I2CM_Init
  20              		.code	16
  21              		.thumb_func
  22              		.type	I2CM_Init, %function
  23              	I2CM_Init:
  24              	.LFB0:
  25              		.file 1 ".\\Generated_Source\\PSoC4\\I2CM.c"
   1:.\Generated_Source\PSoC4/I2CM.c **** /*******************************************************************************
   2:.\Generated_Source\PSoC4/I2CM.c **** * File Name: I2CM.c
   3:.\Generated_Source\PSoC4/I2CM.c **** * Version 1.20
   4:.\Generated_Source\PSoC4/I2CM.c **** *
   5:.\Generated_Source\PSoC4/I2CM.c **** * Description:
   6:.\Generated_Source\PSoC4/I2CM.c **** *  This file provides the source code to the API for the SCB Component.
   7:.\Generated_Source\PSoC4/I2CM.c **** *
   8:.\Generated_Source\PSoC4/I2CM.c **** * Note:
   9:.\Generated_Source\PSoC4/I2CM.c **** *
  10:.\Generated_Source\PSoC4/I2CM.c **** *******************************************************************************
  11:.\Generated_Source\PSoC4/I2CM.c **** * Copyright 2013-2014, Cypress Semiconductor Corporation.  All rights reserved.
  12:.\Generated_Source\PSoC4/I2CM.c **** * You may use this file only in accordance with the license, terms, conditions,
  13:.\Generated_Source\PSoC4/I2CM.c **** * disclaimers, and limitations in the end user license agreement accompanying
  14:.\Generated_Source\PSoC4/I2CM.c **** * the software package with which this file was provided.
  15:.\Generated_Source\PSoC4/I2CM.c **** *******************************************************************************/
  16:.\Generated_Source\PSoC4/I2CM.c **** 
  17:.\Generated_Source\PSoC4/I2CM.c **** #include "I2CM_PVT.h"
  18:.\Generated_Source\PSoC4/I2CM.c **** 
  19:.\Generated_Source\PSoC4/I2CM.c **** #if(I2CM_SCB_MODE_I2C_INC)
  20:.\Generated_Source\PSoC4/I2CM.c ****     #include "I2CM_I2C_PVT.h"
  21:.\Generated_Source\PSoC4/I2CM.c **** #endif /* (I2CM_SCB_MODE_I2C_INC) */
  22:.\Generated_Source\PSoC4/I2CM.c **** 
  23:.\Generated_Source\PSoC4/I2CM.c **** #if(I2CM_SCB_MODE_EZI2C_INC)
  24:.\Generated_Source\PSoC4/I2CM.c ****     #include "I2CM_EZI2C_PVT.h"
  25:.\Generated_Source\PSoC4/I2CM.c **** #endif /* (I2CM_SCB_MODE_EZI2C_INC) */
  26:.\Generated_Source\PSoC4/I2CM.c **** 
  27:.\Generated_Source\PSoC4/I2CM.c **** #if(I2CM_SCB_MODE_SPI_INC || I2CM_SCB_MODE_UART_INC)
  28:.\Generated_Source\PSoC4/I2CM.c ****     #include "I2CM_SPI_UART_PVT.h"
  29:.\Generated_Source\PSoC4/I2CM.c **** #endif /* (I2CM_SCB_MODE_SPI_INC || I2CM_SCB_MODE_UART_INC) */
  30:.\Generated_Source\PSoC4/I2CM.c **** 
  31:.\Generated_Source\PSoC4/I2CM.c **** 
  32:.\Generated_Source\PSoC4/I2CM.c **** /***************************************
ARM GAS  C:\Users\SNFU\AppData\Local\Temp\cc8vMHud.s 			page 2


  33:.\Generated_Source\PSoC4/I2CM.c **** *    Run Time Configuration Vars
  34:.\Generated_Source\PSoC4/I2CM.c **** ***************************************/
  35:.\Generated_Source\PSoC4/I2CM.c **** 
  36:.\Generated_Source\PSoC4/I2CM.c **** /* Stores internal component configuration for unconfigured mode */
  37:.\Generated_Source\PSoC4/I2CM.c **** #if(I2CM_SCB_MODE_UNCONFIG_CONST_CFG)
  38:.\Generated_Source\PSoC4/I2CM.c ****     /* Common config vars */
  39:.\Generated_Source\PSoC4/I2CM.c ****     uint8 I2CM_scbMode = I2CM_SCB_MODE_UNCONFIG;
  40:.\Generated_Source\PSoC4/I2CM.c ****     uint8 I2CM_scbEnableWake;
  41:.\Generated_Source\PSoC4/I2CM.c ****     uint8 I2CM_scbEnableIntr;
  42:.\Generated_Source\PSoC4/I2CM.c **** 
  43:.\Generated_Source\PSoC4/I2CM.c ****     /* I2C config vars */
  44:.\Generated_Source\PSoC4/I2CM.c ****     uint8 I2CM_mode;
  45:.\Generated_Source\PSoC4/I2CM.c ****     uint8 I2CM_acceptAddr;
  46:.\Generated_Source\PSoC4/I2CM.c **** 
  47:.\Generated_Source\PSoC4/I2CM.c ****     /* SPI/UART config vars */
  48:.\Generated_Source\PSoC4/I2CM.c ****     volatile uint8 * I2CM_rxBuffer;
  49:.\Generated_Source\PSoC4/I2CM.c ****     uint8  I2CM_rxDataBits;
  50:.\Generated_Source\PSoC4/I2CM.c ****     uint32 I2CM_rxBufferSize;
  51:.\Generated_Source\PSoC4/I2CM.c **** 
  52:.\Generated_Source\PSoC4/I2CM.c ****     volatile uint8 * I2CM_txBuffer;
  53:.\Generated_Source\PSoC4/I2CM.c ****     uint8  I2CM_txDataBits;
  54:.\Generated_Source\PSoC4/I2CM.c ****     uint32 I2CM_txBufferSize;
  55:.\Generated_Source\PSoC4/I2CM.c **** 
  56:.\Generated_Source\PSoC4/I2CM.c ****     /* EZI2C config vars */
  57:.\Generated_Source\PSoC4/I2CM.c ****     uint8 I2CM_numberOfAddr;
  58:.\Generated_Source\PSoC4/I2CM.c ****     uint8 I2CM_subAddrSize;
  59:.\Generated_Source\PSoC4/I2CM.c **** #endif /* (I2CM_SCB_MODE_UNCONFIG_CONST_CFG) */
  60:.\Generated_Source\PSoC4/I2CM.c **** 
  61:.\Generated_Source\PSoC4/I2CM.c **** 
  62:.\Generated_Source\PSoC4/I2CM.c **** /***************************************
  63:.\Generated_Source\PSoC4/I2CM.c **** *     Common SCB Vars
  64:.\Generated_Source\PSoC4/I2CM.c **** ***************************************/
  65:.\Generated_Source\PSoC4/I2CM.c **** 
  66:.\Generated_Source\PSoC4/I2CM.c **** uint8 I2CM_initVar = 0u;
  67:.\Generated_Source\PSoC4/I2CM.c **** 
  68:.\Generated_Source\PSoC4/I2CM.c **** #if !defined (CY_REMOVE_I2CM_CUSTOM_INTR_HANDLER)
  69:.\Generated_Source\PSoC4/I2CM.c ****     cyisraddress I2CM_customIntrHandler = NULL;
  70:.\Generated_Source\PSoC4/I2CM.c **** #endif /* !defined (CY_REMOVE_I2CM_CUSTOM_INTR_HANDLER) */
  71:.\Generated_Source\PSoC4/I2CM.c **** 
  72:.\Generated_Source\PSoC4/I2CM.c **** 
  73:.\Generated_Source\PSoC4/I2CM.c **** /***************************************
  74:.\Generated_Source\PSoC4/I2CM.c **** *    Private Function Prototypes
  75:.\Generated_Source\PSoC4/I2CM.c **** ***************************************/
  76:.\Generated_Source\PSoC4/I2CM.c **** 
  77:.\Generated_Source\PSoC4/I2CM.c **** static void I2CM_ScbEnableIntr(void);
  78:.\Generated_Source\PSoC4/I2CM.c **** static void I2CM_ScbModeStop(void);
  79:.\Generated_Source\PSoC4/I2CM.c **** 
  80:.\Generated_Source\PSoC4/I2CM.c **** 
  81:.\Generated_Source\PSoC4/I2CM.c **** /*******************************************************************************
  82:.\Generated_Source\PSoC4/I2CM.c **** * Function Name: I2CM_Init
  83:.\Generated_Source\PSoC4/I2CM.c **** ********************************************************************************
  84:.\Generated_Source\PSoC4/I2CM.c **** *
  85:.\Generated_Source\PSoC4/I2CM.c **** * Summary:
  86:.\Generated_Source\PSoC4/I2CM.c **** *  Initializes the SCB component to operate in one of the selected configurations:
  87:.\Generated_Source\PSoC4/I2CM.c **** *  I2C, SPI, UART or EZ I2C.
  88:.\Generated_Source\PSoC4/I2CM.c **** *  When the configuration is set to “Unconfigured SCB”, this function does
  89:.\Generated_Source\PSoC4/I2CM.c **** *  not do any initialization. Use mode-specific initialization APIs instead:
ARM GAS  C:\Users\SNFU\AppData\Local\Temp\cc8vMHud.s 			page 3


  90:.\Generated_Source\PSoC4/I2CM.c **** *  SCB_I2CInit, SCB_SpiInit, SCB_UartInit or SCB_EzI2CInit.
  91:.\Generated_Source\PSoC4/I2CM.c **** *
  92:.\Generated_Source\PSoC4/I2CM.c **** * Parameters:
  93:.\Generated_Source\PSoC4/I2CM.c **** *  None
  94:.\Generated_Source\PSoC4/I2CM.c **** *
  95:.\Generated_Source\PSoC4/I2CM.c **** * Return:
  96:.\Generated_Source\PSoC4/I2CM.c **** *  None
  97:.\Generated_Source\PSoC4/I2CM.c **** *
  98:.\Generated_Source\PSoC4/I2CM.c **** *******************************************************************************/
  99:.\Generated_Source\PSoC4/I2CM.c **** void I2CM_Init(void)
 100:.\Generated_Source\PSoC4/I2CM.c **** {
  26              		.loc 1 100 0
  27              		.cfi_startproc
  28 0000 08B5     		push	{r3, lr}
  29              	.LCFI0:
  30              		.cfi_def_cfa_offset 8
  31              		.cfi_offset 3, -8
  32              		.cfi_offset 14, -4
 101:.\Generated_Source\PSoC4/I2CM.c **** #if(I2CM_SCB_MODE_UNCONFIG_CONST_CFG)
 102:.\Generated_Source\PSoC4/I2CM.c ****     if(I2CM_SCB_MODE_UNCONFIG_RUNTM_CFG)
 103:.\Generated_Source\PSoC4/I2CM.c ****     {
 104:.\Generated_Source\PSoC4/I2CM.c ****         I2CM_initVar = 0u; /* Clear init var */
 105:.\Generated_Source\PSoC4/I2CM.c ****     }
 106:.\Generated_Source\PSoC4/I2CM.c ****     else
 107:.\Generated_Source\PSoC4/I2CM.c ****     {
 108:.\Generated_Source\PSoC4/I2CM.c ****         /* Initialization was done before call */
 109:.\Generated_Source\PSoC4/I2CM.c ****     }
 110:.\Generated_Source\PSoC4/I2CM.c **** 
 111:.\Generated_Source\PSoC4/I2CM.c **** #elif(I2CM_SCB_MODE_I2C_CONST_CFG)
 112:.\Generated_Source\PSoC4/I2CM.c ****     I2CM_I2CInit();
  33              		.loc 1 112 0
  34 0002 FFF7FEFF 		bl	I2CM_I2CInit
  35              	.LVL0:
 113:.\Generated_Source\PSoC4/I2CM.c **** 
 114:.\Generated_Source\PSoC4/I2CM.c **** #elif(I2CM_SCB_MODE_SPI_CONST_CFG)
 115:.\Generated_Source\PSoC4/I2CM.c ****     I2CM_SpiInit();
 116:.\Generated_Source\PSoC4/I2CM.c **** 
 117:.\Generated_Source\PSoC4/I2CM.c **** #elif(I2CM_SCB_MODE_UART_CONST_CFG)
 118:.\Generated_Source\PSoC4/I2CM.c ****     I2CM_UartInit();
 119:.\Generated_Source\PSoC4/I2CM.c **** 
 120:.\Generated_Source\PSoC4/I2CM.c **** #elif(I2CM_SCB_MODE_EZI2C_CONST_CFG)
 121:.\Generated_Source\PSoC4/I2CM.c ****     I2CM_EzI2CInit();
 122:.\Generated_Source\PSoC4/I2CM.c **** 
 123:.\Generated_Source\PSoC4/I2CM.c **** #endif /* (I2CM_SCB_MODE_UNCONFIG_CONST_CFG) */
 124:.\Generated_Source\PSoC4/I2CM.c **** }
  36              		.loc 1 124 0
  37              		@ sp needed for prologue
  38 0006 08BD     		pop	{r3, pc}
  39              		.cfi_endproc
  40              	.LFE0:
  41              		.size	I2CM_Init, .-I2CM_Init
  42              		.section	.text.I2CM_Enable,"ax",%progbits
  43              		.align	1
  44              		.global	I2CM_Enable
  45              		.code	16
  46              		.thumb_func
  47              		.type	I2CM_Enable, %function
ARM GAS  C:\Users\SNFU\AppData\Local\Temp\cc8vMHud.s 			page 4


  48              	I2CM_Enable:
  49              	.LFB1:
 125:.\Generated_Source\PSoC4/I2CM.c **** 
 126:.\Generated_Source\PSoC4/I2CM.c **** 
 127:.\Generated_Source\PSoC4/I2CM.c **** /*******************************************************************************
 128:.\Generated_Source\PSoC4/I2CM.c **** * Function Name: I2CM_Enable
 129:.\Generated_Source\PSoC4/I2CM.c **** ********************************************************************************
 130:.\Generated_Source\PSoC4/I2CM.c **** *
 131:.\Generated_Source\PSoC4/I2CM.c **** * Summary:
 132:.\Generated_Source\PSoC4/I2CM.c **** *  Enables the SCB component operation.
 133:.\Generated_Source\PSoC4/I2CM.c **** *  The SCB configuration should be not changed when the component is enabled.
 134:.\Generated_Source\PSoC4/I2CM.c **** *  Any configuration changes should be made after disabling the component.
 135:.\Generated_Source\PSoC4/I2CM.c **** *
 136:.\Generated_Source\PSoC4/I2CM.c **** * Parameters:
 137:.\Generated_Source\PSoC4/I2CM.c **** *  None
 138:.\Generated_Source\PSoC4/I2CM.c **** *
 139:.\Generated_Source\PSoC4/I2CM.c **** * Return:
 140:.\Generated_Source\PSoC4/I2CM.c **** *  None
 141:.\Generated_Source\PSoC4/I2CM.c **** *
 142:.\Generated_Source\PSoC4/I2CM.c **** *******************************************************************************/
 143:.\Generated_Source\PSoC4/I2CM.c **** void I2CM_Enable(void)
 144:.\Generated_Source\PSoC4/I2CM.c **** {
  50              		.loc 1 144 0
  51              		.cfi_startproc
  52 0000 08B5     		push	{r3, lr}
  53              	.LCFI1:
  54              		.cfi_def_cfa_offset 8
  55              		.cfi_offset 3, -8
  56              		.cfi_offset 14, -4
 145:.\Generated_Source\PSoC4/I2CM.c **** #if(I2CM_SCB_MODE_UNCONFIG_CONST_CFG)
 146:.\Generated_Source\PSoC4/I2CM.c ****     /* Enable SCB block, only if it is already configured */
 147:.\Generated_Source\PSoC4/I2CM.c ****     if(!I2CM_SCB_MODE_UNCONFIG_RUNTM_CFG)
 148:.\Generated_Source\PSoC4/I2CM.c ****     {
 149:.\Generated_Source\PSoC4/I2CM.c ****         I2CM_CTRL_REG |= I2CM_CTRL_ENABLED;
 150:.\Generated_Source\PSoC4/I2CM.c **** 
 151:.\Generated_Source\PSoC4/I2CM.c ****         I2CM_ScbEnableIntr();
 152:.\Generated_Source\PSoC4/I2CM.c ****     }
 153:.\Generated_Source\PSoC4/I2CM.c **** #else
 154:.\Generated_Source\PSoC4/I2CM.c ****     I2CM_CTRL_REG |= I2CM_CTRL_ENABLED;
  57              		.loc 1 154 0
  58 0002 054B     		ldr	r3, .L3
  59 0004 8022     		mov	r2, #128
  60 0006 1968     		ldr	r1, [r3]
  61 0008 1006     		lsl	r0, r2, #24
  62 000a 0843     		orr	r0, r1
  63 000c 1860     		str	r0, [r3]
  64              	.LBB8:
  65              	.LBB9:
 155:.\Generated_Source\PSoC4/I2CM.c **** 
 156:.\Generated_Source\PSoC4/I2CM.c ****     I2CM_ScbEnableIntr();
 157:.\Generated_Source\PSoC4/I2CM.c **** #endif /* (I2CM_SCB_MODE_UNCONFIG_CONST_CFG) */
 158:.\Generated_Source\PSoC4/I2CM.c **** }
 159:.\Generated_Source\PSoC4/I2CM.c **** 
 160:.\Generated_Source\PSoC4/I2CM.c **** 
 161:.\Generated_Source\PSoC4/I2CM.c **** /*******************************************************************************
 162:.\Generated_Source\PSoC4/I2CM.c **** * Function Name: I2CM_Start
 163:.\Generated_Source\PSoC4/I2CM.c **** ********************************************************************************
ARM GAS  C:\Users\SNFU\AppData\Local\Temp\cc8vMHud.s 			page 5


 164:.\Generated_Source\PSoC4/I2CM.c **** *
 165:.\Generated_Source\PSoC4/I2CM.c **** * Summary:
 166:.\Generated_Source\PSoC4/I2CM.c **** *  Invokes SCB_Init() and SCB_Enable().
 167:.\Generated_Source\PSoC4/I2CM.c **** *  After this function call, the component is enabled and ready for operation.
 168:.\Generated_Source\PSoC4/I2CM.c **** *  When configuration is set to “Unconfigured SCB”, the component must first be
 169:.\Generated_Source\PSoC4/I2CM.c **** *  initialized to operate in one of the following configurations: I2C, SPI, UART
 170:.\Generated_Source\PSoC4/I2CM.c **** *  or EZ I2C. Otherwise this function does not enable the component.
 171:.\Generated_Source\PSoC4/I2CM.c **** *
 172:.\Generated_Source\PSoC4/I2CM.c **** * Parameters:
 173:.\Generated_Source\PSoC4/I2CM.c **** *  None
 174:.\Generated_Source\PSoC4/I2CM.c **** *
 175:.\Generated_Source\PSoC4/I2CM.c **** * Return:
 176:.\Generated_Source\PSoC4/I2CM.c **** *  None
 177:.\Generated_Source\PSoC4/I2CM.c **** *
 178:.\Generated_Source\PSoC4/I2CM.c **** * Global variables:
 179:.\Generated_Source\PSoC4/I2CM.c **** *  I2CM_initVar - used to check initial configuration, modified
 180:.\Generated_Source\PSoC4/I2CM.c **** *  on first function call.
 181:.\Generated_Source\PSoC4/I2CM.c **** *
 182:.\Generated_Source\PSoC4/I2CM.c **** *******************************************************************************/
 183:.\Generated_Source\PSoC4/I2CM.c **** void I2CM_Start(void)
 184:.\Generated_Source\PSoC4/I2CM.c **** {
 185:.\Generated_Source\PSoC4/I2CM.c ****     if(0u == I2CM_initVar)
 186:.\Generated_Source\PSoC4/I2CM.c ****     {
 187:.\Generated_Source\PSoC4/I2CM.c ****         I2CM_Init();
 188:.\Generated_Source\PSoC4/I2CM.c ****         I2CM_initVar = 1u; /* Component was initialized */
 189:.\Generated_Source\PSoC4/I2CM.c ****     }
 190:.\Generated_Source\PSoC4/I2CM.c **** 
 191:.\Generated_Source\PSoC4/I2CM.c ****     I2CM_Enable();
 192:.\Generated_Source\PSoC4/I2CM.c **** }
 193:.\Generated_Source\PSoC4/I2CM.c **** 
 194:.\Generated_Source\PSoC4/I2CM.c **** 
 195:.\Generated_Source\PSoC4/I2CM.c **** /*******************************************************************************
 196:.\Generated_Source\PSoC4/I2CM.c **** * Function Name: I2CM_Stop
 197:.\Generated_Source\PSoC4/I2CM.c **** ********************************************************************************
 198:.\Generated_Source\PSoC4/I2CM.c **** *
 199:.\Generated_Source\PSoC4/I2CM.c **** * Summary:
 200:.\Generated_Source\PSoC4/I2CM.c **** *  Disables the SCB component and its interrupt.
 201:.\Generated_Source\PSoC4/I2CM.c **** *
 202:.\Generated_Source\PSoC4/I2CM.c **** * Parameters:
 203:.\Generated_Source\PSoC4/I2CM.c **** *  None
 204:.\Generated_Source\PSoC4/I2CM.c **** *
 205:.\Generated_Source\PSoC4/I2CM.c **** * Return:
 206:.\Generated_Source\PSoC4/I2CM.c **** *  None
 207:.\Generated_Source\PSoC4/I2CM.c **** *
 208:.\Generated_Source\PSoC4/I2CM.c **** *******************************************************************************/
 209:.\Generated_Source\PSoC4/I2CM.c **** void I2CM_Stop(void)
 210:.\Generated_Source\PSoC4/I2CM.c **** {
 211:.\Generated_Source\PSoC4/I2CM.c **** #if(I2CM_SCB_IRQ_INTERNAL)
 212:.\Generated_Source\PSoC4/I2CM.c ****     I2CM_DisableInt();
 213:.\Generated_Source\PSoC4/I2CM.c **** #endif /* (I2CM_SCB_IRQ_INTERNAL) */
 214:.\Generated_Source\PSoC4/I2CM.c **** 
 215:.\Generated_Source\PSoC4/I2CM.c ****     I2CM_CTRL_REG &= (uint32) ~I2CM_CTRL_ENABLED;  /* Disable SCB block */
 216:.\Generated_Source\PSoC4/I2CM.c **** 
 217:.\Generated_Source\PSoC4/I2CM.c **** #if(I2CM_SCB_IRQ_INTERNAL)
 218:.\Generated_Source\PSoC4/I2CM.c ****     I2CM_ClearPendingInt();
 219:.\Generated_Source\PSoC4/I2CM.c **** #endif /* (I2CM_SCB_IRQ_INTERNAL) */
 220:.\Generated_Source\PSoC4/I2CM.c **** 
ARM GAS  C:\Users\SNFU\AppData\Local\Temp\cc8vMHud.s 			page 6


 221:.\Generated_Source\PSoC4/I2CM.c ****     I2CM_ScbModeStop(); /* Calls scbMode specific Stop function */
 222:.\Generated_Source\PSoC4/I2CM.c **** }
 223:.\Generated_Source\PSoC4/I2CM.c **** 
 224:.\Generated_Source\PSoC4/I2CM.c **** 
 225:.\Generated_Source\PSoC4/I2CM.c **** /*******************************************************************************
 226:.\Generated_Source\PSoC4/I2CM.c **** * Function Name: I2CM_SetCustomInterruptHandler
 227:.\Generated_Source\PSoC4/I2CM.c **** ********************************************************************************
 228:.\Generated_Source\PSoC4/I2CM.c **** *
 229:.\Generated_Source\PSoC4/I2CM.c **** * Summary:
 230:.\Generated_Source\PSoC4/I2CM.c **** *  Registers a function to be called by the internal interrupt handler.
 231:.\Generated_Source\PSoC4/I2CM.c **** *  First the function that is registered is called, then the internal interrupt
 232:.\Generated_Source\PSoC4/I2CM.c **** *  handler performs any operations such as software buffer management functions
 233:.\Generated_Source\PSoC4/I2CM.c **** *  before the interrupt returns.  It is the user's responsibility not to break the
 234:.\Generated_Source\PSoC4/I2CM.c **** *  software buffer operations. Only one custom handler is supported, which is
 235:.\Generated_Source\PSoC4/I2CM.c **** *  the function provided by the most recent call.
 236:.\Generated_Source\PSoC4/I2CM.c **** *  At initialization time no custom handler is registered.
 237:.\Generated_Source\PSoC4/I2CM.c **** *
 238:.\Generated_Source\PSoC4/I2CM.c **** * Parameters:
 239:.\Generated_Source\PSoC4/I2CM.c **** *  func: Pointer to the function to register.
 240:.\Generated_Source\PSoC4/I2CM.c **** *        The value NULL indicates to remove the current custom interrupt
 241:.\Generated_Source\PSoC4/I2CM.c **** *        handler.
 242:.\Generated_Source\PSoC4/I2CM.c **** *
 243:.\Generated_Source\PSoC4/I2CM.c **** * Return:
 244:.\Generated_Source\PSoC4/I2CM.c **** *  None
 245:.\Generated_Source\PSoC4/I2CM.c **** *
 246:.\Generated_Source\PSoC4/I2CM.c **** *******************************************************************************/
 247:.\Generated_Source\PSoC4/I2CM.c **** void I2CM_SetCustomInterruptHandler(cyisraddress func)
 248:.\Generated_Source\PSoC4/I2CM.c **** {
 249:.\Generated_Source\PSoC4/I2CM.c **** #if !defined (CY_REMOVE_I2CM_CUSTOM_INTR_HANDLER)
 250:.\Generated_Source\PSoC4/I2CM.c ****     I2CM_customIntrHandler = func; /* Register interrupt handler */
 251:.\Generated_Source\PSoC4/I2CM.c **** #else
 252:.\Generated_Source\PSoC4/I2CM.c ****     if(NULL != func)
 253:.\Generated_Source\PSoC4/I2CM.c ****     {
 254:.\Generated_Source\PSoC4/I2CM.c ****         /* Suppress compiler warning */
 255:.\Generated_Source\PSoC4/I2CM.c ****     }
 256:.\Generated_Source\PSoC4/I2CM.c **** #endif /* !defined (CY_REMOVE_I2CM_CUSTOM_INTR_HANDLER) */
 257:.\Generated_Source\PSoC4/I2CM.c **** }
 258:.\Generated_Source\PSoC4/I2CM.c **** 
 259:.\Generated_Source\PSoC4/I2CM.c **** 
 260:.\Generated_Source\PSoC4/I2CM.c **** /*******************************************************************************
 261:.\Generated_Source\PSoC4/I2CM.c **** * Function Name: I2CM_ScbModeEnableIntr
 262:.\Generated_Source\PSoC4/I2CM.c **** ********************************************************************************
 263:.\Generated_Source\PSoC4/I2CM.c **** *
 264:.\Generated_Source\PSoC4/I2CM.c **** * Summary:
 265:.\Generated_Source\PSoC4/I2CM.c **** *  Enables an interrupt for a specific mode.
 266:.\Generated_Source\PSoC4/I2CM.c **** *
 267:.\Generated_Source\PSoC4/I2CM.c **** * Parameters:
 268:.\Generated_Source\PSoC4/I2CM.c **** *  None
 269:.\Generated_Source\PSoC4/I2CM.c **** *
 270:.\Generated_Source\PSoC4/I2CM.c **** * Return:
 271:.\Generated_Source\PSoC4/I2CM.c **** *  None
 272:.\Generated_Source\PSoC4/I2CM.c **** *
 273:.\Generated_Source\PSoC4/I2CM.c **** *******************************************************************************/
 274:.\Generated_Source\PSoC4/I2CM.c **** static void I2CM_ScbEnableIntr(void)
 275:.\Generated_Source\PSoC4/I2CM.c **** {
 276:.\Generated_Source\PSoC4/I2CM.c **** #if(I2CM_SCB_IRQ_INTERNAL)
 277:.\Generated_Source\PSoC4/I2CM.c ****     #if(I2CM_SCB_MODE_UNCONFIG_CONST_CFG)
ARM GAS  C:\Users\SNFU\AppData\Local\Temp\cc8vMHud.s 			page 7


 278:.\Generated_Source\PSoC4/I2CM.c ****         /* Enable interrupt in the NVIC */
 279:.\Generated_Source\PSoC4/I2CM.c ****         if(0u != I2CM_scbEnableIntr)
 280:.\Generated_Source\PSoC4/I2CM.c ****         {
 281:.\Generated_Source\PSoC4/I2CM.c ****             I2CM_EnableInt();
 282:.\Generated_Source\PSoC4/I2CM.c ****         }
 283:.\Generated_Source\PSoC4/I2CM.c ****     #else
 284:.\Generated_Source\PSoC4/I2CM.c ****         I2CM_EnableInt();
  66              		.loc 1 284 0
  67 000e 0B20     		mov	r0, #11
  68 0010 FFF7FEFF 		bl	CyIntEnable
  69              	.LVL1:
  70              	.LBE9:
  71              	.LBE8:
 158:.\Generated_Source\PSoC4/I2CM.c **** }
  72              		.loc 1 158 0
  73              		@ sp needed for prologue
  74 0014 08BD     		pop	{r3, pc}
  75              	.L4:
  76 0016 C046     		.align	2
  77              	.L3:
  78 0018 00000740 		.word	1074200576
  79              		.cfi_endproc
  80              	.LFE1:
  81              		.size	I2CM_Enable, .-I2CM_Enable
  82              		.section	.text.I2CM_Start,"ax",%progbits
  83              		.align	1
  84              		.global	I2CM_Start
  85              		.code	16
  86              		.thumb_func
  87              		.type	I2CM_Start, %function
  88              	I2CM_Start:
  89              	.LFB2:
 184:.\Generated_Source\PSoC4/I2CM.c **** {
  90              		.loc 1 184 0
  91              		.cfi_startproc
  92 0000 10B5     		push	{r4, lr}
  93              	.LCFI2:
  94              		.cfi_def_cfa_offset 8
  95              		.cfi_offset 4, -8
  96              		.cfi_offset 14, -4
 185:.\Generated_Source\PSoC4/I2CM.c ****     if(0u == I2CM_initVar)
  97              		.loc 1 185 0
  98 0002 054C     		ldr	r4, .L8
  99 0004 2378     		ldrb	r3, [r4]
 100 0006 002B     		cmp	r3, #0
 101 0008 03D1     		bne	.L6
 102              	.LBB10:
 103              	.LBB11:
 112:.\Generated_Source\PSoC4/I2CM.c ****     I2CM_I2CInit();
 104              		.loc 1 112 0
 105 000a FFF7FEFF 		bl	I2CM_I2CInit
 106              	.LVL2:
 107              	.LBE11:
 108              	.LBE10:
 188:.\Generated_Source\PSoC4/I2CM.c ****         I2CM_initVar = 1u; /* Component was initialized */
 109              		.loc 1 188 0
 110 000e 0120     		mov	r0, #1
ARM GAS  C:\Users\SNFU\AppData\Local\Temp\cc8vMHud.s 			page 8


 111 0010 2070     		strb	r0, [r4]
 112              	.L6:
 191:.\Generated_Source\PSoC4/I2CM.c ****     I2CM_Enable();
 113              		.loc 1 191 0
 114 0012 FFF7FEFF 		bl	I2CM_Enable
 115              	.LVL3:
 192:.\Generated_Source\PSoC4/I2CM.c **** }
 116              		.loc 1 192 0
 117              		@ sp needed for prologue
 118 0016 10BD     		pop	{r4, pc}
 119              	.L9:
 120              		.align	2
 121              	.L8:
 122 0018 00000000 		.word	.LANCHOR0
 123              		.cfi_endproc
 124              	.LFE2:
 125              		.size	I2CM_Start, .-I2CM_Start
 126              		.section	.text.I2CM_Stop,"ax",%progbits
 127              		.align	1
 128              		.global	I2CM_Stop
 129              		.code	16
 130              		.thumb_func
 131              		.type	I2CM_Stop, %function
 132              	I2CM_Stop:
 133              	.LFB3:
 210:.\Generated_Source\PSoC4/I2CM.c **** {
 134              		.loc 1 210 0
 135              		.cfi_startproc
 136 0000 08B5     		push	{r3, lr}
 137              	.LCFI3:
 138              		.cfi_def_cfa_offset 8
 139              		.cfi_offset 3, -8
 140              		.cfi_offset 14, -4
 212:.\Generated_Source\PSoC4/I2CM.c ****     I2CM_DisableInt();
 141              		.loc 1 212 0
 142 0002 0B20     		mov	r0, #11
 143 0004 FFF7FEFF 		bl	CyIntDisable
 144              	.LVL4:
 215:.\Generated_Source\PSoC4/I2CM.c ****     I2CM_CTRL_REG &= (uint32) ~I2CM_CTRL_ENABLED;  /* Disable SCB block */
 145              		.loc 1 215 0
 146 0008 054B     		ldr	r3, .L11
 222:.\Generated_Source\PSoC4/I2CM.c **** }
 147              		.loc 1 222 0
 148              		@ sp needed for prologue
 215:.\Generated_Source\PSoC4/I2CM.c ****     I2CM_CTRL_REG &= (uint32) ~I2CM_CTRL_ENABLED;  /* Disable SCB block */
 149              		.loc 1 215 0
 150 000a 1A68     		ldr	r2, [r3]
 151 000c 5000     		lsl	r0, r2, #1
 152 000e 4108     		lsr	r1, r0, #1
 153 0010 1960     		str	r1, [r3]
 218:.\Generated_Source\PSoC4/I2CM.c ****     I2CM_ClearPendingInt();
 154              		.loc 1 218 0
 155 0012 0B20     		mov	r0, #11
 156 0014 FFF7FEFF 		bl	CyIntClearPending
 157              	.LVL5:
 158              	.LBB12:
 159              	.LBB13:
ARM GAS  C:\Users\SNFU\AppData\Local\Temp\cc8vMHud.s 			page 9


 285:.\Generated_Source\PSoC4/I2CM.c **** 
 286:.\Generated_Source\PSoC4/I2CM.c ****     #endif /* (I2CM_SCB_MODE_UNCONFIG_CONST_CFG) */
 287:.\Generated_Source\PSoC4/I2CM.c **** #endif /* (I2CM_SCB_IRQ_INTERNAL) */
 288:.\Generated_Source\PSoC4/I2CM.c **** }
 289:.\Generated_Source\PSoC4/I2CM.c **** 
 290:.\Generated_Source\PSoC4/I2CM.c **** 
 291:.\Generated_Source\PSoC4/I2CM.c **** /*******************************************************************************
 292:.\Generated_Source\PSoC4/I2CM.c **** * Function Name: I2CM_ScbModeStop
 293:.\Generated_Source\PSoC4/I2CM.c **** ********************************************************************************
 294:.\Generated_Source\PSoC4/I2CM.c **** *
 295:.\Generated_Source\PSoC4/I2CM.c **** * Summary:
 296:.\Generated_Source\PSoC4/I2CM.c **** *  Calls the Stop function for a specific operation mode.
 297:.\Generated_Source\PSoC4/I2CM.c **** *
 298:.\Generated_Source\PSoC4/I2CM.c **** * Parameters:
 299:.\Generated_Source\PSoC4/I2CM.c **** *  None
 300:.\Generated_Source\PSoC4/I2CM.c **** *
 301:.\Generated_Source\PSoC4/I2CM.c **** * Return:
 302:.\Generated_Source\PSoC4/I2CM.c **** *  None
 303:.\Generated_Source\PSoC4/I2CM.c **** *
 304:.\Generated_Source\PSoC4/I2CM.c **** *******************************************************************************/
 305:.\Generated_Source\PSoC4/I2CM.c **** static void I2CM_ScbModeStop(void)
 306:.\Generated_Source\PSoC4/I2CM.c **** {
 307:.\Generated_Source\PSoC4/I2CM.c **** #if(I2CM_SCB_MODE_UNCONFIG_CONST_CFG)
 308:.\Generated_Source\PSoC4/I2CM.c ****     if(I2CM_SCB_MODE_I2C_RUNTM_CFG)
 309:.\Generated_Source\PSoC4/I2CM.c ****     {
 310:.\Generated_Source\PSoC4/I2CM.c ****         I2CM_I2CStop();
 311:.\Generated_Source\PSoC4/I2CM.c ****     }
 312:.\Generated_Source\PSoC4/I2CM.c ****     else if(I2CM_SCB_MODE_EZI2C_RUNTM_CFG)
 313:.\Generated_Source\PSoC4/I2CM.c ****     {
 314:.\Generated_Source\PSoC4/I2CM.c ****         I2CM_EzI2CStop();
 315:.\Generated_Source\PSoC4/I2CM.c ****     }
 316:.\Generated_Source\PSoC4/I2CM.c ****     else
 317:.\Generated_Source\PSoC4/I2CM.c ****     {
 318:.\Generated_Source\PSoC4/I2CM.c ****         /* Do nohing for other modes */
 319:.\Generated_Source\PSoC4/I2CM.c ****     }
 320:.\Generated_Source\PSoC4/I2CM.c **** #elif(I2CM_SCB_MODE_I2C_CONST_CFG)
 321:.\Generated_Source\PSoC4/I2CM.c ****     I2CM_I2CStop();
 160              		.loc 1 321 0
 161 0018 FFF7FEFF 		bl	I2CM_I2CStop
 162              	.LVL6:
 163              	.LBE13:
 164              	.LBE12:
 222:.\Generated_Source\PSoC4/I2CM.c **** }
 165              		.loc 1 222 0
 166 001c 08BD     		pop	{r3, pc}
 167              	.L12:
 168 001e C046     		.align	2
 169              	.L11:
 170 0020 00000740 		.word	1074200576
 171              		.cfi_endproc
 172              	.LFE3:
 173              		.size	I2CM_Stop, .-I2CM_Stop
 174              		.section	.text.I2CM_SetCustomInterruptHandler,"ax",%progbits
 175              		.align	1
 176              		.global	I2CM_SetCustomInterruptHandler
 177              		.code	16
 178              		.thumb_func
ARM GAS  C:\Users\SNFU\AppData\Local\Temp\cc8vMHud.s 			page 10


 179              		.type	I2CM_SetCustomInterruptHandler, %function
 180              	I2CM_SetCustomInterruptHandler:
 181              	.LFB4:
 248:.\Generated_Source\PSoC4/I2CM.c **** {
 182              		.loc 1 248 0
 183              		.cfi_startproc
 184              	.LVL7:
 250:.\Generated_Source\PSoC4/I2CM.c ****     I2CM_customIntrHandler = func; /* Register interrupt handler */
 185              		.loc 1 250 0
 186 0000 014B     		ldr	r3, .L14
 257:.\Generated_Source\PSoC4/I2CM.c **** }
 187              		.loc 1 257 0
 188              		@ sp needed for prologue
 250:.\Generated_Source\PSoC4/I2CM.c ****     I2CM_customIntrHandler = func; /* Register interrupt handler */
 189              		.loc 1 250 0
 190 0002 5860     		str	r0, [r3, #4]
 257:.\Generated_Source\PSoC4/I2CM.c **** }
 191              		.loc 1 257 0
 192 0004 7047     		bx	lr
 193              	.L15:
 194 0006 C046     		.align	2
 195              	.L14:
 196 0008 00000000 		.word	.LANCHOR0
 197              		.cfi_endproc
 198              	.LFE4:
 199              		.size	I2CM_SetCustomInterruptHandler, .-I2CM_SetCustomInterruptHandler
 200              		.global	I2CM_customIntrHandler
 201              		.global	I2CM_initVar
 202              		.bss
 203              		.align	2
 204              		.set	.LANCHOR0,. + 0
 205              		.type	I2CM_initVar, %object
 206              		.size	I2CM_initVar, 1
 207              	I2CM_initVar:
 208 0000 00       		.space	1
 209 0001 000000   		.space	3
 210              		.type	I2CM_customIntrHandler, %object
 211              		.size	I2CM_customIntrHandler, 4
 212              	I2CM_customIntrHandler:
 213 0004 00000000 		.space	4
 214              		.text
 215              	.Letext0:
 216              		.file 2 "./Generated_Source/PSoC4/cytypes.h"
 217              		.file 3 ".\\Generated_Source\\PSoC4\\I2CM_I2C_PVT.h"
 218              		.file 4 "./Generated_Source/PSoC4/CyLib.h"