ARM GAS  C:\Users\SNFU\AppData\Local\Temp\ccn25usr.s 			page 1


   1              		.cpu cortex-m0
   2              		.fpu softvfp
   3              		.eabi_attribute 20, 1
   4              		.eabi_attribute 21, 1
   5              		.eabi_attribute 23, 3
   6              		.eabi_attribute 24, 1
   7              		.eabi_attribute 25, 1
   8              		.eabi_attribute 26, 1
   9              		.eabi_attribute 30, 6
  10              		.eabi_attribute 34, 0
  11              		.eabi_attribute 18, 4
  12              		.code	16
  13              		.file	"IMU.c"
  14              		.text
  15              	.Ltext0:
  16              		.cfi_sections	.debug_frame
  17              		.global	gyro_x_h
  18              		.bss
  19              		.type	gyro_x_h, %object
  20              		.size	gyro_x_h, 1
  21              	gyro_x_h:
  22 0000 00       		.space	1
  23              		.global	gyro_x_l
  24              		.type	gyro_x_l, %object
  25              		.size	gyro_x_l, 1
  26              	gyro_x_l:
  27 0001 00       		.space	1
  28              		.global	gyro_x
  29              		.align	1
  30              		.type	gyro_x, %object
  31              		.size	gyro_x, 2
  32              	gyro_x:
  33 0002 0000     		.space	2
  34              		.global	gyro_p
  35              		.align	1
  36              		.type	gyro_p, %object
  37              		.size	gyro_p, 2
  38              	gyro_p:
  39 0004 0000     		.space	2
  40              		.global	gyro_y_h
  41              		.type	gyro_y_h, %object
  42              		.size	gyro_y_h, 1
  43              	gyro_y_h:
  44 0006 00       		.space	1
  45              		.global	gyro_y_l
  46              		.type	gyro_y_l, %object
  47              		.size	gyro_y_l, 1
  48              	gyro_y_l:
  49 0007 00       		.space	1
  50              		.global	gyro_y
  51              		.align	1
  52              		.type	gyro_y, %object
  53              		.size	gyro_y, 2
  54              	gyro_y:
  55 0008 0000     		.space	2
  56              		.global	gyro_q
  57              		.align	1
ARM GAS  C:\Users\SNFU\AppData\Local\Temp\ccn25usr.s 			page 2


  58              		.type	gyro_q, %object
  59              		.size	gyro_q, 2
  60              	gyro_q:
  61 000a 0000     		.space	2
  62              		.global	gyro_z_h
  63              		.type	gyro_z_h, %object
  64              		.size	gyro_z_h, 1
  65              	gyro_z_h:
  66 000c 00       		.space	1
  67              		.global	gyro_z_l
  68              		.type	gyro_z_l, %object
  69              		.size	gyro_z_l, 1
  70              	gyro_z_l:
  71 000d 00       		.space	1
  72              		.global	gyro_z
  73              		.align	1
  74              		.type	gyro_z, %object
  75              		.size	gyro_z, 2
  76              	gyro_z:
  77 000e 0000     		.space	2
  78              		.global	gyro_r
  79              		.align	1
  80              		.type	gyro_r, %object
  81              		.size	gyro_r, 2
  82              	gyro_r:
  83 0010 0000     		.space	2
  84              		.global	temperature
  85              		.type	temperature, %object
  86              		.size	temperature, 1
  87              	temperature:
  88 0012 00       		.space	1
  89              		.global	temperature_0
  90              		.data
  91              		.type	temperature_0, %object
  92              		.size	temperature_0, 1
  93              	temperature_0:
  94 0000 32       		.byte	50
  95              		.global	gyro_p_offset
  96              		.bss
  97 0013 00       		.align	1
  98              		.type	gyro_p_offset, %object
  99              		.size	gyro_p_offset, 2
 100              	gyro_p_offset:
 101 0014 0000     		.space	2
 102              		.global	gyro_q_offset
 103              		.align	1
 104              		.type	gyro_q_offset, %object
 105              		.size	gyro_q_offset, 2
 106              	gyro_q_offset:
 107 0016 0000     		.space	2
 108              		.global	gyro_r_offset
 109              		.align	1
 110              		.type	gyro_r_offset, %object
 111              		.size	gyro_r_offset, 2
 112              	gyro_r_offset:
 113 0018 0000     		.space	2
 114              		.global	error_stat
ARM GAS  C:\Users\SNFU\AppData\Local\Temp\ccn25usr.s 			page 3


 115              		.type	error_stat, %object
 116              		.size	error_stat, 1
 117              	error_stat:
 118 001a 00       		.space	1
 119              		.global	acc_x_h
 120              		.type	acc_x_h, %object
 121              		.size	acc_x_h, 1
 122              	acc_x_h:
 123 001b 00       		.space	1
 124              		.global	acc_x_l
 125              		.type	acc_x_l, %object
 126              		.size	acc_x_l, 1
 127              	acc_x_l:
 128 001c 00       		.space	1
 129              		.global	acc_x
 130 001d 00       		.align	1
 131              		.type	acc_x, %object
 132              		.size	acc_x, 2
 133              	acc_x:
 134 001e 0000     		.space	2
 135              		.global	acc_y_h
 136              		.type	acc_y_h, %object
 137              		.size	acc_y_h, 1
 138              	acc_y_h:
 139 0020 00       		.space	1
 140              		.global	acc_y_l
 141              		.type	acc_y_l, %object
 142              		.size	acc_y_l, 1
 143              	acc_y_l:
 144 0021 00       		.space	1
 145              		.global	acc_y
 146              		.align	1
 147              		.type	acc_y, %object
 148              		.size	acc_y, 2
 149              	acc_y:
 150 0022 0000     		.space	2
 151              		.global	acc_z_h
 152              		.type	acc_z_h, %object
 153              		.size	acc_z_h, 1
 154              	acc_z_h:
 155 0024 00       		.space	1
 156              		.global	acc_z_l
 157              		.type	acc_z_l, %object
 158              		.size	acc_z_l, 1
 159              	acc_z_l:
 160 0025 00       		.space	1
 161              		.global	acc_z
 162              		.align	1
 163              		.type	acc_z, %object
 164              		.size	acc_z, 2
 165              	acc_z:
 166 0026 0000     		.space	2
 167              		.global	mag_x_h
 168              		.type	mag_x_h, %object
 169              		.size	mag_x_h, 1
 170              	mag_x_h:
 171 0028 00       		.space	1
ARM GAS  C:\Users\SNFU\AppData\Local\Temp\ccn25usr.s 			page 4


 172              		.global	mag_x_l
 173              		.type	mag_x_l, %object
 174              		.size	mag_x_l, 1
 175              	mag_x_l:
 176 0029 00       		.space	1
 177              		.global	mag_x
 178              		.align	1
 179              		.type	mag_x, %object
 180              		.size	mag_x, 2
 181              	mag_x:
 182 002a 0000     		.space	2
 183              		.global	mag_y_h
 184              		.type	mag_y_h, %object
 185              		.size	mag_y_h, 1
 186              	mag_y_h:
 187 002c 00       		.space	1
 188              		.global	mag_y_l
 189              		.type	mag_y_l, %object
 190              		.size	mag_y_l, 1
 191              	mag_y_l:
 192 002d 00       		.space	1
 193              		.global	mag_y
 194              		.align	1
 195              		.type	mag_y, %object
 196              		.size	mag_y, 2
 197              	mag_y:
 198 002e 0000     		.space	2
 199              		.global	mag_z_h
 200              		.type	mag_z_h, %object
 201              		.size	mag_z_h, 1
 202              	mag_z_h:
 203 0030 00       		.space	1
 204              		.global	mag_z_l
 205              		.type	mag_z_l, %object
 206              		.size	mag_z_l, 1
 207              	mag_z_l:
 208 0031 00       		.space	1
 209              		.global	mag_z
 210              		.align	1
 211              		.type	mag_z, %object
 212              		.size	mag_z, 2
 213              	mag_z:
 214 0032 0000     		.space	2
 215              		.section	.rodata
 216              		.align	2
 217              	.LC0:
 218 0000 47595220 		.ascii	"GYR W Add Ok\015\012\000"
 218      57204164 
 218      64204F6B 
 218      0D0A00
 219 000f 00       		.align	2
 220              	.LC2:
 221 0010 47595220 		.ascii	"GYR W Reg Ok\015\012\000"
 221      57205265 
 221      67204F6B 
 221      0D0A00
 222 001f 00       		.align	2
ARM GAS  C:\Users\SNFU\AppData\Local\Temp\ccn25usr.s 			page 5


 223              	.LC4:
 224 0020 47595220 		.ascii	"GYR W Dat Ok\015\012\000"
 224      57204461 
 224      74204F6B 
 224      0D0A00
 225 002f 00       		.align	2
 226              	.LC6:
 227 0030 47595220 		.ascii	"GYR W Stop Ok\015\012\000"
 227      57205374 
 227      6F70204F 
 227      6B0D0A00 
 228              		.section	.text.write_gyro_registry,"ax",%progbits
 229              		.align	2
 230              		.global	write_gyro_registry
 231              		.code	16
 232              		.thumb_func
 233              		.type	write_gyro_registry, %function
 234              	write_gyro_registry:
 235              	.LFB33:
 236              		.file 1 ".\\IMU.c"
   1:.\IMU.c       **** /* ========================================
   2:.\IMU.c       ****  *
   3:.\IMU.c       ****  * Copyright YOUR COMPANY, THE YEAR
   4:.\IMU.c       ****  * All Rights Reserved
   5:.\IMU.c       ****  * UNPUBLISHED, LICENSED SOFTWARE.
   6:.\IMU.c       ****  *
   7:.\IMU.c       ****  * CONFIDENTIAL AND PROPRIETARY INFORMATION
   8:.\IMU.c       ****  * WHICH IS THE PROPERTY OF your company.
   9:.\IMU.c       ****  *
  10:.\IMU.c       ****  * ========================================
  11:.\IMU.c       **** */
  12:.\IMU.c       **** 
  13:.\IMU.c       **** // #include <project.h>     // this is included in IMU.h file
  14:.\IMU.c       **** #include <IMU.h>
  15:.\IMU.c       **** 
  16:.\IMU.c       **** extern void UART_1_UartPutNum();
  17:.\IMU.c       **** 
  18:.\IMU.c       **** #define READ    1
  19:.\IMU.c       **** #define WRITE   0
  20:.\IMU.c       **** #define ACK     0
  21:.\IMU.c       **** #define NACK    1
  22:.\IMU.c       **** 
  23:.\IMU.c       **** /* ================================= */
  24:.\IMU.c       **** /* GYRO VARIABLES					*/
  25:.\IMU.c       **** /* ================================= */
  26:.\IMU.c       **** 
  27:.\IMU.c       **** /* x component*/
  28:.\IMU.c       **** int8_t	gyro_x_h	= 0;
  29:.\IMU.c       **** uint8_t gyro_x_l	= 0;
  30:.\IMU.c       **** int16_t gyro_x		= 0;
  31:.\IMU.c       **** extern int16_t turn_rate_p;		// from main.c file
  32:.\IMU.c       **** int16_t	gyro_p		= 0;
  33:.\IMU.c       **** 
  34:.\IMU.c       **** /* y component*/
  35:.\IMU.c       **** int8_t	gyro_y_h	= 0;
  36:.\IMU.c       **** uint8_t gyro_y_l	= 0;
  37:.\IMU.c       **** int16_t gyro_y		= 0;
ARM GAS  C:\Users\SNFU\AppData\Local\Temp\ccn25usr.s 			page 6


  38:.\IMU.c       **** int16_t	gyro_q		= 0;
  39:.\IMU.c       **** extern int16_t turn_rate_q;		// from main.c file
  40:.\IMU.c       **** 
  41:.\IMU.c       **** /* z component*/
  42:.\IMU.c       **** int8_t	gyro_z_h	= 0;
  43:.\IMU.c       **** uint8_t gyro_z_l	= 0;
  44:.\IMU.c       **** int16_t gyro_z		= 0;
  45:.\IMU.c       **** int16_t	gyro_r		= 0;
  46:.\IMU.c       **** extern int16_t turn_rate_r;		// from main.c file
  47:.\IMU.c       **** 
  48:.\IMU.c       **** // Gyro temperature
  49:.\IMU.c       **** int8_t	temperature	= 0;
  50:.\IMU.c       **** uint8_t temperature_0	= 50;
  51:.\IMU.c       **** 
  52:.\IMU.c       **** // Gyro Calibration Variables
  53:.\IMU.c       **** // idea: count 100 samples (IMU needs to be steady) and calculate the offset
  54:.\IMU.c       **** 
  55:.\IMU.c       **** int16_t gyro_p_offset = 0;
  56:.\IMU.c       **** int16_t gyro_q_offset = 0;
  57:.\IMU.c       **** int16_t gyro_r_offset = 0;
  58:.\IMU.c       **** //int cal_complete = FALSE;	// Flag to cover if the calibration is complete
  59:.\IMU.c       **** uint8_t error_stat = 0;
  60:.\IMU.c       **** 
  61:.\IMU.c       **** /* ================================= */
  62:.\IMU.c       **** /* ACC & MAG VARIABLES					*/
  63:.\IMU.c       **** /* ================================= */
  64:.\IMU.c       **** 
  65:.\IMU.c       **** int8_t	acc_x_h		= 0;		// high bits of acc x reading
  66:.\IMU.c       **** uint8_t	acc_x_l		= 0;		// low bits of acc x reading
  67:.\IMU.c       **** int16_t acc_x		= 0;		// combined value of acc x reading
  68:.\IMU.c       **** extern int16_t	acc_x_g;		// acc_x from main.c file
  69:.\IMU.c       **** 
  70:.\IMU.c       **** int8_t	acc_y_h		= 0;		// high bits of acc x reading
  71:.\IMU.c       **** uint8_t	acc_y_l		= 0;		// low bits of acc x reading
  72:.\IMU.c       **** int16_t acc_y		= 0;		// combined value of acc x reading
  73:.\IMU.c       **** extern int16_t	acc_y_g;		// acc_y from main.c file
  74:.\IMU.c       **** 
  75:.\IMU.c       **** int8_t	acc_z_h		= 0;		// high bits of acc x reading
  76:.\IMU.c       **** uint8_t	acc_z_l		= 0;		// low bits of acc x reading
  77:.\IMU.c       **** int16_t acc_z		= 0;		// combined value of acc x reading
  78:.\IMU.c       **** extern int16_t	acc_z_g;		// acc_z from main.c file
  79:.\IMU.c       **** 
  80:.\IMU.c       **** int8_t	mag_x_h		= 0;		// high bits of mag x reading
  81:.\IMU.c       **** uint8_t	mag_x_l		= 0;		// low bits of mag x reading
  82:.\IMU.c       **** int16_t mag_x		= 0;		// the value read on the x axis of the magnetometer
  83:.\IMU.c       **** extern int16_t	mag_x_g;		// the geodetic reference frame value of x
  84:.\IMU.c       **** 
  85:.\IMU.c       **** int8_t	mag_y_h		= 0;		// high bits of mag y reading
  86:.\IMU.c       **** uint8_t	mag_y_l		= 0;		// low bits of mag y reading
  87:.\IMU.c       **** int16_t mag_y		= 0;		// the value read on the y axis of the magnetometer
  88:.\IMU.c       **** extern int16_t	mag_y_g;		// the geodetic reference frame value of y
  89:.\IMU.c       **** 
  90:.\IMU.c       **** int8_t	mag_z_h		= 0;		// high bits of mag z reading
  91:.\IMU.c       **** uint8_t	mag_z_l		= 0;		// low bits of mag z reading
  92:.\IMU.c       **** int16_t mag_z	= 0;		// the value read on the z axis of the magnetometer
  93:.\IMU.c       **** extern int16_t	mag_z_g;		// the geodetic reference frame value of y
  94:.\IMU.c       **** 
ARM GAS  C:\Users\SNFU\AppData\Local\Temp\ccn25usr.s 			page 7


  95:.\IMU.c       **** /* ================================= */
  96:.\IMU.c       **** /* GYRO FUNCTIONS					*/
  97:.\IMU.c       **** /* ================================= */
  98:.\IMU.c       **** void write_gyro_registry(uint8_t registry, uint8_t data)
  99:.\IMU.c       **** {
 237              		.loc 1 99 0
 238              		.cfi_startproc
 239 0000 80B5     		push	{r7, lr}
 240              	.LCFI0:
 241              		.cfi_def_cfa_offset 8
 242              		.cfi_offset 7, -8
 243              		.cfi_offset 14, -4
 244 0002 82B0     		sub	sp, sp, #8
 245              	.LCFI1:
 246              		.cfi_def_cfa_offset 16
 247 0004 00AF     		add	r7, sp, #0
 248              	.LCFI2:
 249              		.cfi_def_cfa_register 7
 250 0006 0A1C     		mov	r2, r1
 251 0008 FB1D     		add	r3, r7, #7
 252 000a 011C     		add	r1, r0, #0
 253 000c 1970     		strb	r1, [r3]
 254 000e BB1D     		add	r3, r7, #6
 255 0010 1A70     		strb	r2, [r3]
 100:.\IMU.c       ****     I2CM_I2CMasterSendStart(L3GD20H_ADDRESS_SA0_HIGH, WRITE);
 256              		.loc 1 100 0
 257 0012 6B20     		mov	r0, #107
 258 0014 0021     		mov	r1, #0
 259 0016 FFF7FEFF 		bl	I2CM_I2CMasterSendStart
 101:.\IMU.c       **** 	UART_1_UartPutString("GYR W Add Ok\r\n");
 260              		.loc 1 101 0
 261 001a 134B     		ldr	r3, .L4
 262 001c 181C     		mov	r0, r3
 263 001e FFF7FEFF 		bl	UART_1_UartPutString
 102:.\IMU.c       **** 	I2CM_I2CMasterWriteByte(registry);
 264              		.loc 1 102 0
 265 0022 FB1D     		add	r3, r7, #7
 266 0024 1B78     		ldrb	r3, [r3]
 267 0026 181C     		mov	r0, r3
 268 0028 FFF7FEFF 		bl	I2CM_I2CMasterWriteByte
 103:.\IMU.c       ****     UART_1_UartPutString("GYR W Reg Ok\r\n");
 269              		.loc 1 103 0
 270 002c 0F4B     		ldr	r3, .L4+4
 271 002e 181C     		mov	r0, r3
 272 0030 FFF7FEFF 		bl	UART_1_UartPutString
 104:.\IMU.c       ****     I2CM_I2CMasterWriteByte(data);
 273              		.loc 1 104 0
 274 0034 BB1D     		add	r3, r7, #6
 275 0036 1B78     		ldrb	r3, [r3]
 276 0038 181C     		mov	r0, r3
 277 003a FFF7FEFF 		bl	I2CM_I2CMasterWriteByte
 105:.\IMU.c       ****     UART_1_UartPutString("GYR W Dat Ok\r\n");
 278              		.loc 1 105 0
 279 003e 0C4B     		ldr	r3, .L4+8
 280 0040 181C     		mov	r0, r3
 281 0042 FFF7FEFF 		bl	UART_1_UartPutString
 106:.\IMU.c       ****     I2CM_I2C_MASTER_GENERATE_STOP;
ARM GAS  C:\Users\SNFU\AppData\Local\Temp\ccn25usr.s 			page 8


 282              		.loc 1 106 0
 283 0046 0B4B     		ldr	r3, .L4+12
 284 0048 0B4A     		ldr	r2, .L4+16
 285 004a 1168     		ldr	r1, [r2]
 286 004c 2022     		mov	r2, #32
 287 004e 0A40     		and	r2, r1
 288 0050 01D0     		beq	.L2
 289              		.loc 1 106 0 is_stmt 0 discriminator 1
 290 0052 1822     		mov	r2, #24
 291 0054 00E0     		b	.L3
 292              	.L2:
 293              		.loc 1 106 0 discriminator 2
 294 0056 1022     		mov	r2, #16
 295              	.L3:
 296              		.loc 1 106 0 discriminator 3
 297 0058 1A60     		str	r2, [r3]
 107:.\IMU.c       ****     UART_1_UartPutString("GYR W Stop Ok\r\n");    
 298              		.loc 1 107 0 is_stmt 1 discriminator 3
 299 005a 084B     		ldr	r3, .L4+20
 300 005c 181C     		mov	r0, r3
 301 005e FFF7FEFF 		bl	UART_1_UartPutString
 108:.\IMU.c       **** }
 302              		.loc 1 108 0 discriminator 3
 303 0062 BD46     		mov	sp, r7
 304 0064 02B0     		add	sp, sp, #8
 305              		@ sp needed for prologue
 306 0066 80BD     		pop	{r7, pc}
 307              	.L5:
 308              		.align	2
 309              	.L4:
 310 0068 00000000 		.word	.LC0
 311 006c 10000000 		.word	.LC2
 312 0070 20000000 		.word	.LC4
 313 0074 68000740 		.word	1074200680
 314 0078 64000740 		.word	1074200676
 315 007c 30000000 		.word	.LC6
 316              		.cfi_endproc
 317              	.LFE33:
 318              		.size	write_gyro_registry, .-write_gyro_registry
 319              		.section	.text.read_gyro_registry,"ax",%progbits
 320              		.align	2
 321              		.global	read_gyro_registry
 322              		.code	16
 323              		.thumb_func
 324              		.type	read_gyro_registry, %function
 325              	read_gyro_registry:
 326              	.LFB34:
 109:.\IMU.c       **** 
 110:.\IMU.c       **** int8_t read_gyro_registry(uint8_t registry)
 111:.\IMU.c       **** {
 327              		.loc 1 111 0
 328              		.cfi_startproc
 329 0000 80B5     		push	{r7, lr}
 330              	.LCFI3:
 331              		.cfi_def_cfa_offset 8
 332              		.cfi_offset 7, -8
 333              		.cfi_offset 14, -4
ARM GAS  C:\Users\SNFU\AppData\Local\Temp\ccn25usr.s 			page 9


 334 0002 84B0     		sub	sp, sp, #16
 335              	.LCFI4:
 336              		.cfi_def_cfa_offset 24
 337 0004 00AF     		add	r7, sp, #0
 338              	.LCFI5:
 339              		.cfi_def_cfa_register 7
 340 0006 021C     		mov	r2, r0
 341 0008 FB1D     		add	r3, r7, #7
 342 000a 1A70     		strb	r2, [r3]
 112:.\IMU.c       **** 	uint8_t data;
 113:.\IMU.c       **** 	I2CM_I2CMasterSendStart(L3GD20H_ADDRESS_SA0_HIGH, WRITE);
 343              		.loc 1 113 0
 344 000c 6B20     		mov	r0, #107
 345 000e 0021     		mov	r1, #0
 346 0010 FFF7FEFF 		bl	I2CM_I2CMasterSendStart
 114:.\IMU.c       **** 	I2CM_I2CMasterWriteByte(registry);
 347              		.loc 1 114 0
 348 0014 FB1D     		add	r3, r7, #7
 349 0016 1B78     		ldrb	r3, [r3]
 350 0018 181C     		mov	r0, r3
 351 001a FFF7FEFF 		bl	I2CM_I2CMasterWriteByte
 115:.\IMU.c       **** 	I2CM_I2CMasterSendRestart(L3GD20H_ADDRESS_SA0_HIGH, READ);
 352              		.loc 1 115 0
 353 001e 6B20     		mov	r0, #107
 354 0020 0121     		mov	r1, #1
 355 0022 FFF7FEFF 		bl	I2CM_I2CMasterSendRestart
 116:.\IMU.c       **** 	data = I2CM_I2CMasterReadByte(NACK);
 356              		.loc 1 116 0
 357 0026 0120     		mov	r0, #1
 358 0028 FFF7FEFF 		bl	I2CM_I2CMasterReadByte
 359 002c 021C     		mov	r2, r0
 360 002e 3B1C     		mov	r3, r7
 361 0030 0F33     		add	r3, r3, #15
 362 0032 1A70     		strb	r2, [r3]
 117:.\IMU.c       ****     I2CM_I2C_MASTER_GENERATE_STOP;
 363              		.loc 1 117 0
 364 0034 084B     		ldr	r3, .L10
 365 0036 094A     		ldr	r2, .L10+4
 366 0038 1168     		ldr	r1, [r2]
 367 003a 2022     		mov	r2, #32
 368 003c 0A40     		and	r2, r1
 369 003e 01D0     		beq	.L7
 370              		.loc 1 117 0 is_stmt 0 discriminator 1
 371 0040 1822     		mov	r2, #24
 372 0042 00E0     		b	.L8
 373              	.L7:
 374              		.loc 1 117 0 discriminator 2
 375 0044 1022     		mov	r2, #16
 376              	.L8:
 377              		.loc 1 117 0 discriminator 3
 378 0046 1A60     		str	r2, [r3]
 118:.\IMU.c       ****     return(data);
 379              		.loc 1 118 0 is_stmt 1 discriminator 3
 380 0048 3B1C     		mov	r3, r7
 381 004a 0F33     		add	r3, r3, #15
 382 004c 1B78     		ldrb	r3, [r3]
 383 004e 5BB2     		sxtb	r3, r3
ARM GAS  C:\Users\SNFU\AppData\Local\Temp\ccn25usr.s 			page 10


 119:.\IMU.c       **** }
 384              		.loc 1 119 0 discriminator 3
 385 0050 181C     		mov	r0, r3
 386 0052 BD46     		mov	sp, r7
 387 0054 04B0     		add	sp, sp, #16
 388              		@ sp needed for prologue
 389 0056 80BD     		pop	{r7, pc}
 390              	.L11:
 391              		.align	2
 392              	.L10:
 393 0058 68000740 		.word	1074200680
 394 005c 64000740 		.word	1074200676
 395              		.cfi_endproc
 396              	.LFE34:
 397              		.size	read_gyro_registry, .-read_gyro_registry
 398              		.section	.rodata
 399              		.align	2
 400              	.LC8:
 401 0040 4779726F 		.ascii	"Gyro started\015\012\000"
 401      20737461 
 401      72746564 
 401      0D0A00
 402              		.section	.text.gyro_start,"ax",%progbits
 403              		.align	2
 404              		.global	gyro_start
 405              		.code	16
 406              		.thumb_func
 407              		.type	gyro_start, %function
 408              	gyro_start:
 409              	.LFB35:
 120:.\IMU.c       **** 
 121:.\IMU.c       **** void gyro_start(void)
 122:.\IMU.c       **** {
 410              		.loc 1 122 0
 411              		.cfi_startproc
 412 0000 80B5     		push	{r7, lr}
 413              	.LCFI6:
 414              		.cfi_def_cfa_offset 8
 415              		.cfi_offset 7, -8
 416              		.cfi_offset 14, -4
 417 0002 00AF     		add	r7, sp, #0
 418              	.LCFI7:
 419              		.cfi_def_cfa_register 7
 123:.\IMU.c       ****     // CTRL REG 1
 124:.\IMU.c       **** 	write_gyro_registry(L3GD20H_CTRL_REG1, 0x0F);		// Enabling all axes read out and Power On -> 100 H
 420              		.loc 1 124 0
 421 0004 2020     		mov	r0, #32
 422 0006 0F21     		mov	r1, #15
 423 0008 FFF7FEFF 		bl	write_gyro_registry
 125:.\IMU.c       ****     //UART_1_UartPutNum(read_gyro_registry(L3GD20H_CTRL_REG1));
 126:.\IMU.c       ****     CyDelay(100);
 424              		.loc 1 126 0
 425 000c 6420     		mov	r0, #100
 426 000e FFF7FEFF 		bl	CyDelay
 127:.\IMU.c       ****     // CTRL REG 2
 128:.\IMU.c       **** 	write_gyro_registry(L3GD20H_CTRL_REG2, 0x20);		// Normal Mode of High Pass Filter (High Bits), Fil
 427              		.loc 1 128 0
ARM GAS  C:\Users\SNFU\AppData\Local\Temp\ccn25usr.s 			page 11


 428 0012 2120     		mov	r0, #33
 429 0014 2021     		mov	r1, #32
 430 0016 FFF7FEFF 		bl	write_gyro_registry
 129:.\IMU.c       ****     //UART_1_UartPutNum(read_gyro_registry(L3GD20H_CTRL_REG2));
 130:.\IMU.c       ****     CyDelay(100);
 431              		.loc 1 130 0
 432 001a 6420     		mov	r0, #100
 433 001c FFF7FEFF 		bl	CyDelay
 131:.\IMU.c       ****     // CTRL REG 5
 132:.\IMU.c       **** 	write_gyro_registry(L3GD20H_CTRL_REG5, 0x10);		// High Pass Filter Enable (High Bit 1)
 434              		.loc 1 132 0
 435 0020 2420     		mov	r0, #36
 436 0022 1021     		mov	r1, #16
 437 0024 FFF7FEFF 		bl	write_gyro_registry
 133:.\IMU.c       ****     //UART_1_UartPutNum(read_gyro_registry(L3GD20H_CTRL_REG5));
 134:.\IMU.c       ****     UART_1_UartPutString("Gyro started\r\n");
 438              		.loc 1 134 0
 439 0028 024B     		ldr	r3, .L13
 440 002a 181C     		mov	r0, r3
 441 002c FFF7FEFF 		bl	UART_1_UartPutString
 135:.\IMU.c       **** }
 442              		.loc 1 135 0
 443 0030 BD46     		mov	sp, r7
 444              		@ sp needed for prologue
 445 0032 80BD     		pop	{r7, pc}
 446              	.L14:
 447              		.align	2
 448              	.L13:
 449 0034 40000000 		.word	.LC8
 450              		.cfi_endproc
 451              	.LFE35:
 452              		.size	gyro_start, .-gyro_start
 453              		.global	__aeabi_i2d
 454              		.global	__aeabi_dmul
 455              		.global	__aeabi_d2iz
 456              		.section	.text.gyro_read,"ax",%progbits
 457              		.align	2
 458              		.global	gyro_read
 459              		.code	16
 460              		.thumb_func
 461              		.type	gyro_read, %function
 462              	gyro_read:
 463              	.LFB36:
 136:.\IMU.c       **** 
 137:.\IMU.c       **** // Gyro turn rate reading
 138:.\IMU.c       **** void gyro_read(void)
 139:.\IMU.c       **** {
 464              		.loc 1 139 0
 465              		.cfi_startproc
 466 0000 98B5     		push	{r3, r4, r7, lr}
 467              	.LCFI8:
 468              		.cfi_def_cfa_offset 16
 469              		.cfi_offset 3, -16
 470              		.cfi_offset 4, -12
 471              		.cfi_offset 7, -8
 472              		.cfi_offset 14, -4
 473 0002 00AF     		add	r7, sp, #0
ARM GAS  C:\Users\SNFU\AppData\Local\Temp\ccn25usr.s 			page 12


 474              	.LCFI9:
 475              		.cfi_def_cfa_register 7
 140:.\IMU.c       ****     I2CM_I2CMasterSendStart(L3GD20H_ADDRESS_SA0_HIGH, WRITE);
 476              		.loc 1 140 0
 477 0004 6B20     		mov	r0, #107
 478 0006 0021     		mov	r1, #0
 479 0008 FFF7FEFF 		bl	I2CM_I2CMasterSendStart
 141:.\IMU.c       **** 	I2CM_I2CMasterWriteByte(L3GD20H_OUT_X_L + 0b10000000); // add MSB to activate auto increment
 480              		.loc 1 141 0
 481 000c A820     		mov	r0, #168
 482 000e FFF7FEFF 		bl	I2CM_I2CMasterWriteByte
 142:.\IMU.c       **** 	I2CM_I2CMasterSendRestart(L3GD20H_ADDRESS_SA0_HIGH, READ);
 483              		.loc 1 142 0
 484 0012 6B20     		mov	r0, #107
 485 0014 0121     		mov	r1, #1
 486 0016 FFF7FEFF 		bl	I2CM_I2CMasterSendRestart
 143:.\IMU.c       **** 	gyro_x_l = I2CM_I2CMasterReadByte(ACK);
 487              		.loc 1 143 0
 488 001a 0020     		mov	r0, #0
 489 001c FFF7FEFF 		bl	I2CM_I2CMasterReadByte
 490 0020 031C     		mov	r3, r0
 491 0022 DAB2     		uxtb	r2, r3
 492 0024 4E4B     		ldr	r3, .L18+8
 493 0026 1A70     		strb	r2, [r3]
 144:.\IMU.c       **** 	gyro_x_h = I2CM_I2CMasterReadByte(ACK);
 494              		.loc 1 144 0
 495 0028 0020     		mov	r0, #0
 496 002a FFF7FEFF 		bl	I2CM_I2CMasterReadByte
 497 002e 031C     		mov	r3, r0
 498 0030 DAB2     		uxtb	r2, r3
 499 0032 4C4B     		ldr	r3, .L18+12
 500 0034 1A70     		strb	r2, [r3]
 145:.\IMU.c       ****     gyro_y_l = I2CM_I2CMasterReadByte(ACK);
 501              		.loc 1 145 0
 502 0036 0020     		mov	r0, #0
 503 0038 FFF7FEFF 		bl	I2CM_I2CMasterReadByte
 504 003c 031C     		mov	r3, r0
 505 003e DAB2     		uxtb	r2, r3
 506 0040 494B     		ldr	r3, .L18+16
 507 0042 1A70     		strb	r2, [r3]
 146:.\IMU.c       **** 	gyro_y_h = I2CM_I2CMasterReadByte(ACK);
 508              		.loc 1 146 0
 509 0044 0020     		mov	r0, #0
 510 0046 FFF7FEFF 		bl	I2CM_I2CMasterReadByte
 511 004a 031C     		mov	r3, r0
 512 004c DAB2     		uxtb	r2, r3
 513 004e 474B     		ldr	r3, .L18+20
 514 0050 1A70     		strb	r2, [r3]
 147:.\IMU.c       **** 	gyro_z_l = I2CM_I2CMasterReadByte(ACK);
 515              		.loc 1 147 0
 516 0052 0020     		mov	r0, #0
 517 0054 FFF7FEFF 		bl	I2CM_I2CMasterReadByte
 518 0058 031C     		mov	r3, r0
 519 005a DAB2     		uxtb	r2, r3
 520 005c 444B     		ldr	r3, .L18+24
 521 005e 1A70     		strb	r2, [r3]
 148:.\IMU.c       **** 	gyro_z_h = I2CM_I2CMasterReadByte(NACK);
ARM GAS  C:\Users\SNFU\AppData\Local\Temp\ccn25usr.s 			page 13


 522              		.loc 1 148 0
 523 0060 0120     		mov	r0, #1
 524 0062 FFF7FEFF 		bl	I2CM_I2CMasterReadByte
 525 0066 031C     		mov	r3, r0
 526 0068 DAB2     		uxtb	r2, r3
 527 006a 424B     		ldr	r3, .L18+28
 528 006c 1A70     		strb	r2, [r3]
 149:.\IMU.c       ****     I2CM_I2C_MASTER_GENERATE_STOP;
 529              		.loc 1 149 0
 530 006e 424B     		ldr	r3, .L18+32
 531 0070 424A     		ldr	r2, .L18+36
 532 0072 1168     		ldr	r1, [r2]
 533 0074 2022     		mov	r2, #32
 534 0076 0A40     		and	r2, r1
 535 0078 01D0     		beq	.L16
 536              		.loc 1 149 0 is_stmt 0 discriminator 1
 537 007a 1822     		mov	r2, #24
 538 007c 00E0     		b	.L17
 539              	.L16:
 540              		.loc 1 149 0 discriminator 2
 541 007e 1022     		mov	r2, #16
 542              	.L17:
 543              		.loc 1 149 0 discriminator 3
 544 0080 1A60     		str	r2, [r3]
 150:.\IMU.c       ****     gyro_x = (gyro_x_h<<8) | (gyro_x_l);
 545              		.loc 1 150 0 is_stmt 1 discriminator 3
 546 0082 384B     		ldr	r3, .L18+12
 547 0084 1B78     		ldrb	r3, [r3]
 548 0086 5BB2     		sxtb	r3, r3
 549 0088 1B02     		lsl	r3, r3, #8
 550 008a 9AB2     		uxth	r2, r3
 551 008c 344B     		ldr	r3, .L18+8
 552 008e 1B78     		ldrb	r3, [r3]
 553 0090 1343     		orr	r3, r2
 554 0092 9AB2     		uxth	r2, r3
 555 0094 3A4B     		ldr	r3, .L18+40
 556 0096 1A80     		strh	r2, [r3]
 151:.\IMU.c       **** 	gyro_y = (gyro_y_h<<8) | (gyro_y_l);
 557              		.loc 1 151 0 discriminator 3
 558 0098 344B     		ldr	r3, .L18+20
 559 009a 1B78     		ldrb	r3, [r3]
 560 009c 5BB2     		sxtb	r3, r3
 561 009e 1B02     		lsl	r3, r3, #8
 562 00a0 9AB2     		uxth	r2, r3
 563 00a2 314B     		ldr	r3, .L18+16
 564 00a4 1B78     		ldrb	r3, [r3]
 565 00a6 1343     		orr	r3, r2
 566 00a8 9AB2     		uxth	r2, r3
 567 00aa 364B     		ldr	r3, .L18+44
 568 00ac 1A80     		strh	r2, [r3]
 152:.\IMU.c       **** 	gyro_z = (gyro_z_h<<8) | (gyro_z_l);
 569              		.loc 1 152 0 discriminator 3
 570 00ae 314B     		ldr	r3, .L18+28
 571 00b0 1B78     		ldrb	r3, [r3]
 572 00b2 5BB2     		sxtb	r3, r3
 573 00b4 1B02     		lsl	r3, r3, #8
 574 00b6 9AB2     		uxth	r2, r3
ARM GAS  C:\Users\SNFU\AppData\Local\Temp\ccn25usr.s 			page 14


 575 00b8 2D4B     		ldr	r3, .L18+24
 576 00ba 1B78     		ldrb	r3, [r3]
 577 00bc 1343     		orr	r3, r2
 578 00be 9AB2     		uxth	r2, r3
 579 00c0 314B     		ldr	r3, .L18+48
 580 00c2 1A80     		strh	r2, [r3]
 153:.\IMU.c       ****     turn_rate_p = gyro_x * 0.00875;						// the conversion comes from the default sensitivity value
 581              		.loc 1 153 0 discriminator 3
 582 00c4 2E4B     		ldr	r3, .L18+40
 583 00c6 1B88     		ldrh	r3, [r3]
 584 00c8 1BB2     		sxth	r3, r3
 585 00ca 181C     		mov	r0, r3
 586 00cc FFF7FEFF 		bl	__aeabi_i2d
 587 00d0 031C     		mov	r3, r0
 588 00d2 0C1C     		mov	r4, r1
 589 00d4 181C     		mov	r0, r3
 590 00d6 211C     		mov	r1, r4
 591 00d8 204B     		ldr	r3, .L18+4
 592 00da 1F4A     		ldr	r2, .L18
 593 00dc FFF7FEFF 		bl	__aeabi_dmul
 594 00e0 031C     		mov	r3, r0
 595 00e2 0C1C     		mov	r4, r1
 596 00e4 181C     		mov	r0, r3
 597 00e6 211C     		mov	r1, r4
 598 00e8 FFF7FEFF 		bl	__aeabi_d2iz
 599 00ec 031C     		mov	r3, r0
 600 00ee 9AB2     		uxth	r2, r3
 601 00f0 264B     		ldr	r3, .L18+52
 602 00f2 1A80     		strh	r2, [r3]
 154:.\IMU.c       **** 	turn_rate_q = gyro_y * 0.00875;
 603              		.loc 1 154 0 discriminator 3
 604 00f4 234B     		ldr	r3, .L18+44
 605 00f6 1B88     		ldrh	r3, [r3]
 606 00f8 1BB2     		sxth	r3, r3
 607 00fa 181C     		mov	r0, r3
 608 00fc FFF7FEFF 		bl	__aeabi_i2d
 609 0100 031C     		mov	r3, r0
 610 0102 0C1C     		mov	r4, r1
 611 0104 181C     		mov	r0, r3
 612 0106 211C     		mov	r1, r4
 613 0108 144B     		ldr	r3, .L18+4
 614 010a 134A     		ldr	r2, .L18
 615 010c FFF7FEFF 		bl	__aeabi_dmul
 616 0110 031C     		mov	r3, r0
 617 0112 0C1C     		mov	r4, r1
 618 0114 181C     		mov	r0, r3
 619 0116 211C     		mov	r1, r4
 620 0118 FFF7FEFF 		bl	__aeabi_d2iz
 621 011c 031C     		mov	r3, r0
 622 011e 9AB2     		uxth	r2, r3
 623 0120 1B4B     		ldr	r3, .L18+56
 624 0122 1A80     		strh	r2, [r3]
 155:.\IMU.c       **** 	turn_rate_r = gyro_z * 0.00875;						// see gyro datasheet page 10    
 625              		.loc 1 155 0 discriminator 3
 626 0124 184B     		ldr	r3, .L18+48
 627 0126 1B88     		ldrh	r3, [r3]
 628 0128 1BB2     		sxth	r3, r3
ARM GAS  C:\Users\SNFU\AppData\Local\Temp\ccn25usr.s 			page 15


 629 012a 181C     		mov	r0, r3
 630 012c FFF7FEFF 		bl	__aeabi_i2d
 631 0130 031C     		mov	r3, r0
 632 0132 0C1C     		mov	r4, r1
 633 0134 181C     		mov	r0, r3
 634 0136 211C     		mov	r1, r4
 635 0138 084B     		ldr	r3, .L18+4
 636 013a 074A     		ldr	r2, .L18
 637 013c FFF7FEFF 		bl	__aeabi_dmul
 638 0140 031C     		mov	r3, r0
 639 0142 0C1C     		mov	r4, r1
 640 0144 181C     		mov	r0, r3
 641 0146 211C     		mov	r1, r4
 642 0148 FFF7FEFF 		bl	__aeabi_d2iz
 643 014c 031C     		mov	r3, r0
 644 014e 9AB2     		uxth	r2, r3
 645 0150 104B     		ldr	r3, .L18+60
 646 0152 1A80     		strh	r2, [r3]
 156:.\IMU.c       **** }
 647              		.loc 1 156 0 discriminator 3
 648 0154 BD46     		mov	sp, r7
 649              		@ sp needed for prologue
 650 0156 98BD     		pop	{r3, r4, r7, pc}
 651              	.L19:
 652              		.align	3
 653              	.L18:
 654 0158 EC51B81E 		.word	515396076
 655 015c 85EB813F 		.word	1065479045
 656 0160 00000000 		.word	gyro_x_l
 657 0164 00000000 		.word	gyro_x_h
 658 0168 00000000 		.word	gyro_y_l
 659 016c 00000000 		.word	gyro_y_h
 660 0170 00000000 		.word	gyro_z_l
 661 0174 00000000 		.word	gyro_z_h
 662 0178 68000740 		.word	1074200680
 663 017c 64000740 		.word	1074200676
 664 0180 00000000 		.word	gyro_x
 665 0184 00000000 		.word	gyro_y
 666 0188 00000000 		.word	gyro_z
 667 018c 00000000 		.word	turn_rate_p
 668 0190 00000000 		.word	turn_rate_q
 669 0194 00000000 		.word	turn_rate_r
 670              		.cfi_endproc
 671              	.LFE36:
 672              		.size	gyro_read, .-gyro_read
 673              		.section	.rodata
 674 004f 00       		.align	2
 675              	.LC22:
 676 0050 41434320 		.ascii	"ACC W Add Ok\000"
 676      57204164 
 676      64204F6B 
 676      00
 677 005d 000000   		.align	2
 678              	.LC24:
 679 0060 41434320 		.ascii	"ACC W Reg Ok\000"
 679      57205265 
 679      67204F6B 
ARM GAS  C:\Users\SNFU\AppData\Local\Temp\ccn25usr.s 			page 16


 679      00
 680 006d 000000   		.align	2
 681              	.LC26:
 682 0070 41434320 		.ascii	"ACC W Dat Ok\000"
 682      57204461 
 682      74204F6B 
 682      00
 683 007d 000000   		.align	2
 684              	.LC28:
 685 0080 41434320 		.ascii	"ACC W Stop Ok\000"
 685      57205374 
 685      6F70204F 
 685      6B00
 686              		.section	.text.write_acc_registry,"ax",%progbits
 687              		.align	2
 688              		.global	write_acc_registry
 689              		.code	16
 690              		.thumb_func
 691              		.type	write_acc_registry, %function
 692              	write_acc_registry:
 693              	.LFB37:
 157:.\IMU.c       **** 
 158:.\IMU.c       **** /* ================================= */
 159:.\IMU.c       **** /* ACC & MAG FUNCTIONS					*/
 160:.\IMU.c       **** /* ================================= */
 161:.\IMU.c       **** void write_acc_registry(char registry, char data)
 162:.\IMU.c       **** {
 694              		.loc 1 162 0
 695              		.cfi_startproc
 696 0000 80B5     		push	{r7, lr}
 697              	.LCFI10:
 698              		.cfi_def_cfa_offset 8
 699              		.cfi_offset 7, -8
 700              		.cfi_offset 14, -4
 701 0002 82B0     		sub	sp, sp, #8
 702              	.LCFI11:
 703              		.cfi_def_cfa_offset 16
 704 0004 00AF     		add	r7, sp, #0
 705              	.LCFI12:
 706              		.cfi_def_cfa_register 7
 707 0006 0A1C     		mov	r2, r1
 708 0008 FB1D     		add	r3, r7, #7
 709 000a 011C     		add	r1, r0, #0
 710 000c 1970     		strb	r1, [r3]
 711 000e BB1D     		add	r3, r7, #6
 712 0010 1A70     		strb	r2, [r3]
 163:.\IMU.c       **** 	I2CM_I2CMasterSendStart(LSM303_ADDRESS, WRITE);
 713              		.loc 1 163 0
 714 0012 1D20     		mov	r0, #29
 715 0014 0021     		mov	r1, #0
 716 0016 FFF7FEFF 		bl	I2CM_I2CMasterSendStart
 164:.\IMU.c       **** 	UART_1_UartPutString("ACC W Add Ok");
 717              		.loc 1 164 0
 718 001a 134B     		ldr	r3, .L23
 719 001c 181C     		mov	r0, r3
 720 001e FFF7FEFF 		bl	UART_1_UartPutString
 165:.\IMU.c       **** 	I2CM_I2CMasterWriteByte(registry);
ARM GAS  C:\Users\SNFU\AppData\Local\Temp\ccn25usr.s 			page 17


 721              		.loc 1 165 0
 722 0022 FB1D     		add	r3, r7, #7
 723 0024 1B78     		ldrb	r3, [r3]
 724 0026 181C     		mov	r0, r3
 725 0028 FFF7FEFF 		bl	I2CM_I2CMasterWriteByte
 166:.\IMU.c       ****     UART_1_UartPutString("ACC W Reg Ok");
 726              		.loc 1 166 0
 727 002c 0F4B     		ldr	r3, .L23+4
 728 002e 181C     		mov	r0, r3
 729 0030 FFF7FEFF 		bl	UART_1_UartPutString
 167:.\IMU.c       ****     I2CM_I2CMasterWriteByte(data);
 730              		.loc 1 167 0
 731 0034 BB1D     		add	r3, r7, #6
 732 0036 1B78     		ldrb	r3, [r3]
 733 0038 181C     		mov	r0, r3
 734 003a FFF7FEFF 		bl	I2CM_I2CMasterWriteByte
 168:.\IMU.c       ****     UART_1_UartPutString("ACC W Dat Ok");
 735              		.loc 1 168 0
 736 003e 0C4B     		ldr	r3, .L23+8
 737 0040 181C     		mov	r0, r3
 738 0042 FFF7FEFF 		bl	UART_1_UartPutString
 169:.\IMU.c       ****     I2CM_I2C_MASTER_GENERATE_STOP;
 739              		.loc 1 169 0
 740 0046 0B4B     		ldr	r3, .L23+12
 741 0048 0B4A     		ldr	r2, .L23+16
 742 004a 1168     		ldr	r1, [r2]
 743 004c 2022     		mov	r2, #32
 744 004e 0A40     		and	r2, r1
 745 0050 01D0     		beq	.L21
 746              		.loc 1 169 0 is_stmt 0 discriminator 1
 747 0052 1822     		mov	r2, #24
 748 0054 00E0     		b	.L22
 749              	.L21:
 750              		.loc 1 169 0 discriminator 2
 751 0056 1022     		mov	r2, #16
 752              	.L22:
 753              		.loc 1 169 0 discriminator 3
 754 0058 1A60     		str	r2, [r3]
 170:.\IMU.c       ****     UART_1_UartPutString("ACC W Stop Ok"); 
 755              		.loc 1 170 0 is_stmt 1 discriminator 3
 756 005a 084B     		ldr	r3, .L23+20
 757 005c 181C     		mov	r0, r3
 758 005e FFF7FEFF 		bl	UART_1_UartPutString
 171:.\IMU.c       **** }
 759              		.loc 1 171 0 discriminator 3
 760 0062 BD46     		mov	sp, r7
 761 0064 02B0     		add	sp, sp, #8
 762              		@ sp needed for prologue
 763 0066 80BD     		pop	{r7, pc}
 764              	.L24:
 765              		.align	2
 766              	.L23:
 767 0068 50000000 		.word	.LC22
 768 006c 60000000 		.word	.LC24
 769 0070 70000000 		.word	.LC26
 770 0074 68000740 		.word	1074200680
 771 0078 64000740 		.word	1074200676
ARM GAS  C:\Users\SNFU\AppData\Local\Temp\ccn25usr.s 			page 18


 772 007c 80000000 		.word	.LC28
 773              		.cfi_endproc
 774              	.LFE37:
 775              		.size	write_acc_registry, .-write_acc_registry
 776              		.section	.rodata
 777 008e 0000     		.align	2
 778              	.LC30:
 779 0090 41636320 		.ascii	"Acc started\015\012\000"
 779      73746172 
 779      7465640D 
 779      0A00
 780              		.section	.text.acc_start,"ax",%progbits
 781              		.align	2
 782              		.global	acc_start
 783              		.code	16
 784              		.thumb_func
 785              		.type	acc_start, %function
 786              	acc_start:
 787              	.LFB38:
 172:.\IMU.c       **** void acc_start(void)
 173:.\IMU.c       **** {
 788              		.loc 1 173 0
 789              		.cfi_startproc
 790 0000 80B5     		push	{r7, lr}
 791              	.LCFI13:
 792              		.cfi_def_cfa_offset 8
 793              		.cfi_offset 7, -8
 794              		.cfi_offset 14, -4
 795 0002 00AF     		add	r7, sp, #0
 796              	.LCFI14:
 797              		.cfi_def_cfa_register 7
 174:.\IMU.c       **** 	// CTRL REG 1
 175:.\IMU.c       **** 	write_acc_registry(LSM303_CTRL_REG1, 0x67);		// Enabling all axes read out and Power On -> 100 Hz 
 798              		.loc 1 175 0
 799 0004 2020     		mov	r0, #32
 800 0006 6721     		mov	r1, #103
 801 0008 FFF7FEFF 		bl	write_acc_registry
 176:.\IMU.c       ****     //UART_1_UartPutNum(read_acc_registry(LSM303_CTRL_REG1));
 177:.\IMU.c       ****     // CTRL REG 2
 178:.\IMU.c       **** 	write_acc_registry(LSM303_CTRL_REG2, 0x08);		// FS set to +-4G
 802              		.loc 1 178 0
 803 000c 2120     		mov	r0, #33
 804 000e 0821     		mov	r1, #8
 805 0010 FFF7FEFF 		bl	write_acc_registry
 179:.\IMU.c       ****     //UART_1_UartPutNum(read_acc_registry(LSM303_CTRL_REG2));
 180:.\IMU.c       ****     UART_1_UartPutString("Acc started\r\n");
 806              		.loc 1 180 0
 807 0014 024B     		ldr	r3, .L26
 808 0016 181C     		mov	r0, r3
 809 0018 FFF7FEFF 		bl	UART_1_UartPutString
 181:.\IMU.c       **** }
 810              		.loc 1 181 0
 811 001c BD46     		mov	sp, r7
 812              		@ sp needed for prologue
 813 001e 80BD     		pop	{r7, pc}
 814              	.L27:
 815              		.align	2
ARM GAS  C:\Users\SNFU\AppData\Local\Temp\ccn25usr.s 			page 19


 816              	.L26:
 817 0020 90000000 		.word	.LC30
 818              		.cfi_endproc
 819              	.LFE38:
 820              		.size	acc_start, .-acc_start
 821              		.section	.text.acc_read,"ax",%progbits
 822              		.align	2
 823              		.global	acc_read
 824              		.code	16
 825              		.thumb_func
 826              		.type	acc_read, %function
 827              	acc_read:
 828              	.LFB39:
 182:.\IMU.c       **** 
 183:.\IMU.c       **** void acc_read(void)
 184:.\IMU.c       **** {
 829              		.loc 1 184 0
 830              		.cfi_startproc
 831 0000 98B5     		push	{r3, r4, r7, lr}
 832              	.LCFI15:
 833              		.cfi_def_cfa_offset 16
 834              		.cfi_offset 3, -16
 835              		.cfi_offset 4, -12
 836              		.cfi_offset 7, -8
 837              		.cfi_offset 14, -4
 838 0002 00AF     		add	r7, sp, #0
 839              	.LCFI16:
 840              		.cfi_def_cfa_register 7
 185:.\IMU.c       **** 	I2CM_I2CMasterSendStart(LSM303_ADDRESS, WRITE);
 841              		.loc 1 185 0
 842 0004 1D20     		mov	r0, #29
 843 0006 0021     		mov	r1, #0
 844 0008 FFF7FEFF 		bl	I2CM_I2CMasterSendStart
 186:.\IMU.c       **** 	I2CM_I2CMasterWriteByte(LSM303_ACC_OUT_X_L + 0b10000000); // add MSB to activate auto increment
 845              		.loc 1 186 0
 846 000c A820     		mov	r0, #168
 847 000e FFF7FEFF 		bl	I2CM_I2CMasterWriteByte
 187:.\IMU.c       **** 	I2CM_I2CMasterSendRestart(LSM303_ADDRESS, READ);
 848              		.loc 1 187 0
 849 0012 1D20     		mov	r0, #29
 850 0014 0121     		mov	r1, #1
 851 0016 FFF7FEFF 		bl	I2CM_I2CMasterSendRestart
 188:.\IMU.c       **** 	acc_x_l = I2CM_I2CMasterReadByte(ACK);
 852              		.loc 1 188 0
 853 001a 0020     		mov	r0, #0
 854 001c FFF7FEFF 		bl	I2CM_I2CMasterReadByte
 855 0020 031C     		mov	r3, r0
 856 0022 DAB2     		uxtb	r2, r3
 857 0024 4E4B     		ldr	r3, .L31+8
 858 0026 1A70     		strb	r2, [r3]
 189:.\IMU.c       **** 	acc_x_h = I2CM_I2CMasterReadByte(ACK);
 859              		.loc 1 189 0
 860 0028 0020     		mov	r0, #0
 861 002a FFF7FEFF 		bl	I2CM_I2CMasterReadByte
 862 002e 031C     		mov	r3, r0
 863 0030 DAB2     		uxtb	r2, r3
 864 0032 4C4B     		ldr	r3, .L31+12
ARM GAS  C:\Users\SNFU\AppData\Local\Temp\ccn25usr.s 			page 20


 865 0034 1A70     		strb	r2, [r3]
 190:.\IMU.c       ****     acc_y_l = I2CM_I2CMasterReadByte(ACK);
 866              		.loc 1 190 0
 867 0036 0020     		mov	r0, #0
 868 0038 FFF7FEFF 		bl	I2CM_I2CMasterReadByte
 869 003c 031C     		mov	r3, r0
 870 003e DAB2     		uxtb	r2, r3
 871 0040 494B     		ldr	r3, .L31+16
 872 0042 1A70     		strb	r2, [r3]
 191:.\IMU.c       **** 	acc_y_h = I2CM_I2CMasterReadByte(ACK);
 873              		.loc 1 191 0
 874 0044 0020     		mov	r0, #0
 875 0046 FFF7FEFF 		bl	I2CM_I2CMasterReadByte
 876 004a 031C     		mov	r3, r0
 877 004c DAB2     		uxtb	r2, r3
 878 004e 474B     		ldr	r3, .L31+20
 879 0050 1A70     		strb	r2, [r3]
 192:.\IMU.c       **** 	acc_z_l = I2CM_I2CMasterReadByte(ACK);
 880              		.loc 1 192 0
 881 0052 0020     		mov	r0, #0
 882 0054 FFF7FEFF 		bl	I2CM_I2CMasterReadByte
 883 0058 031C     		mov	r3, r0
 884 005a DAB2     		uxtb	r2, r3
 885 005c 444B     		ldr	r3, .L31+24
 886 005e 1A70     		strb	r2, [r3]
 193:.\IMU.c       **** 	acc_z_h = I2CM_I2CMasterReadByte(NACK);
 887              		.loc 1 193 0
 888 0060 0120     		mov	r0, #1
 889 0062 FFF7FEFF 		bl	I2CM_I2CMasterReadByte
 890 0066 031C     		mov	r3, r0
 891 0068 DAB2     		uxtb	r2, r3
 892 006a 424B     		ldr	r3, .L31+28
 893 006c 1A70     		strb	r2, [r3]
 194:.\IMU.c       ****     I2CM_I2C_MASTER_GENERATE_STOP;
 894              		.loc 1 194 0
 895 006e 424B     		ldr	r3, .L31+32
 896 0070 424A     		ldr	r2, .L31+36
 897 0072 1168     		ldr	r1, [r2]
 898 0074 2022     		mov	r2, #32
 899 0076 0A40     		and	r2, r1
 900 0078 01D0     		beq	.L29
 901              		.loc 1 194 0 is_stmt 0 discriminator 1
 902 007a 1822     		mov	r2, #24
 903 007c 00E0     		b	.L30
 904              	.L29:
 905              		.loc 1 194 0 discriminator 2
 906 007e 1022     		mov	r2, #16
 907              	.L30:
 908              		.loc 1 194 0 discriminator 3
 909 0080 1A60     		str	r2, [r3]
 195:.\IMU.c       ****     acc_x = (acc_x_h<<8) | (acc_x_l);
 910              		.loc 1 195 0 is_stmt 1 discriminator 3
 911 0082 384B     		ldr	r3, .L31+12
 912 0084 1B78     		ldrb	r3, [r3]
 913 0086 5BB2     		sxtb	r3, r3
 914 0088 1B02     		lsl	r3, r3, #8
 915 008a 9AB2     		uxth	r2, r3
ARM GAS  C:\Users\SNFU\AppData\Local\Temp\ccn25usr.s 			page 21


 916 008c 344B     		ldr	r3, .L31+8
 917 008e 1B78     		ldrb	r3, [r3]
 918 0090 1343     		orr	r3, r2
 919 0092 9AB2     		uxth	r2, r3
 920 0094 3A4B     		ldr	r3, .L31+40
 921 0096 1A80     		strh	r2, [r3]
 196:.\IMU.c       **** 	acc_y = (acc_y_h<<8) | (acc_y_l);
 922              		.loc 1 196 0 discriminator 3
 923 0098 344B     		ldr	r3, .L31+20
 924 009a 1B78     		ldrb	r3, [r3]
 925 009c 5BB2     		sxtb	r3, r3
 926 009e 1B02     		lsl	r3, r3, #8
 927 00a0 9AB2     		uxth	r2, r3
 928 00a2 314B     		ldr	r3, .L31+16
 929 00a4 1B78     		ldrb	r3, [r3]
 930 00a6 1343     		orr	r3, r2
 931 00a8 9AB2     		uxth	r2, r3
 932 00aa 364B     		ldr	r3, .L31+44
 933 00ac 1A80     		strh	r2, [r3]
 197:.\IMU.c       **** 	acc_z = (acc_z_h<<8) | (acc_z_l);
 934              		.loc 1 197 0 discriminator 3
 935 00ae 314B     		ldr	r3, .L31+28
 936 00b0 1B78     		ldrb	r3, [r3]
 937 00b2 5BB2     		sxtb	r3, r3
 938 00b4 1B02     		lsl	r3, r3, #8
 939 00b6 9AB2     		uxth	r2, r3
 940 00b8 2D4B     		ldr	r3, .L31+24
 941 00ba 1B78     		ldrb	r3, [r3]
 942 00bc 1343     		orr	r3, r2
 943 00be 9AB2     		uxth	r2, r3
 944 00c0 314B     		ldr	r3, .L31+48
 945 00c2 1A80     		strh	r2, [r3]
 198:.\IMU.c       ****     acc_x_g = acc_x * 0.122;	// milli G										
 946              		.loc 1 198 0 discriminator 3
 947 00c4 2E4B     		ldr	r3, .L31+40
 948 00c6 1B88     		ldrh	r3, [r3]
 949 00c8 1BB2     		sxth	r3, r3
 950 00ca 181C     		mov	r0, r3
 951 00cc FFF7FEFF 		bl	__aeabi_i2d
 952 00d0 031C     		mov	r3, r0
 953 00d2 0C1C     		mov	r4, r1
 954 00d4 181C     		mov	r0, r3
 955 00d6 211C     		mov	r1, r4
 956 00d8 204B     		ldr	r3, .L31+4
 957 00da 1F4A     		ldr	r2, .L31
 958 00dc FFF7FEFF 		bl	__aeabi_dmul
 959 00e0 031C     		mov	r3, r0
 960 00e2 0C1C     		mov	r4, r1
 961 00e4 181C     		mov	r0, r3
 962 00e6 211C     		mov	r1, r4
 963 00e8 FFF7FEFF 		bl	__aeabi_d2iz
 964 00ec 031C     		mov	r3, r0
 965 00ee 9AB2     		uxth	r2, r3
 966 00f0 264B     		ldr	r3, .L31+52
 967 00f2 1A80     		strh	r2, [r3]
 199:.\IMU.c       **** 	acc_y_g = acc_y * 0.122;	// milli G					// Linear Acceleration at 4G gives 0.122mg/bit
 968              		.loc 1 199 0 discriminator 3
ARM GAS  C:\Users\SNFU\AppData\Local\Temp\ccn25usr.s 			page 22


 969 00f4 234B     		ldr	r3, .L31+44
 970 00f6 1B88     		ldrh	r3, [r3]
 971 00f8 1BB2     		sxth	r3, r3
 972 00fa 181C     		mov	r0, r3
 973 00fc FFF7FEFF 		bl	__aeabi_i2d
 974 0100 031C     		mov	r3, r0
 975 0102 0C1C     		mov	r4, r1
 976 0104 181C     		mov	r0, r3
 977 0106 211C     		mov	r1, r4
 978 0108 144B     		ldr	r3, .L31+4
 979 010a 134A     		ldr	r2, .L31
 980 010c FFF7FEFF 		bl	__aeabi_dmul
 981 0110 031C     		mov	r3, r0
 982 0112 0C1C     		mov	r4, r1
 983 0114 181C     		mov	r0, r3
 984 0116 211C     		mov	r1, r4
 985 0118 FFF7FEFF 		bl	__aeabi_d2iz
 986 011c 031C     		mov	r3, r0
 987 011e 9AB2     		uxth	r2, r3
 988 0120 1B4B     		ldr	r3, .L31+56
 989 0122 1A80     		strh	r2, [r3]
 200:.\IMU.c       **** 	acc_z_g = acc_z * 0.122;	// milli G					// see ACC datasheet page 10  
 990              		.loc 1 200 0 discriminator 3
 991 0124 184B     		ldr	r3, .L31+48
 992 0126 1B88     		ldrh	r3, [r3]
 993 0128 1BB2     		sxth	r3, r3
 994 012a 181C     		mov	r0, r3
 995 012c FFF7FEFF 		bl	__aeabi_i2d
 996 0130 031C     		mov	r3, r0
 997 0132 0C1C     		mov	r4, r1
 998 0134 181C     		mov	r0, r3
 999 0136 211C     		mov	r1, r4
 1000 0138 084B     		ldr	r3, .L31+4
 1001 013a 074A     		ldr	r2, .L31
 1002 013c FFF7FEFF 		bl	__aeabi_dmul
 1003 0140 031C     		mov	r3, r0
 1004 0142 0C1C     		mov	r4, r1
 1005 0144 181C     		mov	r0, r3
 1006 0146 211C     		mov	r1, r4
 1007 0148 FFF7FEFF 		bl	__aeabi_d2iz
 1008 014c 031C     		mov	r3, r0
 1009 014e 9AB2     		uxth	r2, r3
 1010 0150 104B     		ldr	r3, .L31+60
 1011 0152 1A80     		strh	r2, [r3]
 201:.\IMU.c       **** }
 1012              		.loc 1 201 0 discriminator 3
 1013 0154 BD46     		mov	sp, r7
 1014              		@ sp needed for prologue
 1015 0156 98BD     		pop	{r3, r4, r7, pc}
 1016              	.L32:
 1017              		.align	3
 1018              	.L31:
 1019 0158 08AC1C5A 		.word	1511828488
 1020 015c 643BBF3F 		.word	1069497188
 1021 0160 00000000 		.word	acc_x_l
 1022 0164 00000000 		.word	acc_x_h
 1023 0168 00000000 		.word	acc_y_l
ARM GAS  C:\Users\SNFU\AppData\Local\Temp\ccn25usr.s 			page 23


 1024 016c 00000000 		.word	acc_y_h
 1025 0170 00000000 		.word	acc_z_l
 1026 0174 00000000 		.word	acc_z_h
 1027 0178 68000740 		.word	1074200680
 1028 017c 64000740 		.word	1074200676
 1029 0180 00000000 		.word	acc_x
 1030 0184 00000000 		.word	acc_y
 1031 0188 00000000 		.word	acc_z
 1032 018c 00000000 		.word	acc_x_g
 1033 0190 00000000 		.word	acc_y_g
 1034 0194 00000000 		.word	acc_z_g
 1035              		.cfi_endproc
 1036              	.LFE39:
 1037              		.size	acc_read, .-acc_read
 1038              		.section	.rodata
 1039 009e 0000     		.align	2
 1040              	.LC44:
 1041 00a0 57204164 		.ascii	"W Add Ok\000"
 1041      64204F6B 
 1041      00
 1042 00a9 000000   		.align	2
 1043              	.LC46:
 1044 00ac 57205265 		.ascii	"W Reg Ok\000"
 1044      67204F6B 
 1044      00
 1045 00b5 000000   		.align	2
 1046              	.LC48:
 1047 00b8 57204461 		.ascii	"W Dat Ok\000"
 1047      74204F6B 
 1047      00
 1048 00c1 000000   		.align	2
 1049              	.LC50:
 1050 00c4 57205374 		.ascii	"W Stop Ok\000"
 1050      6F70204F 
 1050      6B00
 1051              		.section	.text.write_mag_registry,"ax",%progbits
 1052              		.align	2
 1053              		.global	write_mag_registry
 1054              		.code	16
 1055              		.thumb_func
 1056              		.type	write_mag_registry, %function
 1057              	write_mag_registry:
 1058              	.LFB40:
 202:.\IMU.c       **** 
 203:.\IMU.c       **** /* Magnetometer Functions */
 204:.\IMU.c       **** void write_mag_registry(char registry, char data)
 205:.\IMU.c       **** {
 1059              		.loc 1 205 0
 1060              		.cfi_startproc
 1061 0000 80B5     		push	{r7, lr}
 1062              	.LCFI17:
 1063              		.cfi_def_cfa_offset 8
 1064              		.cfi_offset 7, -8
 1065              		.cfi_offset 14, -4
 1066 0002 82B0     		sub	sp, sp, #8
 1067              	.LCFI18:
 1068              		.cfi_def_cfa_offset 16
ARM GAS  C:\Users\SNFU\AppData\Local\Temp\ccn25usr.s 			page 24


 1069 0004 00AF     		add	r7, sp, #0
 1070              	.LCFI19:
 1071              		.cfi_def_cfa_register 7
 1072 0006 0A1C     		mov	r2, r1
 1073 0008 FB1D     		add	r3, r7, #7
 1074 000a 011C     		add	r1, r0, #0
 1075 000c 1970     		strb	r1, [r3]
 1076 000e BB1D     		add	r3, r7, #6
 1077 0010 1A70     		strb	r2, [r3]
 206:.\IMU.c       **** 	I2CM_I2CMasterSendStart(LSM303_ADDRESS, WRITE);
 1078              		.loc 1 206 0
 1079 0012 1D20     		mov	r0, #29
 1080 0014 0021     		mov	r1, #0
 1081 0016 FFF7FEFF 		bl	I2CM_I2CMasterSendStart
 207:.\IMU.c       **** 	UART_1_UartPutString("W Add Ok");
 1082              		.loc 1 207 0
 1083 001a 134B     		ldr	r3, .L36
 1084 001c 181C     		mov	r0, r3
 1085 001e FFF7FEFF 		bl	UART_1_UartPutString
 208:.\IMU.c       **** 	I2CM_I2CMasterWriteByte(registry);
 1086              		.loc 1 208 0
 1087 0022 FB1D     		add	r3, r7, #7
 1088 0024 1B78     		ldrb	r3, [r3]
 1089 0026 181C     		mov	r0, r3
 1090 0028 FFF7FEFF 		bl	I2CM_I2CMasterWriteByte
 209:.\IMU.c       ****     UART_1_UartPutString("W Reg Ok");
 1091              		.loc 1 209 0
 1092 002c 0F4B     		ldr	r3, .L36+4
 1093 002e 181C     		mov	r0, r3
 1094 0030 FFF7FEFF 		bl	UART_1_UartPutString
 210:.\IMU.c       ****     I2CM_I2CMasterWriteByte(data);
 1095              		.loc 1 210 0
 1096 0034 BB1D     		add	r3, r7, #6
 1097 0036 1B78     		ldrb	r3, [r3]
 1098 0038 181C     		mov	r0, r3
 1099 003a FFF7FEFF 		bl	I2CM_I2CMasterWriteByte
 211:.\IMU.c       ****     UART_1_UartPutString("W Dat Ok");
 1100              		.loc 1 211 0
 1101 003e 0C4B     		ldr	r3, .L36+8
 1102 0040 181C     		mov	r0, r3
 1103 0042 FFF7FEFF 		bl	UART_1_UartPutString
 212:.\IMU.c       ****     I2CM_I2C_MASTER_GENERATE_STOP;
 1104              		.loc 1 212 0
 1105 0046 0B4B     		ldr	r3, .L36+12
 1106 0048 0B4A     		ldr	r2, .L36+16
 1107 004a 1168     		ldr	r1, [r2]
 1108 004c 2022     		mov	r2, #32
 1109 004e 0A40     		and	r2, r1
 1110 0050 01D0     		beq	.L34
 1111              		.loc 1 212 0 is_stmt 0 discriminator 1
 1112 0052 1822     		mov	r2, #24
 1113 0054 00E0     		b	.L35
 1114              	.L34:
 1115              		.loc 1 212 0 discriminator 2
 1116 0056 1022     		mov	r2, #16
 1117              	.L35:
 1118              		.loc 1 212 0 discriminator 3
ARM GAS  C:\Users\SNFU\AppData\Local\Temp\ccn25usr.s 			page 25


 1119 0058 1A60     		str	r2, [r3]
 213:.\IMU.c       ****     UART_1_UartPutString("W Stop Ok"); 
 1120              		.loc 1 213 0 is_stmt 1 discriminator 3
 1121 005a 084B     		ldr	r3, .L36+20
 1122 005c 181C     		mov	r0, r3
 1123 005e FFF7FEFF 		bl	UART_1_UartPutString
 214:.\IMU.c       **** }
 1124              		.loc 1 214 0 discriminator 3
 1125 0062 BD46     		mov	sp, r7
 1126 0064 02B0     		add	sp, sp, #8
 1127              		@ sp needed for prologue
 1128 0066 80BD     		pop	{r7, pc}
 1129              	.L37:
 1130              		.align	2
 1131              	.L36:
 1132 0068 A0000000 		.word	.LC44
 1133 006c AC000000 		.word	.LC46
 1134 0070 B8000000 		.word	.LC48
 1135 0074 68000740 		.word	1074200680
 1136 0078 64000740 		.word	1074200676
 1137 007c C4000000 		.word	.LC50
 1138              		.cfi_endproc
 1139              	.LFE40:
 1140              		.size	write_mag_registry, .-write_mag_registry
 1141              		.section	.rodata
 1142 00ce 0000     		.align	2
 1143              	.LC52:
 1144 00d0 4D616720 		.ascii	"Mag started\015\012\000"
 1144      73746172 
 1144      7465640D 
 1144      0A00
 1145 00de 0000     		.section	.text.mag_start,"ax",%progbits
 1146              		.align	2
 1147              		.global	mag_start
 1148              		.code	16
 1149              		.thumb_func
 1150              		.type	mag_start, %function
 1151              	mag_start:
 1152              	.LFB41:
 215:.\IMU.c       **** 
 216:.\IMU.c       **** void mag_start(void)
 217:.\IMU.c       **** {
 1153              		.loc 1 217 0
 1154              		.cfi_startproc
 1155 0000 80B5     		push	{r7, lr}
 1156              	.LCFI20:
 1157              		.cfi_def_cfa_offset 8
 1158              		.cfi_offset 7, -8
 1159              		.cfi_offset 14, -4
 1160 0002 00AF     		add	r7, sp, #0
 1161              	.LCFI21:
 1162              		.cfi_def_cfa_register 7
 218:.\IMU.c       **** 	// CTRL REG 1
 219:.\IMU.c       **** 	write_mag_registry(LSM303_CTRL_REG6, 0x20);		// Magnetometer FS +-4Gauss
 1163              		.loc 1 219 0
 1164 0004 2520     		mov	r0, #37
 1165 0006 2021     		mov	r1, #32
ARM GAS  C:\Users\SNFU\AppData\Local\Temp\ccn25usr.s 			page 26


 1166 0008 FFF7FEFF 		bl	write_mag_registry
 220:.\IMU.c       ****     //UART_1_UartPutNum(read_acc_registry(LSM303_CTRL_REG1));
 221:.\IMU.c       ****     // CTRL REG 2
 222:.\IMU.c       **** 	write_mag_registry(LSM303_CTRL_REG7, 0x00);		// Putting Magnetometer into Continuous Conversion Mo
 1167              		.loc 1 222 0
 1168 000c 2620     		mov	r0, #38
 1169 000e 0021     		mov	r1, #0
 1170 0010 FFF7FEFF 		bl	write_mag_registry
 223:.\IMU.c       ****     //UART_1_UartPutNum(read_acc_registry(LSM303_CTRL_REG2));
 224:.\IMU.c       ****     UART_1_UartPutString("Mag started\r\n");
 1171              		.loc 1 224 0
 1172 0014 024B     		ldr	r3, .L39
 1173 0016 181C     		mov	r0, r3
 1174 0018 FFF7FEFF 		bl	UART_1_UartPutString
 225:.\IMU.c       **** }
 1175              		.loc 1 225 0
 1176 001c BD46     		mov	sp, r7
 1177              		@ sp needed for prologue
 1178 001e 80BD     		pop	{r7, pc}
 1179              	.L40:
 1180              		.align	2
 1181              	.L39:
 1182 0020 D0000000 		.word	.LC52
 1183              		.cfi_endproc
 1184              	.LFE41:
 1185              		.size	mag_start, .-mag_start
 1186              		.section	.text.mag_read,"ax",%progbits
 1187              		.align	2
 1188              		.global	mag_read
 1189              		.code	16
 1190              		.thumb_func
 1191              		.type	mag_read, %function
 1192              	mag_read:
 1193              	.LFB42:
 226:.\IMU.c       **** 
 227:.\IMU.c       **** void mag_read(void)
 228:.\IMU.c       **** {
 1194              		.loc 1 228 0
 1195              		.cfi_startproc
 1196 0000 98B5     		push	{r3, r4, r7, lr}
 1197              	.LCFI22:
 1198              		.cfi_def_cfa_offset 16
 1199              		.cfi_offset 3, -16
 1200              		.cfi_offset 4, -12
 1201              		.cfi_offset 7, -8
 1202              		.cfi_offset 14, -4
 1203 0002 00AF     		add	r7, sp, #0
 1204              	.LCFI23:
 1205              		.cfi_def_cfa_register 7
 229:.\IMU.c       **** 	I2CM_I2CMasterSendStart(LSM303_ADDRESS, WRITE);
 1206              		.loc 1 229 0
 1207 0004 1D20     		mov	r0, #29
 1208 0006 0021     		mov	r1, #0
 1209 0008 FFF7FEFF 		bl	I2CM_I2CMasterSendStart
 230:.\IMU.c       **** 	I2CM_I2CMasterWriteByte(LSM303_MAG_OUT_X_L + 0b10000000); // add MSB to activate auto increment
 1210              		.loc 1 230 0
 1211 000c 8820     		mov	r0, #136
ARM GAS  C:\Users\SNFU\AppData\Local\Temp\ccn25usr.s 			page 27


 1212 000e FFF7FEFF 		bl	I2CM_I2CMasterWriteByte
 231:.\IMU.c       **** 	I2CM_I2CMasterSendRestart(LSM303_ADDRESS, READ);
 1213              		.loc 1 231 0
 1214 0012 1D20     		mov	r0, #29
 1215 0014 0121     		mov	r1, #1
 1216 0016 FFF7FEFF 		bl	I2CM_I2CMasterSendRestart
 232:.\IMU.c       **** 	mag_x_l = I2CM_I2CMasterReadByte(ACK);
 1217              		.loc 1 232 0
 1218 001a 0020     		mov	r0, #0
 1219 001c FFF7FEFF 		bl	I2CM_I2CMasterReadByte
 1220 0020 031C     		mov	r3, r0
 1221 0022 DAB2     		uxtb	r2, r3
 1222 0024 4E4B     		ldr	r3, .L44+8
 1223 0026 1A70     		strb	r2, [r3]
 233:.\IMU.c       **** 	mag_x_h = I2CM_I2CMasterReadByte(ACK);
 1224              		.loc 1 233 0
 1225 0028 0020     		mov	r0, #0
 1226 002a FFF7FEFF 		bl	I2CM_I2CMasterReadByte
 1227 002e 031C     		mov	r3, r0
 1228 0030 DAB2     		uxtb	r2, r3
 1229 0032 4C4B     		ldr	r3, .L44+12
 1230 0034 1A70     		strb	r2, [r3]
 234:.\IMU.c       ****     mag_y_l = I2CM_I2CMasterReadByte(ACK);
 1231              		.loc 1 234 0
 1232 0036 0020     		mov	r0, #0
 1233 0038 FFF7FEFF 		bl	I2CM_I2CMasterReadByte
 1234 003c 031C     		mov	r3, r0
 1235 003e DAB2     		uxtb	r2, r3
 1236 0040 494B     		ldr	r3, .L44+16
 1237 0042 1A70     		strb	r2, [r3]
 235:.\IMU.c       **** 	mag_y_h = I2CM_I2CMasterReadByte(ACK);
 1238              		.loc 1 235 0
 1239 0044 0020     		mov	r0, #0
 1240 0046 FFF7FEFF 		bl	I2CM_I2CMasterReadByte
 1241 004a 031C     		mov	r3, r0
 1242 004c DAB2     		uxtb	r2, r3
 1243 004e 474B     		ldr	r3, .L44+20
 1244 0050 1A70     		strb	r2, [r3]
 236:.\IMU.c       **** 	mag_z_l = I2CM_I2CMasterReadByte(ACK);
 1245              		.loc 1 236 0
 1246 0052 0020     		mov	r0, #0
 1247 0054 FFF7FEFF 		bl	I2CM_I2CMasterReadByte
 1248 0058 031C     		mov	r3, r0
 1249 005a DAB2     		uxtb	r2, r3
 1250 005c 444B     		ldr	r3, .L44+24
 1251 005e 1A70     		strb	r2, [r3]
 237:.\IMU.c       **** 	mag_z_h = I2CM_I2CMasterReadByte(NACK);
 1252              		.loc 1 237 0
 1253 0060 0120     		mov	r0, #1
 1254 0062 FFF7FEFF 		bl	I2CM_I2CMasterReadByte
 1255 0066 031C     		mov	r3, r0
 1256 0068 DAB2     		uxtb	r2, r3
 1257 006a 424B     		ldr	r3, .L44+28
 1258 006c 1A70     		strb	r2, [r3]
 238:.\IMU.c       ****     I2CM_I2C_MASTER_GENERATE_STOP;
 1259              		.loc 1 238 0
 1260 006e 424B     		ldr	r3, .L44+32
ARM GAS  C:\Users\SNFU\AppData\Local\Temp\ccn25usr.s 			page 28


 1261 0070 424A     		ldr	r2, .L44+36
 1262 0072 1168     		ldr	r1, [r2]
 1263 0074 2022     		mov	r2, #32
 1264 0076 0A40     		and	r2, r1
 1265 0078 01D0     		beq	.L42
 1266              		.loc 1 238 0 is_stmt 0 discriminator 1
 1267 007a 1822     		mov	r2, #24
 1268 007c 00E0     		b	.L43
 1269              	.L42:
 1270              		.loc 1 238 0 discriminator 2
 1271 007e 1022     		mov	r2, #16
 1272              	.L43:
 1273              		.loc 1 238 0 discriminator 3
 1274 0080 1A60     		str	r2, [r3]
 239:.\IMU.c       ****     mag_x = (mag_x_h<<8) | (mag_x_l);
 1275              		.loc 1 239 0 is_stmt 1 discriminator 3
 1276 0082 384B     		ldr	r3, .L44+12
 1277 0084 1B78     		ldrb	r3, [r3]
 1278 0086 5BB2     		sxtb	r3, r3
 1279 0088 1B02     		lsl	r3, r3, #8
 1280 008a 9AB2     		uxth	r2, r3
 1281 008c 344B     		ldr	r3, .L44+8
 1282 008e 1B78     		ldrb	r3, [r3]
 1283 0090 1343     		orr	r3, r2
 1284 0092 9AB2     		uxth	r2, r3
 1285 0094 3A4B     		ldr	r3, .L44+40
 1286 0096 1A80     		strh	r2, [r3]
 240:.\IMU.c       **** 	mag_y = (mag_y_h<<8) | (mag_y_l);
 1287              		.loc 1 240 0 discriminator 3
 1288 0098 344B     		ldr	r3, .L44+20
 1289 009a 1B78     		ldrb	r3, [r3]
 1290 009c 5BB2     		sxtb	r3, r3
 1291 009e 1B02     		lsl	r3, r3, #8
 1292 00a0 9AB2     		uxth	r2, r3
 1293 00a2 314B     		ldr	r3, .L44+16
 1294 00a4 1B78     		ldrb	r3, [r3]
 1295 00a6 1343     		orr	r3, r2
 1296 00a8 9AB2     		uxth	r2, r3
 1297 00aa 364B     		ldr	r3, .L44+44
 1298 00ac 1A80     		strh	r2, [r3]
 241:.\IMU.c       **** 	mag_z = (mag_z_h<<8) | (mag_z_l);
 1299              		.loc 1 241 0 discriminator 3
 1300 00ae 314B     		ldr	r3, .L44+28
 1301 00b0 1B78     		ldrb	r3, [r3]
 1302 00b2 5BB2     		sxtb	r3, r3
 1303 00b4 1B02     		lsl	r3, r3, #8
 1304 00b6 9AB2     		uxth	r2, r3
 1305 00b8 2D4B     		ldr	r3, .L44+24
 1306 00ba 1B78     		ldrb	r3, [r3]
 1307 00bc 1343     		orr	r3, r2
 1308 00be 9AB2     		uxth	r2, r3
 1309 00c0 314B     		ldr	r3, .L44+48
 1310 00c2 1A80     		strh	r2, [r3]
 242:.\IMU.c       ****     mag_x_g = mag_x * 0.16;	// milli Gauss									
 1311              		.loc 1 242 0 discriminator 3
 1312 00c4 2E4B     		ldr	r3, .L44+40
 1313 00c6 1B88     		ldrh	r3, [r3]
ARM GAS  C:\Users\SNFU\AppData\Local\Temp\ccn25usr.s 			page 29


 1314 00c8 1BB2     		sxth	r3, r3
 1315 00ca 181C     		mov	r0, r3
 1316 00cc FFF7FEFF 		bl	__aeabi_i2d
 1317 00d0 031C     		mov	r3, r0
 1318 00d2 0C1C     		mov	r4, r1
 1319 00d4 181C     		mov	r0, r3
 1320 00d6 211C     		mov	r1, r4
 1321 00d8 204B     		ldr	r3, .L44+4
 1322 00da 1F4A     		ldr	r2, .L44
 1323 00dc FFF7FEFF 		bl	__aeabi_dmul
 1324 00e0 031C     		mov	r3, r0
 1325 00e2 0C1C     		mov	r4, r1
 1326 00e4 181C     		mov	r0, r3
 1327 00e6 211C     		mov	r1, r4
 1328 00e8 FFF7FEFF 		bl	__aeabi_d2iz
 1329 00ec 031C     		mov	r3, r0
 1330 00ee 9AB2     		uxth	r2, r3
 1331 00f0 264B     		ldr	r3, .L44+52
 1332 00f2 1A80     		strh	r2, [r3]
 243:.\IMU.c       **** 	mag_y_g = mag_y * 0.16;	// milli Gauss			// Magnetic sensitivity at 4Gauss gives 0.16 mgauss/bit
 1333              		.loc 1 243 0 discriminator 3
 1334 00f4 234B     		ldr	r3, .L44+44
 1335 00f6 1B88     		ldrh	r3, [r3]
 1336 00f8 1BB2     		sxth	r3, r3
 1337 00fa 181C     		mov	r0, r3
 1338 00fc FFF7FEFF 		bl	__aeabi_i2d
 1339 0100 031C     		mov	r3, r0
 1340 0102 0C1C     		mov	r4, r1
 1341 0104 181C     		mov	r0, r3
 1342 0106 211C     		mov	r1, r4
 1343 0108 144B     		ldr	r3, .L44+4
 1344 010a 134A     		ldr	r2, .L44
 1345 010c FFF7FEFF 		bl	__aeabi_dmul
 1346 0110 031C     		mov	r3, r0
 1347 0112 0C1C     		mov	r4, r1
 1348 0114 181C     		mov	r0, r3
 1349 0116 211C     		mov	r1, r4
 1350 0118 FFF7FEFF 		bl	__aeabi_d2iz
 1351 011c 031C     		mov	r3, r0
 1352 011e 9AB2     		uxth	r2, r3
 1353 0120 1B4B     		ldr	r3, .L44+56
 1354 0122 1A80     		strh	r2, [r3]
 244:.\IMU.c       **** 	mag_z_g = mag_z * 0.16;	// milli Gauss			// see Mag datasheet page 10  
 1355              		.loc 1 244 0 discriminator 3
 1356 0124 184B     		ldr	r3, .L44+48
 1357 0126 1B88     		ldrh	r3, [r3]
 1358 0128 1BB2     		sxth	r3, r3
 1359 012a 181C     		mov	r0, r3
 1360 012c FFF7FEFF 		bl	__aeabi_i2d
 1361 0130 031C     		mov	r3, r0
 1362 0132 0C1C     		mov	r4, r1
 1363 0134 181C     		mov	r0, r3
 1364 0136 211C     		mov	r1, r4
 1365 0138 084B     		ldr	r3, .L44+4
 1366 013a 074A     		ldr	r2, .L44
 1367 013c FFF7FEFF 		bl	__aeabi_dmul
 1368 0140 031C     		mov	r3, r0
ARM GAS  C:\Users\SNFU\AppData\Local\Temp\ccn25usr.s 			page 30


 1369 0142 0C1C     		mov	r4, r1
 1370 0144 181C     		mov	r0, r3
 1371 0146 211C     		mov	r1, r4
 1372 0148 FFF7FEFF 		bl	__aeabi_d2iz
 1373 014c 031C     		mov	r3, r0
 1374 014e 9AB2     		uxth	r2, r3
 1375 0150 104B     		ldr	r3, .L44+60
 1376 0152 1A80     		strh	r2, [r3]
 245:.\IMU.c       **** }
 1377              		.loc 1 245 0 discriminator 3
 1378 0154 BD46     		mov	sp, r7
 1379              		@ sp needed for prologue
 1380 0156 98BD     		pop	{r3, r4, r7, pc}
 1381              	.L45:
 1382              		.align	3
 1383              	.L44:
 1384 0158 7B14AE47 		.word	1202590843
 1385 015c E17AC43F 		.word	1069841121
 1386 0160 00000000 		.word	mag_x_l
 1387 0164 00000000 		.word	mag_x_h
 1388 0168 00000000 		.word	mag_y_l
 1389 016c 00000000 		.word	mag_y_h
 1390 0170 00000000 		.word	mag_z_l
 1391 0174 00000000 		.word	mag_z_h
 1392 0178 68000740 		.word	1074200680
 1393 017c 64000740 		.word	1074200676
 1394 0180 00000000 		.word	mag_x
 1395 0184 00000000 		.word	mag_y
 1396 0188 00000000 		.word	mag_z
 1397 018c 00000000 		.word	mag_x_g
 1398 0190 00000000 		.word	mag_y_g
 1399 0194 00000000 		.word	mag_z_g
 1400              		.cfi_endproc
 1401              	.LFE42:
 1402              		.size	mag_read, .-mag_read
 1403              		.text
 1404              	.Letext0:
 1405              		.file 2 "c:\\program files\\cypress\\psoc creator\\3.0\\psoc creator\\import\\gnu_cs\\arm\\4.7.3\\
 1406              		.file 3 "./Generated_Source/PSoC4/cytypes.h"
 1407              		.section	.debug_info,"",%progbits
 1408              	.Ldebug_info0:
 1409 0000 25050000 		.4byte	0x525
 1410 0004 0200     		.2byte	0x2
 1411 0006 00000000 		.4byte	.Ldebug_abbrev0
 1412 000a 04       		.byte	0x4
 1413 000b 01       		.uleb128 0x1
 1414 000c 5F020000 		.4byte	.LASF74
 1415 0010 01       		.byte	0x1
 1416 0011 C4020000 		.4byte	.LASF75
 1417 0015 B3000000 		.4byte	.LASF76
 1418 0019 00000000 		.4byte	.Ldebug_ranges0+0
 1419 001d 00000000 		.4byte	0
 1420 0021 00000000 		.4byte	0
 1421 0025 00000000 		.4byte	.Ldebug_line0
 1422 0029 02       		.uleb128 0x2
 1423 002a 31030000 		.4byte	.LASF0
 1424 002e 02       		.byte	0x2
ARM GAS  C:\Users\SNFU\AppData\Local\Temp\ccn25usr.s 			page 31


 1425 002f 29       		.byte	0x29
 1426 0030 34000000 		.4byte	0x34
 1427 0034 03       		.uleb128 0x3
 1428 0035 01       		.byte	0x1
 1429 0036 06       		.byte	0x6
 1430 0037 93000000 		.4byte	.LASF2
 1431 003b 02       		.uleb128 0x2
 1432 003c 63030000 		.4byte	.LASF1
 1433 0040 02       		.byte	0x2
 1434 0041 2A       		.byte	0x2a
 1435 0042 46000000 		.4byte	0x46
 1436 0046 03       		.uleb128 0x3
 1437 0047 01       		.byte	0x1
 1438 0048 08       		.byte	0x8
 1439 0049 B6020000 		.4byte	.LASF3
 1440 004d 02       		.uleb128 0x2
 1441 004e 7D000000 		.4byte	.LASF4
 1442 0052 02       		.byte	0x2
 1443 0053 35       		.byte	0x35
 1444 0054 58000000 		.4byte	0x58
 1445 0058 03       		.uleb128 0x3
 1446 0059 02       		.byte	0x2
 1447 005a 05       		.byte	0x5
 1448 005b CC020000 		.4byte	.LASF5
 1449 005f 03       		.uleb128 0x3
 1450 0060 02       		.byte	0x2
 1451 0061 07       		.byte	0x7
 1452 0062 AF010000 		.4byte	.LASF6
 1453 0066 03       		.uleb128 0x3
 1454 0067 04       		.byte	0x4
 1455 0068 05       		.byte	0x5
 1456 0069 18010000 		.4byte	.LASF7
 1457 006d 03       		.uleb128 0x3
 1458 006e 04       		.byte	0x4
 1459 006f 07       		.byte	0x7
 1460 0070 6E010000 		.4byte	.LASF8
 1461 0074 03       		.uleb128 0x3
 1462 0075 08       		.byte	0x8
 1463 0076 05       		.byte	0x5
 1464 0077 85000000 		.4byte	.LASF9
 1465 007b 03       		.uleb128 0x3
 1466 007c 08       		.byte	0x8
 1467 007d 07       		.byte	0x7
 1468 007e 53000000 		.4byte	.LASF10
 1469 0082 04       		.uleb128 0x4
 1470 0083 04       		.byte	0x4
 1471 0084 05       		.byte	0x5
 1472 0085 696E7400 		.ascii	"int\000"
 1473 0089 03       		.uleb128 0x3
 1474 008a 04       		.byte	0x4
 1475 008b 07       		.byte	0x7
 1476 008c 61010000 		.4byte	.LASF11
 1477 0090 02       		.uleb128 0x2
 1478 0091 4C010000 		.4byte	.LASF12
 1479 0095 03       		.byte	0x3
 1480 0096 5D       		.byte	0x5d
 1481 0097 6D000000 		.4byte	0x6d
ARM GAS  C:\Users\SNFU\AppData\Local\Temp\ccn25usr.s 			page 32


 1482 009b 03       		.uleb128 0x3
 1483 009c 04       		.byte	0x4
 1484 009d 04       		.byte	0x4
 1485 009e 51020000 		.4byte	.LASF13
 1486 00a2 03       		.uleb128 0x3
 1487 00a3 08       		.byte	0x8
 1488 00a4 04       		.byte	0x4
 1489 00a5 39010000 		.4byte	.LASF14
 1490 00a9 03       		.uleb128 0x3
 1491 00aa 01       		.byte	0x1
 1492 00ab 08       		.byte	0x8
 1493 00ac FA020000 		.4byte	.LASF15
 1494 00b0 02       		.uleb128 0x2
 1495 00b1 08020000 		.4byte	.LASF16
 1496 00b5 03       		.byte	0x3
 1497 00b6 F2       		.byte	0xf2
 1498 00b7 BB000000 		.4byte	0xbb
 1499 00bb 05       		.uleb128 0x5
 1500 00bc 90000000 		.4byte	0x90
 1501 00c0 03       		.uleb128 0x3
 1502 00c1 04       		.byte	0x4
 1503 00c2 07       		.byte	0x7
 1504 00c3 38020000 		.4byte	.LASF17
 1505 00c7 06       		.uleb128 0x6
 1506 00c8 01       		.byte	0x1
 1507 00c9 9F000000 		.4byte	.LASF22
 1508 00cd 01       		.byte	0x1
 1509 00ce 62       		.byte	0x62
 1510 00cf 01       		.byte	0x1
 1511 00d0 00000000 		.4byte	.LFB33
 1512 00d4 80000000 		.4byte	.LFE33
 1513 00d8 00000000 		.4byte	.LLST0
 1514 00dc 01       		.byte	0x1
 1515 00dd FE000000 		.4byte	0xfe
 1516 00e1 07       		.uleb128 0x7
 1517 00e2 FF010000 		.4byte	.LASF18
 1518 00e6 01       		.byte	0x1
 1519 00e7 62       		.byte	0x62
 1520 00e8 3B000000 		.4byte	0x3b
 1521 00ec 02       		.byte	0x2
 1522 00ed 91       		.byte	0x91
 1523 00ee 77       		.sleb128 -9
 1524 00ef 07       		.uleb128 0x7
 1525 00f0 AA010000 		.4byte	.LASF19
 1526 00f4 01       		.byte	0x1
 1527 00f5 62       		.byte	0x62
 1528 00f6 3B000000 		.4byte	0x3b
 1529 00fa 02       		.byte	0x2
 1530 00fb 91       		.byte	0x91
 1531 00fc 76       		.sleb128 -10
 1532 00fd 00       		.byte	0
 1533 00fe 08       		.uleb128 0x8
 1534 00ff 01       		.byte	0x1
 1535 0100 05010000 		.4byte	.LASF77
 1536 0104 01       		.byte	0x1
 1537 0105 6E       		.byte	0x6e
 1538 0106 01       		.byte	0x1
ARM GAS  C:\Users\SNFU\AppData\Local\Temp\ccn25usr.s 			page 33


 1539 0107 29000000 		.4byte	0x29
 1540 010b 00000000 		.4byte	.LFB34
 1541 010f 60000000 		.4byte	.LFE34
 1542 0113 38000000 		.4byte	.LLST1
 1543 0117 01       		.byte	0x1
 1544 0118 39010000 		.4byte	0x139
 1545 011c 07       		.uleb128 0x7
 1546 011d FF010000 		.4byte	.LASF18
 1547 0121 01       		.byte	0x1
 1548 0122 6E       		.byte	0x6e
 1549 0123 3B000000 		.4byte	0x3b
 1550 0127 02       		.byte	0x2
 1551 0128 91       		.byte	0x91
 1552 0129 6F       		.sleb128 -17
 1553 012a 09       		.uleb128 0x9
 1554 012b AA010000 		.4byte	.LASF19
 1555 012f 01       		.byte	0x1
 1556 0130 70       		.byte	0x70
 1557 0131 3B000000 		.4byte	0x3b
 1558 0135 02       		.byte	0x2
 1559 0136 91       		.byte	0x91
 1560 0137 77       		.sleb128 -9
 1561 0138 00       		.byte	0
 1562 0139 0A       		.uleb128 0xa
 1563 013a 01       		.byte	0x1
 1564 013b 48000000 		.4byte	.LASF20
 1565 013f 01       		.byte	0x1
 1566 0140 79       		.byte	0x79
 1567 0141 01       		.byte	0x1
 1568 0142 00000000 		.4byte	.LFB35
 1569 0146 38000000 		.4byte	.LFE35
 1570 014a 70000000 		.4byte	.LLST2
 1571 014e 01       		.byte	0x1
 1572 014f 0A       		.uleb128 0xa
 1573 0150 01       		.byte	0x1
 1574 0151 79030000 		.4byte	.LASF21
 1575 0155 01       		.byte	0x1
 1576 0156 8A       		.byte	0x8a
 1577 0157 01       		.byte	0x1
 1578 0158 00000000 		.4byte	.LFB36
 1579 015c 98010000 		.4byte	.LFE36
 1580 0160 9C000000 		.4byte	.LLST3
 1581 0164 01       		.byte	0x1
 1582 0165 06       		.uleb128 0x6
 1583 0166 01       		.byte	0x1
 1584 0167 D4010000 		.4byte	.LASF23
 1585 016b 01       		.byte	0x1
 1586 016c A1       		.byte	0xa1
 1587 016d 01       		.byte	0x1
 1588 016e 00000000 		.4byte	.LFB37
 1589 0172 80000000 		.4byte	.LFE37
 1590 0176 C8000000 		.4byte	.LLST4
 1591 017a 01       		.byte	0x1
 1592 017b 9C010000 		.4byte	0x19c
 1593 017f 07       		.uleb128 0x7
 1594 0180 FF010000 		.4byte	.LASF18
 1595 0184 01       		.byte	0x1
ARM GAS  C:\Users\SNFU\AppData\Local\Temp\ccn25usr.s 			page 34


 1596 0185 A1       		.byte	0xa1
 1597 0186 A9000000 		.4byte	0xa9
 1598 018a 02       		.byte	0x2
 1599 018b 91       		.byte	0x91
 1600 018c 77       		.sleb128 -9
 1601 018d 07       		.uleb128 0x7
 1602 018e AA010000 		.4byte	.LASF19
 1603 0192 01       		.byte	0x1
 1604 0193 A1       		.byte	0xa1
 1605 0194 A9000000 		.4byte	0xa9
 1606 0198 02       		.byte	0x2
 1607 0199 91       		.byte	0x91
 1608 019a 76       		.sleb128 -10
 1609 019b 00       		.byte	0
 1610 019c 0A       		.uleb128 0xa
 1611 019d 01       		.byte	0x1
 1612 019e E8020000 		.4byte	.LASF24
 1613 01a2 01       		.byte	0x1
 1614 01a3 AC       		.byte	0xac
 1615 01a4 01       		.byte	0x1
 1616 01a5 00000000 		.4byte	.LFB38
 1617 01a9 24000000 		.4byte	.LFE38
 1618 01ad 00010000 		.4byte	.LLST5
 1619 01b1 01       		.byte	0x1
 1620 01b2 0A       		.uleb128 0xa
 1621 01b3 01       		.byte	0x1
 1622 01b4 6A000000 		.4byte	.LASF25
 1623 01b8 01       		.byte	0x1
 1624 01b9 B7       		.byte	0xb7
 1625 01ba 01       		.byte	0x1
 1626 01bb 00000000 		.4byte	.LFB39
 1627 01bf 98010000 		.4byte	.LFE39
 1628 01c3 2C010000 		.4byte	.LLST6
 1629 01c7 01       		.byte	0x1
 1630 01c8 06       		.uleb128 0x6
 1631 01c9 01       		.byte	0x1
 1632 01ca 00000000 		.4byte	.LASF26
 1633 01ce 01       		.byte	0x1
 1634 01cf CC       		.byte	0xcc
 1635 01d0 01       		.byte	0x1
 1636 01d1 00000000 		.4byte	.LFB40
 1637 01d5 80000000 		.4byte	.LFE40
 1638 01d9 58010000 		.4byte	.LLST7
 1639 01dd 01       		.byte	0x1
 1640 01de FF010000 		.4byte	0x1ff
 1641 01e2 07       		.uleb128 0x7
 1642 01e3 FF010000 		.4byte	.LASF18
 1643 01e7 01       		.byte	0x1
 1644 01e8 CC       		.byte	0xcc
 1645 01e9 A9000000 		.4byte	0xa9
 1646 01ed 02       		.byte	0x2
 1647 01ee 91       		.byte	0x91
 1648 01ef 77       		.sleb128 -9
 1649 01f0 07       		.uleb128 0x7
 1650 01f1 AA010000 		.4byte	.LASF19
 1651 01f5 01       		.byte	0x1
 1652 01f6 CC       		.byte	0xcc
ARM GAS  C:\Users\SNFU\AppData\Local\Temp\ccn25usr.s 			page 35


 1653 01f7 A9000000 		.4byte	0xa9
 1654 01fb 02       		.byte	0x2
 1655 01fc 91       		.byte	0x91
 1656 01fd 76       		.sleb128 -10
 1657 01fe 00       		.byte	0
 1658 01ff 0A       		.uleb128 0xa
 1659 0200 01       		.byte	0x1
 1660 0201 73000000 		.4byte	.LASF27
 1661 0205 01       		.byte	0x1
 1662 0206 D8       		.byte	0xd8
 1663 0207 01       		.byte	0x1
 1664 0208 00000000 		.4byte	.LFB41
 1665 020c 24000000 		.4byte	.LFE41
 1666 0210 90010000 		.4byte	.LLST8
 1667 0214 01       		.byte	0x1
 1668 0215 0A       		.uleb128 0xa
 1669 0216 01       		.byte	0x1
 1670 0217 41030000 		.4byte	.LASF28
 1671 021b 01       		.byte	0x1
 1672 021c E3       		.byte	0xe3
 1673 021d 01       		.byte	0x1
 1674 021e 00000000 		.4byte	.LFB42
 1675 0222 98010000 		.4byte	.LFE42
 1676 0226 BC010000 		.4byte	.LLST9
 1677 022a 01       		.byte	0x1
 1678 022b 0B       		.uleb128 0xb
 1679 022c 1E000000 		.4byte	.LASF29
 1680 0230 01       		.byte	0x1
 1681 0231 1C       		.byte	0x1c
 1682 0232 29000000 		.4byte	0x29
 1683 0236 01       		.byte	0x1
 1684 0237 05       		.byte	0x5
 1685 0238 03       		.byte	0x3
 1686 0239 00000000 		.4byte	gyro_x_h
 1687 023d 0B       		.uleb128 0xb
 1688 023e 37000000 		.4byte	.LASF30
 1689 0242 01       		.byte	0x1
 1690 0243 1D       		.byte	0x1d
 1691 0244 3B000000 		.4byte	0x3b
 1692 0248 01       		.byte	0x1
 1693 0249 05       		.byte	0x5
 1694 024a 03       		.byte	0x3
 1695 024b 00000000 		.4byte	gyro_x_l
 1696 024f 0B       		.uleb128 0xb
 1697 0250 23020000 		.4byte	.LASF31
 1698 0254 01       		.byte	0x1
 1699 0255 1E       		.byte	0x1e
 1700 0256 4D000000 		.4byte	0x4d
 1701 025a 01       		.byte	0x1
 1702 025b 05       		.byte	0x5
 1703 025c 03       		.byte	0x3
 1704 025d 00000000 		.4byte	gyro_x
 1705 0261 0C       		.uleb128 0xc
 1706 0262 92010000 		.4byte	.LASF32
 1707 0266 01       		.byte	0x1
 1708 0267 1F       		.byte	0x1f
 1709 0268 4D000000 		.4byte	0x4d
ARM GAS  C:\Users\SNFU\AppData\Local\Temp\ccn25usr.s 			page 36


 1710 026c 01       		.byte	0x1
 1711 026d 01       		.byte	0x1
 1712 026e 0B       		.uleb128 0xb
 1713 026f 0E020000 		.4byte	.LASF33
 1714 0273 01       		.byte	0x1
 1715 0274 20       		.byte	0x20
 1716 0275 4D000000 		.4byte	0x4d
 1717 0279 01       		.byte	0x1
 1718 027a 05       		.byte	0x5
 1719 027b 03       		.byte	0x3
 1720 027c 00000000 		.4byte	gyro_p
 1721 0280 0B       		.uleb128 0xb
 1722 0281 38030000 		.4byte	.LASF34
 1723 0285 01       		.byte	0x1
 1724 0286 23       		.byte	0x23
 1725 0287 29000000 		.4byte	0x29
 1726 028b 01       		.byte	0x1
 1727 028c 05       		.byte	0x5
 1728 028d 03       		.byte	0x3
 1729 028e 00000000 		.4byte	gyro_y_h
 1730 0292 0B       		.uleb128 0xb
 1731 0293 52030000 		.4byte	.LASF35
 1732 0297 01       		.byte	0x1
 1733 0298 24       		.byte	0x24
 1734 0299 3B000000 		.4byte	0x3b
 1735 029d 01       		.byte	0x1
 1736 029e 05       		.byte	0x5
 1737 029f 03       		.byte	0x3
 1738 02a0 00000000 		.4byte	gyro_y_l
 1739 02a4 0B       		.uleb128 0xb
 1740 02a5 2A020000 		.4byte	.LASF36
 1741 02a9 01       		.byte	0x1
 1742 02aa 25       		.byte	0x25
 1743 02ab 4D000000 		.4byte	0x4d
 1744 02af 01       		.byte	0x1
 1745 02b0 05       		.byte	0x5
 1746 02b1 03       		.byte	0x3
 1747 02b2 00000000 		.4byte	gyro_y
 1748 02b6 0B       		.uleb128 0xb
 1749 02b7 15020000 		.4byte	.LASF37
 1750 02bb 01       		.byte	0x1
 1751 02bc 26       		.byte	0x26
 1752 02bd 4D000000 		.4byte	0x4d
 1753 02c1 01       		.byte	0x1
 1754 02c2 05       		.byte	0x5
 1755 02c3 03       		.byte	0x3
 1756 02c4 00000000 		.4byte	gyro_q
 1757 02c8 0C       		.uleb128 0xc
 1758 02c9 9E010000 		.4byte	.LASF38
 1759 02cd 01       		.byte	0x1
 1760 02ce 27       		.byte	0x27
 1761 02cf 4D000000 		.4byte	0x4d
 1762 02d3 01       		.byte	0x1
 1763 02d4 01       		.byte	0x1
 1764 02d5 0B       		.uleb128 0xb
 1765 02d6 D6020000 		.4byte	.LASF39
 1766 02da 01       		.byte	0x1
ARM GAS  C:\Users\SNFU\AppData\Local\Temp\ccn25usr.s 			page 37


 1767 02db 2A       		.byte	0x2a
 1768 02dc 29000000 		.4byte	0x29
 1769 02e0 01       		.byte	0x1
 1770 02e1 05       		.byte	0x5
 1771 02e2 03       		.byte	0x3
 1772 02e3 00000000 		.4byte	gyro_z_h
 1773 02e7 0B       		.uleb128 0xb
 1774 02e8 DF020000 		.4byte	.LASF40
 1775 02ec 01       		.byte	0x1
 1776 02ed 2B       		.byte	0x2b
 1777 02ee 3B000000 		.4byte	0x3b
 1778 02f2 01       		.byte	0x1
 1779 02f3 05       		.byte	0x5
 1780 02f4 03       		.byte	0x3
 1781 02f5 00000000 		.4byte	gyro_z_l
 1782 02f9 0B       		.uleb128 0xb
 1783 02fa 31020000 		.4byte	.LASF41
 1784 02fe 01       		.byte	0x1
 1785 02ff 2C       		.byte	0x2c
 1786 0300 4D000000 		.4byte	0x4d
 1787 0304 01       		.byte	0x1
 1788 0305 05       		.byte	0x5
 1789 0306 03       		.byte	0x3
 1790 0307 00000000 		.4byte	gyro_z
 1791 030b 0B       		.uleb128 0xb
 1792 030c 1C020000 		.4byte	.LASF42
 1793 0310 01       		.byte	0x1
 1794 0311 2D       		.byte	0x2d
 1795 0312 4D000000 		.4byte	0x4d
 1796 0316 01       		.byte	0x1
 1797 0317 05       		.byte	0x5
 1798 0318 03       		.byte	0x3
 1799 0319 00000000 		.4byte	gyro_r
 1800 031d 0C       		.uleb128 0xc
 1801 031e 25030000 		.4byte	.LASF43
 1802 0322 01       		.byte	0x1
 1803 0323 2E       		.byte	0x2e
 1804 0324 4D000000 		.4byte	0x4d
 1805 0328 01       		.byte	0x1
 1806 0329 01       		.byte	0x1
 1807 032a 0B       		.uleb128 0xb
 1808 032b 40010000 		.4byte	.LASF44
 1809 032f 01       		.byte	0x1
 1810 0330 31       		.byte	0x31
 1811 0331 29000000 		.4byte	0x29
 1812 0335 01       		.byte	0x1
 1813 0336 05       		.byte	0x5
 1814 0337 03       		.byte	0x3
 1815 0338 00000000 		.4byte	temperature
 1816 033c 0B       		.uleb128 0xb
 1817 033d 53010000 		.4byte	.LASF45
 1818 0341 01       		.byte	0x1
 1819 0342 32       		.byte	0x32
 1820 0343 3B000000 		.4byte	0x3b
 1821 0347 01       		.byte	0x1
 1822 0348 05       		.byte	0x5
 1823 0349 03       		.byte	0x3
ARM GAS  C:\Users\SNFU\AppData\Local\Temp\ccn25usr.s 			page 38


 1824 034a 00000000 		.4byte	temperature_0
 1825 034e 0B       		.uleb128 0xb
 1826 034f 0F030000 		.4byte	.LASF46
 1827 0353 01       		.byte	0x1
 1828 0354 37       		.byte	0x37
 1829 0355 4D000000 		.4byte	0x4d
 1830 0359 01       		.byte	0x1
 1831 035a 05       		.byte	0x5
 1832 035b 03       		.byte	0x3
 1833 035c 00000000 		.4byte	gyro_p_offset
 1834 0360 0B       		.uleb128 0xb
 1835 0361 6B030000 		.4byte	.LASF47
 1836 0365 01       		.byte	0x1
 1837 0366 38       		.byte	0x38
 1838 0367 4D000000 		.4byte	0x4d
 1839 036b 01       		.byte	0x1
 1840 036c 05       		.byte	0x5
 1841 036d 03       		.byte	0x3
 1842 036e 00000000 		.4byte	gyro_q_offset
 1843 0372 0B       		.uleb128 0xb
 1844 0373 A8020000 		.4byte	.LASF48
 1845 0377 01       		.byte	0x1
 1846 0378 39       		.byte	0x39
 1847 0379 4D000000 		.4byte	0x4d
 1848 037d 01       		.byte	0x1
 1849 037e 05       		.byte	0x5
 1850 037f 03       		.byte	0x3
 1851 0380 00000000 		.4byte	gyro_r_offset
 1852 0384 0B       		.uleb128 0xb
 1853 0385 13000000 		.4byte	.LASF49
 1854 0389 01       		.byte	0x1
 1855 038a 3B       		.byte	0x3b
 1856 038b 3B000000 		.4byte	0x3b
 1857 038f 01       		.byte	0x1
 1858 0390 05       		.byte	0x5
 1859 0391 03       		.byte	0x3
 1860 0392 00000000 		.4byte	error_stat
 1861 0396 0B       		.uleb128 0xb
 1862 0397 07030000 		.4byte	.LASF50
 1863 039b 01       		.byte	0x1
 1864 039c 41       		.byte	0x41
 1865 039d 29000000 		.4byte	0x29
 1866 03a1 01       		.byte	0x1
 1867 03a2 05       		.byte	0x5
 1868 03a3 03       		.byte	0x3
 1869 03a4 00000000 		.4byte	acc_x_h
 1870 03a8 0B       		.uleb128 0xb
 1871 03a9 1D030000 		.4byte	.LASF51
 1872 03ad 01       		.byte	0x1
 1873 03ae 42       		.byte	0x42
 1874 03af 3B000000 		.4byte	0x3b
 1875 03b3 01       		.byte	0x1
 1876 03b4 05       		.byte	0x5
 1877 03b5 03       		.byte	0x3
 1878 03b6 00000000 		.4byte	acc_x_l
 1879 03ba 0B       		.uleb128 0xb
 1880 03bb 80010000 		.4byte	.LASF52
ARM GAS  C:\Users\SNFU\AppData\Local\Temp\ccn25usr.s 			page 39


 1881 03bf 01       		.byte	0x1
 1882 03c0 43       		.byte	0x43
 1883 03c1 4D000000 		.4byte	0x4d
 1884 03c5 01       		.byte	0x1
 1885 03c6 05       		.byte	0x5
 1886 03c7 03       		.byte	0x3
 1887 03c8 00000000 		.4byte	acc_x
 1888 03cc 0C       		.uleb128 0xc
 1889 03cd FF020000 		.4byte	.LASF53
 1890 03d1 01       		.byte	0x1
 1891 03d2 44       		.byte	0x44
 1892 03d3 4D000000 		.4byte	0x4d
 1893 03d7 01       		.byte	0x1
 1894 03d8 01       		.byte	0x1
 1895 03d9 0B       		.uleb128 0xb
 1896 03da 49020000 		.4byte	.LASF54
 1897 03de 01       		.byte	0x1
 1898 03df 46       		.byte	0x46
 1899 03e0 29000000 		.4byte	0x29
 1900 03e4 01       		.byte	0x1
 1901 03e5 05       		.byte	0x5
 1902 03e6 03       		.byte	0x3
 1903 03e7 00000000 		.4byte	acc_y_h
 1904 03eb 0B       		.uleb128 0xb
 1905 03ec 57020000 		.4byte	.LASF55
 1906 03f0 01       		.byte	0x1
 1907 03f1 47       		.byte	0x47
 1908 03f2 3B000000 		.4byte	0x3b
 1909 03f6 01       		.byte	0x1
 1910 03f7 05       		.byte	0x5
 1911 03f8 03       		.byte	0x3
 1912 03f9 00000000 		.4byte	acc_y_l
 1913 03fd 0B       		.uleb128 0xb
 1914 03fe 86010000 		.4byte	.LASF56
 1915 0402 01       		.byte	0x1
 1916 0403 48       		.byte	0x48
 1917 0404 4D000000 		.4byte	0x4d
 1918 0408 01       		.byte	0x1
 1919 0409 05       		.byte	0x5
 1920 040a 03       		.byte	0x3
 1921 040b 00000000 		.4byte	acc_y
 1922 040f 0C       		.uleb128 0xc
 1923 0410 41020000 		.4byte	.LASF57
 1924 0414 01       		.byte	0x1
 1925 0415 49       		.byte	0x49
 1926 0416 4D000000 		.4byte	0x4d
 1927 041a 01       		.byte	0x1
 1928 041b 01       		.byte	0x1
 1929 041c 0B       		.uleb128 0xb
 1930 041d EF010000 		.4byte	.LASF58
 1931 0421 01       		.byte	0x1
 1932 0422 4B       		.byte	0x4b
 1933 0423 29000000 		.4byte	0x29
 1934 0427 01       		.byte	0x1
 1935 0428 05       		.byte	0x5
 1936 0429 03       		.byte	0x3
 1937 042a 00000000 		.4byte	acc_z_h
ARM GAS  C:\Users\SNFU\AppData\Local\Temp\ccn25usr.s 			page 40


 1938 042e 0B       		.uleb128 0xb
 1939 042f F7010000 		.4byte	.LASF59
 1940 0433 01       		.byte	0x1
 1941 0434 4C       		.byte	0x4c
 1942 0435 3B000000 		.4byte	0x3b
 1943 0439 01       		.byte	0x1
 1944 043a 05       		.byte	0x5
 1945 043b 03       		.byte	0x3
 1946 043c 00000000 		.4byte	acc_z_l
 1947 0440 0B       		.uleb128 0xb
 1948 0441 8C010000 		.4byte	.LASF60
 1949 0445 01       		.byte	0x1
 1950 0446 4D       		.byte	0x4d
 1951 0447 4D000000 		.4byte	0x4d
 1952 044b 01       		.byte	0x1
 1953 044c 05       		.byte	0x5
 1954 044d 03       		.byte	0x3
 1955 044e 00000000 		.4byte	acc_z
 1956 0452 0C       		.uleb128 0xc
 1957 0453 E7010000 		.4byte	.LASF61
 1958 0457 01       		.byte	0x1
 1959 0458 4E       		.byte	0x4e
 1960 0459 4D000000 		.4byte	0x4d
 1961 045d 01       		.byte	0x1
 1962 045e 01       		.byte	0x1
 1963 045f 0B       		.uleb128 0xb
 1964 0460 29010000 		.4byte	.LASF62
 1965 0464 01       		.byte	0x1
 1966 0465 50       		.byte	0x50
 1967 0466 29000000 		.4byte	0x29
 1968 046a 01       		.byte	0x1
 1969 046b 05       		.byte	0x5
 1970 046c 03       		.byte	0x3
 1971 046d 00000000 		.4byte	mag_x_h
 1972 0471 0B       		.uleb128 0xb
 1973 0472 31010000 		.4byte	.LASF63
 1974 0476 01       		.byte	0x1
 1975 0477 51       		.byte	0x51
 1976 0478 3B000000 		.4byte	0x3b
 1977 047c 01       		.byte	0x1
 1978 047d 05       		.byte	0x5
 1979 047e 03       		.byte	0x3
 1980 047f 00000000 		.4byte	mag_x_l
 1981 0483 0B       		.uleb128 0xb
 1982 0484 C2010000 		.4byte	.LASF64
 1983 0488 01       		.byte	0x1
 1984 0489 52       		.byte	0x52
 1985 048a 4D000000 		.4byte	0x4d
 1986 048e 01       		.byte	0x1
 1987 048f 05       		.byte	0x5
 1988 0490 03       		.byte	0x3
 1989 0491 00000000 		.4byte	mag_x
 1990 0495 0C       		.uleb128 0xc
 1991 0496 21010000 		.4byte	.LASF65
 1992 049a 01       		.byte	0x1
 1993 049b 53       		.byte	0x53
 1994 049c 4D000000 		.4byte	0x4d
ARM GAS  C:\Users\SNFU\AppData\Local\Temp\ccn25usr.s 			page 41


 1995 04a0 01       		.byte	0x1
 1996 04a1 01       		.byte	0x1
 1997 04a2 0B       		.uleb128 0xb
 1998 04a3 2F000000 		.4byte	.LASF66
 1999 04a7 01       		.byte	0x1
 2000 04a8 55       		.byte	0x55
 2001 04a9 29000000 		.4byte	0x29
 2002 04ad 01       		.byte	0x1
 2003 04ae 05       		.byte	0x5
 2004 04af 03       		.byte	0x3
 2005 04b0 00000000 		.4byte	mag_y_h
 2006 04b4 0B       		.uleb128 0xb
 2007 04b5 40000000 		.4byte	.LASF67
 2008 04b9 01       		.byte	0x1
 2009 04ba 56       		.byte	0x56
 2010 04bb 3B000000 		.4byte	0x3b
 2011 04bf 01       		.byte	0x1
 2012 04c0 05       		.byte	0x5
 2013 04c1 03       		.byte	0x3
 2014 04c2 00000000 		.4byte	mag_y_l
 2015 04c6 0B       		.uleb128 0xb
 2016 04c7 C8010000 		.4byte	.LASF68
 2017 04cb 01       		.byte	0x1
 2018 04cc 57       		.byte	0x57
 2019 04cd 4D000000 		.4byte	0x4d
 2020 04d1 01       		.byte	0x1
 2021 04d2 05       		.byte	0x5
 2022 04d3 03       		.byte	0x3
 2023 04d4 00000000 		.4byte	mag_y
 2024 04d8 0C       		.uleb128 0xc
 2025 04d9 27000000 		.4byte	.LASF69
 2026 04dd 01       		.byte	0x1
 2027 04de 58       		.byte	0x58
 2028 04df 4D000000 		.4byte	0x4d
 2029 04e3 01       		.byte	0x1
 2030 04e4 01       		.byte	0x1
 2031 04e5 0B       		.uleb128 0xb
 2032 04e6 4A030000 		.4byte	.LASF70
 2033 04ea 01       		.byte	0x1
 2034 04eb 5A       		.byte	0x5a
 2035 04ec 29000000 		.4byte	0x29
 2036 04f0 01       		.byte	0x1
 2037 04f1 05       		.byte	0x5
 2038 04f2 03       		.byte	0x3
 2039 04f3 00000000 		.4byte	mag_z_h
 2040 04f7 0B       		.uleb128 0xb
 2041 04f8 5B030000 		.4byte	.LASF71
 2042 04fc 01       		.byte	0x1
 2043 04fd 5B       		.byte	0x5b
 2044 04fe 3B000000 		.4byte	0x3b
 2045 0502 01       		.byte	0x1
 2046 0503 05       		.byte	0x5
 2047 0504 03       		.byte	0x3
 2048 0505 00000000 		.4byte	mag_z_l
 2049 0509 0B       		.uleb128 0xb
 2050 050a CE010000 		.4byte	.LASF72
 2051 050e 01       		.byte	0x1
ARM GAS  C:\Users\SNFU\AppData\Local\Temp\ccn25usr.s 			page 42


 2052 050f 5C       		.byte	0x5c
 2053 0510 4D000000 		.4byte	0x4d
 2054 0514 01       		.byte	0x1
 2055 0515 05       		.byte	0x5
 2056 0516 03       		.byte	0x3
 2057 0517 00000000 		.4byte	mag_z
 2058 051b 0C       		.uleb128 0xc
 2059 051c F2020000 		.4byte	.LASF73
 2060 0520 01       		.byte	0x1
 2061 0521 5D       		.byte	0x5d
 2062 0522 4D000000 		.4byte	0x4d
 2063 0526 01       		.byte	0x1
 2064 0527 01       		.byte	0x1
 2065 0528 00       		.byte	0
 2066              		.section	.debug_abbrev,"",%progbits
 2067              	.Ldebug_abbrev0:
 2068 0000 01       		.uleb128 0x1
 2069 0001 11       		.uleb128 0x11
 2070 0002 01       		.byte	0x1
 2071 0003 25       		.uleb128 0x25
 2072 0004 0E       		.uleb128 0xe
 2073 0005 13       		.uleb128 0x13
 2074 0006 0B       		.uleb128 0xb
 2075 0007 03       		.uleb128 0x3
 2076 0008 0E       		.uleb128 0xe
 2077 0009 1B       		.uleb128 0x1b
 2078 000a 0E       		.uleb128 0xe
 2079 000b 55       		.uleb128 0x55
 2080 000c 06       		.uleb128 0x6
 2081 000d 11       		.uleb128 0x11
 2082 000e 01       		.uleb128 0x1
 2083 000f 52       		.uleb128 0x52
 2084 0010 01       		.uleb128 0x1
 2085 0011 10       		.uleb128 0x10
 2086 0012 06       		.uleb128 0x6
 2087 0013 00       		.byte	0
 2088 0014 00       		.byte	0
 2089 0015 02       		.uleb128 0x2
 2090 0016 16       		.uleb128 0x16
 2091 0017 00       		.byte	0
 2092 0018 03       		.uleb128 0x3
 2093 0019 0E       		.uleb128 0xe
 2094 001a 3A       		.uleb128 0x3a
 2095 001b 0B       		.uleb128 0xb
 2096 001c 3B       		.uleb128 0x3b
 2097 001d 0B       		.uleb128 0xb
 2098 001e 49       		.uleb128 0x49
 2099 001f 13       		.uleb128 0x13
 2100 0020 00       		.byte	0
 2101 0021 00       		.byte	0
 2102 0022 03       		.uleb128 0x3
 2103 0023 24       		.uleb128 0x24
 2104 0024 00       		.byte	0
 2105 0025 0B       		.uleb128 0xb
 2106 0026 0B       		.uleb128 0xb
 2107 0027 3E       		.uleb128 0x3e
 2108 0028 0B       		.uleb128 0xb
ARM GAS  C:\Users\SNFU\AppData\Local\Temp\ccn25usr.s 			page 43


 2109 0029 03       		.uleb128 0x3
 2110 002a 0E       		.uleb128 0xe
 2111 002b 00       		.byte	0
 2112 002c 00       		.byte	0
 2113 002d 04       		.uleb128 0x4
 2114 002e 24       		.uleb128 0x24
 2115 002f 00       		.byte	0
 2116 0030 0B       		.uleb128 0xb
 2117 0031 0B       		.uleb128 0xb
 2118 0032 3E       		.uleb128 0x3e
 2119 0033 0B       		.uleb128 0xb
 2120 0034 03       		.uleb128 0x3
 2121 0035 08       		.uleb128 0x8
 2122 0036 00       		.byte	0
 2123 0037 00       		.byte	0
 2124 0038 05       		.uleb128 0x5
 2125 0039 35       		.uleb128 0x35
 2126 003a 00       		.byte	0
 2127 003b 49       		.uleb128 0x49
 2128 003c 13       		.uleb128 0x13
 2129 003d 00       		.byte	0
 2130 003e 00       		.byte	0
 2131 003f 06       		.uleb128 0x6
 2132 0040 2E       		.uleb128 0x2e
 2133 0041 01       		.byte	0x1
 2134 0042 3F       		.uleb128 0x3f
 2135 0043 0C       		.uleb128 0xc
 2136 0044 03       		.uleb128 0x3
 2137 0045 0E       		.uleb128 0xe
 2138 0046 3A       		.uleb128 0x3a
 2139 0047 0B       		.uleb128 0xb
 2140 0048 3B       		.uleb128 0x3b
 2141 0049 0B       		.uleb128 0xb
 2142 004a 27       		.uleb128 0x27
 2143 004b 0C       		.uleb128 0xc
 2144 004c 11       		.uleb128 0x11
 2145 004d 01       		.uleb128 0x1
 2146 004e 12       		.uleb128 0x12
 2147 004f 01       		.uleb128 0x1
 2148 0050 40       		.uleb128 0x40
 2149 0051 06       		.uleb128 0x6
 2150 0052 9642     		.uleb128 0x2116
 2151 0054 0C       		.uleb128 0xc
 2152 0055 01       		.uleb128 0x1
 2153 0056 13       		.uleb128 0x13
 2154 0057 00       		.byte	0
 2155 0058 00       		.byte	0
 2156 0059 07       		.uleb128 0x7
 2157 005a 05       		.uleb128 0x5
 2158 005b 00       		.byte	0
 2159 005c 03       		.uleb128 0x3
 2160 005d 0E       		.uleb128 0xe
 2161 005e 3A       		.uleb128 0x3a
 2162 005f 0B       		.uleb128 0xb
 2163 0060 3B       		.uleb128 0x3b
 2164 0061 0B       		.uleb128 0xb
 2165 0062 49       		.uleb128 0x49
ARM GAS  C:\Users\SNFU\AppData\Local\Temp\ccn25usr.s 			page 44


 2166 0063 13       		.uleb128 0x13
 2167 0064 02       		.uleb128 0x2
 2168 0065 0A       		.uleb128 0xa
 2169 0066 00       		.byte	0
 2170 0067 00       		.byte	0
 2171 0068 08       		.uleb128 0x8
 2172 0069 2E       		.uleb128 0x2e
 2173 006a 01       		.byte	0x1
 2174 006b 3F       		.uleb128 0x3f
 2175 006c 0C       		.uleb128 0xc
 2176 006d 03       		.uleb128 0x3
 2177 006e 0E       		.uleb128 0xe
 2178 006f 3A       		.uleb128 0x3a
 2179 0070 0B       		.uleb128 0xb
 2180 0071 3B       		.uleb128 0x3b
 2181 0072 0B       		.uleb128 0xb
 2182 0073 27       		.uleb128 0x27
 2183 0074 0C       		.uleb128 0xc
 2184 0075 49       		.uleb128 0x49
 2185 0076 13       		.uleb128 0x13
 2186 0077 11       		.uleb128 0x11
 2187 0078 01       		.uleb128 0x1
 2188 0079 12       		.uleb128 0x12
 2189 007a 01       		.uleb128 0x1
 2190 007b 40       		.uleb128 0x40
 2191 007c 06       		.uleb128 0x6
 2192 007d 9642     		.uleb128 0x2116
 2193 007f 0C       		.uleb128 0xc
 2194 0080 01       		.uleb128 0x1
 2195 0081 13       		.uleb128 0x13
 2196 0082 00       		.byte	0
 2197 0083 00       		.byte	0
 2198 0084 09       		.uleb128 0x9
 2199 0085 34       		.uleb128 0x34
 2200 0086 00       		.byte	0
 2201 0087 03       		.uleb128 0x3
 2202 0088 0E       		.uleb128 0xe
 2203 0089 3A       		.uleb128 0x3a
 2204 008a 0B       		.uleb128 0xb
 2205 008b 3B       		.uleb128 0x3b
 2206 008c 0B       		.uleb128 0xb
 2207 008d 49       		.uleb128 0x49
 2208 008e 13       		.uleb128 0x13
 2209 008f 02       		.uleb128 0x2
 2210 0090 0A       		.uleb128 0xa
 2211 0091 00       		.byte	0
 2212 0092 00       		.byte	0
 2213 0093 0A       		.uleb128 0xa
 2214 0094 2E       		.uleb128 0x2e
 2215 0095 00       		.byte	0
 2216 0096 3F       		.uleb128 0x3f
 2217 0097 0C       		.uleb128 0xc
 2218 0098 03       		.uleb128 0x3
 2219 0099 0E       		.uleb128 0xe
 2220 009a 3A       		.uleb128 0x3a
 2221 009b 0B       		.uleb128 0xb
 2222 009c 3B       		.uleb128 0x3b
ARM GAS  C:\Users\SNFU\AppData\Local\Temp\ccn25usr.s 			page 45


 2223 009d 0B       		.uleb128 0xb
 2224 009e 27       		.uleb128 0x27
 2225 009f 0C       		.uleb128 0xc
 2226 00a0 11       		.uleb128 0x11
 2227 00a1 01       		.uleb128 0x1
 2228 00a2 12       		.uleb128 0x12
 2229 00a3 01       		.uleb128 0x1
 2230 00a4 40       		.uleb128 0x40
 2231 00a5 06       		.uleb128 0x6
 2232 00a6 9642     		.uleb128 0x2116
 2233 00a8 0C       		.uleb128 0xc
 2234 00a9 00       		.byte	0
 2235 00aa 00       		.byte	0
 2236 00ab 0B       		.uleb128 0xb
 2237 00ac 34       		.uleb128 0x34
 2238 00ad 00       		.byte	0
 2239 00ae 03       		.uleb128 0x3
 2240 00af 0E       		.uleb128 0xe
 2241 00b0 3A       		.uleb128 0x3a
 2242 00b1 0B       		.uleb128 0xb
 2243 00b2 3B       		.uleb128 0x3b
 2244 00b3 0B       		.uleb128 0xb
 2245 00b4 49       		.uleb128 0x49
 2246 00b5 13       		.uleb128 0x13
 2247 00b6 3F       		.uleb128 0x3f
 2248 00b7 0C       		.uleb128 0xc
 2249 00b8 02       		.uleb128 0x2
 2250 00b9 0A       		.uleb128 0xa
 2251 00ba 00       		.byte	0
 2252 00bb 00       		.byte	0
 2253 00bc 0C       		.uleb128 0xc
 2254 00bd 34       		.uleb128 0x34
 2255 00be 00       		.byte	0
 2256 00bf 03       		.uleb128 0x3
 2257 00c0 0E       		.uleb128 0xe
 2258 00c1 3A       		.uleb128 0x3a
 2259 00c2 0B       		.uleb128 0xb
 2260 00c3 3B       		.uleb128 0x3b
 2261 00c4 0B       		.uleb128 0xb
 2262 00c5 49       		.uleb128 0x49
 2263 00c6 13       		.uleb128 0x13
 2264 00c7 3F       		.uleb128 0x3f
 2265 00c8 0C       		.uleb128 0xc
 2266 00c9 3C       		.uleb128 0x3c
 2267 00ca 0C       		.uleb128 0xc
 2268 00cb 00       		.byte	0
 2269 00cc 00       		.byte	0
 2270 00cd 00       		.byte	0
 2271              		.section	.debug_loc,"",%progbits
 2272              	.Ldebug_loc0:
 2273              	.LLST0:
 2274 0000 00000000 		.4byte	.LFB33
 2275 0004 02000000 		.4byte	.LCFI0
 2276 0008 0200     		.2byte	0x2
 2277 000a 7D       		.byte	0x7d
 2278 000b 00       		.sleb128 0
 2279 000c 02000000 		.4byte	.LCFI0
ARM GAS  C:\Users\SNFU\AppData\Local\Temp\ccn25usr.s 			page 46


 2280 0010 04000000 		.4byte	.LCFI1
 2281 0014 0200     		.2byte	0x2
 2282 0016 7D       		.byte	0x7d
 2283 0017 08       		.sleb128 8
 2284 0018 04000000 		.4byte	.LCFI1
 2285 001c 06000000 		.4byte	.LCFI2
 2286 0020 0200     		.2byte	0x2
 2287 0022 7D       		.byte	0x7d
 2288 0023 10       		.sleb128 16
 2289 0024 06000000 		.4byte	.LCFI2
 2290 0028 80000000 		.4byte	.LFE33
 2291 002c 0200     		.2byte	0x2
 2292 002e 77       		.byte	0x77
 2293 002f 10       		.sleb128 16
 2294 0030 00000000 		.4byte	0
 2295 0034 00000000 		.4byte	0
 2296              	.LLST1:
 2297 0038 00000000 		.4byte	.LFB34
 2298 003c 02000000 		.4byte	.LCFI3
 2299 0040 0200     		.2byte	0x2
 2300 0042 7D       		.byte	0x7d
 2301 0043 00       		.sleb128 0
 2302 0044 02000000 		.4byte	.LCFI3
 2303 0048 04000000 		.4byte	.LCFI4
 2304 004c 0200     		.2byte	0x2
 2305 004e 7D       		.byte	0x7d
 2306 004f 08       		.sleb128 8
 2307 0050 04000000 		.4byte	.LCFI4
 2308 0054 06000000 		.4byte	.LCFI5
 2309 0058 0200     		.2byte	0x2
 2310 005a 7D       		.byte	0x7d
 2311 005b 18       		.sleb128 24
 2312 005c 06000000 		.4byte	.LCFI5
 2313 0060 60000000 		.4byte	.LFE34
 2314 0064 0200     		.2byte	0x2
 2315 0066 77       		.byte	0x77
 2316 0067 18       		.sleb128 24
 2317 0068 00000000 		.4byte	0
 2318 006c 00000000 		.4byte	0
 2319              	.LLST2:
 2320 0070 00000000 		.4byte	.LFB35
 2321 0074 02000000 		.4byte	.LCFI6
 2322 0078 0200     		.2byte	0x2
 2323 007a 7D       		.byte	0x7d
 2324 007b 00       		.sleb128 0
 2325 007c 02000000 		.4byte	.LCFI6
 2326 0080 04000000 		.4byte	.LCFI7
 2327 0084 0200     		.2byte	0x2
 2328 0086 7D       		.byte	0x7d
 2329 0087 08       		.sleb128 8
 2330 0088 04000000 		.4byte	.LCFI7
 2331 008c 38000000 		.4byte	.LFE35
 2332 0090 0200     		.2byte	0x2
 2333 0092 77       		.byte	0x77
 2334 0093 08       		.sleb128 8
 2335 0094 00000000 		.4byte	0
 2336 0098 00000000 		.4byte	0
ARM GAS  C:\Users\SNFU\AppData\Local\Temp\ccn25usr.s 			page 47


 2337              	.LLST3:
 2338 009c 00000000 		.4byte	.LFB36
 2339 00a0 02000000 		.4byte	.LCFI8
 2340 00a4 0200     		.2byte	0x2
 2341 00a6 7D       		.byte	0x7d
 2342 00a7 00       		.sleb128 0
 2343 00a8 02000000 		.4byte	.LCFI8
 2344 00ac 04000000 		.4byte	.LCFI9
 2345 00b0 0200     		.2byte	0x2
 2346 00b2 7D       		.byte	0x7d
 2347 00b3 10       		.sleb128 16
 2348 00b4 04000000 		.4byte	.LCFI9
 2349 00b8 98010000 		.4byte	.LFE36
 2350 00bc 0200     		.2byte	0x2
 2351 00be 77       		.byte	0x77
 2352 00bf 10       		.sleb128 16
 2353 00c0 00000000 		.4byte	0
 2354 00c4 00000000 		.4byte	0
 2355              	.LLST4:
 2356 00c8 00000000 		.4byte	.LFB37
 2357 00cc 02000000 		.4byte	.LCFI10
 2358 00d0 0200     		.2byte	0x2
 2359 00d2 7D       		.byte	0x7d
 2360 00d3 00       		.sleb128 0
 2361 00d4 02000000 		.4byte	.LCFI10
 2362 00d8 04000000 		.4byte	.LCFI11
 2363 00dc 0200     		.2byte	0x2
 2364 00de 7D       		.byte	0x7d
 2365 00df 08       		.sleb128 8
 2366 00e0 04000000 		.4byte	.LCFI11
 2367 00e4 06000000 		.4byte	.LCFI12
 2368 00e8 0200     		.2byte	0x2
 2369 00ea 7D       		.byte	0x7d
 2370 00eb 10       		.sleb128 16
 2371 00ec 06000000 		.4byte	.LCFI12
 2372 00f0 80000000 		.4byte	.LFE37
 2373 00f4 0200     		.2byte	0x2
 2374 00f6 77       		.byte	0x77
 2375 00f7 10       		.sleb128 16
 2376 00f8 00000000 		.4byte	0
 2377 00fc 00000000 		.4byte	0
 2378              	.LLST5:
 2379 0100 00000000 		.4byte	.LFB38
 2380 0104 02000000 		.4byte	.LCFI13
 2381 0108 0200     		.2byte	0x2
 2382 010a 7D       		.byte	0x7d
 2383 010b 00       		.sleb128 0
 2384 010c 02000000 		.4byte	.LCFI13
 2385 0110 04000000 		.4byte	.LCFI14
 2386 0114 0200     		.2byte	0x2
 2387 0116 7D       		.byte	0x7d
 2388 0117 08       		.sleb128 8
 2389 0118 04000000 		.4byte	.LCFI14
 2390 011c 24000000 		.4byte	.LFE38
 2391 0120 0200     		.2byte	0x2
 2392 0122 77       		.byte	0x77
 2393 0123 08       		.sleb128 8
ARM GAS  C:\Users\SNFU\AppData\Local\Temp\ccn25usr.s 			page 48


 2394 0124 00000000 		.4byte	0
 2395 0128 00000000 		.4byte	0
 2396              	.LLST6:
 2397 012c 00000000 		.4byte	.LFB39
 2398 0130 02000000 		.4byte	.LCFI15
 2399 0134 0200     		.2byte	0x2
 2400 0136 7D       		.byte	0x7d
 2401 0137 00       		.sleb128 0
 2402 0138 02000000 		.4byte	.LCFI15
 2403 013c 04000000 		.4byte	.LCFI16
 2404 0140 0200     		.2byte	0x2
 2405 0142 7D       		.byte	0x7d
 2406 0143 10       		.sleb128 16
 2407 0144 04000000 		.4byte	.LCFI16
 2408 0148 98010000 		.4byte	.LFE39
 2409 014c 0200     		.2byte	0x2
 2410 014e 77       		.byte	0x77
 2411 014f 10       		.sleb128 16
 2412 0150 00000000 		.4byte	0
 2413 0154 00000000 		.4byte	0
 2414              	.LLST7:
 2415 0158 00000000 		.4byte	.LFB40
 2416 015c 02000000 		.4byte	.LCFI17
 2417 0160 0200     		.2byte	0x2
 2418 0162 7D       		.byte	0x7d
 2419 0163 00       		.sleb128 0
 2420 0164 02000000 		.4byte	.LCFI17
 2421 0168 04000000 		.4byte	.LCFI18
 2422 016c 0200     		.2byte	0x2
 2423 016e 7D       		.byte	0x7d
 2424 016f 08       		.sleb128 8
 2425 0170 04000000 		.4byte	.LCFI18
 2426 0174 06000000 		.4byte	.LCFI19
 2427 0178 0200     		.2byte	0x2
 2428 017a 7D       		.byte	0x7d
 2429 017b 10       		.sleb128 16
 2430 017c 06000000 		.4byte	.LCFI19
 2431 0180 80000000 		.4byte	.LFE40
 2432 0184 0200     		.2byte	0x2
 2433 0186 77       		.byte	0x77
 2434 0187 10       		.sleb128 16
 2435 0188 00000000 		.4byte	0
 2436 018c 00000000 		.4byte	0
 2437              	.LLST8:
 2438 0190 00000000 		.4byte	.LFB41
 2439 0194 02000000 		.4byte	.LCFI20
 2440 0198 0200     		.2byte	0x2
 2441 019a 7D       		.byte	0x7d
 2442 019b 00       		.sleb128 0
 2443 019c 02000000 		.4byte	.LCFI20
 2444 01a0 04000000 		.4byte	.LCFI21
 2445 01a4 0200     		.2byte	0x2
 2446 01a6 7D       		.byte	0x7d
 2447 01a7 08       		.sleb128 8
 2448 01a8 04000000 		.4byte	.LCFI21
 2449 01ac 24000000 		.4byte	.LFE41
 2450 01b0 0200     		.2byte	0x2
ARM GAS  C:\Users\SNFU\AppData\Local\Temp\ccn25usr.s 			page 49


 2451 01b2 77       		.byte	0x77
 2452 01b3 08       		.sleb128 8
 2453 01b4 00000000 		.4byte	0
 2454 01b8 00000000 		.4byte	0
 2455              	.LLST9:
 2456 01bc 00000000 		.4byte	.LFB42
 2457 01c0 02000000 		.4byte	.LCFI22
 2458 01c4 0200     		.2byte	0x2
 2459 01c6 7D       		.byte	0x7d
 2460 01c7 00       		.sleb128 0
 2461 01c8 02000000 		.4byte	.LCFI22
 2462 01cc 04000000 		.4byte	.LCFI23
 2463 01d0 0200     		.2byte	0x2
 2464 01d2 7D       		.byte	0x7d
 2465 01d3 10       		.sleb128 16
 2466 01d4 04000000 		.4byte	.LCFI23
 2467 01d8 98010000 		.4byte	.LFE42
 2468 01dc 0200     		.2byte	0x2
 2469 01de 77       		.byte	0x77
 2470 01df 10       		.sleb128 16
 2471 01e0 00000000 		.4byte	0
 2472 01e4 00000000 		.4byte	0
 2473              		.section	.debug_aranges,"",%progbits
 2474 0000 64000000 		.4byte	0x64
 2475 0004 0200     		.2byte	0x2
 2476 0006 00000000 		.4byte	.Ldebug_info0
 2477 000a 04       		.byte	0x4
 2478 000b 00       		.byte	0
 2479 000c 0000     		.2byte	0
 2480 000e 0000     		.2byte	0
 2481 0010 00000000 		.4byte	.LFB33
 2482 0014 80000000 		.4byte	.LFE33-.LFB33
 2483 0018 00000000 		.4byte	.LFB34
 2484 001c 60000000 		.4byte	.LFE34-.LFB34
 2485 0020 00000000 		.4byte	.LFB35
 2486 0024 38000000 		.4byte	.LFE35-.LFB35
 2487 0028 00000000 		.4byte	.LFB36
 2488 002c 98010000 		.4byte	.LFE36-.LFB36
 2489 0030 00000000 		.4byte	.LFB37
 2490 0034 80000000 		.4byte	.LFE37-.LFB37
 2491 0038 00000000 		.4byte	.LFB38
 2492 003c 24000000 		.4byte	.LFE38-.LFB38
 2493 0040 00000000 		.4byte	.LFB39
 2494 0044 98010000 		.4byte	.LFE39-.LFB39
 2495 0048 00000000 		.4byte	.LFB40
 2496 004c 80000000 		.4byte	.LFE40-.LFB40
 2497 0050 00000000 		.4byte	.LFB41
 2498 0054 24000000 		.4byte	.LFE41-.LFB41
 2499 0058 00000000 		.4byte	.LFB42
 2500 005c 98010000 		.4byte	.LFE42-.LFB42
 2501 0060 00000000 		.4byte	0
 2502 0064 00000000 		.4byte	0
 2503              		.section	.debug_ranges,"",%progbits
 2504              	.Ldebug_ranges0:
 2505 0000 00000000 		.4byte	.LFB33
 2506 0004 80000000 		.4byte	.LFE33
 2507 0008 00000000 		.4byte	.LFB34
ARM GAS  C:\Users\SNFU\AppData\Local\Temp\ccn25usr.s 			page 50


 2508 000c 60000000 		.4byte	.LFE34
 2509 0010 00000000 		.4byte	.LFB35
 2510 0014 38000000 		.4byte	.LFE35
 2511 0018 00000000 		.4byte	.LFB36
 2512 001c 98010000 		.4byte	.LFE36
 2513 0020 00000000 		.4byte	.LFB37
 2514 0024 80000000 		.4byte	.LFE37
 2515 0028 00000000 		.4byte	.LFB38
 2516 002c 24000000 		.4byte	.LFE38
 2517 0030 00000000 		.4byte	.LFB39
 2518 0034 98010000 		.4byte	.LFE39
 2519 0038 00000000 		.4byte	.LFB40
 2520 003c 80000000 		.4byte	.LFE40
 2521 0040 00000000 		.4byte	.LFB41
 2522 0044 24000000 		.4byte	.LFE41
 2523 0048 00000000 		.4byte	.LFB42
 2524 004c 98010000 		.4byte	.LFE42
 2525 0050 00000000 		.4byte	0
 2526 0054 00000000 		.4byte	0
 2527              		.section	.debug_line,"",%progbits
 2528              	.Ldebug_line0:
 2529 0000 E2020000 		.section	.debug_str,"MS",%progbits,1
 2529      0200E400 
 2529      00000201 
 2529      FB0E0D00 
 2529      01010101 
 2530              	.LASF26:
 2531 0000 77726974 		.ascii	"write_mag_registry\000"
 2531      655F6D61 
 2531      675F7265 
 2531      67697374 
 2531      727900
 2532              	.LASF49:
 2533 0013 6572726F 		.ascii	"error_stat\000"
 2533      725F7374 
 2533      617400
 2534              	.LASF29:
 2535 001e 6779726F 		.ascii	"gyro_x_h\000"
 2535      5F785F68 
 2535      00
 2536              	.LASF69:
 2537 0027 6D61675F 		.ascii	"mag_y_g\000"
 2537      795F6700 
 2538              	.LASF66:
 2539 002f 6D61675F 		.ascii	"mag_y_h\000"
 2539      795F6800 
 2540              	.LASF30:
 2541 0037 6779726F 		.ascii	"gyro_x_l\000"
 2541      5F785F6C 
 2541      00
 2542              	.LASF67:
 2543 0040 6D61675F 		.ascii	"mag_y_l\000"
 2543      795F6C00 
 2544              	.LASF20:
 2545 0048 6779726F 		.ascii	"gyro_start\000"
 2545      5F737461 
 2545      727400
ARM GAS  C:\Users\SNFU\AppData\Local\Temp\ccn25usr.s 			page 51


 2546              	.LASF10:
 2547 0053 6C6F6E67 		.ascii	"long long unsigned int\000"
 2547      206C6F6E 
 2547      6720756E 
 2547      7369676E 
 2547      65642069 
 2548              	.LASF25:
 2549 006a 6163635F 		.ascii	"acc_read\000"
 2549      72656164 
 2549      00
 2550              	.LASF27:
 2551 0073 6D61675F 		.ascii	"mag_start\000"
 2551      73746172 
 2551      7400
 2552              	.LASF4:
 2553 007d 696E7431 		.ascii	"int16_t\000"
 2553      365F7400 
 2554              	.LASF9:
 2555 0085 6C6F6E67 		.ascii	"long long int\000"
 2555      206C6F6E 
 2555      6720696E 
 2555      7400
 2556              	.LASF2:
 2557 0093 7369676E 		.ascii	"signed char\000"
 2557      65642063 
 2557      68617200 
 2558              	.LASF22:
 2559 009f 77726974 		.ascii	"write_gyro_registry\000"
 2559      655F6779 
 2559      726F5F72 
 2559      65676973 
 2559      74727900 
 2560              	.LASF76:
 2561 00b3 433A5C55 		.ascii	"C:\\Users\\SNFU\\Documents\\T-50_UAV_Project\\Softw"
 2561      73657273 
 2561      5C534E46 
 2561      555C446F 
 2561      63756D65 
 2562 00e1 6172655C 		.ascii	"are\\T-50_Project\\T-50_Project.cydsn\000"
 2562      542D3530 
 2562      5F50726F 
 2562      6A656374 
 2562      5C542D35 
 2563              	.LASF77:
 2564 0105 72656164 		.ascii	"read_gyro_registry\000"
 2564      5F677972 
 2564      6F5F7265 
 2564      67697374 
 2564      727900
 2565              	.LASF7:
 2566 0118 6C6F6E67 		.ascii	"long int\000"
 2566      20696E74 
 2566      00
 2567              	.LASF65:
 2568 0121 6D61675F 		.ascii	"mag_x_g\000"
 2568      785F6700 
 2569              	.LASF62:
ARM GAS  C:\Users\SNFU\AppData\Local\Temp\ccn25usr.s 			page 52


 2570 0129 6D61675F 		.ascii	"mag_x_h\000"
 2570      785F6800 
 2571              	.LASF63:
 2572 0131 6D61675F 		.ascii	"mag_x_l\000"
 2572      785F6C00 
 2573              	.LASF14:
 2574 0139 646F7562 		.ascii	"double\000"
 2574      6C6500
 2575              	.LASF44:
 2576 0140 74656D70 		.ascii	"temperature\000"
 2576      65726174 
 2576      75726500 
 2577              	.LASF12:
 2578 014c 75696E74 		.ascii	"uint32\000"
 2578      333200
 2579              	.LASF45:
 2580 0153 74656D70 		.ascii	"temperature_0\000"
 2580      65726174 
 2580      7572655F 
 2580      3000
 2581              	.LASF11:
 2582 0161 756E7369 		.ascii	"unsigned int\000"
 2582      676E6564 
 2582      20696E74 
 2582      00
 2583              	.LASF8:
 2584 016e 6C6F6E67 		.ascii	"long unsigned int\000"
 2584      20756E73 
 2584      69676E65 
 2584      6420696E 
 2584      7400
 2585              	.LASF52:
 2586 0180 6163635F 		.ascii	"acc_x\000"
 2586      7800
 2587              	.LASF56:
 2588 0186 6163635F 		.ascii	"acc_y\000"
 2588      7900
 2589              	.LASF60:
 2590 018c 6163635F 		.ascii	"acc_z\000"
 2590      7A00
 2591              	.LASF32:
 2592 0192 7475726E 		.ascii	"turn_rate_p\000"
 2592      5F726174 
 2592      655F7000 
 2593              	.LASF38:
 2594 019e 7475726E 		.ascii	"turn_rate_q\000"
 2594      5F726174 
 2594      655F7100 
 2595              	.LASF19:
 2596 01aa 64617461 		.ascii	"data\000"
 2596      00
 2597              	.LASF6:
 2598 01af 73686F72 		.ascii	"short unsigned int\000"
 2598      7420756E 
 2598      7369676E 
 2598      65642069 
 2598      6E7400
ARM GAS  C:\Users\SNFU\AppData\Local\Temp\ccn25usr.s 			page 53


 2599              	.LASF64:
 2600 01c2 6D61675F 		.ascii	"mag_x\000"
 2600      7800
 2601              	.LASF68:
 2602 01c8 6D61675F 		.ascii	"mag_y\000"
 2602      7900
 2603              	.LASF72:
 2604 01ce 6D61675F 		.ascii	"mag_z\000"
 2604      7A00
 2605              	.LASF23:
 2606 01d4 77726974 		.ascii	"write_acc_registry\000"
 2606      655F6163 
 2606      635F7265 
 2606      67697374 
 2606      727900
 2607              	.LASF61:
 2608 01e7 6163635F 		.ascii	"acc_z_g\000"
 2608      7A5F6700 
 2609              	.LASF58:
 2610 01ef 6163635F 		.ascii	"acc_z_h\000"
 2610      7A5F6800 
 2611              	.LASF59:
 2612 01f7 6163635F 		.ascii	"acc_z_l\000"
 2612      7A5F6C00 
 2613              	.LASF18:
 2614 01ff 72656769 		.ascii	"registry\000"
 2614      73747279 
 2614      00
 2615              	.LASF16:
 2616 0208 72656733 		.ascii	"reg32\000"
 2616      3200
 2617              	.LASF33:
 2618 020e 6779726F 		.ascii	"gyro_p\000"
 2618      5F7000
 2619              	.LASF37:
 2620 0215 6779726F 		.ascii	"gyro_q\000"
 2620      5F7100
 2621              	.LASF42:
 2622 021c 6779726F 		.ascii	"gyro_r\000"
 2622      5F7200
 2623              	.LASF31:
 2624 0223 6779726F 		.ascii	"gyro_x\000"
 2624      5F7800
 2625              	.LASF36:
 2626 022a 6779726F 		.ascii	"gyro_y\000"
 2626      5F7900
 2627              	.LASF41:
 2628 0231 6779726F 		.ascii	"gyro_z\000"
 2628      5F7A00
 2629              	.LASF17:
 2630 0238 73697A65 		.ascii	"sizetype\000"
 2630      74797065 
 2630      00
 2631              	.LASF57:
 2632 0241 6163635F 		.ascii	"acc_y_g\000"
 2632      795F6700 
 2633              	.LASF54:
ARM GAS  C:\Users\SNFU\AppData\Local\Temp\ccn25usr.s 			page 54


 2634 0249 6163635F 		.ascii	"acc_y_h\000"
 2634      795F6800 
 2635              	.LASF13:
 2636 0251 666C6F61 		.ascii	"float\000"
 2636      7400
 2637              	.LASF55:
 2638 0257 6163635F 		.ascii	"acc_y_l\000"
 2638      795F6C00 
 2639              	.LASF74:
 2640 025f 474E5520 		.ascii	"GNU C 4.7.3 20130312 (release) [ARM/embedded-4_7-br"
 2640      4320342E 
 2640      372E3320 
 2640      32303133 
 2640      30333132 
 2641 0292 616E6368 		.ascii	"anch revision 196615]\000"
 2641      20726576 
 2641      6973696F 
 2641      6E203139 
 2641      36363135 
 2642              	.LASF48:
 2643 02a8 6779726F 		.ascii	"gyro_r_offset\000"
 2643      5F725F6F 
 2643      66667365 
 2643      7400
 2644              	.LASF3:
 2645 02b6 756E7369 		.ascii	"unsigned char\000"
 2645      676E6564 
 2645      20636861 
 2645      7200
 2646              	.LASF75:
 2647 02c4 2E5C494D 		.ascii	".\\IMU.c\000"
 2647      552E6300 
 2648              	.LASF5:
 2649 02cc 73686F72 		.ascii	"short int\000"
 2649      7420696E 
 2649      7400
 2650              	.LASF39:
 2651 02d6 6779726F 		.ascii	"gyro_z_h\000"
 2651      5F7A5F68 
 2651      00
 2652              	.LASF40:
 2653 02df 6779726F 		.ascii	"gyro_z_l\000"
 2653      5F7A5F6C 
 2653      00
 2654              	.LASF24:
 2655 02e8 6163635F 		.ascii	"acc_start\000"
 2655      73746172 
 2655      7400
 2656              	.LASF73:
 2657 02f2 6D61675F 		.ascii	"mag_z_g\000"
 2657      7A5F6700 
 2658              	.LASF15:
 2659 02fa 63686172 		.ascii	"char\000"
 2659      00
 2660              	.LASF53:
 2661 02ff 6163635F 		.ascii	"acc_x_g\000"
 2661      785F6700 
ARM GAS  C:\Users\SNFU\AppData\Local\Temp\ccn25usr.s 			page 55


 2662              	.LASF50:
 2663 0307 6163635F 		.ascii	"acc_x_h\000"
 2663      785F6800 
 2664              	.LASF46:
 2665 030f 6779726F 		.ascii	"gyro_p_offset\000"
 2665      5F705F6F 
 2665      66667365 
 2665      7400
 2666              	.LASF51:
 2667 031d 6163635F 		.ascii	"acc_x_l\000"
 2667      785F6C00 
 2668              	.LASF43:
 2669 0325 7475726E 		.ascii	"turn_rate_r\000"
 2669      5F726174 
 2669      655F7200 
 2670              	.LASF0:
 2671 0331 696E7438 		.ascii	"int8_t\000"
 2671      5F7400
 2672              	.LASF34:
 2673 0338 6779726F 		.ascii	"gyro_y_h\000"
 2673      5F795F68 
 2673      00
 2674              	.LASF28:
 2675 0341 6D61675F 		.ascii	"mag_read\000"
 2675      72656164 
 2675      00
 2676              	.LASF70:
 2677 034a 6D61675F 		.ascii	"mag_z_h\000"
 2677      7A5F6800 
 2678              	.LASF35:
 2679 0352 6779726F 		.ascii	"gyro_y_l\000"
 2679      5F795F6C 
 2679      00
 2680              	.LASF71:
 2681 035b 6D61675F 		.ascii	"mag_z_l\000"
 2681      7A5F6C00 
 2682              	.LASF1:
 2683 0363 75696E74 		.ascii	"uint8_t\000"
 2683      385F7400 
 2684              	.LASF47:
 2685 036b 6779726F 		.ascii	"gyro_q_offset\000"
 2685      5F715F6F 
 2685      66667365 
 2685      7400
 2686              	.LASF21:
 2687 0379 6779726F 		.ascii	"gyro_read\000"
 2687      5F726561 
 2687      6400
 2688              		.ident	"GCC: (GNU Tools for ARM Embedded Processors) 4.7.3 20130312 (release) [ARM/embedded-4_7-br
