ARM GAS  C:\Users\SNFU\AppData\Local\Temp\ccxy2z6Y.s 			page 1


   1              		.cpu cortex-m0
   2              		.fpu softvfp
   3              		.eabi_attribute 20, 1
   4              		.eabi_attribute 21, 1
   5              		.eabi_attribute 23, 3
   6              		.eabi_attribute 24, 1
   7              		.eabi_attribute 25, 1
   8              		.eabi_attribute 26, 1
   9              		.eabi_attribute 30, 6
  10              		.eabi_attribute 34, 0
  11              		.eabi_attribute 18, 4
  12              		.code	16
  13              		.file	"IMU.c"
  14              		.text
  15              	.Ltext0:
  16              		.cfi_sections	.debug_frame
  17              		.global	gyro_x_h
  18              		.bss
  19              		.type	gyro_x_h, %object
  20              		.size	gyro_x_h, 1
  21              	gyro_x_h:
  22 0000 00       		.space	1
  23              		.global	gyro_x_l
  24              		.type	gyro_x_l, %object
  25              		.size	gyro_x_l, 1
  26              	gyro_x_l:
  27 0001 00       		.space	1
  28              		.global	gyro_x
  29              		.align	1
  30              		.type	gyro_x, %object
  31              		.size	gyro_x, 2
  32              	gyro_x:
  33 0002 0000     		.space	2
  34              		.global	gyro_p
  35              		.align	1
  36              		.type	gyro_p, %object
  37              		.size	gyro_p, 2
  38              	gyro_p:
  39 0004 0000     		.space	2
  40              		.global	gyro_y_h
  41              		.type	gyro_y_h, %object
  42              		.size	gyro_y_h, 1
  43              	gyro_y_h:
  44 0006 00       		.space	1
  45              		.global	gyro_y_l
  46              		.type	gyro_y_l, %object
  47              		.size	gyro_y_l, 1
  48              	gyro_y_l:
  49 0007 00       		.space	1
  50              		.global	gyro_y
  51              		.align	1
  52              		.type	gyro_y, %object
  53              		.size	gyro_y, 2
  54              	gyro_y:
  55 0008 0000     		.space	2
  56              		.global	gyro_q
  57              		.align	1
ARM GAS  C:\Users\SNFU\AppData\Local\Temp\ccxy2z6Y.s 			page 2


  58              		.type	gyro_q, %object
  59              		.size	gyro_q, 2
  60              	gyro_q:
  61 000a 0000     		.space	2
  62              		.global	gyro_z_h
  63              		.type	gyro_z_h, %object
  64              		.size	gyro_z_h, 1
  65              	gyro_z_h:
  66 000c 00       		.space	1
  67              		.global	gyro_z_l
  68              		.type	gyro_z_l, %object
  69              		.size	gyro_z_l, 1
  70              	gyro_z_l:
  71 000d 00       		.space	1
  72              		.global	gyro_z
  73              		.align	1
  74              		.type	gyro_z, %object
  75              		.size	gyro_z, 2
  76              	gyro_z:
  77 000e 0000     		.space	2
  78              		.global	gyro_r
  79              		.align	1
  80              		.type	gyro_r, %object
  81              		.size	gyro_r, 2
  82              	gyro_r:
  83 0010 0000     		.space	2
  84              		.global	temperature
  85              		.type	temperature, %object
  86              		.size	temperature, 1
  87              	temperature:
  88 0012 00       		.space	1
  89              		.global	temperature_0
  90              		.data
  91              		.type	temperature_0, %object
  92              		.size	temperature_0, 1
  93              	temperature_0:
  94 0000 32       		.byte	50
  95              		.global	gyro_p_offset
  96              		.bss
  97 0013 00       		.align	1
  98              		.type	gyro_p_offset, %object
  99              		.size	gyro_p_offset, 2
 100              	gyro_p_offset:
 101 0014 0000     		.space	2
 102              		.global	gyro_q_offset
 103              		.align	1
 104              		.type	gyro_q_offset, %object
 105              		.size	gyro_q_offset, 2
 106              	gyro_q_offset:
 107 0016 0000     		.space	2
 108              		.global	gyro_r_offset
 109              		.align	1
 110              		.type	gyro_r_offset, %object
 111              		.size	gyro_r_offset, 2
 112              	gyro_r_offset:
 113 0018 0000     		.space	2
 114              		.global	error_stat
ARM GAS  C:\Users\SNFU\AppData\Local\Temp\ccxy2z6Y.s 			page 3


 115              		.type	error_stat, %object
 116              		.size	error_stat, 1
 117              	error_stat:
 118 001a 00       		.space	1
 119              		.global	acc_x_h
 120              		.type	acc_x_h, %object
 121              		.size	acc_x_h, 1
 122              	acc_x_h:
 123 001b 00       		.space	1
 124              		.global	acc_x_l
 125              		.type	acc_x_l, %object
 126              		.size	acc_x_l, 1
 127              	acc_x_l:
 128 001c 00       		.space	1
 129              		.global	acc_x
 130 001d 00       		.align	1
 131              		.type	acc_x, %object
 132              		.size	acc_x, 2
 133              	acc_x:
 134 001e 0000     		.space	2
 135              		.global	acc_y_h
 136              		.type	acc_y_h, %object
 137              		.size	acc_y_h, 1
 138              	acc_y_h:
 139 0020 00       		.space	1
 140              		.global	acc_y_l
 141              		.type	acc_y_l, %object
 142              		.size	acc_y_l, 1
 143              	acc_y_l:
 144 0021 00       		.space	1
 145              		.global	acc_y
 146              		.align	1
 147              		.type	acc_y, %object
 148              		.size	acc_y, 2
 149              	acc_y:
 150 0022 0000     		.space	2
 151              		.global	acc_z_h
 152              		.type	acc_z_h, %object
 153              		.size	acc_z_h, 1
 154              	acc_z_h:
 155 0024 00       		.space	1
 156              		.global	acc_z_l
 157              		.type	acc_z_l, %object
 158              		.size	acc_z_l, 1
 159              	acc_z_l:
 160 0025 00       		.space	1
 161              		.global	acc_z
 162              		.align	1
 163              		.type	acc_z, %object
 164              		.size	acc_z, 2
 165              	acc_z:
 166 0026 0000     		.space	2
 167              		.global	mag_x_h
 168              		.type	mag_x_h, %object
 169              		.size	mag_x_h, 1
 170              	mag_x_h:
 171 0028 00       		.space	1
ARM GAS  C:\Users\SNFU\AppData\Local\Temp\ccxy2z6Y.s 			page 4


 172              		.global	mag_x_l
 173              		.type	mag_x_l, %object
 174              		.size	mag_x_l, 1
 175              	mag_x_l:
 176 0029 00       		.space	1
 177              		.global	mag_x
 178              		.align	1
 179              		.type	mag_x, %object
 180              		.size	mag_x, 2
 181              	mag_x:
 182 002a 0000     		.space	2
 183              		.global	mag_y_h
 184              		.type	mag_y_h, %object
 185              		.size	mag_y_h, 1
 186              	mag_y_h:
 187 002c 00       		.space	1
 188              		.global	mag_y_l
 189              		.type	mag_y_l, %object
 190              		.size	mag_y_l, 1
 191              	mag_y_l:
 192 002d 00       		.space	1
 193              		.global	mag_y
 194              		.align	1
 195              		.type	mag_y, %object
 196              		.size	mag_y, 2
 197              	mag_y:
 198 002e 0000     		.space	2
 199              		.global	mag_z_h
 200              		.type	mag_z_h, %object
 201              		.size	mag_z_h, 1
 202              	mag_z_h:
 203 0030 00       		.space	1
 204              		.global	mag_z_l
 205              		.type	mag_z_l, %object
 206              		.size	mag_z_l, 1
 207              	mag_z_l:
 208 0031 00       		.space	1
 209              		.global	mag_z
 210              		.align	1
 211              		.type	mag_z, %object
 212              		.size	mag_z, 2
 213              	mag_z:
 214 0032 0000     		.space	2
 215              		.section	.rodata
 216              		.align	2
 217              	.LC0:
 218 0000 47595220 		.ascii	"GYR W Add Ok\015\012\000"
 218      57204164 
 218      64204F6B 
 218      0D0A00
 219 000f 00       		.align	2
 220              	.LC2:
 221 0010 47595220 		.ascii	"GYR W Reg Ok\015\012\000"
 221      57205265 
 221      67204F6B 
 221      0D0A00
 222 001f 00       		.align	2
ARM GAS  C:\Users\SNFU\AppData\Local\Temp\ccxy2z6Y.s 			page 5


 223              	.LC4:
 224 0020 47595220 		.ascii	"GYR W Dat Ok\015\012\000"
 224      57204461 
 224      74204F6B 
 224      0D0A00
 225 002f 00       		.align	2
 226              	.LC6:
 227 0030 47595220 		.ascii	"GYR W Stop Ok\015\012\000"
 227      57205374 
 227      6F70204F 
 227      6B0D0A00 
 228              		.section	.text.write_gyro_registry,"ax",%progbits
 229              		.align	2
 230              		.global	write_gyro_registry
 231              		.code	16
 232              		.thumb_func
 233              		.type	write_gyro_registry, %function
 234              	write_gyro_registry:
 235              	.LFB33:
 236              		.file 1 ".\\IMU.c"
   1:.\IMU.c       **** /* ========================================
   2:.\IMU.c       ****  *
   3:.\IMU.c       ****  * Copyright YOUR COMPANY, THE YEAR
   4:.\IMU.c       ****  * All Rights Reserved
   5:.\IMU.c       ****  * UNPUBLISHED, LICENSED SOFTWARE.
   6:.\IMU.c       ****  *
   7:.\IMU.c       ****  * CONFIDENTIAL AND PROPRIETARY INFORMATION
   8:.\IMU.c       ****  * WHICH IS THE PROPERTY OF your company.
   9:.\IMU.c       ****  *
  10:.\IMU.c       ****  * ========================================
  11:.\IMU.c       **** */
  12:.\IMU.c       **** 
  13:.\IMU.c       **** // #include <project.h>     // this is included in IMU.h file
  14:.\IMU.c       **** #include <IMU.h>
  15:.\IMU.c       **** 
  16:.\IMU.c       **** extern void UART_1_UartPutNum();
  17:.\IMU.c       **** 
  18:.\IMU.c       **** #define READ    1
  19:.\IMU.c       **** #define WRITE   0
  20:.\IMU.c       **** #define ACK     0
  21:.\IMU.c       **** #define NACK    1
  22:.\IMU.c       **** 
  23:.\IMU.c       **** /* ================================= */
  24:.\IMU.c       **** /* GYRO VARIABLES					*/
  25:.\IMU.c       **** /* ================================= */
  26:.\IMU.c       **** 
  27:.\IMU.c       **** /* x component*/
  28:.\IMU.c       **** int8_t	gyro_x_h	= 0;
  29:.\IMU.c       **** uint8_t gyro_x_l	= 0;
  30:.\IMU.c       **** int16_t gyro_x		= 0;
  31:.\IMU.c       **** extern int16_t turn_rate_p;		// from main.c file
  32:.\IMU.c       **** int16_t	gyro_p		= 0;
  33:.\IMU.c       **** 
  34:.\IMU.c       **** /* y component*/
  35:.\IMU.c       **** int8_t	gyro_y_h	= 0;
  36:.\IMU.c       **** uint8_t gyro_y_l	= 0;
  37:.\IMU.c       **** int16_t gyro_y		= 0;
ARM GAS  C:\Users\SNFU\AppData\Local\Temp\ccxy2z6Y.s 			page 6


  38:.\IMU.c       **** int16_t	gyro_q		= 0;
  39:.\IMU.c       **** extern int16_t turn_rate_q;		// from main.c file
  40:.\IMU.c       **** 
  41:.\IMU.c       **** /* z component*/
  42:.\IMU.c       **** int8_t	gyro_z_h	= 0;
  43:.\IMU.c       **** uint8_t gyro_z_l	= 0;
  44:.\IMU.c       **** int16_t gyro_z		= 0;
  45:.\IMU.c       **** int16_t	gyro_r		= 0;
  46:.\IMU.c       **** extern int16_t turn_rate_r;		// from main.c file
  47:.\IMU.c       **** 
  48:.\IMU.c       **** // Gyro temperature
  49:.\IMU.c       **** int8_t	temperature	= 0;
  50:.\IMU.c       **** uint8_t temperature_0	= 50;
  51:.\IMU.c       **** 
  52:.\IMU.c       **** // Gyro Calibration Variables
  53:.\IMU.c       **** // idea: count 100 samples (IMU needs to be steady) and calculate the offset
  54:.\IMU.c       **** 
  55:.\IMU.c       **** int16_t gyro_p_offset = 0;
  56:.\IMU.c       **** int16_t gyro_q_offset = 0;
  57:.\IMU.c       **** int16_t gyro_r_offset = 0;
  58:.\IMU.c       **** //int cal_complete = FALSE;	// Flag to cover if the calibration is complete
  59:.\IMU.c       **** uint8_t error_stat = 0;
  60:.\IMU.c       **** 
  61:.\IMU.c       **** /* ================================= */
  62:.\IMU.c       **** /* ACC & MAG VARIABLES					*/
  63:.\IMU.c       **** /* ================================= */
  64:.\IMU.c       **** 
  65:.\IMU.c       **** int8_t	acc_x_h		= 0;		// high bits of acc x reading
  66:.\IMU.c       **** uint8_t	acc_x_l		= 0;		// low bits of acc x reading
  67:.\IMU.c       **** int16_t acc_x		= 0;		// combined value of acc x reading
  68:.\IMU.c       **** extern int16_t	acc_x_g;		// acc_x from main.c file
  69:.\IMU.c       **** 
  70:.\IMU.c       **** int8_t	acc_y_h		= 0;		// high bits of acc x reading
  71:.\IMU.c       **** uint8_t	acc_y_l		= 0;		// low bits of acc x reading
  72:.\IMU.c       **** int16_t acc_y		= 0;		// combined value of acc x reading
  73:.\IMU.c       **** extern int16_t	acc_y_g;		// acc_y from main.c file
  74:.\IMU.c       **** 
  75:.\IMU.c       **** int8_t	acc_z_h		= 0;		// high bits of acc x reading
  76:.\IMU.c       **** uint8_t	acc_z_l		= 0;		// low bits of acc x reading
  77:.\IMU.c       **** int16_t acc_z		= 0;		// combined value of acc x reading
  78:.\IMU.c       **** extern int16_t	acc_z_g;		// acc_z from main.c file
  79:.\IMU.c       **** 
  80:.\IMU.c       **** int8_t	mag_x_h		= 0;		// high bits of mag x reading
  81:.\IMU.c       **** uint8_t	mag_x_l		= 0;		// low bits of mag x reading
  82:.\IMU.c       **** int16_t mag_x		= 0;		// the value read on the x axis of the magnetometer
  83:.\IMU.c       **** extern int16_t	mag_x_g;		// the geodetic reference frame value of x
  84:.\IMU.c       **** 
  85:.\IMU.c       **** int8_t	mag_y_h		= 0;		// high bits of mag y reading
  86:.\IMU.c       **** uint8_t	mag_y_l		= 0;		// low bits of mag y reading
  87:.\IMU.c       **** int16_t mag_y		= 0;		// the value read on the y axis of the magnetometer
  88:.\IMU.c       **** extern int16_t	mag_y_g;		// the geodetic reference frame value of y
  89:.\IMU.c       **** 
  90:.\IMU.c       **** int8_t	mag_z_h		= 0;		// high bits of mag z reading
  91:.\IMU.c       **** uint8_t	mag_z_l		= 0;		// low bits of mag z reading
  92:.\IMU.c       **** int16_t mag_z	= 0;		// the value read on the z axis of the magnetometer
  93:.\IMU.c       **** extern int16_t	mag_z_g;		// the geodetic reference frame value of y
  94:.\IMU.c       **** 
ARM GAS  C:\Users\SNFU\AppData\Local\Temp\ccxy2z6Y.s 			page 7


  95:.\IMU.c       **** /* ================================= */
  96:.\IMU.c       **** /* GYRO FUNCTIONS					*/
  97:.\IMU.c       **** /* ================================= */
  98:.\IMU.c       **** void write_gyro_registry(uint8_t registry, uint8_t data)
  99:.\IMU.c       **** {
 237              		.loc 1 99 0
 238              		.cfi_startproc
 239 0000 80B5     		push	{r7, lr}
 240              	.LCFI0:
 241              		.cfi_def_cfa_offset 8
 242              		.cfi_offset 7, -8
 243              		.cfi_offset 14, -4
 244 0002 82B0     		sub	sp, sp, #8
 245              	.LCFI1:
 246              		.cfi_def_cfa_offset 16
 247 0004 00AF     		add	r7, sp, #0
 248              	.LCFI2:
 249              		.cfi_def_cfa_register 7
 250 0006 0A1C     		mov	r2, r1
 251 0008 FB1D     		add	r3, r7, #7
 252 000a 011C     		add	r1, r0, #0
 253 000c 1970     		strb	r1, [r3]
 254 000e BB1D     		add	r3, r7, #6
 255 0010 1A70     		strb	r2, [r3]
 100:.\IMU.c       ****     I2CM_I2CMasterSendStart(L3GD20H_ADDRESS_SA0_HIGH, WRITE);
 256              		.loc 1 100 0
 257 0012 6B20     		mov	r0, #107
 258 0014 0021     		mov	r1, #0
 259 0016 FFF7FEFF 		bl	I2CM_I2CMasterSendStart
 101:.\IMU.c       **** 	UART_1_UartPutString("GYR W Add Ok\r\n");
 260              		.loc 1 101 0
 261 001a 134B     		ldr	r3, .L4
 262 001c 181C     		mov	r0, r3
 263 001e FFF7FEFF 		bl	UART_1_UartPutString
 102:.\IMU.c       **** 	I2CM_I2CMasterWriteByte(registry);
 264              		.loc 1 102 0
 265 0022 FB1D     		add	r3, r7, #7
 266 0024 1B78     		ldrb	r3, [r3]
 267 0026 181C     		mov	r0, r3
 268 0028 FFF7FEFF 		bl	I2CM_I2CMasterWriteByte
 103:.\IMU.c       ****     UART_1_UartPutString("GYR W Reg Ok\r\n");
 269              		.loc 1 103 0
 270 002c 0F4B     		ldr	r3, .L4+4
 271 002e 181C     		mov	r0, r3
 272 0030 FFF7FEFF 		bl	UART_1_UartPutString
 104:.\IMU.c       ****     I2CM_I2CMasterWriteByte(data);
 273              		.loc 1 104 0
 274 0034 BB1D     		add	r3, r7, #6
 275 0036 1B78     		ldrb	r3, [r3]
 276 0038 181C     		mov	r0, r3
 277 003a FFF7FEFF 		bl	I2CM_I2CMasterWriteByte
 105:.\IMU.c       ****     UART_1_UartPutString("GYR W Dat Ok\r\n");
 278              		.loc 1 105 0
 279 003e 0C4B     		ldr	r3, .L4+8
 280 0040 181C     		mov	r0, r3
 281 0042 FFF7FEFF 		bl	UART_1_UartPutString
 106:.\IMU.c       ****     I2CM_I2C_MASTER_GENERATE_STOP;
ARM GAS  C:\Users\SNFU\AppData\Local\Temp\ccxy2z6Y.s 			page 8


 282              		.loc 1 106 0
 283 0046 0B4B     		ldr	r3, .L4+12
 284 0048 0B4A     		ldr	r2, .L4+16
 285 004a 1168     		ldr	r1, [r2]
 286 004c 2022     		mov	r2, #32
 287 004e 0A40     		and	r2, r1
 288 0050 01D0     		beq	.L2
 289              		.loc 1 106 0 is_stmt 0 discriminator 1
 290 0052 1822     		mov	r2, #24
 291 0054 00E0     		b	.L3
 292              	.L2:
 293              		.loc 1 106 0 discriminator 2
 294 0056 1022     		mov	r2, #16
 295              	.L3:
 296              		.loc 1 106 0 discriminator 3
 297 0058 1A60     		str	r2, [r3]
 107:.\IMU.c       ****     UART_1_UartPutString("GYR W Stop Ok\r\n");    
 298              		.loc 1 107 0 is_stmt 1 discriminator 3
 299 005a 084B     		ldr	r3, .L4+20
 300 005c 181C     		mov	r0, r3
 301 005e FFF7FEFF 		bl	UART_1_UartPutString
 108:.\IMU.c       **** }
 302              		.loc 1 108 0 discriminator 3
 303 0062 BD46     		mov	sp, r7
 304 0064 02B0     		add	sp, sp, #8
 305              		@ sp needed for prologue
 306 0066 80BD     		pop	{r7, pc}
 307              	.L5:
 308              		.align	2
 309              	.L4:
 310 0068 00000000 		.word	.LC0
 311 006c 10000000 		.word	.LC2
 312 0070 20000000 		.word	.LC4
 313 0074 68000740 		.word	1074200680
 314 0078 64000740 		.word	1074200676
 315 007c 30000000 		.word	.LC6
 316              		.cfi_endproc
 317              	.LFE33:
 318              		.size	write_gyro_registry, .-write_gyro_registry
 319              		.section	.text.read_gyro_registry,"ax",%progbits
 320              		.align	2
 321              		.global	read_gyro_registry
 322              		.code	16
 323              		.thumb_func
 324              		.type	read_gyro_registry, %function
 325              	read_gyro_registry:
 326              	.LFB34:
 109:.\IMU.c       **** 
 110:.\IMU.c       **** 
 111:.\IMU.c       **** int8_t read_gyro_registry(uint8_t registry)
 112:.\IMU.c       **** {
 327              		.loc 1 112 0
 328              		.cfi_startproc
 329 0000 80B5     		push	{r7, lr}
 330              	.LCFI3:
 331              		.cfi_def_cfa_offset 8
 332              		.cfi_offset 7, -8
ARM GAS  C:\Users\SNFU\AppData\Local\Temp\ccxy2z6Y.s 			page 9


 333              		.cfi_offset 14, -4
 334 0002 84B0     		sub	sp, sp, #16
 335              	.LCFI4:
 336              		.cfi_def_cfa_offset 24
 337 0004 00AF     		add	r7, sp, #0
 338              	.LCFI5:
 339              		.cfi_def_cfa_register 7
 340 0006 021C     		mov	r2, r0
 341 0008 FB1D     		add	r3, r7, #7
 342 000a 1A70     		strb	r2, [r3]
 113:.\IMU.c       **** 	uint8_t data;
 114:.\IMU.c       **** 	I2CM_I2CMasterSendStart(L3GD20H_ADDRESS_SA0_HIGH, WRITE);
 343              		.loc 1 114 0
 344 000c 6B20     		mov	r0, #107
 345 000e 0021     		mov	r1, #0
 346 0010 FFF7FEFF 		bl	I2CM_I2CMasterSendStart
 115:.\IMU.c       **** 	I2CM_I2CMasterWriteByte(registry);
 347              		.loc 1 115 0
 348 0014 FB1D     		add	r3, r7, #7
 349 0016 1B78     		ldrb	r3, [r3]
 350 0018 181C     		mov	r0, r3
 351 001a FFF7FEFF 		bl	I2CM_I2CMasterWriteByte
 116:.\IMU.c       **** 	I2CM_I2CMasterSendRestart(L3GD20H_ADDRESS_SA0_HIGH, READ);
 352              		.loc 1 116 0
 353 001e 6B20     		mov	r0, #107
 354 0020 0121     		mov	r1, #1
 355 0022 FFF7FEFF 		bl	I2CM_I2CMasterSendRestart
 117:.\IMU.c       **** 	data = I2CM_I2CMasterReadByte(NACK);
 356              		.loc 1 117 0
 357 0026 0120     		mov	r0, #1
 358 0028 FFF7FEFF 		bl	I2CM_I2CMasterReadByte
 359 002c 021C     		mov	r2, r0
 360 002e 3B1C     		mov	r3, r7
 361 0030 0F33     		add	r3, r3, #15
 362 0032 1A70     		strb	r2, [r3]
 118:.\IMU.c       ****     I2CM_I2C_MASTER_GENERATE_STOP;
 363              		.loc 1 118 0
 364 0034 084B     		ldr	r3, .L10
 365 0036 094A     		ldr	r2, .L10+4
 366 0038 1168     		ldr	r1, [r2]
 367 003a 2022     		mov	r2, #32
 368 003c 0A40     		and	r2, r1
 369 003e 01D0     		beq	.L7
 370              		.loc 1 118 0 is_stmt 0 discriminator 1
 371 0040 1822     		mov	r2, #24
 372 0042 00E0     		b	.L8
 373              	.L7:
 374              		.loc 1 118 0 discriminator 2
 375 0044 1022     		mov	r2, #16
 376              	.L8:
 377              		.loc 1 118 0 discriminator 3
 378 0046 1A60     		str	r2, [r3]
 119:.\IMU.c       ****     return(data);
 379              		.loc 1 119 0 is_stmt 1 discriminator 3
 380 0048 3B1C     		mov	r3, r7
 381 004a 0F33     		add	r3, r3, #15
 382 004c 1B78     		ldrb	r3, [r3]
ARM GAS  C:\Users\SNFU\AppData\Local\Temp\ccxy2z6Y.s 			page 10


 383 004e 5BB2     		sxtb	r3, r3
 120:.\IMU.c       **** }
 384              		.loc 1 120 0 discriminator 3
 385 0050 181C     		mov	r0, r3
 386 0052 BD46     		mov	sp, r7
 387 0054 04B0     		add	sp, sp, #16
 388              		@ sp needed for prologue
 389 0056 80BD     		pop	{r7, pc}
 390              	.L11:
 391              		.align	2
 392              	.L10:
 393 0058 68000740 		.word	1074200680
 394 005c 64000740 		.word	1074200676
 395              		.cfi_endproc
 396              	.LFE34:
 397              		.size	read_gyro_registry, .-read_gyro_registry
 398              		.section	.rodata
 399              		.align	2
 400              	.LC8:
 401 0040 4779726F 		.ascii	"Gyro started\015\012\000"
 401      20737461 
 401      72746564 
 401      0D0A00
 402              		.section	.text.gyro_start,"ax",%progbits
 403              		.align	2
 404              		.global	gyro_start
 405              		.code	16
 406              		.thumb_func
 407              		.type	gyro_start, %function
 408              	gyro_start:
 409              	.LFB35:
 121:.\IMU.c       **** 
 122:.\IMU.c       **** void gyro_start(void)
 123:.\IMU.c       **** {
 410              		.loc 1 123 0
 411              		.cfi_startproc
 412 0000 80B5     		push	{r7, lr}
 413              	.LCFI6:
 414              		.cfi_def_cfa_offset 8
 415              		.cfi_offset 7, -8
 416              		.cfi_offset 14, -4
 417 0002 00AF     		add	r7, sp, #0
 418              	.LCFI7:
 419              		.cfi_def_cfa_register 7
 124:.\IMU.c       ****     // CTRL REG 1
 125:.\IMU.c       **** 	write_gyro_registry(L3GD20H_CTRL_REG1, 0x0F);		// Enabling all axes read out and Power On -> 100 H
 420              		.loc 1 125 0
 421 0004 2020     		mov	r0, #32
 422 0006 0F21     		mov	r1, #15
 423 0008 FFF7FEFF 		bl	write_gyro_registry
 126:.\IMU.c       ****     //UART_1_UartPutNum(read_gyro_registry(L3GD20H_CTRL_REG1));
 127:.\IMU.c       ****     // CTRL REG 2
 128:.\IMU.c       **** 	write_gyro_registry(L3GD20H_CTRL_REG2, 0x20);		// Normal Mode of High Pass Filter (High Bits), Fil
 424              		.loc 1 128 0
 425 000c 2120     		mov	r0, #33
 426 000e 2021     		mov	r1, #32
 427 0010 FFF7FEFF 		bl	write_gyro_registry
ARM GAS  C:\Users\SNFU\AppData\Local\Temp\ccxy2z6Y.s 			page 11


 129:.\IMU.c       ****     //UART_1_UartPutNum(read_gyro_registry(L3GD20H_CTRL_REG2));
 130:.\IMU.c       ****     // CTRL REG 5
 131:.\IMU.c       **** 	write_gyro_registry(L3GD20H_CTRL_REG5, 0x10);		// High Pass Filter Enable (High Bit 1)
 428              		.loc 1 131 0
 429 0014 2420     		mov	r0, #36
 430 0016 1021     		mov	r1, #16
 431 0018 FFF7FEFF 		bl	write_gyro_registry
 132:.\IMU.c       ****     //UART_1_UartPutNum(read_gyro_registry(L3GD20H_CTRL_REG5));
 133:.\IMU.c       ****     UART_1_UartPutString("Gyro started\r\n");
 432              		.loc 1 133 0
 433 001c 024B     		ldr	r3, .L13
 434 001e 181C     		mov	r0, r3
 435 0020 FFF7FEFF 		bl	UART_1_UartPutString
 134:.\IMU.c       **** }
 436              		.loc 1 134 0
 437 0024 BD46     		mov	sp, r7
 438              		@ sp needed for prologue
 439 0026 80BD     		pop	{r7, pc}
 440              	.L14:
 441              		.align	2
 442              	.L13:
 443 0028 40000000 		.word	.LC8
 444              		.cfi_endproc
 445              	.LFE35:
 446              		.size	gyro_start, .-gyro_start
 447              		.global	__aeabi_i2d
 448              		.global	__aeabi_dmul
 449              		.global	__aeabi_d2iz
 450              		.section	.text.gyro_read,"ax",%progbits
 451              		.align	2
 452              		.global	gyro_read
 453              		.code	16
 454              		.thumb_func
 455              		.type	gyro_read, %function
 456              	gyro_read:
 457              	.LFB36:
 135:.\IMU.c       **** 
 136:.\IMU.c       **** // Gyro turn rate reading
 137:.\IMU.c       **** void gyro_read(void)
 138:.\IMU.c       **** {
 458              		.loc 1 138 0
 459              		.cfi_startproc
 460 0000 98B5     		push	{r3, r4, r7, lr}
 461              	.LCFI8:
 462              		.cfi_def_cfa_offset 16
 463              		.cfi_offset 3, -16
 464              		.cfi_offset 4, -12
 465              		.cfi_offset 7, -8
 466              		.cfi_offset 14, -4
 467 0002 00AF     		add	r7, sp, #0
 468              	.LCFI9:
 469              		.cfi_def_cfa_register 7
 139:.\IMU.c       ****     I2CM_I2CMasterSendStart(L3GD20H_ADDRESS_SA0_HIGH, WRITE);
 470              		.loc 1 139 0
 471 0004 6B20     		mov	r0, #107
 472 0006 0021     		mov	r1, #0
 473 0008 FFF7FEFF 		bl	I2CM_I2CMasterSendStart
ARM GAS  C:\Users\SNFU\AppData\Local\Temp\ccxy2z6Y.s 			page 12


 140:.\IMU.c       **** 	I2CM_I2CMasterWriteByte(L3GD20H_OUT_X_L + 0b10000000); // add MSB to activate auto increment
 474              		.loc 1 140 0
 475 000c A820     		mov	r0, #168
 476 000e FFF7FEFF 		bl	I2CM_I2CMasterWriteByte
 141:.\IMU.c       **** 	I2CM_I2CMasterSendRestart(L3GD20H_ADDRESS_SA0_HIGH, READ);
 477              		.loc 1 141 0
 478 0012 6B20     		mov	r0, #107
 479 0014 0121     		mov	r1, #1
 480 0016 FFF7FEFF 		bl	I2CM_I2CMasterSendRestart
 142:.\IMU.c       **** 	gyro_x_l = I2CM_I2CMasterReadByte(ACK);
 481              		.loc 1 142 0
 482 001a 0020     		mov	r0, #0
 483 001c FFF7FEFF 		bl	I2CM_I2CMasterReadByte
 484 0020 031C     		mov	r3, r0
 485 0022 DAB2     		uxtb	r2, r3
 486 0024 4E4B     		ldr	r3, .L18+8
 487 0026 1A70     		strb	r2, [r3]
 143:.\IMU.c       **** 	gyro_x_h = I2CM_I2CMasterReadByte(ACK);
 488              		.loc 1 143 0
 489 0028 0020     		mov	r0, #0
 490 002a FFF7FEFF 		bl	I2CM_I2CMasterReadByte
 491 002e 031C     		mov	r3, r0
 492 0030 DAB2     		uxtb	r2, r3
 493 0032 4C4B     		ldr	r3, .L18+12
 494 0034 1A70     		strb	r2, [r3]
 144:.\IMU.c       ****     gyro_y_l = I2CM_I2CMasterReadByte(ACK);
 495              		.loc 1 144 0
 496 0036 0020     		mov	r0, #0
 497 0038 FFF7FEFF 		bl	I2CM_I2CMasterReadByte
 498 003c 031C     		mov	r3, r0
 499 003e DAB2     		uxtb	r2, r3
 500 0040 494B     		ldr	r3, .L18+16
 501 0042 1A70     		strb	r2, [r3]
 145:.\IMU.c       **** 	gyro_y_h = I2CM_I2CMasterReadByte(ACK);
 502              		.loc 1 145 0
 503 0044 0020     		mov	r0, #0
 504 0046 FFF7FEFF 		bl	I2CM_I2CMasterReadByte
 505 004a 031C     		mov	r3, r0
 506 004c DAB2     		uxtb	r2, r3
 507 004e 474B     		ldr	r3, .L18+20
 508 0050 1A70     		strb	r2, [r3]
 146:.\IMU.c       **** 	gyro_z_l = I2CM_I2CMasterReadByte(ACK);
 509              		.loc 1 146 0
 510 0052 0020     		mov	r0, #0
 511 0054 FFF7FEFF 		bl	I2CM_I2CMasterReadByte
 512 0058 031C     		mov	r3, r0
 513 005a DAB2     		uxtb	r2, r3
 514 005c 444B     		ldr	r3, .L18+24
 515 005e 1A70     		strb	r2, [r3]
 147:.\IMU.c       **** 	gyro_z_h = I2CM_I2CMasterReadByte(NACK);
 516              		.loc 1 147 0
 517 0060 0120     		mov	r0, #1
 518 0062 FFF7FEFF 		bl	I2CM_I2CMasterReadByte
 519 0066 031C     		mov	r3, r0
 520 0068 DAB2     		uxtb	r2, r3
 521 006a 424B     		ldr	r3, .L18+28
 522 006c 1A70     		strb	r2, [r3]
ARM GAS  C:\Users\SNFU\AppData\Local\Temp\ccxy2z6Y.s 			page 13


 148:.\IMU.c       ****     I2CM_I2C_MASTER_GENERATE_STOP;
 523              		.loc 1 148 0
 524 006e 424B     		ldr	r3, .L18+32
 525 0070 424A     		ldr	r2, .L18+36
 526 0072 1168     		ldr	r1, [r2]
 527 0074 2022     		mov	r2, #32
 528 0076 0A40     		and	r2, r1
 529 0078 01D0     		beq	.L16
 530              		.loc 1 148 0 is_stmt 0 discriminator 1
 531 007a 1822     		mov	r2, #24
 532 007c 00E0     		b	.L17
 533              	.L16:
 534              		.loc 1 148 0 discriminator 2
 535 007e 1022     		mov	r2, #16
 536              	.L17:
 537              		.loc 1 148 0 discriminator 3
 538 0080 1A60     		str	r2, [r3]
 149:.\IMU.c       ****     gyro_x = (gyro_x_h<<8) | (gyro_x_l);
 539              		.loc 1 149 0 is_stmt 1 discriminator 3
 540 0082 384B     		ldr	r3, .L18+12
 541 0084 1B78     		ldrb	r3, [r3]
 542 0086 5BB2     		sxtb	r3, r3
 543 0088 1B02     		lsl	r3, r3, #8
 544 008a 9AB2     		uxth	r2, r3
 545 008c 344B     		ldr	r3, .L18+8
 546 008e 1B78     		ldrb	r3, [r3]
 547 0090 1343     		orr	r3, r2
 548 0092 9AB2     		uxth	r2, r3
 549 0094 3A4B     		ldr	r3, .L18+40
 550 0096 1A80     		strh	r2, [r3]
 150:.\IMU.c       **** 	gyro_y = (gyro_y_h<<8) | (gyro_y_l);
 551              		.loc 1 150 0 discriminator 3
 552 0098 344B     		ldr	r3, .L18+20
 553 009a 1B78     		ldrb	r3, [r3]
 554 009c 5BB2     		sxtb	r3, r3
 555 009e 1B02     		lsl	r3, r3, #8
 556 00a0 9AB2     		uxth	r2, r3
 557 00a2 314B     		ldr	r3, .L18+16
 558 00a4 1B78     		ldrb	r3, [r3]
 559 00a6 1343     		orr	r3, r2
 560 00a8 9AB2     		uxth	r2, r3
 561 00aa 364B     		ldr	r3, .L18+44
 562 00ac 1A80     		strh	r2, [r3]
 151:.\IMU.c       **** 	gyro_z = (gyro_z_h<<8) | (gyro_z_l);
 563              		.loc 1 151 0 discriminator 3
 564 00ae 314B     		ldr	r3, .L18+28
 565 00b0 1B78     		ldrb	r3, [r3]
 566 00b2 5BB2     		sxtb	r3, r3
 567 00b4 1B02     		lsl	r3, r3, #8
 568 00b6 9AB2     		uxth	r2, r3
 569 00b8 2D4B     		ldr	r3, .L18+24
 570 00ba 1B78     		ldrb	r3, [r3]
 571 00bc 1343     		orr	r3, r2
 572 00be 9AB2     		uxth	r2, r3
 573 00c0 314B     		ldr	r3, .L18+48
 574 00c2 1A80     		strh	r2, [r3]
 152:.\IMU.c       ****     turn_rate_p = gyro_x * 0.00875;						// the conversion comes from the default sensitivity value
ARM GAS  C:\Users\SNFU\AppData\Local\Temp\ccxy2z6Y.s 			page 14


 575              		.loc 1 152 0 discriminator 3
 576 00c4 2E4B     		ldr	r3, .L18+40
 577 00c6 1B88     		ldrh	r3, [r3]
 578 00c8 1BB2     		sxth	r3, r3
 579 00ca 181C     		mov	r0, r3
 580 00cc FFF7FEFF 		bl	__aeabi_i2d
 581 00d0 031C     		mov	r3, r0
 582 00d2 0C1C     		mov	r4, r1
 583 00d4 181C     		mov	r0, r3
 584 00d6 211C     		mov	r1, r4
 585 00d8 204B     		ldr	r3, .L18+4
 586 00da 1F4A     		ldr	r2, .L18
 587 00dc FFF7FEFF 		bl	__aeabi_dmul
 588 00e0 031C     		mov	r3, r0
 589 00e2 0C1C     		mov	r4, r1
 590 00e4 181C     		mov	r0, r3
 591 00e6 211C     		mov	r1, r4
 592 00e8 FFF7FEFF 		bl	__aeabi_d2iz
 593 00ec 031C     		mov	r3, r0
 594 00ee 9AB2     		uxth	r2, r3
 595 00f0 264B     		ldr	r3, .L18+52
 596 00f2 1A80     		strh	r2, [r3]
 153:.\IMU.c       **** 	turn_rate_q = gyro_y * 0.00875;
 597              		.loc 1 153 0 discriminator 3
 598 00f4 234B     		ldr	r3, .L18+44
 599 00f6 1B88     		ldrh	r3, [r3]
 600 00f8 1BB2     		sxth	r3, r3
 601 00fa 181C     		mov	r0, r3
 602 00fc FFF7FEFF 		bl	__aeabi_i2d
 603 0100 031C     		mov	r3, r0
 604 0102 0C1C     		mov	r4, r1
 605 0104 181C     		mov	r0, r3
 606 0106 211C     		mov	r1, r4
 607 0108 144B     		ldr	r3, .L18+4
 608 010a 134A     		ldr	r2, .L18
 609 010c FFF7FEFF 		bl	__aeabi_dmul
 610 0110 031C     		mov	r3, r0
 611 0112 0C1C     		mov	r4, r1
 612 0114 181C     		mov	r0, r3
 613 0116 211C     		mov	r1, r4
 614 0118 FFF7FEFF 		bl	__aeabi_d2iz
 615 011c 031C     		mov	r3, r0
 616 011e 9AB2     		uxth	r2, r3
 617 0120 1B4B     		ldr	r3, .L18+56
 618 0122 1A80     		strh	r2, [r3]
 154:.\IMU.c       **** 	turn_rate_r = gyro_z * 0.00875;						// see gyro datasheet page 10    
 619              		.loc 1 154 0 discriminator 3
 620 0124 184B     		ldr	r3, .L18+48
 621 0126 1B88     		ldrh	r3, [r3]
 622 0128 1BB2     		sxth	r3, r3
 623 012a 181C     		mov	r0, r3
 624 012c FFF7FEFF 		bl	__aeabi_i2d
 625 0130 031C     		mov	r3, r0
 626 0132 0C1C     		mov	r4, r1
 627 0134 181C     		mov	r0, r3
 628 0136 211C     		mov	r1, r4
 629 0138 084B     		ldr	r3, .L18+4
ARM GAS  C:\Users\SNFU\AppData\Local\Temp\ccxy2z6Y.s 			page 15


 630 013a 074A     		ldr	r2, .L18
 631 013c FFF7FEFF 		bl	__aeabi_dmul
 632 0140 031C     		mov	r3, r0
 633 0142 0C1C     		mov	r4, r1
 634 0144 181C     		mov	r0, r3
 635 0146 211C     		mov	r1, r4
 636 0148 FFF7FEFF 		bl	__aeabi_d2iz
 637 014c 031C     		mov	r3, r0
 638 014e 9AB2     		uxth	r2, r3
 639 0150 104B     		ldr	r3, .L18+60
 640 0152 1A80     		strh	r2, [r3]
 155:.\IMU.c       **** }
 641              		.loc 1 155 0 discriminator 3
 642 0154 BD46     		mov	sp, r7
 643              		@ sp needed for prologue
 644 0156 98BD     		pop	{r3, r4, r7, pc}
 645              	.L19:
 646              		.align	3
 647              	.L18:
 648 0158 EC51B81E 		.word	515396076
 649 015c 85EB813F 		.word	1065479045
 650 0160 00000000 		.word	gyro_x_l
 651 0164 00000000 		.word	gyro_x_h
 652 0168 00000000 		.word	gyro_y_l
 653 016c 00000000 		.word	gyro_y_h
 654 0170 00000000 		.word	gyro_z_l
 655 0174 00000000 		.word	gyro_z_h
 656 0178 68000740 		.word	1074200680
 657 017c 64000740 		.word	1074200676
 658 0180 00000000 		.word	gyro_x
 659 0184 00000000 		.word	gyro_y
 660 0188 00000000 		.word	gyro_z
 661 018c 00000000 		.word	turn_rate_p
 662 0190 00000000 		.word	turn_rate_q
 663 0194 00000000 		.word	turn_rate_r
 664              		.cfi_endproc
 665              	.LFE36:
 666              		.size	gyro_read, .-gyro_read
 667              		.section	.rodata
 668 004f 00       		.align	2
 669              	.LC22:
 670 0050 41434320 		.ascii	"ACC W Add Ok\000"
 670      57204164 
 670      64204F6B 
 670      00
 671 005d 000000   		.align	2
 672              	.LC24:
 673 0060 41434320 		.ascii	"ACC W Reg Ok\000"
 673      57205265 
 673      67204F6B 
 673      00
 674 006d 000000   		.align	2
 675              	.LC26:
 676 0070 41434320 		.ascii	"ACC W Dat Ok\000"
 676      57204461 
 676      74204F6B 
 676      00
ARM GAS  C:\Users\SNFU\AppData\Local\Temp\ccxy2z6Y.s 			page 16


 677 007d 000000   		.align	2
 678              	.LC28:
 679 0080 41434320 		.ascii	"ACC W Stop Ok\000"
 679      57205374 
 679      6F70204F 
 679      6B00
 680              		.section	.text.write_acc_registry,"ax",%progbits
 681              		.align	2
 682              		.global	write_acc_registry
 683              		.code	16
 684              		.thumb_func
 685              		.type	write_acc_registry, %function
 686              	write_acc_registry:
 687              	.LFB37:
 156:.\IMU.c       **** 
 157:.\IMU.c       **** /* ================================= */
 158:.\IMU.c       **** /* ACC & MAG FUNCTIONS					*/
 159:.\IMU.c       **** /* ================================= */
 160:.\IMU.c       **** void write_acc_registry(char registry, char data)
 161:.\IMU.c       **** {
 688              		.loc 1 161 0
 689              		.cfi_startproc
 690 0000 80B5     		push	{r7, lr}
 691              	.LCFI10:
 692              		.cfi_def_cfa_offset 8
 693              		.cfi_offset 7, -8
 694              		.cfi_offset 14, -4
 695 0002 82B0     		sub	sp, sp, #8
 696              	.LCFI11:
 697              		.cfi_def_cfa_offset 16
 698 0004 00AF     		add	r7, sp, #0
 699              	.LCFI12:
 700              		.cfi_def_cfa_register 7
 701 0006 0A1C     		mov	r2, r1
 702 0008 FB1D     		add	r3, r7, #7
 703 000a 011C     		add	r1, r0, #0
 704 000c 1970     		strb	r1, [r3]
 705 000e BB1D     		add	r3, r7, #6
 706 0010 1A70     		strb	r2, [r3]
 162:.\IMU.c       **** 	I2CM_I2CMasterSendStart(LSM303_ADDRESS, WRITE);
 707              		.loc 1 162 0
 708 0012 1D20     		mov	r0, #29
 709 0014 0021     		mov	r1, #0
 710 0016 FFF7FEFF 		bl	I2CM_I2CMasterSendStart
 163:.\IMU.c       **** 	UART_1_UartPutString("ACC W Add Ok");
 711              		.loc 1 163 0
 712 001a 134B     		ldr	r3, .L23
 713 001c 181C     		mov	r0, r3
 714 001e FFF7FEFF 		bl	UART_1_UartPutString
 164:.\IMU.c       **** 	I2CM_I2CMasterWriteByte(registry);
 715              		.loc 1 164 0
 716 0022 FB1D     		add	r3, r7, #7
 717 0024 1B78     		ldrb	r3, [r3]
 718 0026 181C     		mov	r0, r3
 719 0028 FFF7FEFF 		bl	I2CM_I2CMasterWriteByte
 165:.\IMU.c       ****     UART_1_UartPutString("ACC W Reg Ok");
 720              		.loc 1 165 0
ARM GAS  C:\Users\SNFU\AppData\Local\Temp\ccxy2z6Y.s 			page 17


 721 002c 0F4B     		ldr	r3, .L23+4
 722 002e 181C     		mov	r0, r3
 723 0030 FFF7FEFF 		bl	UART_1_UartPutString
 166:.\IMU.c       ****     I2CM_I2CMasterWriteByte(data);
 724              		.loc 1 166 0
 725 0034 BB1D     		add	r3, r7, #6
 726 0036 1B78     		ldrb	r3, [r3]
 727 0038 181C     		mov	r0, r3
 728 003a FFF7FEFF 		bl	I2CM_I2CMasterWriteByte
 167:.\IMU.c       ****     UART_1_UartPutString("ACC W Dat Ok");
 729              		.loc 1 167 0
 730 003e 0C4B     		ldr	r3, .L23+8
 731 0040 181C     		mov	r0, r3
 732 0042 FFF7FEFF 		bl	UART_1_UartPutString
 168:.\IMU.c       ****     I2CM_I2C_MASTER_GENERATE_STOP;
 733              		.loc 1 168 0
 734 0046 0B4B     		ldr	r3, .L23+12
 735 0048 0B4A     		ldr	r2, .L23+16
 736 004a 1168     		ldr	r1, [r2]
 737 004c 2022     		mov	r2, #32
 738 004e 0A40     		and	r2, r1
 739 0050 01D0     		beq	.L21
 740              		.loc 1 168 0 is_stmt 0 discriminator 1
 741 0052 1822     		mov	r2, #24
 742 0054 00E0     		b	.L22
 743              	.L21:
 744              		.loc 1 168 0 discriminator 2
 745 0056 1022     		mov	r2, #16
 746              	.L22:
 747              		.loc 1 168 0 discriminator 3
 748 0058 1A60     		str	r2, [r3]
 169:.\IMU.c       ****     UART_1_UartPutString("ACC W Stop Ok"); 
 749              		.loc 1 169 0 is_stmt 1 discriminator 3
 750 005a 084B     		ldr	r3, .L23+20
 751 005c 181C     		mov	r0, r3
 752 005e FFF7FEFF 		bl	UART_1_UartPutString
 170:.\IMU.c       **** }
 753              		.loc 1 170 0 discriminator 3
 754 0062 BD46     		mov	sp, r7
 755 0064 02B0     		add	sp, sp, #8
 756              		@ sp needed for prologue
 757 0066 80BD     		pop	{r7, pc}
 758              	.L24:
 759              		.align	2
 760              	.L23:
 761 0068 50000000 		.word	.LC22
 762 006c 60000000 		.word	.LC24
 763 0070 70000000 		.word	.LC26
 764 0074 68000740 		.word	1074200680
 765 0078 64000740 		.word	1074200676
 766 007c 80000000 		.word	.LC28
 767              		.cfi_endproc
 768              	.LFE37:
 769              		.size	write_acc_registry, .-write_acc_registry
 770              		.section	.rodata
 771 008e 0000     		.align	2
 772              	.LC30:
ARM GAS  C:\Users\SNFU\AppData\Local\Temp\ccxy2z6Y.s 			page 18


 773 0090 41636320 		.ascii	"Acc started\015\012\000"
 773      73746172 
 773      7465640D 
 773      0A00
 774              		.section	.text.acc_start,"ax",%progbits
 775              		.align	2
 776              		.global	acc_start
 777              		.code	16
 778              		.thumb_func
 779              		.type	acc_start, %function
 780              	acc_start:
 781              	.LFB38:
 171:.\IMU.c       **** void acc_start(void)
 172:.\IMU.c       **** {
 782              		.loc 1 172 0
 783              		.cfi_startproc
 784 0000 80B5     		push	{r7, lr}
 785              	.LCFI13:
 786              		.cfi_def_cfa_offset 8
 787              		.cfi_offset 7, -8
 788              		.cfi_offset 14, -4
 789 0002 00AF     		add	r7, sp, #0
 790              	.LCFI14:
 791              		.cfi_def_cfa_register 7
 173:.\IMU.c       **** 	// CTRL REG 1
 174:.\IMU.c       **** 	write_acc_registry(LSM303_CTRL_REG1, 0x67);		// Enabling all axes read out and Power On -> 100 Hz 
 792              		.loc 1 174 0
 793 0004 2020     		mov	r0, #32
 794 0006 6721     		mov	r1, #103
 795 0008 FFF7FEFF 		bl	write_acc_registry
 175:.\IMU.c       ****     //UART_1_UartPutNum(read_acc_registry(LSM303_CTRL_REG1));
 176:.\IMU.c       ****     // CTRL REG 2
 177:.\IMU.c       **** 	write_acc_registry(LSM303_CTRL_REG2, 0x08);		// FS set to +-4G
 796              		.loc 1 177 0
 797 000c 2120     		mov	r0, #33
 798 000e 0821     		mov	r1, #8
 799 0010 FFF7FEFF 		bl	write_acc_registry
 178:.\IMU.c       ****     //UART_1_UartPutNum(read_acc_registry(LSM303_CTRL_REG2));
 179:.\IMU.c       ****     UART_1_UartPutString("Acc started\r\n");
 800              		.loc 1 179 0
 801 0014 024B     		ldr	r3, .L26
 802 0016 181C     		mov	r0, r3
 803 0018 FFF7FEFF 		bl	UART_1_UartPutString
 180:.\IMU.c       **** }
 804              		.loc 1 180 0
 805 001c BD46     		mov	sp, r7
 806              		@ sp needed for prologue
 807 001e 80BD     		pop	{r7, pc}
 808              	.L27:
 809              		.align	2
 810              	.L26:
 811 0020 90000000 		.word	.LC30
 812              		.cfi_endproc
 813              	.LFE38:
 814              		.size	acc_start, .-acc_start
 815              		.section	.text.acc_read,"ax",%progbits
 816              		.align	2
ARM GAS  C:\Users\SNFU\AppData\Local\Temp\ccxy2z6Y.s 			page 19


 817              		.global	acc_read
 818              		.code	16
 819              		.thumb_func
 820              		.type	acc_read, %function
 821              	acc_read:
 822              	.LFB39:
 181:.\IMU.c       **** 
 182:.\IMU.c       **** void acc_read(void)
 183:.\IMU.c       **** {
 823              		.loc 1 183 0
 824              		.cfi_startproc
 825 0000 98B5     		push	{r3, r4, r7, lr}
 826              	.LCFI15:
 827              		.cfi_def_cfa_offset 16
 828              		.cfi_offset 3, -16
 829              		.cfi_offset 4, -12
 830              		.cfi_offset 7, -8
 831              		.cfi_offset 14, -4
 832 0002 00AF     		add	r7, sp, #0
 833              	.LCFI16:
 834              		.cfi_def_cfa_register 7
 184:.\IMU.c       **** 	I2CM_I2CMasterSendStart(LSM303_ADDRESS, WRITE);
 835              		.loc 1 184 0
 836 0004 1D20     		mov	r0, #29
 837 0006 0021     		mov	r1, #0
 838 0008 FFF7FEFF 		bl	I2CM_I2CMasterSendStart
 185:.\IMU.c       **** 	I2CM_I2CMasterWriteByte(LSM303_ACC_OUT_X_L + 0b10000000); // add MSB to activate auto increment
 839              		.loc 1 185 0
 840 000c A820     		mov	r0, #168
 841 000e FFF7FEFF 		bl	I2CM_I2CMasterWriteByte
 186:.\IMU.c       **** 	I2CM_I2CMasterSendRestart(LSM303_ADDRESS, READ);
 842              		.loc 1 186 0
 843 0012 1D20     		mov	r0, #29
 844 0014 0121     		mov	r1, #1
 845 0016 FFF7FEFF 		bl	I2CM_I2CMasterSendRestart
 187:.\IMU.c       **** 	acc_x_l = I2CM_I2CMasterReadByte(ACK);
 846              		.loc 1 187 0
 847 001a 0020     		mov	r0, #0
 848 001c FFF7FEFF 		bl	I2CM_I2CMasterReadByte
 849 0020 031C     		mov	r3, r0
 850 0022 DAB2     		uxtb	r2, r3
 851 0024 4E4B     		ldr	r3, .L31+8
 852 0026 1A70     		strb	r2, [r3]
 188:.\IMU.c       **** 	acc_x_h = I2CM_I2CMasterReadByte(ACK);
 853              		.loc 1 188 0
 854 0028 0020     		mov	r0, #0
 855 002a FFF7FEFF 		bl	I2CM_I2CMasterReadByte
 856 002e 031C     		mov	r3, r0
 857 0030 DAB2     		uxtb	r2, r3
 858 0032 4C4B     		ldr	r3, .L31+12
 859 0034 1A70     		strb	r2, [r3]
 189:.\IMU.c       ****     acc_y_l = I2CM_I2CMasterReadByte(ACK);
 860              		.loc 1 189 0
 861 0036 0020     		mov	r0, #0
 862 0038 FFF7FEFF 		bl	I2CM_I2CMasterReadByte
 863 003c 031C     		mov	r3, r0
 864 003e DAB2     		uxtb	r2, r3
ARM GAS  C:\Users\SNFU\AppData\Local\Temp\ccxy2z6Y.s 			page 20


 865 0040 494B     		ldr	r3, .L31+16
 866 0042 1A70     		strb	r2, [r3]
 190:.\IMU.c       **** 	acc_y_h = I2CM_I2CMasterReadByte(ACK);
 867              		.loc 1 190 0
 868 0044 0020     		mov	r0, #0
 869 0046 FFF7FEFF 		bl	I2CM_I2CMasterReadByte
 870 004a 031C     		mov	r3, r0
 871 004c DAB2     		uxtb	r2, r3
 872 004e 474B     		ldr	r3, .L31+20
 873 0050 1A70     		strb	r2, [r3]
 191:.\IMU.c       **** 	acc_z_l = I2CM_I2CMasterReadByte(ACK);
 874              		.loc 1 191 0
 875 0052 0020     		mov	r0, #0
 876 0054 FFF7FEFF 		bl	I2CM_I2CMasterReadByte
 877 0058 031C     		mov	r3, r0
 878 005a DAB2     		uxtb	r2, r3
 879 005c 444B     		ldr	r3, .L31+24
 880 005e 1A70     		strb	r2, [r3]
 192:.\IMU.c       **** 	acc_z_h = I2CM_I2CMasterReadByte(NACK);
 881              		.loc 1 192 0
 882 0060 0120     		mov	r0, #1
 883 0062 FFF7FEFF 		bl	I2CM_I2CMasterReadByte
 884 0066 031C     		mov	r3, r0
 885 0068 DAB2     		uxtb	r2, r3
 886 006a 424B     		ldr	r3, .L31+28
 887 006c 1A70     		strb	r2, [r3]
 193:.\IMU.c       ****     I2CM_I2C_MASTER_GENERATE_STOP;
 888              		.loc 1 193 0
 889 006e 424B     		ldr	r3, .L31+32
 890 0070 424A     		ldr	r2, .L31+36
 891 0072 1168     		ldr	r1, [r2]
 892 0074 2022     		mov	r2, #32
 893 0076 0A40     		and	r2, r1
 894 0078 01D0     		beq	.L29
 895              		.loc 1 193 0 is_stmt 0 discriminator 1
 896 007a 1822     		mov	r2, #24
 897 007c 00E0     		b	.L30
 898              	.L29:
 899              		.loc 1 193 0 discriminator 2
 900 007e 1022     		mov	r2, #16
 901              	.L30:
 902              		.loc 1 193 0 discriminator 3
 903 0080 1A60     		str	r2, [r3]
 194:.\IMU.c       ****     acc_x = (acc_x_h<<8) | (acc_x_l);
 904              		.loc 1 194 0 is_stmt 1 discriminator 3
 905 0082 384B     		ldr	r3, .L31+12
 906 0084 1B78     		ldrb	r3, [r3]
 907 0086 5BB2     		sxtb	r3, r3
 908 0088 1B02     		lsl	r3, r3, #8
 909 008a 9AB2     		uxth	r2, r3
 910 008c 344B     		ldr	r3, .L31+8
 911 008e 1B78     		ldrb	r3, [r3]
 912 0090 1343     		orr	r3, r2
 913 0092 9AB2     		uxth	r2, r3
 914 0094 3A4B     		ldr	r3, .L31+40
 915 0096 1A80     		strh	r2, [r3]
 195:.\IMU.c       **** 	acc_y = (acc_y_h<<8) | (acc_y_l);
ARM GAS  C:\Users\SNFU\AppData\Local\Temp\ccxy2z6Y.s 			page 21


 916              		.loc 1 195 0 discriminator 3
 917 0098 344B     		ldr	r3, .L31+20
 918 009a 1B78     		ldrb	r3, [r3]
 919 009c 5BB2     		sxtb	r3, r3
 920 009e 1B02     		lsl	r3, r3, #8
 921 00a0 9AB2     		uxth	r2, r3
 922 00a2 314B     		ldr	r3, .L31+16
 923 00a4 1B78     		ldrb	r3, [r3]
 924 00a6 1343     		orr	r3, r2
 925 00a8 9AB2     		uxth	r2, r3
 926 00aa 364B     		ldr	r3, .L31+44
 927 00ac 1A80     		strh	r2, [r3]
 196:.\IMU.c       **** 	acc_z = (acc_z_h<<8) | (acc_z_l);
 928              		.loc 1 196 0 discriminator 3
 929 00ae 314B     		ldr	r3, .L31+28
 930 00b0 1B78     		ldrb	r3, [r3]
 931 00b2 5BB2     		sxtb	r3, r3
 932 00b4 1B02     		lsl	r3, r3, #8
 933 00b6 9AB2     		uxth	r2, r3
 934 00b8 2D4B     		ldr	r3, .L31+24
 935 00ba 1B78     		ldrb	r3, [r3]
 936 00bc 1343     		orr	r3, r2
 937 00be 9AB2     		uxth	r2, r3
 938 00c0 314B     		ldr	r3, .L31+48
 939 00c2 1A80     		strh	r2, [r3]
 197:.\IMU.c       ****     acc_x_g = acc_x * 0.122;	// milli G										
 940              		.loc 1 197 0 discriminator 3
 941 00c4 2E4B     		ldr	r3, .L31+40
 942 00c6 1B88     		ldrh	r3, [r3]
 943 00c8 1BB2     		sxth	r3, r3
 944 00ca 181C     		mov	r0, r3
 945 00cc FFF7FEFF 		bl	__aeabi_i2d
 946 00d0 031C     		mov	r3, r0
 947 00d2 0C1C     		mov	r4, r1
 948 00d4 181C     		mov	r0, r3
 949 00d6 211C     		mov	r1, r4
 950 00d8 204B     		ldr	r3, .L31+4
 951 00da 1F4A     		ldr	r2, .L31
 952 00dc FFF7FEFF 		bl	__aeabi_dmul
 953 00e0 031C     		mov	r3, r0
 954 00e2 0C1C     		mov	r4, r1
 955 00e4 181C     		mov	r0, r3
 956 00e6 211C     		mov	r1, r4
 957 00e8 FFF7FEFF 		bl	__aeabi_d2iz
 958 00ec 031C     		mov	r3, r0
 959 00ee 9AB2     		uxth	r2, r3
 960 00f0 264B     		ldr	r3, .L31+52
 961 00f2 1A80     		strh	r2, [r3]
 198:.\IMU.c       **** 	acc_y_g = acc_y * 0.122;	// milli G					// Linear Acceleration at 4G gives 0.122mg/bit
 962              		.loc 1 198 0 discriminator 3
 963 00f4 234B     		ldr	r3, .L31+44
 964 00f6 1B88     		ldrh	r3, [r3]
 965 00f8 1BB2     		sxth	r3, r3
 966 00fa 181C     		mov	r0, r3
 967 00fc FFF7FEFF 		bl	__aeabi_i2d
 968 0100 031C     		mov	r3, r0
 969 0102 0C1C     		mov	r4, r1
ARM GAS  C:\Users\SNFU\AppData\Local\Temp\ccxy2z6Y.s 			page 22


 970 0104 181C     		mov	r0, r3
 971 0106 211C     		mov	r1, r4
 972 0108 144B     		ldr	r3, .L31+4
 973 010a 134A     		ldr	r2, .L31
 974 010c FFF7FEFF 		bl	__aeabi_dmul
 975 0110 031C     		mov	r3, r0
 976 0112 0C1C     		mov	r4, r1
 977 0114 181C     		mov	r0, r3
 978 0116 211C     		mov	r1, r4
 979 0118 FFF7FEFF 		bl	__aeabi_d2iz
 980 011c 031C     		mov	r3, r0
 981 011e 9AB2     		uxth	r2, r3
 982 0120 1B4B     		ldr	r3, .L31+56
 983 0122 1A80     		strh	r2, [r3]
 199:.\IMU.c       **** 	acc_z_g = acc_z * 0.122;	// milli G					// see ACC datasheet page 10  
 984              		.loc 1 199 0 discriminator 3
 985 0124 184B     		ldr	r3, .L31+48
 986 0126 1B88     		ldrh	r3, [r3]
 987 0128 1BB2     		sxth	r3, r3
 988 012a 181C     		mov	r0, r3
 989 012c FFF7FEFF 		bl	__aeabi_i2d
 990 0130 031C     		mov	r3, r0
 991 0132 0C1C     		mov	r4, r1
 992 0134 181C     		mov	r0, r3
 993 0136 211C     		mov	r1, r4
 994 0138 084B     		ldr	r3, .L31+4
 995 013a 074A     		ldr	r2, .L31
 996 013c FFF7FEFF 		bl	__aeabi_dmul
 997 0140 031C     		mov	r3, r0
 998 0142 0C1C     		mov	r4, r1
 999 0144 181C     		mov	r0, r3
 1000 0146 211C     		mov	r1, r4
 1001 0148 FFF7FEFF 		bl	__aeabi_d2iz
 1002 014c 031C     		mov	r3, r0
 1003 014e 9AB2     		uxth	r2, r3
 1004 0150 104B     		ldr	r3, .L31+60
 1005 0152 1A80     		strh	r2, [r3]
 200:.\IMU.c       **** }
 1006              		.loc 1 200 0 discriminator 3
 1007 0154 BD46     		mov	sp, r7
 1008              		@ sp needed for prologue
 1009 0156 98BD     		pop	{r3, r4, r7, pc}
 1010              	.L32:
 1011              		.align	3
 1012              	.L31:
 1013 0158 08AC1C5A 		.word	1511828488
 1014 015c 643BBF3F 		.word	1069497188
 1015 0160 00000000 		.word	acc_x_l
 1016 0164 00000000 		.word	acc_x_h
 1017 0168 00000000 		.word	acc_y_l
 1018 016c 00000000 		.word	acc_y_h
 1019 0170 00000000 		.word	acc_z_l
 1020 0174 00000000 		.word	acc_z_h
 1021 0178 68000740 		.word	1074200680
 1022 017c 64000740 		.word	1074200676
 1023 0180 00000000 		.word	acc_x
 1024 0184 00000000 		.word	acc_y
ARM GAS  C:\Users\SNFU\AppData\Local\Temp\ccxy2z6Y.s 			page 23


 1025 0188 00000000 		.word	acc_z
 1026 018c 00000000 		.word	acc_x_g
 1027 0190 00000000 		.word	acc_y_g
 1028 0194 00000000 		.word	acc_z_g
 1029              		.cfi_endproc
 1030              	.LFE39:
 1031              		.size	acc_read, .-acc_read
 1032              		.section	.rodata
 1033 009e 0000     		.align	2
 1034              	.LC44:
 1035 00a0 57204164 		.ascii	"W Add Ok\000"
 1035      64204F6B 
 1035      00
 1036 00a9 000000   		.align	2
 1037              	.LC46:
 1038 00ac 57205265 		.ascii	"W Reg Ok\000"
 1038      67204F6B 
 1038      00
 1039 00b5 000000   		.align	2
 1040              	.LC48:
 1041 00b8 57204461 		.ascii	"W Dat Ok\000"
 1041      74204F6B 
 1041      00
 1042 00c1 000000   		.align	2
 1043              	.LC50:
 1044 00c4 57205374 		.ascii	"W Stop Ok\000"
 1044      6F70204F 
 1044      6B00
 1045              		.section	.text.write_mag_registry,"ax",%progbits
 1046              		.align	2
 1047              		.global	write_mag_registry
 1048              		.code	16
 1049              		.thumb_func
 1050              		.type	write_mag_registry, %function
 1051              	write_mag_registry:
 1052              	.LFB40:
 201:.\IMU.c       **** 
 202:.\IMU.c       **** /* Magnetometer Functions */
 203:.\IMU.c       **** void write_mag_registry(char registry, char data)
 204:.\IMU.c       **** {
 1053              		.loc 1 204 0
 1054              		.cfi_startproc
 1055 0000 80B5     		push	{r7, lr}
 1056              	.LCFI17:
 1057              		.cfi_def_cfa_offset 8
 1058              		.cfi_offset 7, -8
 1059              		.cfi_offset 14, -4
 1060 0002 82B0     		sub	sp, sp, #8
 1061              	.LCFI18:
 1062              		.cfi_def_cfa_offset 16
 1063 0004 00AF     		add	r7, sp, #0
 1064              	.LCFI19:
 1065              		.cfi_def_cfa_register 7
 1066 0006 0A1C     		mov	r2, r1
 1067 0008 FB1D     		add	r3, r7, #7
 1068 000a 011C     		add	r1, r0, #0
 1069 000c 1970     		strb	r1, [r3]
ARM GAS  C:\Users\SNFU\AppData\Local\Temp\ccxy2z6Y.s 			page 24


 1070 000e BB1D     		add	r3, r7, #6
 1071 0010 1A70     		strb	r2, [r3]
 205:.\IMU.c       **** 	I2CM_I2CMasterSendStart(LSM303_ADDRESS, WRITE);
 1072              		.loc 1 205 0
 1073 0012 1D20     		mov	r0, #29
 1074 0014 0021     		mov	r1, #0
 1075 0016 FFF7FEFF 		bl	I2CM_I2CMasterSendStart
 206:.\IMU.c       **** 	UART_1_UartPutString("W Add Ok");
 1076              		.loc 1 206 0
 1077 001a 134B     		ldr	r3, .L36
 1078 001c 181C     		mov	r0, r3
 1079 001e FFF7FEFF 		bl	UART_1_UartPutString
 207:.\IMU.c       **** 	I2CM_I2CMasterWriteByte(registry);
 1080              		.loc 1 207 0
 1081 0022 FB1D     		add	r3, r7, #7
 1082 0024 1B78     		ldrb	r3, [r3]
 1083 0026 181C     		mov	r0, r3
 1084 0028 FFF7FEFF 		bl	I2CM_I2CMasterWriteByte
 208:.\IMU.c       ****     UART_1_UartPutString("W Reg Ok");
 1085              		.loc 1 208 0
 1086 002c 0F4B     		ldr	r3, .L36+4
 1087 002e 181C     		mov	r0, r3
 1088 0030 FFF7FEFF 		bl	UART_1_UartPutString
 209:.\IMU.c       ****     I2CM_I2CMasterWriteByte(data);
 1089              		.loc 1 209 0
 1090 0034 BB1D     		add	r3, r7, #6
 1091 0036 1B78     		ldrb	r3, [r3]
 1092 0038 181C     		mov	r0, r3
 1093 003a FFF7FEFF 		bl	I2CM_I2CMasterWriteByte
 210:.\IMU.c       ****     UART_1_UartPutString("W Dat Ok");
 1094              		.loc 1 210 0
 1095 003e 0C4B     		ldr	r3, .L36+8
 1096 0040 181C     		mov	r0, r3
 1097 0042 FFF7FEFF 		bl	UART_1_UartPutString
 211:.\IMU.c       ****     I2CM_I2C_MASTER_GENERATE_STOP;
 1098              		.loc 1 211 0
 1099 0046 0B4B     		ldr	r3, .L36+12
 1100 0048 0B4A     		ldr	r2, .L36+16
 1101 004a 1168     		ldr	r1, [r2]
 1102 004c 2022     		mov	r2, #32
 1103 004e 0A40     		and	r2, r1
 1104 0050 01D0     		beq	.L34
 1105              		.loc 1 211 0 is_stmt 0 discriminator 1
 1106 0052 1822     		mov	r2, #24
 1107 0054 00E0     		b	.L35
 1108              	.L34:
 1109              		.loc 1 211 0 discriminator 2
 1110 0056 1022     		mov	r2, #16
 1111              	.L35:
 1112              		.loc 1 211 0 discriminator 3
 1113 0058 1A60     		str	r2, [r3]
 212:.\IMU.c       ****     UART_1_UartPutString("W Stop Ok"); 
 1114              		.loc 1 212 0 is_stmt 1 discriminator 3
 1115 005a 084B     		ldr	r3, .L36+20
 1116 005c 181C     		mov	r0, r3
 1117 005e FFF7FEFF 		bl	UART_1_UartPutString
 213:.\IMU.c       **** }
ARM GAS  C:\Users\SNFU\AppData\Local\Temp\ccxy2z6Y.s 			page 25


 1118              		.loc 1 213 0 discriminator 3
 1119 0062 BD46     		mov	sp, r7
 1120 0064 02B0     		add	sp, sp, #8
 1121              		@ sp needed for prologue
 1122 0066 80BD     		pop	{r7, pc}
 1123              	.L37:
 1124              		.align	2
 1125              	.L36:
 1126 0068 A0000000 		.word	.LC44
 1127 006c AC000000 		.word	.LC46
 1128 0070 B8000000 		.word	.LC48
 1129 0074 68000740 		.word	1074200680
 1130 0078 64000740 		.word	1074200676
 1131 007c C4000000 		.word	.LC50
 1132              		.cfi_endproc
 1133              	.LFE40:
 1134              		.size	write_mag_registry, .-write_mag_registry
 1135              		.section	.rodata
 1136 00ce 0000     		.align	2
 1137              	.LC52:
 1138 00d0 4D616720 		.ascii	"Mag started\015\012\000"
 1138      73746172 
 1138      7465640D 
 1138      0A00
 1139 00de 0000     		.section	.text.mag_start,"ax",%progbits
 1140              		.align	2
 1141              		.global	mag_start
 1142              		.code	16
 1143              		.thumb_func
 1144              		.type	mag_start, %function
 1145              	mag_start:
 1146              	.LFB41:
 214:.\IMU.c       **** 
 215:.\IMU.c       **** void mag_start(void)
 216:.\IMU.c       **** {
 1147              		.loc 1 216 0
 1148              		.cfi_startproc
 1149 0000 80B5     		push	{r7, lr}
 1150              	.LCFI20:
 1151              		.cfi_def_cfa_offset 8
 1152              		.cfi_offset 7, -8
 1153              		.cfi_offset 14, -4
 1154 0002 00AF     		add	r7, sp, #0
 1155              	.LCFI21:
 1156              		.cfi_def_cfa_register 7
 217:.\IMU.c       **** 	// CTRL REG 1
 218:.\IMU.c       **** 	write_mag_registry(LSM303_CTRL_REG6, 0x20);		// Magnetometer FS +-4Gauss
 1157              		.loc 1 218 0
 1158 0004 2520     		mov	r0, #37
 1159 0006 2021     		mov	r1, #32
 1160 0008 FFF7FEFF 		bl	write_mag_registry
 219:.\IMU.c       ****     //UART_1_UartPutNum(read_acc_registry(LSM303_CTRL_REG1));
 220:.\IMU.c       ****     // CTRL REG 2
 221:.\IMU.c       **** 	write_mag_registry(LSM303_CTRL_REG7, 0x00);		// Putting Magnetometer into Continuous Conversion Mo
 1161              		.loc 1 221 0
 1162 000c 2620     		mov	r0, #38
 1163 000e 0021     		mov	r1, #0
ARM GAS  C:\Users\SNFU\AppData\Local\Temp\ccxy2z6Y.s 			page 26


 1164 0010 FFF7FEFF 		bl	write_mag_registry
 222:.\IMU.c       ****     //UART_1_UartPutNum(read_acc_registry(LSM303_CTRL_REG2));
 223:.\IMU.c       ****     UART_1_UartPutString("Mag started\r\n");
 1165              		.loc 1 223 0
 1166 0014 024B     		ldr	r3, .L39
 1167 0016 181C     		mov	r0, r3
 1168 0018 FFF7FEFF 		bl	UART_1_UartPutString
 224:.\IMU.c       **** }
 1169              		.loc 1 224 0
 1170 001c BD46     		mov	sp, r7
 1171              		@ sp needed for prologue
 1172 001e 80BD     		pop	{r7, pc}
 1173              	.L40:
 1174              		.align	2
 1175              	.L39:
 1176 0020 D0000000 		.word	.LC52
 1177              		.cfi_endproc
 1178              	.LFE41:
 1179              		.size	mag_start, .-mag_start
 1180              		.section	.text.mag_read,"ax",%progbits
 1181              		.align	2
 1182              		.global	mag_read
 1183              		.code	16
 1184              		.thumb_func
 1185              		.type	mag_read, %function
 1186              	mag_read:
 1187              	.LFB42:
 225:.\IMU.c       **** 
 226:.\IMU.c       **** void mag_read(void)
 227:.\IMU.c       **** {
 1188              		.loc 1 227 0
 1189              		.cfi_startproc
 1190 0000 98B5     		push	{r3, r4, r7, lr}
 1191              	.LCFI22:
 1192              		.cfi_def_cfa_offset 16
 1193              		.cfi_offset 3, -16
 1194              		.cfi_offset 4, -12
 1195              		.cfi_offset 7, -8
 1196              		.cfi_offset 14, -4
 1197 0002 00AF     		add	r7, sp, #0
 1198              	.LCFI23:
 1199              		.cfi_def_cfa_register 7
 228:.\IMU.c       **** 	I2CM_I2CMasterSendStart(LSM303_ADDRESS, WRITE);
 1200              		.loc 1 228 0
 1201 0004 1D20     		mov	r0, #29
 1202 0006 0021     		mov	r1, #0
 1203 0008 FFF7FEFF 		bl	I2CM_I2CMasterSendStart
 229:.\IMU.c       **** 	I2CM_I2CMasterWriteByte(LSM303_MAG_OUT_X_L + 0b10000000); // add MSB to activate auto increment
 1204              		.loc 1 229 0
 1205 000c 8820     		mov	r0, #136
 1206 000e FFF7FEFF 		bl	I2CM_I2CMasterWriteByte
 230:.\IMU.c       **** 	I2CM_I2CMasterSendRestart(LSM303_ADDRESS, READ);
 1207              		.loc 1 230 0
 1208 0012 1D20     		mov	r0, #29
 1209 0014 0121     		mov	r1, #1
 1210 0016 FFF7FEFF 		bl	I2CM_I2CMasterSendRestart
 231:.\IMU.c       **** 	mag_x_l = I2CM_I2CMasterReadByte(ACK);
ARM GAS  C:\Users\SNFU\AppData\Local\Temp\ccxy2z6Y.s 			page 27


 1211              		.loc 1 231 0
 1212 001a 0020     		mov	r0, #0
 1213 001c FFF7FEFF 		bl	I2CM_I2CMasterReadByte
 1214 0020 031C     		mov	r3, r0
 1215 0022 DAB2     		uxtb	r2, r3
 1216 0024 4E4B     		ldr	r3, .L44+8
 1217 0026 1A70     		strb	r2, [r3]
 232:.\IMU.c       **** 	mag_x_h = I2CM_I2CMasterReadByte(ACK);
 1218              		.loc 1 232 0
 1219 0028 0020     		mov	r0, #0
 1220 002a FFF7FEFF 		bl	I2CM_I2CMasterReadByte
 1221 002e 031C     		mov	r3, r0
 1222 0030 DAB2     		uxtb	r2, r3
 1223 0032 4C4B     		ldr	r3, .L44+12
 1224 0034 1A70     		strb	r2, [r3]
 233:.\IMU.c       ****     mag_y_l = I2CM_I2CMasterReadByte(ACK);
 1225              		.loc 1 233 0
 1226 0036 0020     		mov	r0, #0
 1227 0038 FFF7FEFF 		bl	I2CM_I2CMasterReadByte
 1228 003c 031C     		mov	r3, r0
 1229 003e DAB2     		uxtb	r2, r3
 1230 0040 494B     		ldr	r3, .L44+16
 1231 0042 1A70     		strb	r2, [r3]
 234:.\IMU.c       **** 	mag_y_h = I2CM_I2CMasterReadByte(ACK);
 1232              		.loc 1 234 0
 1233 0044 0020     		mov	r0, #0
 1234 0046 FFF7FEFF 		bl	I2CM_I2CMasterReadByte
 1235 004a 031C     		mov	r3, r0
 1236 004c DAB2     		uxtb	r2, r3
 1237 004e 474B     		ldr	r3, .L44+20
 1238 0050 1A70     		strb	r2, [r3]
 235:.\IMU.c       **** 	mag_z_l = I2CM_I2CMasterReadByte(ACK);
 1239              		.loc 1 235 0
 1240 0052 0020     		mov	r0, #0
 1241 0054 FFF7FEFF 		bl	I2CM_I2CMasterReadByte
 1242 0058 031C     		mov	r3, r0
 1243 005a DAB2     		uxtb	r2, r3
 1244 005c 444B     		ldr	r3, .L44+24
 1245 005e 1A70     		strb	r2, [r3]
 236:.\IMU.c       **** 	mag_z_h = I2CM_I2CMasterReadByte(NACK);
 1246              		.loc 1 236 0
 1247 0060 0120     		mov	r0, #1
 1248 0062 FFF7FEFF 		bl	I2CM_I2CMasterReadByte
 1249 0066 031C     		mov	r3, r0
 1250 0068 DAB2     		uxtb	r2, r3
 1251 006a 424B     		ldr	r3, .L44+28
 1252 006c 1A70     		strb	r2, [r3]
 237:.\IMU.c       ****     I2CM_I2C_MASTER_GENERATE_STOP;
 1253              		.loc 1 237 0
 1254 006e 424B     		ldr	r3, .L44+32
 1255 0070 424A     		ldr	r2, .L44+36
 1256 0072 1168     		ldr	r1, [r2]
 1257 0074 2022     		mov	r2, #32
 1258 0076 0A40     		and	r2, r1
 1259 0078 01D0     		beq	.L42
 1260              		.loc 1 237 0 is_stmt 0 discriminator 1
 1261 007a 1822     		mov	r2, #24
ARM GAS  C:\Users\SNFU\AppData\Local\Temp\ccxy2z6Y.s 			page 28


 1262 007c 00E0     		b	.L43
 1263              	.L42:
 1264              		.loc 1 237 0 discriminator 2
 1265 007e 1022     		mov	r2, #16
 1266              	.L43:
 1267              		.loc 1 237 0 discriminator 3
 1268 0080 1A60     		str	r2, [r3]
 238:.\IMU.c       ****     mag_x = (mag_x_h<<8) | (mag_x_l);
 1269              		.loc 1 238 0 is_stmt 1 discriminator 3
 1270 0082 384B     		ldr	r3, .L44+12
 1271 0084 1B78     		ldrb	r3, [r3]
 1272 0086 5BB2     		sxtb	r3, r3
 1273 0088 1B02     		lsl	r3, r3, #8
 1274 008a 9AB2     		uxth	r2, r3
 1275 008c 344B     		ldr	r3, .L44+8
 1276 008e 1B78     		ldrb	r3, [r3]
 1277 0090 1343     		orr	r3, r2
 1278 0092 9AB2     		uxth	r2, r3
 1279 0094 3A4B     		ldr	r3, .L44+40
 1280 0096 1A80     		strh	r2, [r3]
 239:.\IMU.c       **** 	mag_y = (mag_y_h<<8) | (mag_y_l);
 1281              		.loc 1 239 0 discriminator 3
 1282 0098 344B     		ldr	r3, .L44+20
 1283 009a 1B78     		ldrb	r3, [r3]
 1284 009c 5BB2     		sxtb	r3, r3
 1285 009e 1B02     		lsl	r3, r3, #8
 1286 00a0 9AB2     		uxth	r2, r3
 1287 00a2 314B     		ldr	r3, .L44+16
 1288 00a4 1B78     		ldrb	r3, [r3]
 1289 00a6 1343     		orr	r3, r2
 1290 00a8 9AB2     		uxth	r2, r3
 1291 00aa 364B     		ldr	r3, .L44+44
 1292 00ac 1A80     		strh	r2, [r3]
 240:.\IMU.c       **** 	mag_z = (mag_z_h<<8) | (mag_z_l);
 1293              		.loc 1 240 0 discriminator 3
 1294 00ae 314B     		ldr	r3, .L44+28
 1295 00b0 1B78     		ldrb	r3, [r3]
 1296 00b2 5BB2     		sxtb	r3, r3
 1297 00b4 1B02     		lsl	r3, r3, #8
 1298 00b6 9AB2     		uxth	r2, r3
 1299 00b8 2D4B     		ldr	r3, .L44+24
 1300 00ba 1B78     		ldrb	r3, [r3]
 1301 00bc 1343     		orr	r3, r2
 1302 00be 9AB2     		uxth	r2, r3
 1303 00c0 314B     		ldr	r3, .L44+48
 1304 00c2 1A80     		strh	r2, [r3]
 241:.\IMU.c       ****     mag_x_g = mag_x * 0.16;	// milli Gauss									
 1305              		.loc 1 241 0 discriminator 3
 1306 00c4 2E4B     		ldr	r3, .L44+40
 1307 00c6 1B88     		ldrh	r3, [r3]
 1308 00c8 1BB2     		sxth	r3, r3
 1309 00ca 181C     		mov	r0, r3
 1310 00cc FFF7FEFF 		bl	__aeabi_i2d
 1311 00d0 031C     		mov	r3, r0
 1312 00d2 0C1C     		mov	r4, r1
 1313 00d4 181C     		mov	r0, r3
 1314 00d6 211C     		mov	r1, r4
ARM GAS  C:\Users\SNFU\AppData\Local\Temp\ccxy2z6Y.s 			page 29


 1315 00d8 204B     		ldr	r3, .L44+4
 1316 00da 1F4A     		ldr	r2, .L44
 1317 00dc FFF7FEFF 		bl	__aeabi_dmul
 1318 00e0 031C     		mov	r3, r0
 1319 00e2 0C1C     		mov	r4, r1
 1320 00e4 181C     		mov	r0, r3
 1321 00e6 211C     		mov	r1, r4
 1322 00e8 FFF7FEFF 		bl	__aeabi_d2iz
 1323 00ec 031C     		mov	r3, r0
 1324 00ee 9AB2     		uxth	r2, r3
 1325 00f0 264B     		ldr	r3, .L44+52
 1326 00f2 1A80     		strh	r2, [r3]
 242:.\IMU.c       **** 	mag_y_g = mag_y * 0.16;	// milli Gauss			// Magnetic sensitivity at 4Gauss gives 0.16 mgauss/bit
 1327              		.loc 1 242 0 discriminator 3
 1328 00f4 234B     		ldr	r3, .L44+44
 1329 00f6 1B88     		ldrh	r3, [r3]
 1330 00f8 1BB2     		sxth	r3, r3
 1331 00fa 181C     		mov	r0, r3
 1332 00fc FFF7FEFF 		bl	__aeabi_i2d
 1333 0100 031C     		mov	r3, r0
 1334 0102 0C1C     		mov	r4, r1
 1335 0104 181C     		mov	r0, r3
 1336 0106 211C     		mov	r1, r4
 1337 0108 144B     		ldr	r3, .L44+4
 1338 010a 134A     		ldr	r2, .L44
 1339 010c FFF7FEFF 		bl	__aeabi_dmul
 1340 0110 031C     		mov	r3, r0
 1341 0112 0C1C     		mov	r4, r1
 1342 0114 181C     		mov	r0, r3
 1343 0116 211C     		mov	r1, r4
 1344 0118 FFF7FEFF 		bl	__aeabi_d2iz
 1345 011c 031C     		mov	r3, r0
 1346 011e 9AB2     		uxth	r2, r3
 1347 0120 1B4B     		ldr	r3, .L44+56
 1348 0122 1A80     		strh	r2, [r3]
 243:.\IMU.c       **** 	mag_z_g = mag_z * 0.16;	// milli Gauss			// see Mag datasheet page 10  
 1349              		.loc 1 243 0 discriminator 3
 1350 0124 184B     		ldr	r3, .L44+48
 1351 0126 1B88     		ldrh	r3, [r3]
 1352 0128 1BB2     		sxth	r3, r3
 1353 012a 181C     		mov	r0, r3
 1354 012c FFF7FEFF 		bl	__aeabi_i2d
 1355 0130 031C     		mov	r3, r0
 1356 0132 0C1C     		mov	r4, r1
 1357 0134 181C     		mov	r0, r3
 1358 0136 211C     		mov	r1, r4
 1359 0138 084B     		ldr	r3, .L44+4
 1360 013a 074A     		ldr	r2, .L44
 1361 013c FFF7FEFF 		bl	__aeabi_dmul
 1362 0140 031C     		mov	r3, r0
 1363 0142 0C1C     		mov	r4, r1
 1364 0144 181C     		mov	r0, r3
 1365 0146 211C     		mov	r1, r4
 1366 0148 FFF7FEFF 		bl	__aeabi_d2iz
 1367 014c 031C     		mov	r3, r0
 1368 014e 9AB2     		uxth	r2, r3
 1369 0150 104B     		ldr	r3, .L44+60
ARM GAS  C:\Users\SNFU\AppData\Local\Temp\ccxy2z6Y.s 			page 30


 1370 0152 1A80     		strh	r2, [r3]
 244:.\IMU.c       **** }
 1371              		.loc 1 244 0 discriminator 3
 1372 0154 BD46     		mov	sp, r7
 1373              		@ sp needed for prologue
 1374 0156 98BD     		pop	{r3, r4, r7, pc}
 1375              	.L45:
 1376              		.align	3
 1377              	.L44:
 1378 0158 7B14AE47 		.word	1202590843
 1379 015c E17AC43F 		.word	1069841121
 1380 0160 00000000 		.word	mag_x_l
 1381 0164 00000000 		.word	mag_x_h
 1382 0168 00000000 		.word	mag_y_l
 1383 016c 00000000 		.word	mag_y_h
 1384 0170 00000000 		.word	mag_z_l
 1385 0174 00000000 		.word	mag_z_h
 1386 0178 68000740 		.word	1074200680
 1387 017c 64000740 		.word	1074200676
 1388 0180 00000000 		.word	mag_x
 1389 0184 00000000 		.word	mag_y
 1390 0188 00000000 		.word	mag_z
 1391 018c 00000000 		.word	mag_x_g
 1392 0190 00000000 		.word	mag_y_g
 1393 0194 00000000 		.word	mag_z_g
 1394              		.cfi_endproc
 1395              	.LFE42:
 1396              		.size	mag_read, .-mag_read
 1397              		.text
 1398              	.Letext0:
 1399              		.file 2 "c:\\program files\\cypress\\psoc creator\\3.0\\psoc creator\\import\\gnu_cs\\arm\\4.7.3\\
 1400              		.file 3 "./Generated_Source/PSoC4/cytypes.h"