ARM GAS  C:\Users\SNFU\AppData\Local\Temp\cc6an10D.s 			page 1


   1              		.cpu cortex-m0
   2              		.fpu softvfp
   3              		.eabi_attribute 20, 1
   4              		.eabi_attribute 21, 1
   5              		.eabi_attribute 23, 3
   6              		.eabi_attribute 24, 1
   7              		.eabi_attribute 25, 1
   8              		.eabi_attribute 26, 1
   9              		.eabi_attribute 30, 6
  10              		.eabi_attribute 34, 0
  11              		.eabi_attribute 18, 4
  12              		.code	16
  13              		.file	"isr_1.c"
  14              		.text
  15              	.Ltext0:
  16              		.cfi_sections	.debug_frame
  17              		.section	.text.isr_1_Start,"ax",%progbits
  18              		.align	2
  19              		.global	isr_1_Start
  20              		.code	16
  21              		.thumb_func
  22              		.type	isr_1_Start, %function
  23              	isr_1_Start:
  24              	.LFB33:
  25              		.file 1 ".\\Generated_Source\\PSoC4\\isr_1.c"
   1:.\Generated_Source\PSoC4/isr_1.c **** /*******************************************************************************
   2:.\Generated_Source\PSoC4/isr_1.c **** * File Name: isr_1.c  
   3:.\Generated_Source\PSoC4/isr_1.c **** * Version 1.70
   4:.\Generated_Source\PSoC4/isr_1.c **** *
   5:.\Generated_Source\PSoC4/isr_1.c **** *  Description:
   6:.\Generated_Source\PSoC4/isr_1.c **** *   API for controlling the state of an interrupt.
   7:.\Generated_Source\PSoC4/isr_1.c **** *
   8:.\Generated_Source\PSoC4/isr_1.c **** *
   9:.\Generated_Source\PSoC4/isr_1.c **** *  Note:
  10:.\Generated_Source\PSoC4/isr_1.c **** *
  11:.\Generated_Source\PSoC4/isr_1.c **** ********************************************************************************
  12:.\Generated_Source\PSoC4/isr_1.c **** * Copyright 2008-2012, Cypress Semiconductor Corporation.  All rights reserved.
  13:.\Generated_Source\PSoC4/isr_1.c **** * You may use this file only in accordance with the license, terms, conditions, 
  14:.\Generated_Source\PSoC4/isr_1.c **** * disclaimers, and limitations in the end user license agreement accompanying 
  15:.\Generated_Source\PSoC4/isr_1.c **** * the software package with which this file was provided.
  16:.\Generated_Source\PSoC4/isr_1.c **** *******************************************************************************/
  17:.\Generated_Source\PSoC4/isr_1.c **** 
  18:.\Generated_Source\PSoC4/isr_1.c **** 
  19:.\Generated_Source\PSoC4/isr_1.c **** #include <cydevice_trm.h>
  20:.\Generated_Source\PSoC4/isr_1.c **** #include <CyLib.h>
  21:.\Generated_Source\PSoC4/isr_1.c **** #include <isr_1.h>
  22:.\Generated_Source\PSoC4/isr_1.c **** 
  23:.\Generated_Source\PSoC4/isr_1.c **** #if !defined(isr_1__REMOVED) /* Check for removal by optimization */
  24:.\Generated_Source\PSoC4/isr_1.c **** 
  25:.\Generated_Source\PSoC4/isr_1.c **** /*******************************************************************************
  26:.\Generated_Source\PSoC4/isr_1.c **** *  Place your includes, defines and code here 
  27:.\Generated_Source\PSoC4/isr_1.c **** ********************************************************************************/
  28:.\Generated_Source\PSoC4/isr_1.c **** /* `#START isr_1_intc` */
  29:.\Generated_Source\PSoC4/isr_1.c **** #include <project.h>
  30:.\Generated_Source\PSoC4/isr_1.c **** extern uint8_t task_flag;
  31:.\Generated_Source\PSoC4/isr_1.c **** /* `#END` */
  32:.\Generated_Source\PSoC4/isr_1.c **** 
ARM GAS  C:\Users\SNFU\AppData\Local\Temp\cc6an10D.s 			page 2


  33:.\Generated_Source\PSoC4/isr_1.c **** extern cyisraddress CyRamVectors[CYINT_IRQ_BASE + CY_NUM_INTERRUPTS];
  34:.\Generated_Source\PSoC4/isr_1.c **** 
  35:.\Generated_Source\PSoC4/isr_1.c **** /* Declared in startup, used to set unused interrupts to. */
  36:.\Generated_Source\PSoC4/isr_1.c **** CY_ISR_PROTO(IntDefaultHandler);
  37:.\Generated_Source\PSoC4/isr_1.c **** 
  38:.\Generated_Source\PSoC4/isr_1.c **** 
  39:.\Generated_Source\PSoC4/isr_1.c **** /*******************************************************************************
  40:.\Generated_Source\PSoC4/isr_1.c **** * Function Name: isr_1_Start
  41:.\Generated_Source\PSoC4/isr_1.c **** ********************************************************************************
  42:.\Generated_Source\PSoC4/isr_1.c **** *
  43:.\Generated_Source\PSoC4/isr_1.c **** * Summary:
  44:.\Generated_Source\PSoC4/isr_1.c **** *  Set up the interrupt and enable it.
  45:.\Generated_Source\PSoC4/isr_1.c **** *
  46:.\Generated_Source\PSoC4/isr_1.c **** * Parameters:  
  47:.\Generated_Source\PSoC4/isr_1.c **** *   None
  48:.\Generated_Source\PSoC4/isr_1.c **** *
  49:.\Generated_Source\PSoC4/isr_1.c **** * Return:
  50:.\Generated_Source\PSoC4/isr_1.c **** *   None
  51:.\Generated_Source\PSoC4/isr_1.c **** *
  52:.\Generated_Source\PSoC4/isr_1.c **** *******************************************************************************/
  53:.\Generated_Source\PSoC4/isr_1.c **** void isr_1_Start(void)
  54:.\Generated_Source\PSoC4/isr_1.c **** {
  26              		.loc 1 54 0
  27              		.cfi_startproc
  28 0000 80B5     		push	{r7, lr}
  29              	.LCFI0:
  30              		.cfi_def_cfa_offset 8
  31              		.cfi_offset 7, -8
  32              		.cfi_offset 14, -4
  33 0002 00AF     		add	r7, sp, #0
  34              	.LCFI1:
  35              		.cfi_def_cfa_register 7
  55:.\Generated_Source\PSoC4/isr_1.c ****     /* For all we know the interrupt is active. */
  56:.\Generated_Source\PSoC4/isr_1.c ****     isr_1_Disable();
  36              		.loc 1 56 0
  37 0004 FFF7FEFF 		bl	isr_1_Disable
  57:.\Generated_Source\PSoC4/isr_1.c **** 
  58:.\Generated_Source\PSoC4/isr_1.c ****     /* Set the ISR to point to the isr_1 Interrupt. */
  59:.\Generated_Source\PSoC4/isr_1.c ****     isr_1_SetVector(&isr_1_Interrupt);
  38              		.loc 1 59 0
  39 0008 054B     		ldr	r3, .L2
  40 000a 181C     		mov	r0, r3
  41 000c FFF7FEFF 		bl	isr_1_SetVector
  60:.\Generated_Source\PSoC4/isr_1.c **** 
  61:.\Generated_Source\PSoC4/isr_1.c ****     /* Set the priority. */
  62:.\Generated_Source\PSoC4/isr_1.c ****     isr_1_SetPriority((uint8)isr_1_INTC_PRIOR_NUMBER);
  42              		.loc 1 62 0
  43 0010 0320     		mov	r0, #3
  44 0012 FFF7FEFF 		bl	isr_1_SetPriority
  63:.\Generated_Source\PSoC4/isr_1.c **** 
  64:.\Generated_Source\PSoC4/isr_1.c ****     /* Enable it. */
  65:.\Generated_Source\PSoC4/isr_1.c ****     isr_1_Enable();
  45              		.loc 1 65 0
  46 0016 FFF7FEFF 		bl	isr_1_Enable
  66:.\Generated_Source\PSoC4/isr_1.c **** }
  47              		.loc 1 66 0
  48 001a BD46     		mov	sp, r7
ARM GAS  C:\Users\SNFU\AppData\Local\Temp\cc6an10D.s 			page 3


  49              		@ sp needed for prologue
  50 001c 80BD     		pop	{r7, pc}
  51              	.L3:
  52 001e C046     		.align	2
  53              	.L2:
  54 0020 00000000 		.word	isr_1_Interrupt
  55              		.cfi_endproc
  56              	.LFE33:
  57              		.size	isr_1_Start, .-isr_1_Start
  58              		.section	.text.isr_1_StartEx,"ax",%progbits
  59              		.align	2
  60              		.global	isr_1_StartEx
  61              		.code	16
  62              		.thumb_func
  63              		.type	isr_1_StartEx, %function
  64              	isr_1_StartEx:
  65              	.LFB34:
  67:.\Generated_Source\PSoC4/isr_1.c **** 
  68:.\Generated_Source\PSoC4/isr_1.c **** 
  69:.\Generated_Source\PSoC4/isr_1.c **** /*******************************************************************************
  70:.\Generated_Source\PSoC4/isr_1.c **** * Function Name: isr_1_StartEx
  71:.\Generated_Source\PSoC4/isr_1.c **** ********************************************************************************
  72:.\Generated_Source\PSoC4/isr_1.c **** *
  73:.\Generated_Source\PSoC4/isr_1.c **** * Summary:
  74:.\Generated_Source\PSoC4/isr_1.c **** *  Set up the interrupt and enable it.
  75:.\Generated_Source\PSoC4/isr_1.c **** *
  76:.\Generated_Source\PSoC4/isr_1.c **** * Parameters:  
  77:.\Generated_Source\PSoC4/isr_1.c **** *   address: Address of the ISR to set in the interrupt vector table.
  78:.\Generated_Source\PSoC4/isr_1.c **** *
  79:.\Generated_Source\PSoC4/isr_1.c **** * Return:
  80:.\Generated_Source\PSoC4/isr_1.c **** *   None
  81:.\Generated_Source\PSoC4/isr_1.c **** *
  82:.\Generated_Source\PSoC4/isr_1.c **** *******************************************************************************/
  83:.\Generated_Source\PSoC4/isr_1.c **** void isr_1_StartEx(cyisraddress address)
  84:.\Generated_Source\PSoC4/isr_1.c **** {
  66              		.loc 1 84 0
  67              		.cfi_startproc
  68 0000 80B5     		push	{r7, lr}
  69              	.LCFI2:
  70              		.cfi_def_cfa_offset 8
  71              		.cfi_offset 7, -8
  72              		.cfi_offset 14, -4
  73 0002 82B0     		sub	sp, sp, #8
  74              	.LCFI3:
  75              		.cfi_def_cfa_offset 16
  76 0004 00AF     		add	r7, sp, #0
  77              	.LCFI4:
  78              		.cfi_def_cfa_register 7
  79 0006 7860     		str	r0, [r7, #4]
  85:.\Generated_Source\PSoC4/isr_1.c ****     /* For all we know the interrupt is active. */
  86:.\Generated_Source\PSoC4/isr_1.c ****     isr_1_Disable();
  80              		.loc 1 86 0
  81 0008 FFF7FEFF 		bl	isr_1_Disable
  87:.\Generated_Source\PSoC4/isr_1.c **** 
  88:.\Generated_Source\PSoC4/isr_1.c ****     /* Set the ISR to point to the isr_1 Interrupt. */
  89:.\Generated_Source\PSoC4/isr_1.c ****     isr_1_SetVector(address);
  82              		.loc 1 89 0
ARM GAS  C:\Users\SNFU\AppData\Local\Temp\cc6an10D.s 			page 4


  83 000c 7B68     		ldr	r3, [r7, #4]
  84 000e 181C     		mov	r0, r3
  85 0010 FFF7FEFF 		bl	isr_1_SetVector
  90:.\Generated_Source\PSoC4/isr_1.c **** 
  91:.\Generated_Source\PSoC4/isr_1.c ****     /* Set the priority. */
  92:.\Generated_Source\PSoC4/isr_1.c ****     isr_1_SetPriority((uint8)isr_1_INTC_PRIOR_NUMBER);
  86              		.loc 1 92 0
  87 0014 0320     		mov	r0, #3
  88 0016 FFF7FEFF 		bl	isr_1_SetPriority
  93:.\Generated_Source\PSoC4/isr_1.c **** 
  94:.\Generated_Source\PSoC4/isr_1.c ****     /* Enable it. */
  95:.\Generated_Source\PSoC4/isr_1.c ****     isr_1_Enable();
  89              		.loc 1 95 0
  90 001a FFF7FEFF 		bl	isr_1_Enable
  96:.\Generated_Source\PSoC4/isr_1.c **** }
  91              		.loc 1 96 0
  92 001e BD46     		mov	sp, r7
  93 0020 02B0     		add	sp, sp, #8
  94              		@ sp needed for prologue
  95 0022 80BD     		pop	{r7, pc}
  96              		.cfi_endproc
  97              	.LFE34:
  98              		.size	isr_1_StartEx, .-isr_1_StartEx
  99              		.section	.text.isr_1_Stop,"ax",%progbits
 100              		.align	2
 101              		.global	isr_1_Stop
 102              		.code	16
 103              		.thumb_func
 104              		.type	isr_1_Stop, %function
 105              	isr_1_Stop:
 106              	.LFB35:
  97:.\Generated_Source\PSoC4/isr_1.c **** 
  98:.\Generated_Source\PSoC4/isr_1.c **** 
  99:.\Generated_Source\PSoC4/isr_1.c **** /*******************************************************************************
 100:.\Generated_Source\PSoC4/isr_1.c **** * Function Name: isr_1_Stop
 101:.\Generated_Source\PSoC4/isr_1.c **** ********************************************************************************
 102:.\Generated_Source\PSoC4/isr_1.c **** *
 103:.\Generated_Source\PSoC4/isr_1.c **** * Summary:
 104:.\Generated_Source\PSoC4/isr_1.c **** *   Disables and removes the interrupt.
 105:.\Generated_Source\PSoC4/isr_1.c **** *
 106:.\Generated_Source\PSoC4/isr_1.c **** * Parameters:  
 107:.\Generated_Source\PSoC4/isr_1.c **** *
 108:.\Generated_Source\PSoC4/isr_1.c **** * Return:
 109:.\Generated_Source\PSoC4/isr_1.c **** *   None
 110:.\Generated_Source\PSoC4/isr_1.c **** *
 111:.\Generated_Source\PSoC4/isr_1.c **** *******************************************************************************/
 112:.\Generated_Source\PSoC4/isr_1.c **** void isr_1_Stop(void)
 113:.\Generated_Source\PSoC4/isr_1.c **** {
 107              		.loc 1 113 0
 108              		.cfi_startproc
 109 0000 80B5     		push	{r7, lr}
 110              	.LCFI5:
 111              		.cfi_def_cfa_offset 8
 112              		.cfi_offset 7, -8
 113              		.cfi_offset 14, -4
 114 0002 00AF     		add	r7, sp, #0
 115              	.LCFI6:
ARM GAS  C:\Users\SNFU\AppData\Local\Temp\cc6an10D.s 			page 5


 116              		.cfi_def_cfa_register 7
 114:.\Generated_Source\PSoC4/isr_1.c ****     /* Disable this interrupt. */
 115:.\Generated_Source\PSoC4/isr_1.c ****     isr_1_Disable();
 117              		.loc 1 115 0
 118 0004 FFF7FEFF 		bl	isr_1_Disable
 116:.\Generated_Source\PSoC4/isr_1.c **** 
 117:.\Generated_Source\PSoC4/isr_1.c ****     /* Set the ISR to point to the passive one. */
 118:.\Generated_Source\PSoC4/isr_1.c ****     isr_1_SetVector(&IntDefaultHandler);
 119              		.loc 1 118 0
 120 0008 024B     		ldr	r3, .L6
 121 000a 181C     		mov	r0, r3
 122 000c FFF7FEFF 		bl	isr_1_SetVector
 119:.\Generated_Source\PSoC4/isr_1.c **** }
 123              		.loc 1 119 0
 124 0010 BD46     		mov	sp, r7
 125              		@ sp needed for prologue
 126 0012 80BD     		pop	{r7, pc}
 127              	.L7:
 128              		.align	2
 129              	.L6:
 130 0014 00000000 		.word	IntDefaultHandler
 131              		.cfi_endproc
 132              	.LFE35:
 133              		.size	isr_1_Stop, .-isr_1_Stop
 134              		.section	.text.isr_1_Interrupt,"ax",%progbits
 135              		.align	2
 136              		.global	isr_1_Interrupt
 137              		.code	16
 138              		.thumb_func
 139              		.type	isr_1_Interrupt, %function
 140              	isr_1_Interrupt:
 141              	.LFB36:
 120:.\Generated_Source\PSoC4/isr_1.c **** 
 121:.\Generated_Source\PSoC4/isr_1.c **** 
 122:.\Generated_Source\PSoC4/isr_1.c **** /*******************************************************************************
 123:.\Generated_Source\PSoC4/isr_1.c **** * Function Name: isr_1_Interrupt
 124:.\Generated_Source\PSoC4/isr_1.c **** ********************************************************************************
 125:.\Generated_Source\PSoC4/isr_1.c **** *
 126:.\Generated_Source\PSoC4/isr_1.c **** * Summary:
 127:.\Generated_Source\PSoC4/isr_1.c **** *   The default Interrupt Service Routine for isr_1.
 128:.\Generated_Source\PSoC4/isr_1.c **** *
 129:.\Generated_Source\PSoC4/isr_1.c **** *   Add custom code between the coments to keep the next version of this file
 130:.\Generated_Source\PSoC4/isr_1.c **** *   from over writting your code.
 131:.\Generated_Source\PSoC4/isr_1.c **** *
 132:.\Generated_Source\PSoC4/isr_1.c **** * Parameters:  
 133:.\Generated_Source\PSoC4/isr_1.c **** *   None
 134:.\Generated_Source\PSoC4/isr_1.c **** *
 135:.\Generated_Source\PSoC4/isr_1.c **** * Return:
 136:.\Generated_Source\PSoC4/isr_1.c **** *   None
 137:.\Generated_Source\PSoC4/isr_1.c **** *
 138:.\Generated_Source\PSoC4/isr_1.c **** *******************************************************************************/
 139:.\Generated_Source\PSoC4/isr_1.c **** CY_ISR(isr_1_Interrupt)
 140:.\Generated_Source\PSoC4/isr_1.c **** {
 142              		.loc 1 140 0
 143              		.cfi_startproc
 144 0000 80B5     		push	{r7, lr}
 145              	.LCFI7:
ARM GAS  C:\Users\SNFU\AppData\Local\Temp\cc6an10D.s 			page 6


 146              		.cfi_def_cfa_offset 8
 147              		.cfi_offset 7, -8
 148              		.cfi_offset 14, -4
 149 0002 00AF     		add	r7, sp, #0
 150              	.LCFI8:
 151              		.cfi_def_cfa_register 7
 141:.\Generated_Source\PSoC4/isr_1.c ****     /*  Place your Interrupt code here. */
 142:.\Generated_Source\PSoC4/isr_1.c ****     /* `#START isr_1_Interrupt` */
 143:.\Generated_Source\PSoC4/isr_1.c ****     Timer_1_ClearInterrupt(Timer_1_INTR_MASK_TC);
 152              		.loc 1 143 0
 153 0004 0120     		mov	r0, #1
 154 0006 FFF7FEFF 		bl	Timer_1_ClearInterrupt
 144:.\Generated_Source\PSoC4/isr_1.c ****     task_flag = 1;
 155              		.loc 1 144 0
 156 000a 024B     		ldr	r3, .L9
 157 000c 0122     		mov	r2, #1
 158 000e 1A70     		strb	r2, [r3]
 145:.\Generated_Source\PSoC4/isr_1.c ****     
 146:.\Generated_Source\PSoC4/isr_1.c ****     /* `#END` */
 147:.\Generated_Source\PSoC4/isr_1.c **** }
 159              		.loc 1 147 0
 160 0010 BD46     		mov	sp, r7
 161              		@ sp needed for prologue
 162 0012 80BD     		pop	{r7, pc}
 163              	.L10:
 164              		.align	2
 165              	.L9:
 166 0014 00000000 		.word	task_flag
 167              		.cfi_endproc
 168              	.LFE36:
 169              		.size	isr_1_Interrupt, .-isr_1_Interrupt
 170              		.section	.text.isr_1_SetVector,"ax",%progbits
 171              		.align	2
 172              		.global	isr_1_SetVector
 173              		.code	16
 174              		.thumb_func
 175              		.type	isr_1_SetVector, %function
 176              	isr_1_SetVector:
 177              	.LFB37:
 148:.\Generated_Source\PSoC4/isr_1.c **** 
 149:.\Generated_Source\PSoC4/isr_1.c **** 
 150:.\Generated_Source\PSoC4/isr_1.c **** /*******************************************************************************
 151:.\Generated_Source\PSoC4/isr_1.c **** * Function Name: isr_1_SetVector
 152:.\Generated_Source\PSoC4/isr_1.c **** ********************************************************************************
 153:.\Generated_Source\PSoC4/isr_1.c **** *
 154:.\Generated_Source\PSoC4/isr_1.c **** * Summary:
 155:.\Generated_Source\PSoC4/isr_1.c **** *   Change the ISR vector for the Interrupt. Note calling isr_1_Start
 156:.\Generated_Source\PSoC4/isr_1.c **** *   will override any effect this method would have had. To set the vector 
 157:.\Generated_Source\PSoC4/isr_1.c **** *   before the component has been started use isr_1_StartEx instead.
 158:.\Generated_Source\PSoC4/isr_1.c **** *
 159:.\Generated_Source\PSoC4/isr_1.c **** * Parameters:
 160:.\Generated_Source\PSoC4/isr_1.c **** *   address: Address of the ISR to set in the interrupt vector table.
 161:.\Generated_Source\PSoC4/isr_1.c **** *
 162:.\Generated_Source\PSoC4/isr_1.c **** * Return:
 163:.\Generated_Source\PSoC4/isr_1.c **** *   None
 164:.\Generated_Source\PSoC4/isr_1.c **** *
 165:.\Generated_Source\PSoC4/isr_1.c **** *******************************************************************************/
ARM GAS  C:\Users\SNFU\AppData\Local\Temp\cc6an10D.s 			page 7


 166:.\Generated_Source\PSoC4/isr_1.c **** void isr_1_SetVector(cyisraddress address)
 167:.\Generated_Source\PSoC4/isr_1.c **** {
 178              		.loc 1 167 0
 179              		.cfi_startproc
 180 0000 80B5     		push	{r7, lr}
 181              	.LCFI9:
 182              		.cfi_def_cfa_offset 8
 183              		.cfi_offset 7, -8
 184              		.cfi_offset 14, -4
 185 0002 82B0     		sub	sp, sp, #8
 186              	.LCFI10:
 187              		.cfi_def_cfa_offset 16
 188 0004 00AF     		add	r7, sp, #0
 189              	.LCFI11:
 190              		.cfi_def_cfa_register 7
 191 0006 7860     		str	r0, [r7, #4]
 168:.\Generated_Source\PSoC4/isr_1.c ****     CyRamVectors[CYINT_IRQ_BASE + isr_1__INTC_NUMBER] = address;
 192              		.loc 1 168 0
 193 0008 034A     		ldr	r2, .L12
 194 000a 8023     		mov	r3, #128
 195 000c 7968     		ldr	r1, [r7, #4]
 196 000e D150     		str	r1, [r2, r3]
 169:.\Generated_Source\PSoC4/isr_1.c **** }
 197              		.loc 1 169 0
 198 0010 BD46     		mov	sp, r7
 199 0012 02B0     		add	sp, sp, #8
 200              		@ sp needed for prologue
 201 0014 80BD     		pop	{r7, pc}
 202              	.L13:
 203 0016 C046     		.align	2
 204              	.L12:
 205 0018 00000000 		.word	CyRamVectors
 206              		.cfi_endproc
 207              	.LFE37:
 208              		.size	isr_1_SetVector, .-isr_1_SetVector
 209              		.section	.text.isr_1_GetVector,"ax",%progbits
 210              		.align	2
 211              		.global	isr_1_GetVector
 212              		.code	16
 213              		.thumb_func
 214              		.type	isr_1_GetVector, %function
 215              	isr_1_GetVector:
 216              	.LFB38:
 170:.\Generated_Source\PSoC4/isr_1.c **** 
 171:.\Generated_Source\PSoC4/isr_1.c **** 
 172:.\Generated_Source\PSoC4/isr_1.c **** /*******************************************************************************
 173:.\Generated_Source\PSoC4/isr_1.c **** * Function Name: isr_1_GetVector
 174:.\Generated_Source\PSoC4/isr_1.c **** ********************************************************************************
 175:.\Generated_Source\PSoC4/isr_1.c **** *
 176:.\Generated_Source\PSoC4/isr_1.c **** * Summary:
 177:.\Generated_Source\PSoC4/isr_1.c **** *   Gets the "address" of the current ISR vector for the Interrupt.
 178:.\Generated_Source\PSoC4/isr_1.c **** *
 179:.\Generated_Source\PSoC4/isr_1.c **** * Parameters:
 180:.\Generated_Source\PSoC4/isr_1.c **** *   None
 181:.\Generated_Source\PSoC4/isr_1.c **** *
 182:.\Generated_Source\PSoC4/isr_1.c **** * Return:
 183:.\Generated_Source\PSoC4/isr_1.c **** *   Address of the ISR in the interrupt vector table.
ARM GAS  C:\Users\SNFU\AppData\Local\Temp\cc6an10D.s 			page 8


 184:.\Generated_Source\PSoC4/isr_1.c **** *
 185:.\Generated_Source\PSoC4/isr_1.c **** *******************************************************************************/
 186:.\Generated_Source\PSoC4/isr_1.c **** cyisraddress isr_1_GetVector(void)
 187:.\Generated_Source\PSoC4/isr_1.c **** {
 217              		.loc 1 187 0
 218              		.cfi_startproc
 219 0000 80B5     		push	{r7, lr}
 220              	.LCFI12:
 221              		.cfi_def_cfa_offset 8
 222              		.cfi_offset 7, -8
 223              		.cfi_offset 14, -4
 224 0002 00AF     		add	r7, sp, #0
 225              	.LCFI13:
 226              		.cfi_def_cfa_register 7
 188:.\Generated_Source\PSoC4/isr_1.c ****     return CyRamVectors[CYINT_IRQ_BASE + isr_1__INTC_NUMBER];
 227              		.loc 1 188 0
 228 0004 024A     		ldr	r2, .L16
 229 0006 8023     		mov	r3, #128
 230 0008 D358     		ldr	r3, [r2, r3]
 189:.\Generated_Source\PSoC4/isr_1.c **** }
 231              		.loc 1 189 0
 232 000a 181C     		mov	r0, r3
 233 000c BD46     		mov	sp, r7
 234              		@ sp needed for prologue
 235 000e 80BD     		pop	{r7, pc}
 236              	.L17:
 237              		.align	2
 238              	.L16:
 239 0010 00000000 		.word	CyRamVectors
 240              		.cfi_endproc
 241              	.LFE38:
 242              		.size	isr_1_GetVector, .-isr_1_GetVector
 243              		.section	.text.isr_1_SetPriority,"ax",%progbits
 244              		.align	2
 245              		.global	isr_1_SetPriority
 246              		.code	16
 247              		.thumb_func
 248              		.type	isr_1_SetPriority, %function
 249              	isr_1_SetPriority:
 250              	.LFB39:
 190:.\Generated_Source\PSoC4/isr_1.c **** 
 191:.\Generated_Source\PSoC4/isr_1.c **** 
 192:.\Generated_Source\PSoC4/isr_1.c **** /*******************************************************************************
 193:.\Generated_Source\PSoC4/isr_1.c **** * Function Name: isr_1_SetPriority
 194:.\Generated_Source\PSoC4/isr_1.c **** ********************************************************************************
 195:.\Generated_Source\PSoC4/isr_1.c **** *
 196:.\Generated_Source\PSoC4/isr_1.c **** * Summary:
 197:.\Generated_Source\PSoC4/isr_1.c **** *   Sets the Priority of the Interrupt. Note calling isr_1_Start
 198:.\Generated_Source\PSoC4/isr_1.c **** *   or isr_1_StartEx will override any effect this method would 
 199:.\Generated_Source\PSoC4/isr_1.c **** *   have had. This method should only be called after isr_1_Start or 
 200:.\Generated_Source\PSoC4/isr_1.c **** *   isr_1_StartEx has been called. To set the initial
 201:.\Generated_Source\PSoC4/isr_1.c **** *   priority for the component use the cydwr file in the tool.
 202:.\Generated_Source\PSoC4/isr_1.c **** *
 203:.\Generated_Source\PSoC4/isr_1.c **** * Parameters:
 204:.\Generated_Source\PSoC4/isr_1.c **** *   priority: Priority of the interrupt. 0 - 3, 0 being the highest.
 205:.\Generated_Source\PSoC4/isr_1.c **** *
 206:.\Generated_Source\PSoC4/isr_1.c **** * Return:
ARM GAS  C:\Users\SNFU\AppData\Local\Temp\cc6an10D.s 			page 9


 207:.\Generated_Source\PSoC4/isr_1.c **** *   None
 208:.\Generated_Source\PSoC4/isr_1.c **** *
 209:.\Generated_Source\PSoC4/isr_1.c **** *******************************************************************************/
 210:.\Generated_Source\PSoC4/isr_1.c **** void isr_1_SetPriority(uint8 priority)
 211:.\Generated_Source\PSoC4/isr_1.c **** {
 251              		.loc 1 211 0
 252              		.cfi_startproc
 253 0000 90B5     		push	{r4, r7, lr}
 254              	.LCFI14:
 255              		.cfi_def_cfa_offset 12
 256              		.cfi_offset 4, -12
 257              		.cfi_offset 7, -8
 258              		.cfi_offset 14, -4
 259 0002 85B0     		sub	sp, sp, #20
 260              	.LCFI15:
 261              		.cfi_def_cfa_offset 32
 262 0004 00AF     		add	r7, sp, #0
 263              	.LCFI16:
 264              		.cfi_def_cfa_register 7
 265 0006 021C     		mov	r2, r0
 266 0008 FB1D     		add	r3, r7, #7
 267 000a 1A70     		strb	r2, [r3]
 212:.\Generated_Source\PSoC4/isr_1.c **** 	uint8 interruptState;
 213:.\Generated_Source\PSoC4/isr_1.c ****     uint32 priorityOffset = ((isr_1__INTC_NUMBER % 4u) * 8u) + 6u;
 268              		.loc 1 213 0
 269 000c 0623     		mov	r3, #6
 270 000e FB60     		str	r3, [r7, #12]
 214:.\Generated_Source\PSoC4/isr_1.c ****     
 215:.\Generated_Source\PSoC4/isr_1.c **** 	interruptState = CyEnterCriticalSection();
 271              		.loc 1 215 0
 272 0010 3C1C     		mov	r4, r7
 273 0012 0B34     		add	r4, r4, #11
 274 0014 FFF7FEFF 		bl	CyEnterCriticalSection
 275 0018 031C     		mov	r3, r0
 276 001a 2370     		strb	r3, [r4]
 216:.\Generated_Source\PSoC4/isr_1.c ****     *isr_1_INTC_PRIOR = (*isr_1_INTC_PRIOR & (uint32)(~isr_1__INTC_PRIOR_MASK)) |
 277              		.loc 1 216 0
 278 001c 0B4B     		ldr	r3, .L19
 279 001e 0B4A     		ldr	r2, .L19
 280 0020 1268     		ldr	r2, [r2]
 281 0022 C021     		mov	r1, #192
 282 0024 101C     		mov	r0, r2
 283 0026 8843     		bic	r0, r1
 284 0028 011C     		mov	r1, r0
 217:.\Generated_Source\PSoC4/isr_1.c ****                                     ((uint32)priority << priorityOffset);
 285              		.loc 1 217 0
 286 002a FA1D     		add	r2, r7, #7
 287 002c 1078     		ldrb	r0, [r2]
 288 002e FA68     		ldr	r2, [r7, #12]
 289 0030 041C     		mov	r4, r0
 290 0032 9440     		lsl	r4, r4, r2
 291 0034 221C     		mov	r2, r4
 216:.\Generated_Source\PSoC4/isr_1.c ****     *isr_1_INTC_PRIOR = (*isr_1_INTC_PRIOR & (uint32)(~isr_1__INTC_PRIOR_MASK)) |
 292              		.loc 1 216 0
 293 0036 0A43     		orr	r2, r1
 294 0038 1A60     		str	r2, [r3]
 218:.\Generated_Source\PSoC4/isr_1.c **** 	CyExitCriticalSection(interruptState);
ARM GAS  C:\Users\SNFU\AppData\Local\Temp\cc6an10D.s 			page 10


 295              		.loc 1 218 0
 296 003a 3B1C     		mov	r3, r7
 297 003c 0B33     		add	r3, r3, #11
 298 003e 1B78     		ldrb	r3, [r3]
 299 0040 181C     		mov	r0, r3
 300 0042 FFF7FEFF 		bl	CyExitCriticalSection
 219:.\Generated_Source\PSoC4/isr_1.c **** }
 301              		.loc 1 219 0
 302 0046 BD46     		mov	sp, r7
 303 0048 05B0     		add	sp, sp, #20
 304              		@ sp needed for prologue
 305 004a 90BD     		pop	{r4, r7, pc}
 306              	.L20:
 307              		.align	2
 308              	.L19:
 309 004c 10E400E0 		.word	-536812528
 310              		.cfi_endproc
 311              	.LFE39:
 312              		.size	isr_1_SetPriority, .-isr_1_SetPriority
 313              		.section	.text.isr_1_GetPriority,"ax",%progbits
 314              		.align	2
 315              		.global	isr_1_GetPriority
 316              		.code	16
 317              		.thumb_func
 318              		.type	isr_1_GetPriority, %function
 319              	isr_1_GetPriority:
 320              	.LFB40:
 220:.\Generated_Source\PSoC4/isr_1.c **** 
 221:.\Generated_Source\PSoC4/isr_1.c **** 
 222:.\Generated_Source\PSoC4/isr_1.c **** /*******************************************************************************
 223:.\Generated_Source\PSoC4/isr_1.c **** * Function Name: isr_1_GetPriority
 224:.\Generated_Source\PSoC4/isr_1.c **** ********************************************************************************
 225:.\Generated_Source\PSoC4/isr_1.c **** *
 226:.\Generated_Source\PSoC4/isr_1.c **** * Summary:
 227:.\Generated_Source\PSoC4/isr_1.c **** *   Gets the Priority of the Interrupt.
 228:.\Generated_Source\PSoC4/isr_1.c **** *
 229:.\Generated_Source\PSoC4/isr_1.c **** * Parameters:
 230:.\Generated_Source\PSoC4/isr_1.c **** *   None
 231:.\Generated_Source\PSoC4/isr_1.c **** *
 232:.\Generated_Source\PSoC4/isr_1.c **** * Return:
 233:.\Generated_Source\PSoC4/isr_1.c **** *   Priority of the interrupt. 0 - 3, 0 being the highest.
 234:.\Generated_Source\PSoC4/isr_1.c **** *
 235:.\Generated_Source\PSoC4/isr_1.c **** *******************************************************************************/
 236:.\Generated_Source\PSoC4/isr_1.c **** uint8 isr_1_GetPriority(void)
 237:.\Generated_Source\PSoC4/isr_1.c **** {
 321              		.loc 1 237 0
 322              		.cfi_startproc
 323 0000 80B5     		push	{r7, lr}
 324              	.LCFI17:
 325              		.cfi_def_cfa_offset 8
 326              		.cfi_offset 7, -8
 327              		.cfi_offset 14, -4
 328 0002 82B0     		sub	sp, sp, #8
 329              	.LCFI18:
 330              		.cfi_def_cfa_offset 16
 331 0004 00AF     		add	r7, sp, #0
 332              	.LCFI19:
ARM GAS  C:\Users\SNFU\AppData\Local\Temp\cc6an10D.s 			page 11


 333              		.cfi_def_cfa_register 7
 238:.\Generated_Source\PSoC4/isr_1.c ****     uint32 priority;
 239:.\Generated_Source\PSoC4/isr_1.c **** 	uint32 priorityOffset = ((isr_1__INTC_NUMBER % 4u) * 8u) + 6u;
 334              		.loc 1 239 0
 335 0006 0623     		mov	r3, #6
 336 0008 7B60     		str	r3, [r7, #4]
 240:.\Generated_Source\PSoC4/isr_1.c **** 
 241:.\Generated_Source\PSoC4/isr_1.c ****     priority = (*isr_1_INTC_PRIOR & isr_1__INTC_PRIOR_MASK) >> priorityOffset;
 337              		.loc 1 241 0
 338 000a 074B     		ldr	r3, .L23
 339 000c 1A68     		ldr	r2, [r3]
 340 000e C023     		mov	r3, #192
 341 0010 1A40     		and	r2, r3
 342 0012 7B68     		ldr	r3, [r7, #4]
 343 0014 111C     		mov	r1, r2
 344 0016 D940     		lsr	r1, r1, r3
 345 0018 0B1C     		mov	r3, r1
 346 001a 3B60     		str	r3, [r7]
 242:.\Generated_Source\PSoC4/isr_1.c **** 
 243:.\Generated_Source\PSoC4/isr_1.c ****     return (uint8)priority;
 347              		.loc 1 243 0
 348 001c 3B68     		ldr	r3, [r7]
 349 001e DBB2     		uxtb	r3, r3
 244:.\Generated_Source\PSoC4/isr_1.c **** }
 350              		.loc 1 244 0
 351 0020 181C     		mov	r0, r3
 352 0022 BD46     		mov	sp, r7
 353 0024 02B0     		add	sp, sp, #8
 354              		@ sp needed for prologue
 355 0026 80BD     		pop	{r7, pc}
 356              	.L24:
 357              		.align	2
 358              	.L23:
 359 0028 10E400E0 		.word	-536812528
 360              		.cfi_endproc
 361              	.LFE40:
 362              		.size	isr_1_GetPriority, .-isr_1_GetPriority
 363              		.section	.text.isr_1_Enable,"ax",%progbits
 364              		.align	2
 365              		.global	isr_1_Enable
 366              		.code	16
 367              		.thumb_func
 368              		.type	isr_1_Enable, %function
 369              	isr_1_Enable:
 370              	.LFB41:
 245:.\Generated_Source\PSoC4/isr_1.c **** 
 246:.\Generated_Source\PSoC4/isr_1.c **** 
 247:.\Generated_Source\PSoC4/isr_1.c **** /*******************************************************************************
 248:.\Generated_Source\PSoC4/isr_1.c **** * Function Name: isr_1_Enable
 249:.\Generated_Source\PSoC4/isr_1.c **** ********************************************************************************
 250:.\Generated_Source\PSoC4/isr_1.c **** *
 251:.\Generated_Source\PSoC4/isr_1.c **** * Summary:
 252:.\Generated_Source\PSoC4/isr_1.c **** *   Enables the interrupt.
 253:.\Generated_Source\PSoC4/isr_1.c **** *
 254:.\Generated_Source\PSoC4/isr_1.c **** * Parameters:
 255:.\Generated_Source\PSoC4/isr_1.c **** *   None
 256:.\Generated_Source\PSoC4/isr_1.c **** *
ARM GAS  C:\Users\SNFU\AppData\Local\Temp\cc6an10D.s 			page 12


 257:.\Generated_Source\PSoC4/isr_1.c **** * Return:
 258:.\Generated_Source\PSoC4/isr_1.c **** *   None
 259:.\Generated_Source\PSoC4/isr_1.c **** *
 260:.\Generated_Source\PSoC4/isr_1.c **** *******************************************************************************/
 261:.\Generated_Source\PSoC4/isr_1.c **** void isr_1_Enable(void)
 262:.\Generated_Source\PSoC4/isr_1.c **** {
 371              		.loc 1 262 0
 372              		.cfi_startproc
 373 0000 80B5     		push	{r7, lr}
 374              	.LCFI20:
 375              		.cfi_def_cfa_offset 8
 376              		.cfi_offset 7, -8
 377              		.cfi_offset 14, -4
 378 0002 00AF     		add	r7, sp, #0
 379              	.LCFI21:
 380              		.cfi_def_cfa_register 7
 263:.\Generated_Source\PSoC4/isr_1.c ****     /* Enable the general interrupt. */
 264:.\Generated_Source\PSoC4/isr_1.c ****     *isr_1_INTC_SET_EN = isr_1__INTC_MASK;
 381              		.loc 1 264 0
 382 0004 024B     		ldr	r3, .L26
 383 0006 8022     		mov	r2, #128
 384 0008 5202     		lsl	r2, r2, #9
 385 000a 1A60     		str	r2, [r3]
 265:.\Generated_Source\PSoC4/isr_1.c **** }
 386              		.loc 1 265 0
 387 000c BD46     		mov	sp, r7
 388              		@ sp needed for prologue
 389 000e 80BD     		pop	{r7, pc}
 390              	.L27:
 391              		.align	2
 392              	.L26:
 393 0010 00E100E0 		.word	-536813312
 394              		.cfi_endproc
 395              	.LFE41:
 396              		.size	isr_1_Enable, .-isr_1_Enable
 397              		.section	.text.isr_1_GetState,"ax",%progbits
 398              		.align	2
 399              		.global	isr_1_GetState
 400              		.code	16
 401              		.thumb_func
 402              		.type	isr_1_GetState, %function
 403              	isr_1_GetState:
 404              	.LFB42:
 266:.\Generated_Source\PSoC4/isr_1.c **** 
 267:.\Generated_Source\PSoC4/isr_1.c **** 
 268:.\Generated_Source\PSoC4/isr_1.c **** /*******************************************************************************
 269:.\Generated_Source\PSoC4/isr_1.c **** * Function Name: isr_1_GetState
 270:.\Generated_Source\PSoC4/isr_1.c **** ********************************************************************************
 271:.\Generated_Source\PSoC4/isr_1.c **** *
 272:.\Generated_Source\PSoC4/isr_1.c **** * Summary:
 273:.\Generated_Source\PSoC4/isr_1.c **** *   Gets the state (enabled, disabled) of the Interrupt.
 274:.\Generated_Source\PSoC4/isr_1.c **** *
 275:.\Generated_Source\PSoC4/isr_1.c **** * Parameters:
 276:.\Generated_Source\PSoC4/isr_1.c **** *   None
 277:.\Generated_Source\PSoC4/isr_1.c **** *
 278:.\Generated_Source\PSoC4/isr_1.c **** * Return:
 279:.\Generated_Source\PSoC4/isr_1.c **** *   1 if enabled, 0 if disabled.
ARM GAS  C:\Users\SNFU\AppData\Local\Temp\cc6an10D.s 			page 13


 280:.\Generated_Source\PSoC4/isr_1.c **** *
 281:.\Generated_Source\PSoC4/isr_1.c **** *******************************************************************************/
 282:.\Generated_Source\PSoC4/isr_1.c **** uint8 isr_1_GetState(void)
 283:.\Generated_Source\PSoC4/isr_1.c **** {
 405              		.loc 1 283 0
 406              		.cfi_startproc
 407 0000 80B5     		push	{r7, lr}
 408              	.LCFI22:
 409              		.cfi_def_cfa_offset 8
 410              		.cfi_offset 7, -8
 411              		.cfi_offset 14, -4
 412 0002 00AF     		add	r7, sp, #0
 413              	.LCFI23:
 414              		.cfi_def_cfa_register 7
 284:.\Generated_Source\PSoC4/isr_1.c ****     /* Get the state of the general interrupt. */
 285:.\Generated_Source\PSoC4/isr_1.c ****     return ((*isr_1_INTC_SET_EN & (uint32)isr_1__INTC_MASK) != 0u) ? 1u:0u;
 415              		.loc 1 285 0
 416 0004 054B     		ldr	r3, .L32
 417 0006 1A68     		ldr	r2, [r3]
 418 0008 8023     		mov	r3, #128
 419 000a 5B02     		lsl	r3, r3, #9
 420 000c 1340     		and	r3, r2
 421 000e 01D0     		beq	.L29
 422              		.loc 1 285 0 is_stmt 0 discriminator 1
 423 0010 0123     		mov	r3, #1
 424 0012 00E0     		b	.L30
 425              	.L29:
 426              		.loc 1 285 0 discriminator 2
 427 0014 0023     		mov	r3, #0
 428              	.L30:
 286:.\Generated_Source\PSoC4/isr_1.c **** }
 429              		.loc 1 286 0 is_stmt 1 discriminator 3
 430 0016 181C     		mov	r0, r3
 431 0018 BD46     		mov	sp, r7
 432              		@ sp needed for prologue
 433 001a 80BD     		pop	{r7, pc}
 434              	.L33:
 435              		.align	2
 436              	.L32:
 437 001c 00E100E0 		.word	-536813312
 438              		.cfi_endproc
 439              	.LFE42:
 440              		.size	isr_1_GetState, .-isr_1_GetState
 441              		.section	.text.isr_1_Disable,"ax",%progbits
 442              		.align	2
 443              		.global	isr_1_Disable
 444              		.code	16
 445              		.thumb_func
 446              		.type	isr_1_Disable, %function
 447              	isr_1_Disable:
 448              	.LFB43:
 287:.\Generated_Source\PSoC4/isr_1.c **** 
 288:.\Generated_Source\PSoC4/isr_1.c **** 
 289:.\Generated_Source\PSoC4/isr_1.c **** /*******************************************************************************
 290:.\Generated_Source\PSoC4/isr_1.c **** * Function Name: isr_1_Disable
 291:.\Generated_Source\PSoC4/isr_1.c **** ********************************************************************************
 292:.\Generated_Source\PSoC4/isr_1.c **** *
ARM GAS  C:\Users\SNFU\AppData\Local\Temp\cc6an10D.s 			page 14


 293:.\Generated_Source\PSoC4/isr_1.c **** * Summary:
 294:.\Generated_Source\PSoC4/isr_1.c **** *   Disables the Interrupt.
 295:.\Generated_Source\PSoC4/isr_1.c **** *
 296:.\Generated_Source\PSoC4/isr_1.c **** * Parameters:
 297:.\Generated_Source\PSoC4/isr_1.c **** *   None
 298:.\Generated_Source\PSoC4/isr_1.c **** *
 299:.\Generated_Source\PSoC4/isr_1.c **** * Return:
 300:.\Generated_Source\PSoC4/isr_1.c **** *   None
 301:.\Generated_Source\PSoC4/isr_1.c **** *
 302:.\Generated_Source\PSoC4/isr_1.c **** *******************************************************************************/
 303:.\Generated_Source\PSoC4/isr_1.c **** void isr_1_Disable(void)
 304:.\Generated_Source\PSoC4/isr_1.c **** {
 449              		.loc 1 304 0
 450              		.cfi_startproc
 451 0000 80B5     		push	{r7, lr}
 452              	.LCFI24:
 453              		.cfi_def_cfa_offset 8
 454              		.cfi_offset 7, -8
 455              		.cfi_offset 14, -4
 456 0002 00AF     		add	r7, sp, #0
 457              	.LCFI25:
 458              		.cfi_def_cfa_register 7
 305:.\Generated_Source\PSoC4/isr_1.c ****     /* Disable the general interrupt. */
 306:.\Generated_Source\PSoC4/isr_1.c ****     *isr_1_INTC_CLR_EN = isr_1__INTC_MASK;
 459              		.loc 1 306 0
 460 0004 024B     		ldr	r3, .L35
 461 0006 8022     		mov	r2, #128
 462 0008 5202     		lsl	r2, r2, #9
 463 000a 1A60     		str	r2, [r3]
 307:.\Generated_Source\PSoC4/isr_1.c **** }
 464              		.loc 1 307 0
 465 000c BD46     		mov	sp, r7
 466              		@ sp needed for prologue
 467 000e 80BD     		pop	{r7, pc}
 468              	.L36:
 469              		.align	2
 470              	.L35:
 471 0010 80E100E0 		.word	-536813184
 472              		.cfi_endproc
 473              	.LFE43:
 474              		.size	isr_1_Disable, .-isr_1_Disable
 475              		.section	.text.isr_1_SetPending,"ax",%progbits
 476              		.align	2
 477              		.global	isr_1_SetPending
 478              		.code	16
 479              		.thumb_func
 480              		.type	isr_1_SetPending, %function
 481              	isr_1_SetPending:
 482              	.LFB44:
 308:.\Generated_Source\PSoC4/isr_1.c **** 
 309:.\Generated_Source\PSoC4/isr_1.c **** 
 310:.\Generated_Source\PSoC4/isr_1.c **** /*******************************************************************************
 311:.\Generated_Source\PSoC4/isr_1.c **** * Function Name: isr_1_SetPending
 312:.\Generated_Source\PSoC4/isr_1.c **** ********************************************************************************
 313:.\Generated_Source\PSoC4/isr_1.c **** *
 314:.\Generated_Source\PSoC4/isr_1.c **** * Summary:
 315:.\Generated_Source\PSoC4/isr_1.c **** *   Causes the Interrupt to enter the pending state, a software method of
ARM GAS  C:\Users\SNFU\AppData\Local\Temp\cc6an10D.s 			page 15


 316:.\Generated_Source\PSoC4/isr_1.c **** *   generating the interrupt.
 317:.\Generated_Source\PSoC4/isr_1.c **** *
 318:.\Generated_Source\PSoC4/isr_1.c **** * Parameters:
 319:.\Generated_Source\PSoC4/isr_1.c **** *   None
 320:.\Generated_Source\PSoC4/isr_1.c **** *
 321:.\Generated_Source\PSoC4/isr_1.c **** * Return:
 322:.\Generated_Source\PSoC4/isr_1.c **** *   None
 323:.\Generated_Source\PSoC4/isr_1.c **** *
 324:.\Generated_Source\PSoC4/isr_1.c **** *******************************************************************************/
 325:.\Generated_Source\PSoC4/isr_1.c **** void isr_1_SetPending(void)
 326:.\Generated_Source\PSoC4/isr_1.c **** {
 483              		.loc 1 326 0
 484              		.cfi_startproc
 485 0000 80B5     		push	{r7, lr}
 486              	.LCFI26:
 487              		.cfi_def_cfa_offset 8
 488              		.cfi_offset 7, -8
 489              		.cfi_offset 14, -4
 490 0002 00AF     		add	r7, sp, #0
 491              	.LCFI27:
 492              		.cfi_def_cfa_register 7
 327:.\Generated_Source\PSoC4/isr_1.c ****     *isr_1_INTC_SET_PD = isr_1__INTC_MASK;
 493              		.loc 1 327 0
 494 0004 024B     		ldr	r3, .L38
 495 0006 8022     		mov	r2, #128
 496 0008 5202     		lsl	r2, r2, #9
 497 000a 1A60     		str	r2, [r3]
 328:.\Generated_Source\PSoC4/isr_1.c **** }
 498              		.loc 1 328 0
 499 000c BD46     		mov	sp, r7
 500              		@ sp needed for prologue
 501 000e 80BD     		pop	{r7, pc}
 502              	.L39:
 503              		.align	2
 504              	.L38:
 505 0010 00E200E0 		.word	-536813056
 506              		.cfi_endproc
 507              	.LFE44:
 508              		.size	isr_1_SetPending, .-isr_1_SetPending
 509              		.section	.text.isr_1_ClearPending,"ax",%progbits
 510              		.align	2
 511              		.global	isr_1_ClearPending
 512              		.code	16
 513              		.thumb_func
 514              		.type	isr_1_ClearPending, %function
 515              	isr_1_ClearPending:
 516              	.LFB45:
 329:.\Generated_Source\PSoC4/isr_1.c **** 
 330:.\Generated_Source\PSoC4/isr_1.c **** 
 331:.\Generated_Source\PSoC4/isr_1.c **** /*******************************************************************************
 332:.\Generated_Source\PSoC4/isr_1.c **** * Function Name: isr_1_ClearPending
 333:.\Generated_Source\PSoC4/isr_1.c **** ********************************************************************************
 334:.\Generated_Source\PSoC4/isr_1.c **** *
 335:.\Generated_Source\PSoC4/isr_1.c **** * Summary:
 336:.\Generated_Source\PSoC4/isr_1.c **** *   Clears a pending interrupt.
 337:.\Generated_Source\PSoC4/isr_1.c **** *
 338:.\Generated_Source\PSoC4/isr_1.c **** * Parameters:
ARM GAS  C:\Users\SNFU\AppData\Local\Temp\cc6an10D.s 			page 16


 339:.\Generated_Source\PSoC4/isr_1.c **** *   None
 340:.\Generated_Source\PSoC4/isr_1.c **** *
 341:.\Generated_Source\PSoC4/isr_1.c **** * Return:
 342:.\Generated_Source\PSoC4/isr_1.c **** *   None
 343:.\Generated_Source\PSoC4/isr_1.c **** *
 344:.\Generated_Source\PSoC4/isr_1.c **** *******************************************************************************/
 345:.\Generated_Source\PSoC4/isr_1.c **** void isr_1_ClearPending(void)
 346:.\Generated_Source\PSoC4/isr_1.c **** {
 517              		.loc 1 346 0
 518              		.cfi_startproc
 519 0000 80B5     		push	{r7, lr}
 520              	.LCFI28:
 521              		.cfi_def_cfa_offset 8
 522              		.cfi_offset 7, -8
 523              		.cfi_offset 14, -4
 524 0002 00AF     		add	r7, sp, #0
 525              	.LCFI29:
 526              		.cfi_def_cfa_register 7
 347:.\Generated_Source\PSoC4/isr_1.c ****     *isr_1_INTC_CLR_PD = isr_1__INTC_MASK;
 527              		.loc 1 347 0
 528 0004 024B     		ldr	r3, .L41
 529 0006 8022     		mov	r2, #128
 530 0008 5202     		lsl	r2, r2, #9
 531 000a 1A60     		str	r2, [r3]
 348:.\Generated_Source\PSoC4/isr_1.c **** }
 532              		.loc 1 348 0
 533 000c BD46     		mov	sp, r7
 534              		@ sp needed for prologue
 535 000e 80BD     		pop	{r7, pc}
 536              	.L42:
 537              		.align	2
 538              	.L41:
 539 0010 80E200E0 		.word	-536812928
 540              		.cfi_endproc
 541              	.LFE45:
 542              		.size	isr_1_ClearPending, .-isr_1_ClearPending
 543              		.text
 544              	.Letext0:
 545              		.file 2 "c:\\program files\\cypress\\psoc creator\\3.0\\psoc creator\\import\\gnu_cs\\arm\\4.7.3\\
 546              		.file 3 "./Generated_Source/PSoC4/cytypes.h"