ARM GAS  C:\Users\SNFU\AppData\Local\Temp\cc2qKFEC.s 			page 1


   1              		.cpu cortex-m0
   2              		.fpu softvfp
   3              		.eabi_attribute 20, 1
   4              		.eabi_attribute 21, 1
   5              		.eabi_attribute 23, 3
   6              		.eabi_attribute 24, 1
   7              		.eabi_attribute 25, 1
   8              		.eabi_attribute 26, 1
   9              		.eabi_attribute 30, 6
  10              		.eabi_attribute 34, 0
  11              		.eabi_attribute 18, 4
  12              		.code	16
  13              		.file	"main.c"
  14              		.text
  15              	.Ltext0:
  16              		.cfi_sections	.debug_frame
  17              		.section	.text.crc_accumulate,"ax",%progbits
  18              		.align	2
  19              		.code	16
  20              		.thumb_func
  21              		.type	crc_accumulate, %function
  22              	crc_accumulate:
  23              	.LFB33:
  24              		.file 1 "./common/../checksum.h"
   1:./common/../checksum.h **** 
   2:./common/../checksum.h **** #ifdef __cplusplus
   3:./common/../checksum.h **** extern "C" {
   4:./common/../checksum.h **** #endif
   5:./common/../checksum.h **** 
   6:./common/../checksum.h **** #ifndef _CHECKSUM_H_
   7:./common/../checksum.h **** #define _CHECKSUM_H_
   8:./common/../checksum.h **** 
   9:./common/../checksum.h **** // Visual Studio versions before 2010 don't have stdint.h, so we just error out.
  10:./common/../checksum.h **** #if (defined _MSC_VER) && (_MSC_VER < 1600)
  11:./common/../checksum.h **** #error "The C-MAVLink implementation requires Visual Studio 2010 or greater"
  12:./common/../checksum.h **** #endif
  13:./common/../checksum.h **** 
  14:./common/../checksum.h **** #include <stdint.h>
  15:./common/../checksum.h **** 
  16:./common/../checksum.h **** /**
  17:./common/../checksum.h ****  *
  18:./common/../checksum.h ****  *  CALCULATE THE CHECKSUM
  19:./common/../checksum.h ****  *
  20:./common/../checksum.h ****  */
  21:./common/../checksum.h **** 
  22:./common/../checksum.h **** #define X25_INIT_CRC 0xffff
  23:./common/../checksum.h **** #define X25_VALIDATE_CRC 0xf0b8
  24:./common/../checksum.h **** 
  25:./common/../checksum.h **** #ifndef HAVE_CRC_ACCUMULATE
  26:./common/../checksum.h **** /**
  27:./common/../checksum.h ****  * @brief Accumulate the X.25 CRC by adding one char at a time.
  28:./common/../checksum.h ****  *
  29:./common/../checksum.h ****  * The checksum function adds the hash of one char at a time to the
  30:./common/../checksum.h ****  * 16 bit checksum (uint16_t).
  31:./common/../checksum.h ****  *
  32:./common/../checksum.h ****  * @param data new char to hash
  33:./common/../checksum.h ****  * @param crcAccum the already accumulated checksum
ARM GAS  C:\Users\SNFU\AppData\Local\Temp\cc2qKFEC.s 			page 2


  34:./common/../checksum.h ****  **/
  35:./common/../checksum.h **** static inline void crc_accumulate(uint8_t data, uint16_t *crcAccum)
  36:./common/../checksum.h **** {
  25              		.loc 1 36 0
  26              		.cfi_startproc
  27 0000 80B5     		push	{r7, lr}
  28              	.LCFI0:
  29              		.cfi_def_cfa_offset 8
  30              		.cfi_offset 7, -8
  31              		.cfi_offset 14, -4
  32 0002 84B0     		sub	sp, sp, #16
  33              	.LCFI1:
  34              		.cfi_def_cfa_offset 24
  35 0004 00AF     		add	r7, sp, #0
  36              	.LCFI2:
  37              		.cfi_def_cfa_register 7
  38 0006 021C     		mov	r2, r0
  39 0008 3960     		str	r1, [r7]
  40 000a FB1D     		add	r3, r7, #7
  41 000c 1A70     		strb	r2, [r3]
  37:./common/../checksum.h ****         /*Accumulate one byte of data into the CRC*/
  38:./common/../checksum.h ****         uint8_t tmp;
  39:./common/../checksum.h **** 
  40:./common/../checksum.h ****         tmp = data ^ (uint8_t)(*crcAccum &0xff);
  42              		.loc 1 40 0
  43 000e 3B68     		ldr	r3, [r7]
  44 0010 1B88     		ldrh	r3, [r3]
  45 0012 D9B2     		uxtb	r1, r3
  46 0014 3B1C     		mov	r3, r7
  47 0016 0F33     		add	r3, r3, #15
  48 0018 FA1D     		add	r2, r7, #7
  49 001a 1278     		ldrb	r2, [r2]
  50 001c 4A40     		eor	r2, r1
  51 001e 1A70     		strb	r2, [r3]
  41:./common/../checksum.h ****         tmp ^= (tmp<<4);
  52              		.loc 1 41 0
  53 0020 3B1C     		mov	r3, r7
  54 0022 0F33     		add	r3, r3, #15
  55 0024 1B78     		ldrb	r3, [r3]
  56 0026 1B01     		lsl	r3, r3, #4
  57 0028 DAB2     		uxtb	r2, r3
  58 002a 3B1C     		mov	r3, r7
  59 002c 0F33     		add	r3, r3, #15
  60 002e 1B78     		ldrb	r3, [r3]
  61 0030 5340     		eor	r3, r2
  62 0032 DAB2     		uxtb	r2, r3
  63 0034 3B1C     		mov	r3, r7
  64 0036 0F33     		add	r3, r3, #15
  65 0038 1A70     		strb	r2, [r3]
  42:./common/../checksum.h ****         *crcAccum = (*crcAccum>>8) ^ (tmp<<8) ^ (tmp <<3) ^ (tmp>>4);
  66              		.loc 1 42 0
  67 003a 3B68     		ldr	r3, [r7]
  68 003c 1B88     		ldrh	r3, [r3]
  69 003e 1B0A     		lsr	r3, r3, #8
  70 0040 9BB2     		uxth	r3, r3
  71 0042 9AB2     		uxth	r2, r3
  72 0044 3B1C     		mov	r3, r7
ARM GAS  C:\Users\SNFU\AppData\Local\Temp\cc2qKFEC.s 			page 3


  73 0046 0F33     		add	r3, r3, #15
  74 0048 1B78     		ldrb	r3, [r3]
  75 004a 1B02     		lsl	r3, r3, #8
  76 004c 9BB2     		uxth	r3, r3
  77 004e 5340     		eor	r3, r2
  78 0050 9AB2     		uxth	r2, r3
  79 0052 3B1C     		mov	r3, r7
  80 0054 0F33     		add	r3, r3, #15
  81 0056 1B78     		ldrb	r3, [r3]
  82 0058 DB00     		lsl	r3, r3, #3
  83 005a 9BB2     		uxth	r3, r3
  84 005c 5340     		eor	r3, r2
  85 005e 9AB2     		uxth	r2, r3
  86 0060 3B1C     		mov	r3, r7
  87 0062 0F33     		add	r3, r3, #15
  88 0064 1B78     		ldrb	r3, [r3]
  89 0066 1B09     		lsr	r3, r3, #4
  90 0068 DBB2     		uxtb	r3, r3
  91 006a 5340     		eor	r3, r2
  92 006c 9BB2     		uxth	r3, r3
  93 006e 9AB2     		uxth	r2, r3
  94 0070 3B68     		ldr	r3, [r7]
  95 0072 1A80     		strh	r2, [r3]
  43:./common/../checksum.h **** }
  96              		.loc 1 43 0
  97 0074 BD46     		mov	sp, r7
  98 0076 04B0     		add	sp, sp, #16
  99              		@ sp needed for prologue
 100 0078 80BD     		pop	{r7, pc}
 101              		.cfi_endproc
 102              	.LFE33:
 103              		.size	crc_accumulate, .-crc_accumulate
 104 007a C046     		.section	.text.crc_init,"ax",%progbits
 105              		.align	2
 106              		.code	16
 107              		.thumb_func
 108              		.type	crc_init, %function
 109              	crc_init:
 110              	.LFB34:
  44:./common/../checksum.h **** #endif
  45:./common/../checksum.h **** 
  46:./common/../checksum.h **** 
  47:./common/../checksum.h **** /**
  48:./common/../checksum.h ****  * @brief Initiliaze the buffer for the X.25 CRC
  49:./common/../checksum.h ****  *
  50:./common/../checksum.h ****  * @param crcAccum the 16 bit X.25 CRC
  51:./common/../checksum.h ****  */
  52:./common/../checksum.h **** static inline void crc_init(uint16_t* crcAccum)
  53:./common/../checksum.h **** {
 111              		.loc 1 53 0
 112              		.cfi_startproc
 113 0000 80B5     		push	{r7, lr}
 114              	.LCFI3:
 115              		.cfi_def_cfa_offset 8
 116              		.cfi_offset 7, -8
 117              		.cfi_offset 14, -4
 118 0002 82B0     		sub	sp, sp, #8
ARM GAS  C:\Users\SNFU\AppData\Local\Temp\cc2qKFEC.s 			page 4


 119              	.LCFI4:
 120              		.cfi_def_cfa_offset 16
 121 0004 00AF     		add	r7, sp, #0
 122              	.LCFI5:
 123              		.cfi_def_cfa_register 7
 124 0006 7860     		str	r0, [r7, #4]
  54:./common/../checksum.h ****         *crcAccum = X25_INIT_CRC;
 125              		.loc 1 54 0
 126 0008 7B68     		ldr	r3, [r7, #4]
 127 000a 0122     		mov	r2, #1
 128 000c 5242     		neg	r2, r2
 129 000e 1A80     		strh	r2, [r3]
  55:./common/../checksum.h **** }
 130              		.loc 1 55 0
 131 0010 BD46     		mov	sp, r7
 132 0012 02B0     		add	sp, sp, #8
 133              		@ sp needed for prologue
 134 0014 80BD     		pop	{r7, pc}
 135              		.cfi_endproc
 136              	.LFE34:
 137              		.size	crc_init, .-crc_init
 138 0016 C046     		.section	.text.crc_calculate,"ax",%progbits
 139              		.align	2
 140              		.code	16
 141              		.thumb_func
 142              		.type	crc_calculate, %function
 143              	crc_calculate:
 144              	.LFB35:
  56:./common/../checksum.h **** 
  57:./common/../checksum.h **** 
  58:./common/../checksum.h **** /**
  59:./common/../checksum.h ****  * @brief Calculates the X.25 checksum on a byte buffer
  60:./common/../checksum.h ****  *
  61:./common/../checksum.h ****  * @param  pBuffer buffer containing the byte array to hash
  62:./common/../checksum.h ****  * @param  length  length of the byte array
  63:./common/../checksum.h ****  * @return the checksum over the buffer bytes
  64:./common/../checksum.h ****  **/
  65:./common/../checksum.h **** static inline uint16_t crc_calculate(const uint8_t* pBuffer, uint16_t length)
  66:./common/../checksum.h **** {
 145              		.loc 1 66 0
 146              		.cfi_startproc
 147 0000 80B5     		push	{r7, lr}
 148              	.LCFI6:
 149              		.cfi_def_cfa_offset 8
 150              		.cfi_offset 7, -8
 151              		.cfi_offset 14, -4
 152 0002 84B0     		sub	sp, sp, #16
 153              	.LCFI7:
 154              		.cfi_def_cfa_offset 24
 155 0004 00AF     		add	r7, sp, #0
 156              	.LCFI8:
 157              		.cfi_def_cfa_register 7
 158 0006 7860     		str	r0, [r7, #4]
 159 0008 0A1C     		mov	r2, r1
 160 000a BB1C     		add	r3, r7, #2
 161 000c 1A80     		strh	r2, [r3]
  67:./common/../checksum.h ****         uint16_t crcTmp;
ARM GAS  C:\Users\SNFU\AppData\Local\Temp\cc2qKFEC.s 			page 5


  68:./common/../checksum.h ****         crc_init(&crcTmp);
 162              		.loc 1 68 0
 163 000e 3B1C     		mov	r3, r7
 164 0010 0E33     		add	r3, r3, #14
 165 0012 181C     		mov	r0, r3
 166 0014 FFF7FEFF 		bl	crc_init
  69:./common/../checksum.h **** 	while (length--) {
 167              		.loc 1 69 0
 168 0018 0AE0     		b	.L4
 169              	.L5:
  70:./common/../checksum.h ****                 crc_accumulate(*pBuffer++, &crcTmp);
 170              		.loc 1 70 0
 171 001a 7B68     		ldr	r3, [r7, #4]
 172 001c 1A78     		ldrb	r2, [r3]
 173 001e 7B68     		ldr	r3, [r7, #4]
 174 0020 0133     		add	r3, r3, #1
 175 0022 7B60     		str	r3, [r7, #4]
 176 0024 3B1C     		mov	r3, r7
 177 0026 0E33     		add	r3, r3, #14
 178 0028 101C     		mov	r0, r2
 179 002a 191C     		mov	r1, r3
 180 002c FFF7FEFF 		bl	crc_accumulate
 181              	.L4:
  69:./common/../checksum.h **** 	while (length--) {
 182              		.loc 1 69 0 discriminator 1
 183 0030 BB1C     		add	r3, r7, #2
 184 0032 1B88     		ldrh	r3, [r3]
 185 0034 5A1E     		sub	r2, r3, #1
 186 0036 9341     		sbc	r3, r3, r2
 187 0038 DBB2     		uxtb	r3, r3
 188 003a BA1C     		add	r2, r7, #2
 189 003c B91C     		add	r1, r7, #2
 190 003e 0988     		ldrh	r1, [r1]
 191 0040 0139     		sub	r1, r1, #1
 192 0042 1180     		strh	r1, [r2]
 193 0044 002B     		cmp	r3, #0
 194 0046 E8D1     		bne	.L5
  71:./common/../checksum.h ****         }
  72:./common/../checksum.h ****         return crcTmp;
 195              		.loc 1 72 0
 196 0048 3B1C     		mov	r3, r7
 197 004a 0E33     		add	r3, r3, #14
 198 004c 1B88     		ldrh	r3, [r3]
  73:./common/../checksum.h **** }
 199              		.loc 1 73 0
 200 004e 181C     		mov	r0, r3
 201 0050 BD46     		mov	sp, r7
 202 0052 04B0     		add	sp, sp, #16
 203              		@ sp needed for prologue
 204 0054 80BD     		pop	{r7, pc}
 205              		.cfi_endproc
 206              	.LFE35:
 207              		.size	crc_calculate, .-crc_calculate
 208 0056 C046     		.section	.text.crc_accumulate_buffer,"ax",%progbits
 209              		.align	2
 210              		.code	16
 211              		.thumb_func
ARM GAS  C:\Users\SNFU\AppData\Local\Temp\cc2qKFEC.s 			page 6


 212              		.type	crc_accumulate_buffer, %function
 213              	crc_accumulate_buffer:
 214              	.LFB36:
  74:./common/../checksum.h **** 
  75:./common/../checksum.h **** 
  76:./common/../checksum.h **** /**
  77:./common/../checksum.h ****  * @brief Accumulate the X.25 CRC by adding an array of bytes
  78:./common/../checksum.h ****  *
  79:./common/../checksum.h ****  * The checksum function adds the hash of one char at a time to the
  80:./common/../checksum.h ****  * 16 bit checksum (uint16_t).
  81:./common/../checksum.h ****  *
  82:./common/../checksum.h ****  * @param data new bytes to hash
  83:./common/../checksum.h ****  * @param crcAccum the already accumulated checksum
  84:./common/../checksum.h ****  **/
  85:./common/../checksum.h **** static inline void crc_accumulate_buffer(uint16_t *crcAccum, const char *pBuffer, uint16_t length)
  86:./common/../checksum.h **** {
 215              		.loc 1 86 0
 216              		.cfi_startproc
 217 0000 80B5     		push	{r7, lr}
 218              	.LCFI9:
 219              		.cfi_def_cfa_offset 8
 220              		.cfi_offset 7, -8
 221              		.cfi_offset 14, -4
 222 0002 86B0     		sub	sp, sp, #24
 223              	.LCFI10:
 224              		.cfi_def_cfa_offset 32
 225 0004 00AF     		add	r7, sp, #0
 226              	.LCFI11:
 227              		.cfi_def_cfa_register 7
 228 0006 F860     		str	r0, [r7, #12]
 229 0008 B960     		str	r1, [r7, #8]
 230 000a BB1D     		add	r3, r7, #6
 231 000c 1A80     		strh	r2, [r3]
  87:./common/../checksum.h **** 	const uint8_t *p = (const uint8_t *)pBuffer;
 232              		.loc 1 87 0
 233 000e BB68     		ldr	r3, [r7, #8]
 234 0010 7B61     		str	r3, [r7, #20]
  88:./common/../checksum.h **** 	while (length--) {
 235              		.loc 1 88 0
 236 0012 09E0     		b	.L8
 237              	.L9:
  89:./common/../checksum.h ****                 crc_accumulate(*p++, crcAccum);
 238              		.loc 1 89 0
 239 0014 7B69     		ldr	r3, [r7, #20]
 240 0016 1A78     		ldrb	r2, [r3]
 241 0018 7B69     		ldr	r3, [r7, #20]
 242 001a 0133     		add	r3, r3, #1
 243 001c 7B61     		str	r3, [r7, #20]
 244 001e FB68     		ldr	r3, [r7, #12]
 245 0020 101C     		mov	r0, r2
 246 0022 191C     		mov	r1, r3
 247 0024 FFF7FEFF 		bl	crc_accumulate
 248              	.L8:
  88:./common/../checksum.h **** 	while (length--) {
 249              		.loc 1 88 0 discriminator 1
 250 0028 BB1D     		add	r3, r7, #6
 251 002a 1B88     		ldrh	r3, [r3]
ARM GAS  C:\Users\SNFU\AppData\Local\Temp\cc2qKFEC.s 			page 7


 252 002c 5A1E     		sub	r2, r3, #1
 253 002e 9341     		sbc	r3, r3, r2
 254 0030 DBB2     		uxtb	r3, r3
 255 0032 BA1D     		add	r2, r7, #6
 256 0034 B91D     		add	r1, r7, #6
 257 0036 0988     		ldrh	r1, [r1]
 258 0038 0139     		sub	r1, r1, #1
 259 003a 1180     		strh	r1, [r2]
 260 003c 002B     		cmp	r3, #0
 261 003e E9D1     		bne	.L9
  90:./common/../checksum.h ****         }
  91:./common/../checksum.h **** }
 262              		.loc 1 91 0
 263 0040 BD46     		mov	sp, r7
 264 0042 06B0     		add	sp, sp, #24
 265              		@ sp needed for prologue
 266 0044 80BD     		pop	{r7, pc}
 267              		.cfi_endproc
 268              	.LFE36:
 269              		.size	crc_accumulate_buffer, .-crc_accumulate_buffer
 270 0046 C046     		.section	.text.mavlink_get_channel_status,"ax",%progbits
 271              		.align	2
 272              		.code	16
 273              		.thumb_func
 274              		.type	mavlink_get_channel_status, %function
 275              	mavlink_get_channel_status:
 276              	.LFB43:
 277              		.file 2 "./common/../mavlink_helpers.h"
   1:./common/../mavlink_helpers.h **** #ifndef  _MAVLINK_HELPERS_H_
   2:./common/../mavlink_helpers.h **** #define  _MAVLINK_HELPERS_H_
   3:./common/../mavlink_helpers.h **** 
   4:./common/../mavlink_helpers.h **** #include "string.h"
   5:./common/../mavlink_helpers.h **** #include "checksum.h"
   6:./common/../mavlink_helpers.h **** #include "mavlink_types.h"
   7:./common/../mavlink_helpers.h **** #include "mavlink_conversions.h"
   8:./common/../mavlink_helpers.h **** 
   9:./common/../mavlink_helpers.h **** #ifndef MAVLINK_HELPER
  10:./common/../mavlink_helpers.h **** #define MAVLINK_HELPER
  11:./common/../mavlink_helpers.h **** #endif
  12:./common/../mavlink_helpers.h **** 
  13:./common/../mavlink_helpers.h **** /*
  14:./common/../mavlink_helpers.h ****  * Internal function to give access to the channel status for each channel
  15:./common/../mavlink_helpers.h ****  */
  16:./common/../mavlink_helpers.h **** #ifndef MAVLINK_GET_CHANNEL_STATUS
  17:./common/../mavlink_helpers.h **** MAVLINK_HELPER mavlink_status_t* mavlink_get_channel_status(uint8_t chan)
  18:./common/../mavlink_helpers.h **** {
 278              		.loc 2 18 0
 279              		.cfi_startproc
 280 0000 80B5     		push	{r7, lr}
 281              	.LCFI12:
 282              		.cfi_def_cfa_offset 8
 283              		.cfi_offset 7, -8
 284              		.cfi_offset 14, -4
 285 0002 82B0     		sub	sp, sp, #8
 286              	.LCFI13:
 287              		.cfi_def_cfa_offset 16
 288 0004 00AF     		add	r7, sp, #0
ARM GAS  C:\Users\SNFU\AppData\Local\Temp\cc2qKFEC.s 			page 8


 289              	.LCFI14:
 290              		.cfi_def_cfa_register 7
 291 0006 021C     		mov	r2, r0
 292 0008 FB1D     		add	r3, r7, #7
 293 000a 1A70     		strb	r2, [r3]
  19:./common/../mavlink_helpers.h **** #ifdef MAVLINK_EXTERNAL_RX_STATUS
  20:./common/../mavlink_helpers.h **** 	// No m_mavlink_status array defined in function,
  21:./common/../mavlink_helpers.h **** 	// has to be defined externally
  22:./common/../mavlink_helpers.h **** #else
  23:./common/../mavlink_helpers.h **** 	static mavlink_status_t m_mavlink_status[MAVLINK_COMM_NUM_BUFFERS];
  24:./common/../mavlink_helpers.h **** #endif
  25:./common/../mavlink_helpers.h **** 	return &m_mavlink_status[chan];
 294              		.loc 2 25 0
 295 000c FB1D     		add	r3, r7, #7
 296 000e 1A78     		ldrb	r2, [r3]
 297 0010 131C     		mov	r3, r2
 298 0012 5B00     		lsl	r3, r3, #1
 299 0014 9B18     		add	r3, r3, r2
 300 0016 9B00     		lsl	r3, r3, #2
 301 0018 024A     		ldr	r2, .L12
 302 001a 9B18     		add	r3, r3, r2
  26:./common/../mavlink_helpers.h **** }
 303              		.loc 2 26 0
 304 001c 181C     		mov	r0, r3
 305 001e BD46     		mov	sp, r7
 306 0020 02B0     		add	sp, sp, #8
 307              		@ sp needed for prologue
 308 0022 80BD     		pop	{r7, pc}
 309              	.L13:
 310              		.align	2
 311              	.L12:
 312 0024 70000000 		.word	m_mavlink_status.7719
 313              		.cfi_endproc
 314              	.LFE43:
 315              		.size	mavlink_get_channel_status, .-mavlink_get_channel_status
 316              		.section	.text.mavlink_finalize_message_chan,"ax",%progbits
 317              		.align	2
 318              		.code	16
 319              		.thumb_func
 320              		.type	mavlink_finalize_message_chan, %function
 321              	mavlink_finalize_message_chan:
 322              	.LFB46:
  27:./common/../mavlink_helpers.h **** #endif
  28:./common/../mavlink_helpers.h **** 
  29:./common/../mavlink_helpers.h **** /*
  30:./common/../mavlink_helpers.h ****  * Internal function to give access to the channel buffer for each channel
  31:./common/../mavlink_helpers.h ****  */
  32:./common/../mavlink_helpers.h **** #ifndef MAVLINK_GET_CHANNEL_BUFFER
  33:./common/../mavlink_helpers.h **** MAVLINK_HELPER mavlink_message_t* mavlink_get_channel_buffer(uint8_t chan)
  34:./common/../mavlink_helpers.h **** {
  35:./common/../mavlink_helpers.h **** 	
  36:./common/../mavlink_helpers.h **** #ifdef MAVLINK_EXTERNAL_RX_BUFFER
  37:./common/../mavlink_helpers.h **** 	// No m_mavlink_buffer array defined in function,
  38:./common/../mavlink_helpers.h **** 	// has to be defined externally
  39:./common/../mavlink_helpers.h **** #else
  40:./common/../mavlink_helpers.h **** 	static mavlink_message_t m_mavlink_buffer[MAVLINK_COMM_NUM_BUFFERS];
  41:./common/../mavlink_helpers.h **** #endif
ARM GAS  C:\Users\SNFU\AppData\Local\Temp\cc2qKFEC.s 			page 9


  42:./common/../mavlink_helpers.h **** 	return &m_mavlink_buffer[chan];
  43:./common/../mavlink_helpers.h **** }
  44:./common/../mavlink_helpers.h **** #endif
  45:./common/../mavlink_helpers.h **** 
  46:./common/../mavlink_helpers.h **** /**
  47:./common/../mavlink_helpers.h ****  * @brief Reset the status of a channel.
  48:./common/../mavlink_helpers.h ****  */
  49:./common/../mavlink_helpers.h **** MAVLINK_HELPER void mavlink_reset_channel_status(uint8_t chan)
  50:./common/../mavlink_helpers.h **** {
  51:./common/../mavlink_helpers.h **** 	mavlink_status_t *status = mavlink_get_channel_status(chan);
  52:./common/../mavlink_helpers.h **** 	status->parse_state = MAVLINK_PARSE_STATE_IDLE;
  53:./common/../mavlink_helpers.h **** }
  54:./common/../mavlink_helpers.h **** 
  55:./common/../mavlink_helpers.h **** /**
  56:./common/../mavlink_helpers.h ****  * @brief Finalize a MAVLink message with channel assignment
  57:./common/../mavlink_helpers.h ****  *
  58:./common/../mavlink_helpers.h ****  * This function calculates the checksum and sets length and aircraft id correctly.
  59:./common/../mavlink_helpers.h ****  * It assumes that the message id and the payload are already correctly set. This function
  60:./common/../mavlink_helpers.h ****  * can also be used if the message header has already been written before (as in mavlink_msg_xxx_pa
  61:./common/../mavlink_helpers.h ****  * instead of mavlink_msg_xxx_pack_headerless), it just introduces little extra overhead.
  62:./common/../mavlink_helpers.h ****  *
  63:./common/../mavlink_helpers.h ****  * @param msg Message to finalize
  64:./common/../mavlink_helpers.h ****  * @param system_id Id of the sending (this) system, 1-127
  65:./common/../mavlink_helpers.h ****  * @param length Message length
  66:./common/../mavlink_helpers.h ****  */
  67:./common/../mavlink_helpers.h **** #if MAVLINK_CRC_EXTRA
  68:./common/../mavlink_helpers.h **** MAVLINK_HELPER uint16_t mavlink_finalize_message_chan(mavlink_message_t* msg, uint8_t system_id, ui
  69:./common/../mavlink_helpers.h **** 						      uint8_t chan, uint8_t length, uint8_t crc_extra)
  70:./common/../mavlink_helpers.h **** #else
  71:./common/../mavlink_helpers.h **** MAVLINK_HELPER uint16_t mavlink_finalize_message_chan(mavlink_message_t* msg, uint8_t system_id, ui
  72:./common/../mavlink_helpers.h **** 						      uint8_t chan, uint8_t length)
  73:./common/../mavlink_helpers.h **** #endif
  74:./common/../mavlink_helpers.h **** {
 323              		.loc 2 74 0
 324              		.cfi_startproc
 325 0000 90B5     		push	{r4, r7, lr}
 326              	.LCFI15:
 327              		.cfi_def_cfa_offset 12
 328              		.cfi_offset 4, -12
 329              		.cfi_offset 7, -8
 330              		.cfi_offset 14, -4
 331 0002 83B0     		sub	sp, sp, #12
 332              	.LCFI16:
 333              		.cfi_def_cfa_offset 24
 334 0004 00AF     		add	r7, sp, #0
 335              	.LCFI17:
 336              		.cfi_def_cfa_register 7
 337 0006 7860     		str	r0, [r7, #4]
 338 0008 081C     		mov	r0, r1
 339 000a 111C     		mov	r1, r2
 340 000c 1A1C     		mov	r2, r3
 341 000e FB1C     		add	r3, r7, #3
 342 0010 1870     		strb	r0, [r3]
 343 0012 BB1C     		add	r3, r7, #2
 344 0014 1970     		strb	r1, [r3]
 345 0016 7B1C     		add	r3, r7, #1
 346 0018 1A70     		strb	r2, [r3]
ARM GAS  C:\Users\SNFU\AppData\Local\Temp\cc2qKFEC.s 			page 10


  75:./common/../mavlink_helpers.h **** 	// This code part is the same for all messages;
  76:./common/../mavlink_helpers.h **** 	msg->magic = MAVLINK_STX;
 347              		.loc 2 76 0
 348 001a 7B68     		ldr	r3, [r7, #4]
 349 001c FE22     		mov	r2, #254
 350 001e 9A70     		strb	r2, [r3, #2]
  77:./common/../mavlink_helpers.h **** 	msg->len = length;
 351              		.loc 2 77 0
 352 0020 7B68     		ldr	r3, [r7, #4]
 353 0022 3A1C     		mov	r2, r7
 354 0024 1832     		add	r2, r2, #24
 355 0026 1278     		ldrb	r2, [r2]
 356 0028 DA70     		strb	r2, [r3, #3]
  78:./common/../mavlink_helpers.h **** 	msg->sysid = system_id;
 357              		.loc 2 78 0
 358 002a 7B68     		ldr	r3, [r7, #4]
 359 002c FA1C     		add	r2, r7, #3
 360 002e 1278     		ldrb	r2, [r2]
 361 0030 5A71     		strb	r2, [r3, #5]
  79:./common/../mavlink_helpers.h **** 	msg->compid = component_id;
 362              		.loc 2 79 0
 363 0032 7B68     		ldr	r3, [r7, #4]
 364 0034 BA1C     		add	r2, r7, #2
 365 0036 1278     		ldrb	r2, [r2]
 366 0038 9A71     		strb	r2, [r3, #6]
  80:./common/../mavlink_helpers.h **** 	// One sequence number per channel
  81:./common/../mavlink_helpers.h **** 	msg->seq = mavlink_get_channel_status(chan)->current_tx_seq;
 367              		.loc 2 81 0
 368 003a 7B1C     		add	r3, r7, #1
 369 003c 1B78     		ldrb	r3, [r3]
 370 003e 181C     		mov	r0, r3
 371 0040 FFF7FEFF 		bl	mavlink_get_channel_status
 372 0044 031C     		mov	r3, r0
 373 0046 9A79     		ldrb	r2, [r3, #6]
 374 0048 7B68     		ldr	r3, [r7, #4]
 375 004a 1A71     		strb	r2, [r3, #4]
  82:./common/../mavlink_helpers.h **** 	mavlink_get_channel_status(chan)->current_tx_seq = mavlink_get_channel_status(chan)->current_tx_se
 376              		.loc 2 82 0
 377 004c 7B1C     		add	r3, r7, #1
 378 004e 1B78     		ldrb	r3, [r3]
 379 0050 181C     		mov	r0, r3
 380 0052 FFF7FEFF 		bl	mavlink_get_channel_status
 381 0056 041C     		mov	r4, r0
 382 0058 7B1C     		add	r3, r7, #1
 383 005a 1B78     		ldrb	r3, [r3]
 384 005c 181C     		mov	r0, r3
 385 005e FFF7FEFF 		bl	mavlink_get_channel_status
 386 0062 031C     		mov	r3, r0
 387 0064 9B79     		ldrb	r3, [r3, #6]
 388 0066 0133     		add	r3, r3, #1
 389 0068 DBB2     		uxtb	r3, r3
 390 006a A371     		strb	r3, [r4, #6]
  83:./common/../mavlink_helpers.h **** 	msg->checksum = crc_calculate(((const uint8_t*)(msg)) + 3, MAVLINK_CORE_HEADER_LEN);
 391              		.loc 2 83 0
 392 006c 7B68     		ldr	r3, [r7, #4]
 393 006e 0333     		add	r3, r3, #3
 394 0070 181C     		mov	r0, r3
ARM GAS  C:\Users\SNFU\AppData\Local\Temp\cc2qKFEC.s 			page 11


 395 0072 0521     		mov	r1, #5
 396 0074 FFF7FEFF 		bl	crc_calculate
 397 0078 031C     		mov	r3, r0
 398 007a 1A1C     		mov	r2, r3
 399 007c 7B68     		ldr	r3, [r7, #4]
 400 007e FF21     		mov	r1, #255
 401 0080 1140     		and	r1, r2
 402 0082 1C78     		ldrb	r4, [r3]
 403 0084 0020     		mov	r0, #0
 404 0086 2040     		and	r0, r4
 405 0088 0143     		orr	r1, r0
 406 008a 1970     		strb	r1, [r3]
 407 008c 120A     		lsr	r2, r2, #8
 408 008e 92B2     		uxth	r2, r2
 409 0090 5878     		ldrb	r0, [r3, #1]
 410 0092 0021     		mov	r1, #0
 411 0094 0140     		and	r1, r0
 412 0096 0A43     		orr	r2, r1
 413 0098 5A70     		strb	r2, [r3, #1]
  84:./common/../mavlink_helpers.h **** 	crc_accumulate_buffer(&msg->checksum, _MAV_PAYLOAD(msg), msg->len);
 414              		.loc 2 84 0
 415 009a 7968     		ldr	r1, [r7, #4]
 416 009c 7B68     		ldr	r3, [r7, #4]
 417 009e 1A1C     		mov	r2, r3
 418 00a0 0832     		add	r2, r2, #8
 419 00a2 7B68     		ldr	r3, [r7, #4]
 420 00a4 DB78     		ldrb	r3, [r3, #3]
 421 00a6 081C     		mov	r0, r1
 422 00a8 111C     		mov	r1, r2
 423 00aa 1A1C     		mov	r2, r3
 424 00ac FFF7FEFF 		bl	crc_accumulate_buffer
  85:./common/../mavlink_helpers.h **** #if MAVLINK_CRC_EXTRA
  86:./common/../mavlink_helpers.h **** 	crc_accumulate(crc_extra, &msg->checksum);
 425              		.loc 2 86 0
 426 00b0 7B68     		ldr	r3, [r7, #4]
 427 00b2 3A1C     		mov	r2, r7
 428 00b4 1C32     		add	r2, r2, #28
 429 00b6 1278     		ldrb	r2, [r2]
 430 00b8 101C     		mov	r0, r2
 431 00ba 191C     		mov	r1, r3
 432 00bc FFF7FEFF 		bl	crc_accumulate
  87:./common/../mavlink_helpers.h **** #endif
  88:./common/../mavlink_helpers.h **** 	mavlink_ck_a(msg) = (uint8_t)(msg->checksum & 0xFF);
 433              		.loc 2 88 0
 434 00c0 7B68     		ldr	r3, [r7, #4]
 435 00c2 1A1C     		mov	r2, r3
 436 00c4 0832     		add	r2, r2, #8
 437 00c6 7B68     		ldr	r3, [r7, #4]
 438 00c8 DB78     		ldrb	r3, [r3, #3]
 439 00ca D218     		add	r2, r2, r3
 440 00cc 7B68     		ldr	r3, [r7, #4]
 441 00ce 1978     		ldrb	r1, [r3]
 442 00d0 5B78     		ldrb	r3, [r3, #1]
 443 00d2 1B02     		lsl	r3, r3, #8
 444 00d4 0B43     		orr	r3, r1
 445 00d6 9BB2     		uxth	r3, r3
 446 00d8 DBB2     		uxtb	r3, r3
ARM GAS  C:\Users\SNFU\AppData\Local\Temp\cc2qKFEC.s 			page 12


 447 00da 1370     		strb	r3, [r2]
  89:./common/../mavlink_helpers.h **** 	mavlink_ck_b(msg) = (uint8_t)(msg->checksum >> 8);
 448              		.loc 2 89 0
 449 00dc 7B68     		ldr	r3, [r7, #4]
 450 00de 1A1C     		mov	r2, r3
 451 00e0 0832     		add	r2, r2, #8
 452 00e2 7B68     		ldr	r3, [r7, #4]
 453 00e4 DB78     		ldrb	r3, [r3, #3]
 454 00e6 0133     		add	r3, r3, #1
 455 00e8 D218     		add	r2, r2, r3
 456 00ea 7B68     		ldr	r3, [r7, #4]
 457 00ec 1978     		ldrb	r1, [r3]
 458 00ee 5B78     		ldrb	r3, [r3, #1]
 459 00f0 1B02     		lsl	r3, r3, #8
 460 00f2 0B43     		orr	r3, r1
 461 00f4 9BB2     		uxth	r3, r3
 462 00f6 1B0A     		lsr	r3, r3, #8
 463 00f8 9BB2     		uxth	r3, r3
 464 00fa DBB2     		uxtb	r3, r3
 465 00fc 1370     		strb	r3, [r2]
  90:./common/../mavlink_helpers.h **** 
  91:./common/../mavlink_helpers.h **** 	return length + MAVLINK_NUM_NON_PAYLOAD_BYTES;
 466              		.loc 2 91 0
 467 00fe 3B1C     		mov	r3, r7
 468 0100 1833     		add	r3, r3, #24
 469 0102 1B78     		ldrb	r3, [r3]
 470 0104 9BB2     		uxth	r3, r3
 471 0106 0833     		add	r3, r3, #8
 472 0108 9BB2     		uxth	r3, r3
  92:./common/../mavlink_helpers.h **** }
 473              		.loc 2 92 0
 474 010a 181C     		mov	r0, r3
 475 010c BD46     		mov	sp, r7
 476 010e 03B0     		add	sp, sp, #12
 477              		@ sp needed for prologue
 478 0110 90BD     		pop	{r4, r7, pc}
 479              		.cfi_endproc
 480              	.LFE46:
 481              		.size	mavlink_finalize_message_chan, .-mavlink_finalize_message_chan
 482 0112 C046     		.section	.text.mavlink_finalize_message,"ax",%progbits
 483              		.align	2
 484              		.code	16
 485              		.thumb_func
 486              		.type	mavlink_finalize_message, %function
 487              	mavlink_finalize_message:
 488              	.LFB47:
  93:./common/../mavlink_helpers.h **** 
  94:./common/../mavlink_helpers.h **** 
  95:./common/../mavlink_helpers.h **** /**
  96:./common/../mavlink_helpers.h ****  * @brief Finalize a MAVLink message with MAVLINK_COMM_0 as default channel
  97:./common/../mavlink_helpers.h ****  */
  98:./common/../mavlink_helpers.h **** #if MAVLINK_CRC_EXTRA
  99:./common/../mavlink_helpers.h **** MAVLINK_HELPER uint16_t mavlink_finalize_message(mavlink_message_t* msg, uint8_t system_id, uint8_t
 100:./common/../mavlink_helpers.h **** 						 uint8_t length, uint8_t crc_extra)
 101:./common/../mavlink_helpers.h **** {
 489              		.loc 2 101 0
 490              		.cfi_startproc
ARM GAS  C:\Users\SNFU\AppData\Local\Temp\cc2qKFEC.s 			page 13


 491 0000 80B5     		push	{r7, lr}
 492              	.LCFI18:
 493              		.cfi_def_cfa_offset 8
 494              		.cfi_offset 7, -8
 495              		.cfi_offset 14, -4
 496 0002 84B0     		sub	sp, sp, #16
 497              	.LCFI19:
 498              		.cfi_def_cfa_offset 24
 499 0004 02AF     		add	r7, sp, #8
 500              	.LCFI20:
 501              		.cfi_def_cfa 7, 16
 502 0006 7860     		str	r0, [r7, #4]
 503 0008 081C     		mov	r0, r1
 504 000a 111C     		mov	r1, r2
 505 000c 1A1C     		mov	r2, r3
 506 000e FB1C     		add	r3, r7, #3
 507 0010 1870     		strb	r0, [r3]
 508 0012 BB1C     		add	r3, r7, #2
 509 0014 1970     		strb	r1, [r3]
 510 0016 7B1C     		add	r3, r7, #1
 511 0018 1A70     		strb	r2, [r3]
 102:./common/../mavlink_helpers.h **** 	return mavlink_finalize_message_chan(msg, system_id, component_id, MAVLINK_COMM_0, length, crc_ext
 512              		.loc 2 102 0
 513 001a 7968     		ldr	r1, [r7, #4]
 514 001c FB1C     		add	r3, r7, #3
 515 001e 1A78     		ldrb	r2, [r3]
 516 0020 BB1C     		add	r3, r7, #2
 517 0022 1B78     		ldrb	r3, [r3]
 518 0024 781C     		add	r0, r7, #1
 519 0026 0078     		ldrb	r0, [r0]
 520 0028 0090     		str	r0, [sp]
 521 002a 381C     		mov	r0, r7
 522 002c 1030     		add	r0, r0, #16
 523 002e 0078     		ldrb	r0, [r0]
 524 0030 0190     		str	r0, [sp, #4]
 525 0032 081C     		mov	r0, r1
 526 0034 111C     		mov	r1, r2
 527 0036 1A1C     		mov	r2, r3
 528 0038 0023     		mov	r3, #0
 529 003a FFF7FEFF 		bl	mavlink_finalize_message_chan
 530 003e 031C     		mov	r3, r0
 103:./common/../mavlink_helpers.h **** }
 531              		.loc 2 103 0
 532 0040 181C     		mov	r0, r3
 533 0042 BD46     		mov	sp, r7
 534 0044 02B0     		add	sp, sp, #8
 535              		@ sp needed for prologue
 536 0046 80BD     		pop	{r7, pc}
 537              		.cfi_endproc
 538              	.LFE47:
 539              		.size	mavlink_finalize_message, .-mavlink_finalize_message
 540              		.section	.text.mavlink_msg_to_send_buffer,"ax",%progbits
 541              		.align	2
 542              		.code	16
 543              		.thumb_func
 544              		.type	mavlink_msg_to_send_buffer, %function
 545              	mavlink_msg_to_send_buffer:
ARM GAS  C:\Users\SNFU\AppData\Local\Temp\cc2qKFEC.s 			page 14


 546              	.LFB48:
 104:./common/../mavlink_helpers.h **** #else
 105:./common/../mavlink_helpers.h **** MAVLINK_HELPER uint16_t mavlink_finalize_message(mavlink_message_t* msg, uint8_t system_id, uint8_t
 106:./common/../mavlink_helpers.h **** 						 uint8_t length)
 107:./common/../mavlink_helpers.h **** {
 108:./common/../mavlink_helpers.h **** 	return mavlink_finalize_message_chan(msg, system_id, component_id, MAVLINK_COMM_0, length);
 109:./common/../mavlink_helpers.h **** }
 110:./common/../mavlink_helpers.h **** #endif
 111:./common/../mavlink_helpers.h **** 
 112:./common/../mavlink_helpers.h **** #ifdef MAVLINK_USE_CONVENIENCE_FUNCTIONS
 113:./common/../mavlink_helpers.h **** MAVLINK_HELPER void _mavlink_send_uart(mavlink_channel_t chan, const char *buf, uint16_t len);
 114:./common/../mavlink_helpers.h **** 
 115:./common/../mavlink_helpers.h **** /**
 116:./common/../mavlink_helpers.h ****  * @brief Finalize a MAVLink message with channel assignment and send
 117:./common/../mavlink_helpers.h ****  */
 118:./common/../mavlink_helpers.h **** #if MAVLINK_CRC_EXTRA
 119:./common/../mavlink_helpers.h **** MAVLINK_HELPER void _mav_finalize_message_chan_send(mavlink_channel_t chan, uint8_t msgid, const ch
 120:./common/../mavlink_helpers.h **** 						    uint8_t length, uint8_t crc_extra)
 121:./common/../mavlink_helpers.h **** #else
 122:./common/../mavlink_helpers.h **** MAVLINK_HELPER void _mav_finalize_message_chan_send(mavlink_channel_t chan, uint8_t msgid, const ch
 123:./common/../mavlink_helpers.h **** #endif
 124:./common/../mavlink_helpers.h **** {
 125:./common/../mavlink_helpers.h **** 	uint16_t checksum;
 126:./common/../mavlink_helpers.h **** 	uint8_t buf[MAVLINK_NUM_HEADER_BYTES];
 127:./common/../mavlink_helpers.h **** 	uint8_t ck[2];
 128:./common/../mavlink_helpers.h **** 	mavlink_status_t *status = mavlink_get_channel_status(chan);
 129:./common/../mavlink_helpers.h **** 	buf[0] = MAVLINK_STX;
 130:./common/../mavlink_helpers.h **** 	buf[1] = length;
 131:./common/../mavlink_helpers.h **** 	buf[2] = status->current_tx_seq;
 132:./common/../mavlink_helpers.h **** 	buf[3] = mavlink_system.sysid;
 133:./common/../mavlink_helpers.h **** 	buf[4] = mavlink_system.compid;
 134:./common/../mavlink_helpers.h **** 	buf[5] = msgid;
 135:./common/../mavlink_helpers.h **** 	status->current_tx_seq++;
 136:./common/../mavlink_helpers.h **** 	checksum = crc_calculate((const uint8_t*)&buf[1], MAVLINK_CORE_HEADER_LEN);
 137:./common/../mavlink_helpers.h **** 	crc_accumulate_buffer(&checksum, packet, length);
 138:./common/../mavlink_helpers.h **** #if MAVLINK_CRC_EXTRA
 139:./common/../mavlink_helpers.h **** 	crc_accumulate(crc_extra, &checksum);
 140:./common/../mavlink_helpers.h **** #endif
 141:./common/../mavlink_helpers.h **** 	ck[0] = (uint8_t)(checksum & 0xFF);
 142:./common/../mavlink_helpers.h **** 	ck[1] = (uint8_t)(checksum >> 8);
 143:./common/../mavlink_helpers.h **** 
 144:./common/../mavlink_helpers.h **** 	MAVLINK_START_UART_SEND(chan, MAVLINK_NUM_NON_PAYLOAD_BYTES + (uint16_t)length);
 145:./common/../mavlink_helpers.h **** 	_mavlink_send_uart(chan, (const char *)buf, MAVLINK_NUM_HEADER_BYTES);
 146:./common/../mavlink_helpers.h **** 	_mavlink_send_uart(chan, packet, length);
 147:./common/../mavlink_helpers.h **** 	_mavlink_send_uart(chan, (const char *)ck, 2);
 148:./common/../mavlink_helpers.h **** 	MAVLINK_END_UART_SEND(chan, MAVLINK_NUM_NON_PAYLOAD_BYTES + (uint16_t)length);
 149:./common/../mavlink_helpers.h **** }
 150:./common/../mavlink_helpers.h **** 
 151:./common/../mavlink_helpers.h **** /**
 152:./common/../mavlink_helpers.h ****  * @brief re-send a message over a uart channel
 153:./common/../mavlink_helpers.h ****  * this is more stack efficient than re-marshalling the message
 154:./common/../mavlink_helpers.h ****  */
 155:./common/../mavlink_helpers.h **** MAVLINK_HELPER void _mavlink_resend_uart(mavlink_channel_t chan, const mavlink_message_t *msg)
 156:./common/../mavlink_helpers.h **** {
 157:./common/../mavlink_helpers.h **** 	uint8_t ck[2];
 158:./common/../mavlink_helpers.h **** 
 159:./common/../mavlink_helpers.h **** 	ck[0] = (uint8_t)(msg->checksum & 0xFF);
ARM GAS  C:\Users\SNFU\AppData\Local\Temp\cc2qKFEC.s 			page 15


 160:./common/../mavlink_helpers.h **** 	ck[1] = (uint8_t)(msg->checksum >> 8);
 161:./common/../mavlink_helpers.h **** 	// XXX use the right sequence here
 162:./common/../mavlink_helpers.h **** 
 163:./common/../mavlink_helpers.h **** 	MAVLINK_START_UART_SEND(chan, MAVLINK_NUM_NON_PAYLOAD_BYTES + msg->len);
 164:./common/../mavlink_helpers.h **** 	_mavlink_send_uart(chan, (const char *)&msg->magic, MAVLINK_NUM_HEADER_BYTES);
 165:./common/../mavlink_helpers.h **** 	_mavlink_send_uart(chan, _MAV_PAYLOAD(msg), msg->len);
 166:./common/../mavlink_helpers.h **** 	_mavlink_send_uart(chan, (const char *)ck, 2);
 167:./common/../mavlink_helpers.h **** 	MAVLINK_END_UART_SEND(chan, MAVLINK_NUM_NON_PAYLOAD_BYTES + msg->len);
 168:./common/../mavlink_helpers.h **** }
 169:./common/../mavlink_helpers.h **** #endif // MAVLINK_USE_CONVENIENCE_FUNCTIONS
 170:./common/../mavlink_helpers.h **** 
 171:./common/../mavlink_helpers.h **** /**
 172:./common/../mavlink_helpers.h ****  * @brief Pack a message to send it over a serial byte stream
 173:./common/../mavlink_helpers.h ****  */
 174:./common/../mavlink_helpers.h **** MAVLINK_HELPER uint16_t mavlink_msg_to_send_buffer(uint8_t *buffer, const mavlink_message_t *msg)
 175:./common/../mavlink_helpers.h **** {
 547              		.loc 2 175 0
 548              		.cfi_startproc
 549 0000 80B5     		push	{r7, lr}
 550              	.LCFI21:
 551              		.cfi_def_cfa_offset 8
 552              		.cfi_offset 7, -8
 553              		.cfi_offset 14, -4
 554 0002 84B0     		sub	sp, sp, #16
 555              	.LCFI22:
 556              		.cfi_def_cfa_offset 24
 557 0004 00AF     		add	r7, sp, #0
 558              	.LCFI23:
 559              		.cfi_def_cfa_register 7
 560 0006 7860     		str	r0, [r7, #4]
 561 0008 3960     		str	r1, [r7]
 176:./common/../mavlink_helpers.h **** 	memcpy(buffer, (const uint8_t *)&msg->magic, MAVLINK_NUM_HEADER_BYTES + (uint16_t)msg->len);
 562              		.loc 2 176 0
 563 000a 3B68     		ldr	r3, [r7]
 564 000c 9A1C     		add	r2, r3, #2
 565 000e 3B68     		ldr	r3, [r7]
 566 0010 DB78     		ldrb	r3, [r3, #3]
 567 0012 0633     		add	r3, r3, #6
 568 0014 7968     		ldr	r1, [r7, #4]
 569 0016 081C     		mov	r0, r1
 570 0018 111C     		mov	r1, r2
 571 001a 1A1C     		mov	r2, r3
 572 001c FFF7FEFF 		bl	memcpy
 177:./common/../mavlink_helpers.h **** 
 178:./common/../mavlink_helpers.h **** 	uint8_t *ck = buffer + (MAVLINK_NUM_HEADER_BYTES + (uint16_t)msg->len);
 573              		.loc 2 178 0
 574 0020 3B68     		ldr	r3, [r7]
 575 0022 DB78     		ldrb	r3, [r3, #3]
 576 0024 0633     		add	r3, r3, #6
 577 0026 7A68     		ldr	r2, [r7, #4]
 578 0028 D318     		add	r3, r2, r3
 579 002a FB60     		str	r3, [r7, #12]
 179:./common/../mavlink_helpers.h **** 
 180:./common/../mavlink_helpers.h **** 	ck[0] = (uint8_t)(msg->checksum & 0xFF);
 580              		.loc 2 180 0
 581 002c 3B68     		ldr	r3, [r7]
 582 002e 1A78     		ldrb	r2, [r3]
ARM GAS  C:\Users\SNFU\AppData\Local\Temp\cc2qKFEC.s 			page 16


 583 0030 5B78     		ldrb	r3, [r3, #1]
 584 0032 1B02     		lsl	r3, r3, #8
 585 0034 1343     		orr	r3, r2
 586 0036 9BB2     		uxth	r3, r3
 587 0038 DAB2     		uxtb	r2, r3
 588 003a FB68     		ldr	r3, [r7, #12]
 589 003c 1A70     		strb	r2, [r3]
 181:./common/../mavlink_helpers.h **** 	ck[1] = (uint8_t)(msg->checksum >> 8);
 590              		.loc 2 181 0
 591 003e FB68     		ldr	r3, [r7, #12]
 592 0040 5A1C     		add	r2, r3, #1
 593 0042 3B68     		ldr	r3, [r7]
 594 0044 1978     		ldrb	r1, [r3]
 595 0046 5B78     		ldrb	r3, [r3, #1]
 596 0048 1B02     		lsl	r3, r3, #8
 597 004a 0B43     		orr	r3, r1
 598 004c 9BB2     		uxth	r3, r3
 599 004e 1B0A     		lsr	r3, r3, #8
 600 0050 9BB2     		uxth	r3, r3
 601 0052 DBB2     		uxtb	r3, r3
 602 0054 1370     		strb	r3, [r2]
 182:./common/../mavlink_helpers.h **** 
 183:./common/../mavlink_helpers.h **** 	return MAVLINK_NUM_NON_PAYLOAD_BYTES + (uint16_t)msg->len;
 603              		.loc 2 183 0
 604 0056 3B68     		ldr	r3, [r7]
 605 0058 DB78     		ldrb	r3, [r3, #3]
 606 005a 0833     		add	r3, r3, #8
 607 005c 9BB2     		uxth	r3, r3
 184:./common/../mavlink_helpers.h **** }
 608              		.loc 2 184 0
 609 005e 181C     		mov	r0, r3
 610 0060 BD46     		mov	sp, r7
 611 0062 04B0     		add	sp, sp, #16
 612              		@ sp needed for prologue
 613 0064 80BD     		pop	{r7, pc}
 614              		.cfi_endproc
 615              	.LFE48:
 616              		.size	mavlink_msg_to_send_buffer, .-mavlink_msg_to_send_buffer
 617 0066 C046     		.section	.text.mavlink_msg_heartbeat_pack,"ax",%progbits
 618              		.align	2
 619              		.code	16
 620              		.thumb_func
 621              		.type	mavlink_msg_heartbeat_pack, %function
 622              	mavlink_msg_heartbeat_pack:
 623              	.LFB85:
 624              		.file 3 "./common/./mavlink_msg_heartbeat.h"
   1:./common/./mavlink_msg_heartbeat.h **** // MESSAGE HEARTBEAT PACKING
   2:./common/./mavlink_msg_heartbeat.h **** 
   3:./common/./mavlink_msg_heartbeat.h **** #define MAVLINK_MSG_ID_HEARTBEAT 0
   4:./common/./mavlink_msg_heartbeat.h **** #include <project.h>
   5:./common/./mavlink_msg_heartbeat.h **** #include <common/mavlink.h>
   6:./common/./mavlink_msg_heartbeat.h **** #include <mavlink_types.h>
   7:./common/./mavlink_msg_heartbeat.h **** 
   8:./common/./mavlink_msg_heartbeat.h **** typedef struct __mavlink_heartbeat_t
   9:./common/./mavlink_msg_heartbeat.h **** {
  10:./common/./mavlink_msg_heartbeat.h ****  uint32_t custom_mode; ///< A bitfield for use for autopilot-specific flags.
  11:./common/./mavlink_msg_heartbeat.h ****  uint8_t type; ///< Type of the MAV (quadrotor, helicopter, etc., up to 15 types, defined in MAV_TY
ARM GAS  C:\Users\SNFU\AppData\Local\Temp\cc2qKFEC.s 			page 17


  12:./common/./mavlink_msg_heartbeat.h ****  uint8_t autopilot; ///< Autopilot type / class. defined in MAV_AUTOPILOT ENUM
  13:./common/./mavlink_msg_heartbeat.h ****  uint8_t base_mode; ///< System mode bitfield, see MAV_MODE_FLAG ENUM in mavlink/include/mavlink_ty
  14:./common/./mavlink_msg_heartbeat.h ****  uint8_t system_status; ///< System status flag, see MAV_STATE ENUM
  15:./common/./mavlink_msg_heartbeat.h ****  uint8_t mavlink_version; ///< MAVLink version, not writable by user, gets added by protocol becaus
  16:./common/./mavlink_msg_heartbeat.h **** } mavlink_heartbeat_t;
  17:./common/./mavlink_msg_heartbeat.h **** 
  18:./common/./mavlink_msg_heartbeat.h **** #define MAVLINK_MSG_ID_HEARTBEAT_LEN 9
  19:./common/./mavlink_msg_heartbeat.h **** #define MAVLINK_MSG_ID_0_LEN 9
  20:./common/./mavlink_msg_heartbeat.h **** 
  21:./common/./mavlink_msg_heartbeat.h **** #define MAVLINK_MSG_ID_HEARTBEAT_CRC 50
  22:./common/./mavlink_msg_heartbeat.h **** #define MAVLINK_MSG_ID_0_CRC 50
  23:./common/./mavlink_msg_heartbeat.h **** 
  24:./common/./mavlink_msg_heartbeat.h **** 
  25:./common/./mavlink_msg_heartbeat.h **** 
  26:./common/./mavlink_msg_heartbeat.h **** #define MAVLINK_MESSAGE_INFO_HEARTBEAT { \
  27:./common/./mavlink_msg_heartbeat.h **** 	"HEARTBEAT", \
  28:./common/./mavlink_msg_heartbeat.h **** 	6, \
  29:./common/./mavlink_msg_heartbeat.h **** 	{  { "custom_mode", NULL, MAVLINK_TYPE_UINT32_T, 0, 0, offsetof(mavlink_heartbeat_t, custom_mode) 
  30:./common/./mavlink_msg_heartbeat.h ****          { "type", NULL, MAVLINK_TYPE_UINT8_T, 0, 4, offsetof(mavlink_heartbeat_t, type) }, \
  31:./common/./mavlink_msg_heartbeat.h ****          { "autopilot", NULL, MAVLINK_TYPE_UINT8_T, 0, 5, offsetof(mavlink_heartbeat_t, autopilot) 
  32:./common/./mavlink_msg_heartbeat.h ****          { "base_mode", NULL, MAVLINK_TYPE_UINT8_T, 0, 6, offsetof(mavlink_heartbeat_t, base_mode) 
  33:./common/./mavlink_msg_heartbeat.h ****          { "system_status", NULL, MAVLINK_TYPE_UINT8_T, 0, 7, offsetof(mavlink_heartbeat_t, system_
  34:./common/./mavlink_msg_heartbeat.h ****          { "mavlink_version", NULL, MAVLINK_TYPE_UINT8_T, 0, 8, offsetof(mavlink_heartbeat_t, mavli
  35:./common/./mavlink_msg_heartbeat.h ****          } \
  36:./common/./mavlink_msg_heartbeat.h **** }
  37:./common/./mavlink_msg_heartbeat.h **** 
  38:./common/./mavlink_msg_heartbeat.h **** 
  39:./common/./mavlink_msg_heartbeat.h **** /**
  40:./common/./mavlink_msg_heartbeat.h ****  * @brief Pack a heartbeat message
  41:./common/./mavlink_msg_heartbeat.h ****  * @param system_id ID of this system
  42:./common/./mavlink_msg_heartbeat.h ****  * @param component_id ID of this component (e.g. 200 for IMU)
  43:./common/./mavlink_msg_heartbeat.h ****  * @param msg The MAVLink message to compress the data into
  44:./common/./mavlink_msg_heartbeat.h ****  *
  45:./common/./mavlink_msg_heartbeat.h ****  * @param type Type of the MAV (quadrotor, helicopter, etc., up to 15 types, defined in MAV_TYPE EN
  46:./common/./mavlink_msg_heartbeat.h ****  * @param autopilot Autopilot type / class. defined in MAV_AUTOPILOT ENUM
  47:./common/./mavlink_msg_heartbeat.h ****  * @param base_mode System mode bitfield, see MAV_MODE_FLAG ENUM in mavlink/include/mavlink_types.h
  48:./common/./mavlink_msg_heartbeat.h ****  * @param custom_mode A bitfield for use for autopilot-specific flags.
  49:./common/./mavlink_msg_heartbeat.h ****  * @param system_status System status flag, see MAV_STATE ENUM
  50:./common/./mavlink_msg_heartbeat.h ****  * @return length of the message in bytes (excluding serial stream start sign)
  51:./common/./mavlink_msg_heartbeat.h ****  */
  52:./common/./mavlink_msg_heartbeat.h **** static inline uint16_t mavlink_msg_heartbeat_pack(uint8_t system_id, uint8_t component_id, mavlink_
  53:./common/./mavlink_msg_heartbeat.h **** 						       uint8_t type, uint8_t autopilot, uint8_t base_mode, uint32_t custom_mode, uint8_t syst
  54:./common/./mavlink_msg_heartbeat.h **** {
 625              		.loc 3 54 0
 626              		.cfi_startproc
 627 0000 80B5     		push	{r7, lr}
 628              	.LCFI24:
 629              		.cfi_def_cfa_offset 8
 630              		.cfi_offset 7, -8
 631              		.cfi_offset 14, -4
 632 0002 88B0     		sub	sp, sp, #32
 633              	.LCFI25:
 634              		.cfi_def_cfa_offset 40
 635 0004 02AF     		add	r7, sp, #8
 636              	.LCFI26:
 637              		.cfi_def_cfa 7, 32
 638 0006 3A60     		str	r2, [r7]
ARM GAS  C:\Users\SNFU\AppData\Local\Temp\cc2qKFEC.s 			page 18


 639 0008 1A1C     		mov	r2, r3
 640 000a FB1D     		add	r3, r7, #7
 641 000c 1870     		strb	r0, [r3]
 642 000e BB1D     		add	r3, r7, #6
 643 0010 1970     		strb	r1, [r3]
 644 0012 7B1D     		add	r3, r7, #5
 645 0014 1A70     		strb	r2, [r3]
  55:./common/./mavlink_msg_heartbeat.h **** #if MAVLINK_NEED_BYTE_SWAP || !MAVLINK_ALIGNED_FIELDS
  56:./common/./mavlink_msg_heartbeat.h **** 	char buf[MAVLINK_MSG_ID_HEARTBEAT_LEN];
  57:./common/./mavlink_msg_heartbeat.h **** 	_mav_put_uint32_t(buf, 0, custom_mode);
  58:./common/./mavlink_msg_heartbeat.h **** 	_mav_put_uint8_t(buf, 4, type);
  59:./common/./mavlink_msg_heartbeat.h **** 	_mav_put_uint8_t(buf, 5, autopilot);
  60:./common/./mavlink_msg_heartbeat.h **** 	_mav_put_uint8_t(buf, 6, base_mode);
  61:./common/./mavlink_msg_heartbeat.h **** 	_mav_put_uint8_t(buf, 7, system_status);
  62:./common/./mavlink_msg_heartbeat.h **** 	_mav_put_uint8_t(buf, 8, 3);
  63:./common/./mavlink_msg_heartbeat.h **** 
  64:./common/./mavlink_msg_heartbeat.h ****         memcpy(_MAV_PAYLOAD_NON_CONST(msg), buf, MAVLINK_MSG_ID_HEARTBEAT_LEN);
  65:./common/./mavlink_msg_heartbeat.h **** #else
  66:./common/./mavlink_msg_heartbeat.h **** 	mavlink_heartbeat_t packet;
  67:./common/./mavlink_msg_heartbeat.h **** 	packet.custom_mode = custom_mode;
 646              		.loc 3 67 0
 647 0016 3B1C     		mov	r3, r7
 648 0018 0C33     		add	r3, r3, #12
 649 001a BA6A     		ldr	r2, [r7, #40]
 650 001c 1A60     		str	r2, [r3]
  68:./common/./mavlink_msg_heartbeat.h **** 	packet.type = type;
 651              		.loc 3 68 0
 652 001e 3B1C     		mov	r3, r7
 653 0020 0C33     		add	r3, r3, #12
 654 0022 7A1D     		add	r2, r7, #5
 655 0024 1278     		ldrb	r2, [r2]
 656 0026 1A71     		strb	r2, [r3, #4]
  69:./common/./mavlink_msg_heartbeat.h **** 	packet.autopilot = autopilot;
 657              		.loc 3 69 0
 658 0028 3B1C     		mov	r3, r7
 659 002a 0C33     		add	r3, r3, #12
 660 002c 3A1C     		mov	r2, r7
 661 002e 2032     		add	r2, r2, #32
 662 0030 1278     		ldrb	r2, [r2]
 663 0032 5A71     		strb	r2, [r3, #5]
  70:./common/./mavlink_msg_heartbeat.h **** 	packet.base_mode = base_mode;
 664              		.loc 3 70 0
 665 0034 3B1C     		mov	r3, r7
 666 0036 0C33     		add	r3, r3, #12
 667 0038 3A1C     		mov	r2, r7
 668 003a 2432     		add	r2, r2, #36
 669 003c 1278     		ldrb	r2, [r2]
 670 003e 9A71     		strb	r2, [r3, #6]
  71:./common/./mavlink_msg_heartbeat.h **** 	packet.system_status = system_status;
 671              		.loc 3 71 0
 672 0040 3B1C     		mov	r3, r7
 673 0042 0C33     		add	r3, r3, #12
 674 0044 3A1C     		mov	r2, r7
 675 0046 2C32     		add	r2, r2, #44
 676 0048 1278     		ldrb	r2, [r2]
 677 004a DA71     		strb	r2, [r3, #7]
  72:./common/./mavlink_msg_heartbeat.h **** 	packet.mavlink_version = 3;
ARM GAS  C:\Users\SNFU\AppData\Local\Temp\cc2qKFEC.s 			page 19


 678              		.loc 3 72 0
 679 004c 3B1C     		mov	r3, r7
 680 004e 0C33     		add	r3, r3, #12
 681 0050 0322     		mov	r2, #3
 682 0052 1A72     		strb	r2, [r3, #8]
  73:./common/./mavlink_msg_heartbeat.h **** 
  74:./common/./mavlink_msg_heartbeat.h ****         memcpy(_MAV_PAYLOAD_NON_CONST(msg), &packet, MAVLINK_MSG_ID_HEARTBEAT_LEN);
 683              		.loc 3 74 0
 684 0054 3B68     		ldr	r3, [r7]
 685 0056 1A1C     		mov	r2, r3
 686 0058 0832     		add	r2, r2, #8
 687 005a 3B1C     		mov	r3, r7
 688 005c 0C33     		add	r3, r3, #12
 689 005e 101C     		mov	r0, r2
 690 0060 191C     		mov	r1, r3
 691 0062 0922     		mov	r2, #9
 692 0064 FFF7FEFF 		bl	memcpy
  75:./common/./mavlink_msg_heartbeat.h **** #endif
  76:./common/./mavlink_msg_heartbeat.h **** 
  77:./common/./mavlink_msg_heartbeat.h **** 	msg->msgid = MAVLINK_MSG_ID_HEARTBEAT;
 693              		.loc 3 77 0
 694 0068 3B68     		ldr	r3, [r7]
 695 006a 0022     		mov	r2, #0
 696 006c DA71     		strb	r2, [r3, #7]
  78:./common/./mavlink_msg_heartbeat.h **** #if MAVLINK_CRC_EXTRA
  79:./common/./mavlink_msg_heartbeat.h ****     return mavlink_finalize_message(msg, system_id, component_id, MAVLINK_MSG_ID_HEARTBEAT_LEN, MAV
 697              		.loc 3 79 0
 698 006e 3968     		ldr	r1, [r7]
 699 0070 FB1D     		add	r3, r7, #7
 700 0072 1A78     		ldrb	r2, [r3]
 701 0074 BB1D     		add	r3, r7, #6
 702 0076 1B78     		ldrb	r3, [r3]
 703 0078 3220     		mov	r0, #50
 704 007a 0090     		str	r0, [sp]
 705 007c 081C     		mov	r0, r1
 706 007e 111C     		mov	r1, r2
 707 0080 1A1C     		mov	r2, r3
 708 0082 0923     		mov	r3, #9
 709 0084 FFF7FEFF 		bl	mavlink_finalize_message
 710 0088 031C     		mov	r3, r0
  80:./common/./mavlink_msg_heartbeat.h **** #else
  81:./common/./mavlink_msg_heartbeat.h ****     return mavlink_finalize_message(msg, system_id, component_id, MAVLINK_MSG_ID_HEARTBEAT_LEN);
  82:./common/./mavlink_msg_heartbeat.h **** #endif
  83:./common/./mavlink_msg_heartbeat.h **** }
 711              		.loc 3 83 0
 712 008a 181C     		mov	r0, r3
 713 008c BD46     		mov	sp, r7
 714 008e 06B0     		add	sp, sp, #24
 715              		@ sp needed for prologue
 716 0090 80BD     		pop	{r7, pc}
 717              		.cfi_endproc
 718              	.LFE85:
 719              		.size	mavlink_msg_heartbeat_pack, .-mavlink_msg_heartbeat_pack
 720 0092 C046     		.section	.text.mavlink_msg_attitude_pack,"ax",%progbits
 721              		.align	2
 722              		.code	16
 723              		.thumb_func
ARM GAS  C:\Users\SNFU\AppData\Local\Temp\cc2qKFEC.s 			page 20


 724              		.type	mavlink_msg_attitude_pack, %function
 725              	mavlink_msg_attitude_pack:
 726              	.LFB272:
 727              		.file 4 "./common/./mavlink_msg_attitude.h"
   1:./common/./mavlink_msg_attitude.h **** // MESSAGE ATTITUDE PACKING
   2:./common/./mavlink_msg_attitude.h **** 
   3:./common/./mavlink_msg_attitude.h **** #define MAVLINK_MSG_ID_ATTITUDE 30
   4:./common/./mavlink_msg_attitude.h **** 
   5:./common/./mavlink_msg_attitude.h **** #include <project.h>
   6:./common/./mavlink_msg_attitude.h **** #include <common/mavlink.h>
   7:./common/./mavlink_msg_attitude.h **** #include <mavlink_types.h>
   8:./common/./mavlink_msg_attitude.h **** 
   9:./common/./mavlink_msg_attitude.h **** typedef struct __mavlink_attitude_t
  10:./common/./mavlink_msg_attitude.h **** {
  11:./common/./mavlink_msg_attitude.h ****  uint32_t time_boot_ms; ///< Timestamp (milliseconds since system boot)
  12:./common/./mavlink_msg_attitude.h ****  float roll; ///< Roll angle (rad, -pi..+pi)
  13:./common/./mavlink_msg_attitude.h ****  float pitch; ///< Pitch angle (rad, -pi..+pi)
  14:./common/./mavlink_msg_attitude.h ****  float yaw; ///< Yaw angle (rad, -pi..+pi)
  15:./common/./mavlink_msg_attitude.h ****  float rollspeed; ///< Roll angular speed (rad/s)
  16:./common/./mavlink_msg_attitude.h ****  float pitchspeed; ///< Pitch angular speed (rad/s)
  17:./common/./mavlink_msg_attitude.h ****  float yawspeed; ///< Yaw angular speed (rad/s)
  18:./common/./mavlink_msg_attitude.h **** } mavlink_attitude_t;
  19:./common/./mavlink_msg_attitude.h **** 
  20:./common/./mavlink_msg_attitude.h **** #define MAVLINK_MSG_ID_ATTITUDE_LEN 28
  21:./common/./mavlink_msg_attitude.h **** #define MAVLINK_MSG_ID_30_LEN 28
  22:./common/./mavlink_msg_attitude.h **** 
  23:./common/./mavlink_msg_attitude.h **** #define MAVLINK_MSG_ID_ATTITUDE_CRC 39
  24:./common/./mavlink_msg_attitude.h **** #define MAVLINK_MSG_ID_30_CRC 39
  25:./common/./mavlink_msg_attitude.h **** 
  26:./common/./mavlink_msg_attitude.h **** 
  27:./common/./mavlink_msg_attitude.h **** 
  28:./common/./mavlink_msg_attitude.h **** #define MAVLINK_MESSAGE_INFO_ATTITUDE { \
  29:./common/./mavlink_msg_attitude.h **** 	"ATTITUDE", \
  30:./common/./mavlink_msg_attitude.h **** 	7, \
  31:./common/./mavlink_msg_attitude.h **** 	{  { "time_boot_ms", NULL, MAVLINK_TYPE_UINT32_T, 0, 0, offsetof(mavlink_attitude_t, time_boot_ms)
  32:./common/./mavlink_msg_attitude.h ****          { "roll", NULL, MAVLINK_TYPE_FLOAT, 0, 4, offsetof(mavlink_attitude_t, roll) }, \
  33:./common/./mavlink_msg_attitude.h ****          { "pitch", NULL, MAVLINK_TYPE_FLOAT, 0, 8, offsetof(mavlink_attitude_t, pitch) }, \
  34:./common/./mavlink_msg_attitude.h ****          { "yaw", NULL, MAVLINK_TYPE_FLOAT, 0, 12, offsetof(mavlink_attitude_t, yaw) }, \
  35:./common/./mavlink_msg_attitude.h ****          { "rollspeed", NULL, MAVLINK_TYPE_FLOAT, 0, 16, offsetof(mavlink_attitude_t, rollspeed) },
  36:./common/./mavlink_msg_attitude.h ****          { "pitchspeed", NULL, MAVLINK_TYPE_FLOAT, 0, 20, offsetof(mavlink_attitude_t, pitchspeed) 
  37:./common/./mavlink_msg_attitude.h ****          { "yawspeed", NULL, MAVLINK_TYPE_FLOAT, 0, 24, offsetof(mavlink_attitude_t, yawspeed) }, \
  38:./common/./mavlink_msg_attitude.h ****          } \
  39:./common/./mavlink_msg_attitude.h **** }
  40:./common/./mavlink_msg_attitude.h **** 
  41:./common/./mavlink_msg_attitude.h **** 
  42:./common/./mavlink_msg_attitude.h **** /**
  43:./common/./mavlink_msg_attitude.h ****  * @brief Pack a attitude message
  44:./common/./mavlink_msg_attitude.h ****  * @param system_id ID of this system
  45:./common/./mavlink_msg_attitude.h ****  * @param component_id ID of this component (e.g. 200 for IMU)
  46:./common/./mavlink_msg_attitude.h ****  * @param msg The MAVLink message to compress the data into
  47:./common/./mavlink_msg_attitude.h ****  *
  48:./common/./mavlink_msg_attitude.h ****  * @param time_boot_ms Timestamp (milliseconds since system boot)
  49:./common/./mavlink_msg_attitude.h ****  * @param roll Roll angle (rad, -pi..+pi)
  50:./common/./mavlink_msg_attitude.h ****  * @param pitch Pitch angle (rad, -pi..+pi)
  51:./common/./mavlink_msg_attitude.h ****  * @param yaw Yaw angle (rad, -pi..+pi)
  52:./common/./mavlink_msg_attitude.h ****  * @param rollspeed Roll angular speed (rad/s)
  53:./common/./mavlink_msg_attitude.h ****  * @param pitchspeed Pitch angular speed (rad/s)
ARM GAS  C:\Users\SNFU\AppData\Local\Temp\cc2qKFEC.s 			page 21


  54:./common/./mavlink_msg_attitude.h ****  * @param yawspeed Yaw angular speed (rad/s)
  55:./common/./mavlink_msg_attitude.h ****  * @return length of the message in bytes (excluding serial stream start sign)
  56:./common/./mavlink_msg_attitude.h ****  */
  57:./common/./mavlink_msg_attitude.h **** static inline uint16_t mavlink_msg_attitude_pack(uint8_t system_id, uint8_t component_id, mavlink_m
  58:./common/./mavlink_msg_attitude.h **** 						       uint32_t time_boot_ms, float roll, float pitch, float yaw, float rollspeed, float pitc
  59:./common/./mavlink_msg_attitude.h **** {
 728              		.loc 4 59 0
 729              		.cfi_startproc
 730 0000 80B5     		push	{r7, lr}
 731              	.LCFI27:
 732              		.cfi_def_cfa_offset 8
 733              		.cfi_offset 7, -8
 734              		.cfi_offset 14, -4
 735 0002 8EB0     		sub	sp, sp, #56
 736              	.LCFI28:
 737              		.cfi_def_cfa_offset 64
 738 0004 02AF     		add	r7, sp, #8
 739              	.LCFI29:
 740              		.cfi_def_cfa 7, 56
 741 0006 BA60     		str	r2, [r7, #8]
 742 0008 7B60     		str	r3, [r7, #4]
 743 000a 3B1C     		mov	r3, r7
 744 000c 0F33     		add	r3, r3, #15
 745 000e 021C     		add	r2, r0, #0
 746 0010 1A70     		strb	r2, [r3]
 747 0012 3B1C     		mov	r3, r7
 748 0014 0E33     		add	r3, r3, #14
 749 0016 0A1C     		add	r2, r1, #0
 750 0018 1A70     		strb	r2, [r3]
  60:./common/./mavlink_msg_attitude.h **** #if MAVLINK_NEED_BYTE_SWAP || !MAVLINK_ALIGNED_FIELDS
  61:./common/./mavlink_msg_attitude.h **** 	char buf[MAVLINK_MSG_ID_ATTITUDE_LEN];
  62:./common/./mavlink_msg_attitude.h **** 	_mav_put_uint32_t(buf, 0, time_boot_ms);
  63:./common/./mavlink_msg_attitude.h **** 	_mav_put_float(buf, 4, roll);
  64:./common/./mavlink_msg_attitude.h **** 	_mav_put_float(buf, 8, pitch);
  65:./common/./mavlink_msg_attitude.h **** 	_mav_put_float(buf, 12, yaw);
  66:./common/./mavlink_msg_attitude.h **** 	_mav_put_float(buf, 16, rollspeed);
  67:./common/./mavlink_msg_attitude.h **** 	_mav_put_float(buf, 20, pitchspeed);
  68:./common/./mavlink_msg_attitude.h **** 	_mav_put_float(buf, 24, yawspeed);
  69:./common/./mavlink_msg_attitude.h **** 
  70:./common/./mavlink_msg_attitude.h ****         memcpy(_MAV_PAYLOAD_NON_CONST(msg), buf, MAVLINK_MSG_ID_ATTITUDE_LEN);
  71:./common/./mavlink_msg_attitude.h **** #else
  72:./common/./mavlink_msg_attitude.h **** 	mavlink_attitude_t packet;
  73:./common/./mavlink_msg_attitude.h **** 	packet.time_boot_ms = time_boot_ms;
 751              		.loc 4 73 0
 752 001a 3B1C     		mov	r3, r7
 753 001c 1433     		add	r3, r3, #20
 754 001e 7A68     		ldr	r2, [r7, #4]
 755 0020 1A60     		str	r2, [r3]
  74:./common/./mavlink_msg_attitude.h **** 	packet.roll = roll;
 756              		.loc 4 74 0
 757 0022 3B1C     		mov	r3, r7
 758 0024 1433     		add	r3, r3, #20
 759 0026 BA6B     		ldr	r2, [r7, #56]
 760 0028 5A60     		str	r2, [r3, #4]
  75:./common/./mavlink_msg_attitude.h **** 	packet.pitch = pitch;
 761              		.loc 4 75 0
 762 002a 3B1C     		mov	r3, r7
ARM GAS  C:\Users\SNFU\AppData\Local\Temp\cc2qKFEC.s 			page 22


 763 002c 1433     		add	r3, r3, #20
 764 002e FA6B     		ldr	r2, [r7, #60]
 765 0030 9A60     		str	r2, [r3, #8]
  76:./common/./mavlink_msg_attitude.h **** 	packet.yaw = yaw;
 766              		.loc 4 76 0
 767 0032 3B1C     		mov	r3, r7
 768 0034 1433     		add	r3, r3, #20
 769 0036 3A6C     		ldr	r2, [r7, #64]
 770 0038 DA60     		str	r2, [r3, #12]
  77:./common/./mavlink_msg_attitude.h **** 	packet.rollspeed = rollspeed;
 771              		.loc 4 77 0
 772 003a 3B1C     		mov	r3, r7
 773 003c 1433     		add	r3, r3, #20
 774 003e 7A6C     		ldr	r2, [r7, #68]
 775 0040 1A61     		str	r2, [r3, #16]
  78:./common/./mavlink_msg_attitude.h **** 	packet.pitchspeed = pitchspeed;
 776              		.loc 4 78 0
 777 0042 3B1C     		mov	r3, r7
 778 0044 1433     		add	r3, r3, #20
 779 0046 BA6C     		ldr	r2, [r7, #72]
 780 0048 5A61     		str	r2, [r3, #20]
  79:./common/./mavlink_msg_attitude.h **** 	packet.yawspeed = yawspeed;
 781              		.loc 4 79 0
 782 004a 3B1C     		mov	r3, r7
 783 004c 1433     		add	r3, r3, #20
 784 004e FA6C     		ldr	r2, [r7, #76]
 785 0050 9A61     		str	r2, [r3, #24]
  80:./common/./mavlink_msg_attitude.h **** 
  81:./common/./mavlink_msg_attitude.h ****         memcpy(_MAV_PAYLOAD_NON_CONST(msg), &packet, MAVLINK_MSG_ID_ATTITUDE_LEN);
 786              		.loc 4 81 0
 787 0052 BB68     		ldr	r3, [r7, #8]
 788 0054 1A1C     		mov	r2, r3
 789 0056 0832     		add	r2, r2, #8
 790 0058 3B1C     		mov	r3, r7
 791 005a 1433     		add	r3, r3, #20
 792 005c 101C     		mov	r0, r2
 793 005e 191C     		mov	r1, r3
 794 0060 1C22     		mov	r2, #28
 795 0062 FFF7FEFF 		bl	memcpy
  82:./common/./mavlink_msg_attitude.h **** #endif
  83:./common/./mavlink_msg_attitude.h **** 
  84:./common/./mavlink_msg_attitude.h **** 	msg->msgid = MAVLINK_MSG_ID_ATTITUDE;
 796              		.loc 4 84 0
 797 0066 BB68     		ldr	r3, [r7, #8]
 798 0068 1E22     		mov	r2, #30
 799 006a DA71     		strb	r2, [r3, #7]
  85:./common/./mavlink_msg_attitude.h **** #if MAVLINK_CRC_EXTRA
  86:./common/./mavlink_msg_attitude.h ****     return mavlink_finalize_message(msg, system_id, component_id, MAVLINK_MSG_ID_ATTITUDE_LEN, MAVL
 800              		.loc 4 86 0
 801 006c B968     		ldr	r1, [r7, #8]
 802 006e 3B1C     		mov	r3, r7
 803 0070 0F33     		add	r3, r3, #15
 804 0072 1A78     		ldrb	r2, [r3]
 805 0074 3B1C     		mov	r3, r7
 806 0076 0E33     		add	r3, r3, #14
 807 0078 1B78     		ldrb	r3, [r3]
 808 007a 2720     		mov	r0, #39
ARM GAS  C:\Users\SNFU\AppData\Local\Temp\cc2qKFEC.s 			page 23


 809 007c 0090     		str	r0, [sp]
 810 007e 081C     		mov	r0, r1
 811 0080 111C     		mov	r1, r2
 812 0082 1A1C     		mov	r2, r3
 813 0084 1C23     		mov	r3, #28
 814 0086 FFF7FEFF 		bl	mavlink_finalize_message
 815 008a 031C     		mov	r3, r0
  87:./common/./mavlink_msg_attitude.h **** #else
  88:./common/./mavlink_msg_attitude.h ****     return mavlink_finalize_message(msg, system_id, component_id, MAVLINK_MSG_ID_ATTITUDE_LEN);
  89:./common/./mavlink_msg_attitude.h **** #endif
  90:./common/./mavlink_msg_attitude.h **** }
 816              		.loc 4 90 0
 817 008c 181C     		mov	r0, r3
 818 008e BD46     		mov	sp, r7
 819 0090 0CB0     		add	sp, sp, #48
 820              		@ sp needed for prologue
 821 0092 80BD     		pop	{r7, pc}
 822              		.cfi_endproc
 823              	.LFE272:
 824              		.size	mavlink_msg_attitude_pack, .-mavlink_msg_attitude_pack
 825              		.global	task_flag
 826              		.bss
 827              		.type	task_flag, %object
 828              		.size	task_flag, 1
 829              	task_flag:
 830 0000 00       		.space	1
 831              		.global	blink_cnt
 832              		.type	blink_cnt, %object
 833              		.size	blink_cnt, 1
 834              	blink_cnt:
 835 0001 00       		.space	1
 836              		.global	sample_time
 837              		.data
 838              		.align	2
 839              		.type	sample_time, %object
 840              		.size	sample_time, 4
 841              	sample_time:
 842 0000 0AD7233C 		.word	1008981770
 843              		.global	PPM_channel
 844              		.bss
 845              		.type	PPM_channel, %object
 846              		.size	PPM_channel, 1
 847              	PPM_channel:
 848 0002 00       		.space	1
 849              		.global	ctrl_in
 850 0003 00       		.align	2
 851              		.type	ctrl_in, %object
 852              		.size	ctrl_in, 16
 853              	ctrl_in:
 854 0004 00000000 		.space	16
 854      00000000 
 854      00000000 
 854      00000000 
 855              		.global	ctrl_out
 856              		.align	2
 857              		.type	ctrl_out, %object
 858              		.size	ctrl_out, 26
ARM GAS  C:\Users\SNFU\AppData\Local\Temp\cc2qKFEC.s 			page 24


 859              	ctrl_out:
 860 0014 00000000 		.space	26
 860      00000000 
 860      00000000 
 860      00000000 
 860      00000000 
 861              		.global	flag_LightsEnabled
 862              		.data
 863              		.type	flag_LightsEnabled, %object
 864              		.size	flag_LightsEnabled, 1
 865              	flag_LightsEnabled:
 866 0004 01       		.byte	1
 867              		.global	flag_NavLightPulse
 868              		.bss
 869              		.type	flag_NavLightPulse, %object
 870              		.size	flag_NavLightPulse, 1
 871              	flag_NavLightPulse:
 872 002e 00       		.space	1
 873              		.global	NavLightBright
 874              		.data
 875 0005 00       		.align	1
 876              		.type	NavLightBright, %object
 877              		.size	NavLightBright, 2
 878              	NavLightBright:
 879 0006 6400     		.short	100
 880              		.global	NavLightDim
 881              		.bss
 882 002f 00       		.align	1
 883              		.type	NavLightDim, %object
 884              		.size	NavLightDim, 2
 885              	NavLightDim:
 886 0030 0000     		.space	2
 887              		.global	NavLightStep
 888              		.data
 889              		.align	1
 890              		.type	NavLightStep, %object
 891              		.size	NavLightStep, 2
 892              	NavLightStep:
 893 0008 0100     		.short	1
 894              		.global	NavLightCompare
 895              		.bss
 896              		.align	1
 897              		.type	NavLightCompare, %object
 898              		.size	NavLightCompare, 2
 899              	NavLightCompare:
 900 0032 0000     		.space	2
 901              		.global	turn_rate_p
 902              		.align	1
 903              		.type	turn_rate_p, %object
 904              		.size	turn_rate_p, 2
 905              	turn_rate_p:
 906 0034 0000     		.space	2
 907              		.global	turn_rate_q
 908              		.align	1
 909              		.type	turn_rate_q, %object
 910              		.size	turn_rate_q, 2
 911              	turn_rate_q:
ARM GAS  C:\Users\SNFU\AppData\Local\Temp\cc2qKFEC.s 			page 25


 912 0036 0000     		.space	2
 913              		.global	turn_rate_r
 914              		.align	1
 915              		.type	turn_rate_r, %object
 916              		.size	turn_rate_r, 2
 917              	turn_rate_r:
 918 0038 0000     		.space	2
 919              		.global	acc_x_g
 920              		.align	1
 921              		.type	acc_x_g, %object
 922              		.size	acc_x_g, 2
 923              	acc_x_g:
 924 003a 0000     		.space	2
 925              		.global	acc_y_g
 926              		.align	1
 927              		.type	acc_y_g, %object
 928              		.size	acc_y_g, 2
 929              	acc_y_g:
 930 003c 0000     		.space	2
 931              		.global	acc_z_g
 932              		.align	1
 933              		.type	acc_z_g, %object
 934              		.size	acc_z_g, 2
 935              	acc_z_g:
 936 003e 0000     		.space	2
 937              		.global	mag_x_g
 938              		.align	1
 939              		.type	mag_x_g, %object
 940              		.size	mag_x_g, 2
 941              	mag_x_g:
 942 0040 0000     		.space	2
 943              		.global	mag_y_g
 944              		.align	1
 945              		.type	mag_y_g, %object
 946              		.size	mag_y_g, 2
 947              	mag_y_g:
 948 0042 0000     		.space	2
 949              		.global	mag_z_g
 950              		.align	1
 951              		.type	mag_z_g, %object
 952              		.size	mag_z_g, 2
 953              	mag_z_g:
 954 0044 0000     		.space	2
 955              		.comm	Theta,2,2
 956              		.global	Theta_acc
 957              		.align	1
 958              		.type	Theta_acc, %object
 959              		.size	Theta_acc, 2
 960              	Theta_acc:
 961 0046 0000     		.space	2
 962              		.comm	Phi,2,2
 963              		.global	Phi_acc
 964              		.align	1
 965              		.type	Phi_acc, %object
 966              		.size	Phi_acc, 2
 967              	Phi_acc:
 968 0048 0000     		.space	2
ARM GAS  C:\Users\SNFU\AppData\Local\Temp\cc2qKFEC.s 			page 26


 969              		.global	Q_angle
 970              		.data
 971 000a 0000     		.align	2
 972              		.type	Q_angle, %object
 973              		.size	Q_angle, 4
 974              	Q_angle:
 975 000c 0AD7A33B 		.word	1000593162
 976              		.global	Q_gyro
 977              		.align	2
 978              		.type	Q_gyro, %object
 979              		.size	Q_gyro, 4
 980              	Q_gyro:
 981 0010 0AD7A33B 		.word	1000593162
 982              		.global	R_angle
 983              		.align	2
 984              		.type	R_angle, %object
 985              		.size	R_angle, 4
 986              	R_angle:
 987 0014 0AD7A33C 		.word	1017370378
 988              		.global	q_bias
 989              		.bss
 990 004a 0000     		.align	2
 991              		.type	q_bias, %object
 992              		.size	q_bias, 4
 993              	q_bias:
 994 004c 00000000 		.space	4
 995              		.comm	P_00_Theta,4,4
 996              		.comm	P_01_Theta,4,4
 997              		.comm	P_10_Theta,4,4
 998              		.global	P_11_Theta
 999              		.align	2
 1000              		.type	P_11_Theta, %object
 1001              		.size	P_11_Theta, 4
 1002              	P_11_Theta:
 1003 0050 00000000 		.space	4
 1004              		.comm	Theta_temp,4,4
 1005              		.comm	S_Theta,4,4
 1006              		.comm	K_0_Theta,4,4
 1007              		.global	K_1_Theta
 1008              		.align	2
 1009              		.type	K_1_Theta, %object
 1010              		.size	K_1_Theta, 4
 1011              	K_1_Theta:
 1012 0054 00000000 		.space	4
 1013              		.global	p_bias
 1014              		.align	2
 1015              		.type	p_bias, %object
 1016              		.size	p_bias, 4
 1017              	p_bias:
 1018 0058 00000000 		.space	4
 1019              		.comm	P_00_Phi,4,4
 1020              		.comm	P_01_Phi,4,4
 1021              		.comm	P_10_Phi,4,4
 1022              		.global	P_11_Phi
 1023              		.align	2
 1024              		.type	P_11_Phi, %object
 1025              		.size	P_11_Phi, 4
ARM GAS  C:\Users\SNFU\AppData\Local\Temp\cc2qKFEC.s 			page 27


 1026              	P_11_Phi:
 1027 005c 00000000 		.space	4
 1028              		.comm	Phi_temp,4,4
 1029              		.comm	S_Phi,4,4
 1030              		.comm	K_0_Phi,4,4
 1031              		.global	K_1_Phi
 1032              		.align	2
 1033              		.type	K_1_Phi, %object
 1034              		.size	K_1_Phi, 4
 1035              	K_1_Phi:
 1036 0060 00000000 		.space	4
 1037              		.comm	mavlink_system,2,4
 1038              		.global	system_type
 1039              		.data
 1040              		.type	system_type, %object
 1041              		.size	system_type, 1
 1042              	system_type:
 1043 0018 01       		.byte	1
 1044              		.global	autopilot_type
 1045              		.bss
 1046              		.type	autopilot_type, %object
 1047              		.size	autopilot_type, 1
 1048              	autopilot_type:
 1049 0064 00       		.space	1
 1050              		.global	system_mode
 1051              		.type	system_mode, %object
 1052              		.size	system_mode, 1
 1053              	system_mode:
 1054 0065 00       		.space	1
 1055              		.global	custom_mode
 1056 0066 0000     		.align	2
 1057              		.type	custom_mode, %object
 1058              		.size	custom_mode, 4
 1059              	custom_mode:
 1060 0068 00000000 		.space	4
 1061              		.global	system_state
 1062              		.data
 1063              		.type	system_state, %object
 1064              		.size	system_state, 1
 1065              	system_state:
 1066 0019 03       		.byte	3
 1067              		.comm	msg,272,4
 1068              		.comm	buf,263,4
 1069              		.global	cnt_ML_HEARTBEAT_send
 1070 001a 0000     		.bss
 1071              		.type	cnt_ML_HEARTBEAT_send, %object
 1072              		.size	cnt_ML_HEARTBEAT_send, 1
 1073              	cnt_ML_HEARTBEAT_send:
 1074 006c 00       		.space	1
 1075              		.global	cnt_ML_ATTITUDE_send
 1076              		.type	cnt_ML_ATTITUDE_send, %object
 1077              		.size	cnt_ML_ATTITUDE_send, 1
 1078              	cnt_ML_ATTITUDE_send:
 1079 006d 00       		.space	1
 1080              		.section	.rodata
 1081              		.align	2
 1082              	.LC1:
ARM GAS  C:\Users\SNFU\AppData\Local\Temp\cc2qKFEC.s 			page 28


 1083 0000 256400   		.ascii	"%d\000"
 1084              		.section	.text.UART_1_UartPutNum,"ax",%progbits
 1085              		.align	2
 1086              		.global	UART_1_UartPutNum
 1087              		.code	16
 1088              		.thumb_func
 1089              		.type	UART_1_UartPutNum, %function
 1090              	UART_1_UartPutNum:
 1091              	.LFB1489:
 1092              		.file 5 ".\\main.c"
   1:.\main.c      **** /* ========================================
   2:.\main.c      ****  *
   3:.\main.c      ****  * Copyright SNFU
   4:.\main.c      ****  * All Rights Reserved
   5:.\main.c      ****  * UNPUBLISHED, LICENSED SOFTWARE.
   6:.\main.c      ****  *
   7:.\main.c      ****  * CONFIDENTIAL AND PROPRIETARY INFORMATION
   8:.\main.c      ****  * WHICH IS THE PROPERTY OF your company.
   9:.\main.c      ****  *
  10:.\main.c      ****  * T-50_Project
  11:.\main.c      ****  *
  12:.\main.c      ****  * ========================================
  13:.\main.c      **** */
  14:.\main.c      **** #include <project.h>
  15:.\main.c      **** #include <stdio.h>
  16:.\main.c      **** #include <stdlib.h>
  17:.\main.c      **** #include <math.h>
  18:.\main.c      **** #include <IMU.h>
  19:.\main.c      **** #include <common/mavlink.h>
  20:.\main.c      **** #include <mavlink_types.h>
  21:.\main.c      **** 
  22:.\main.c      **** #define FALSE   0
  23:.\main.c      **** #define TRUE    1
  24:.\main.c      **** 
  25:.\main.c      **** #define PI			3.1415926535897932384626433832795
  26:.\main.c      **** 
  27:.\main.c      **** volatile uint8_t task_flag = FALSE;     // The Task Flag is set in TaskISR Interrupt Routine
  28:.\main.c      **** volatile uint8_t blink_cnt = 0;
  29:.\main.c      **** float sample_time = 0.01;               // 10 ms Sample time
  30:.\main.c      **** 
  31:.\main.c      **** /*=============================*/
  32:.\main.c      **** /* TASK Flags*/
  33:.\main.c      **** /*=============================*/
  34:.\main.c      **** 
  35:.\main.c      **** 
  36:.\main.c      **** 
  37:.\main.c      **** /*=============================*/
  38:.\main.c      **** /*Remote Input variables*/
  39:.\main.c      **** /*=============================*/
  40:.\main.c      **** uint8_t PPM_channel = 0;                    // input channel variable
  41:.\main.c      **** uint16_t ctrl_in[8] = {0};                  // input control vector
  42:.\main.c      **** uint16_t ctrl_out[13] = {0};                // output control vector
  43:.\main.c      **** 
  44:.\main.c      **** enum e_in{   // Input Control Enum - 8 Channels
  45:.\main.c      ****     in_mot = 0,
  46:.\main.c      ****     in_ail,
  47:.\main.c      ****     in_ele,
ARM GAS  C:\Users\SNFU\AppData\Local\Temp\cc2qKFEC.s 			page 29


  48:.\main.c      ****     in_rud,
  49:.\main.c      ****     in_fl,
  50:.\main.c      ****     in_ge,
  51:.\main.c      ****     in_sp1,
  52:.\main.c      ****     in_sp2
  53:.\main.c      **** };
  54:.\main.c      **** 
  55:.\main.c      **** enum e_out{   // Output Control Enum - 13 Signals
  56:.\main.c      ****     out_mot = 0,
  57:.\main.c      ****     out_ail1,
  58:.\main.c      ****     out_ail2,
  59:.\main.c      ****     out_ele1,
  60:.\main.c      ****     out_ele2,
  61:.\main.c      ****     out_rud,
  62:.\main.c      ****     out_fl1,
  63:.\main.c      ****     out_fl2,
  64:.\main.c      ****     out_ge1,
  65:.\main.c      ****     out_ge2,
  66:.\main.c      ****     out_ge3,
  67:.\main.c      ****     out_sp1,
  68:.\main.c      ****     out_sp2
  69:.\main.c      **** };
  70:.\main.c      **** 
  71:.\main.c      **** /*=============================*/
  72:.\main.c      **** /*Light control variables*/
  73:.\main.c      **** /*=============================*/
  74:.\main.c      **** uint8_t flag_LightsEnabled = TRUE;
  75:.\main.c      **** 
  76:.\main.c      **** /*Nav Light Control START -> Pulsing of the Navigation Lights*/
  77:.\main.c      **** uint8_t flag_NavLightPulse  = FALSE;    // Nav Light Pulse flag (to count up or down)
  78:.\main.c      **** uint16_t NavLightBright     = 100;  // Upper value for the brightness 100 = 100%
  79:.\main.c      **** uint16_t NavLightDim        = 0;    // Lower value for the brightness 0 = 0%
  80:.\main.c      **** uint16_t NavLightStep       = 1;    // Nav Light Pulse Stepwidth => brightness change per 10ms
  81:.\main.c      **** uint16_t NavLightCompare    = 0;    // Nav Light PWM Compare Value
  82:.\main.c      **** /*Nav Light Control END*/
  83:.\main.c      **** 
  84:.\main.c      **** /*=============================*/
  85:.\main.c      **** /*IMU variables*/
  86:.\main.c      **** /*=============================*/
  87:.\main.c      **** #define GYRO_TASK   TRUE
  88:.\main.c      **** #define ACC_TASK    TRUE
  89:.\main.c      **** #define MAG_TASK    FALSE
  90:.\main.c      **** 
  91:.\main.c      **** /* turn rates */
  92:.\main.c      **** int16_t turn_rate_p = 0;
  93:.\main.c      **** int16_t turn_rate_q = 0;
  94:.\main.c      **** int16_t turn_rate_r = 0;
  95:.\main.c      **** /* accelerations*/
  96:.\main.c      **** int16_t acc_x_g = 0;
  97:.\main.c      **** int16_t acc_y_g = 0;
  98:.\main.c      **** int16_t acc_z_g = 0;
  99:.\main.c      **** /* magnetic out*/
 100:.\main.c      **** int16_t mag_x_g = 0;
 101:.\main.c      **** int16_t mag_y_g = 0;
 102:.\main.c      **** int16_t mag_z_g = 0;
 103:.\main.c      **** 
 104:.\main.c      **** /* Euler Angles */
ARM GAS  C:\Users\SNFU\AppData\Local\Temp\cc2qKFEC.s 			page 30


 105:.\main.c      **** int16_t Theta, Theta_acc = 0;   // Theta => estimated angle after Kalman, Theta_acc => Theta from a
 106:.\main.c      **** int16_t Phi, Phi_acc = 0;       // Phi => estimated angle after Kalman, Phi_acc => Theta from accel
 107:.\main.c      **** 
 108:.\main.c      **** 
 109:.\main.c      **** 
 110:.\main.c      **** /*=============================*/
 111:.\main.c      **** /* Kalman Filter Data			*/
 112:.\main.c      **** /*=============================*/
 113:.\main.c      **** // weighing matrices ???
 114:.\main.c      **** float Q_angle = 0.005;
 115:.\main.c      **** float Q_gyro = 0.005;
 116:.\main.c      **** float R_angle = 0.02;
 117:.\main.c      **** // Estimation of Theta (Kalman)
 118:.\main.c      **** float q_bias = 0;
 119:.\main.c      **** float P_00_Theta, P_01_Theta, P_10_Theta, P_11_Theta = 0;
 120:.\main.c      **** float Theta_temp, S_Theta, K_0_Theta, K_1_Theta = 0;
 121:.\main.c      **** // Estimation of Phi (Kalman)
 122:.\main.c      **** float p_bias = 0;
 123:.\main.c      **** float P_00_Phi, P_01_Phi, P_10_Phi, P_11_Phi = 0;
 124:.\main.c      **** float Phi_temp, S_Phi, K_0_Phi, K_1_Phi = 0;
 125:.\main.c      **** 
 126:.\main.c      **** /*=============================*/
 127:.\main.c      **** /* MAVLINK			*/
 128:.\main.c      **** /*=============================*/
 129:.\main.c      **** mavlink_system_t mavlink_system;
 130:.\main.c      **** // Define the system type, in this case an airplane
 131:.\main.c      **** uint8_t system_type = MAV_TYPE_FIXED_WING;        //MAV_TYPE_FIXED_WING;
 132:.\main.c      **** uint8_t autopilot_type = MAV_AUTOPILOT_GENERIC;     //MAV_AUTOPILOT_GENERIC;
 133:.\main.c      **** 
 134:.\main.c      **** uint8_t system_mode = MAV_MODE_PREFLIGHT;       ///< Booting up //
 135:.\main.c      **** uint32_t custom_mode = 0;                       ///< Custom mode, can be defined by user/adopter
 136:.\main.c      **** uint8_t system_state = MAV_STATE_STANDBY;       ///< System ready for flight
 137:.\main.c      **** 
 138:.\main.c      **** // Initialize the required buffers
 139:.\main.c      **** mavlink_message_t msg;
 140:.\main.c      **** uint8_t buf[MAVLINK_MAX_PACKET_LEN];
 141:.\main.c      **** 
 142:.\main.c      **** uint8_t cnt_ML_HEARTBEAT_send = 0;          // used for timing of the HEARTBEAT message sending
 143:.\main.c      **** uint8_t cnt_ML_ATTITUDE_send = 0;           // used for timing of the ATTITUDE message sending
 144:.\main.c      **** 
 145:.\main.c      **** /*=============================*/
 146:.\main.c      **** /* General Functions */
 147:.\main.c      **** /*=============================*/
 148:.\main.c      **** // UART Put Num to write serial number data
 149:.\main.c      **** void UART_1_UartPutNum(int32_t *num)
 150:.\main.c      **** {
 1093              		.loc 5 150 0
 1094              		.cfi_startproc
 1095 0000 80B5     		push	{r7, lr}
 1096              	.LCFI30:
 1097              		.cfi_def_cfa_offset 8
 1098              		.cfi_offset 7, -8
 1099              		.cfi_offset 14, -4
 1100 0002 8AB0     		sub	sp, sp, #40
 1101              	.LCFI31:
 1102              		.cfi_def_cfa_offset 48
 1103 0004 00AF     		add	r7, sp, #0
ARM GAS  C:\Users\SNFU\AppData\Local\Temp\cc2qKFEC.s 			page 31


 1104              	.LCFI32:
 1105              		.cfi_def_cfa_register 7
 1106 0006 7860     		str	r0, [r7, #4]
 151:.\main.c      ****     char k[31];
 152:.\main.c      ****     sprintf(k,"%d",*num);
 1107              		.loc 5 152 0
 1108 0008 7B68     		ldr	r3, [r7, #4]
 1109 000a 1B68     		ldr	r3, [r3]
 1110 000c 391C     		mov	r1, r7
 1111 000e 0831     		add	r1, r1, #8
 1112 0010 064A     		ldr	r2, .L25
 1113 0012 081C     		mov	r0, r1
 1114 0014 111C     		mov	r1, r2
 1115 0016 1A1C     		mov	r2, r3
 1116 0018 FFF7FEFF 		bl	sprintf
 153:.\main.c      ****     UART_1_UartPutString(k);   
 1117              		.loc 5 153 0
 1118 001c 3B1C     		mov	r3, r7
 1119 001e 0833     		add	r3, r3, #8
 1120 0020 181C     		mov	r0, r3
 1121 0022 FFF7FEFF 		bl	UART_1_UartPutString
 154:.\main.c      **** }
 1122              		.loc 5 154 0
 1123 0026 BD46     		mov	sp, r7
 1124 0028 0AB0     		add	sp, sp, #40
 1125              		@ sp needed for prologue
 1126 002a 80BD     		pop	{r7, pc}
 1127              	.L26:
 1128              		.align	2
 1129              	.L25:
 1130 002c 00000000 		.word	.LC1
 1131              		.cfi_endproc
 1132              	.LFE1489:
 1133              		.size	UART_1_UartPutNum, .-UART_1_UartPutNum
 1134              		.section	.text.UART_1_UartSendMavlink,"ax",%progbits
 1135              		.align	2
 1136              		.global	UART_1_UartSendMavlink
 1137              		.code	16
 1138              		.thumb_func
 1139              		.type	UART_1_UartSendMavlink, %function
 1140              	UART_1_UartSendMavlink:
 1141              	.LFB1490:
 155:.\main.c      **** 
 156:.\main.c      **** // UART Put Num to write serial number data
 157:.\main.c      **** void UART_1_UartSendMavlink(uint8_t buf[], uint16_t len)
 158:.\main.c      **** {
 1142              		.loc 5 158 0
 1143              		.cfi_startproc
 1144 0000 80B5     		push	{r7, lr}
 1145              	.LCFI33:
 1146              		.cfi_def_cfa_offset 8
 1147              		.cfi_offset 7, -8
 1148              		.cfi_offset 14, -4
 1149 0002 84B0     		sub	sp, sp, #16
 1150              	.LCFI34:
 1151              		.cfi_def_cfa_offset 24
 1152 0004 00AF     		add	r7, sp, #0
ARM GAS  C:\Users\SNFU\AppData\Local\Temp\cc2qKFEC.s 			page 32


 1153              	.LCFI35:
 1154              		.cfi_def_cfa_register 7
 1155 0006 7860     		str	r0, [r7, #4]
 1156 0008 0A1C     		mov	r2, r1
 1157 000a BB1C     		add	r3, r7, #2
 1158 000c 1A80     		strh	r2, [r3]
 159:.\main.c      ****     uint16_t i = 0;
 1159              		.loc 5 159 0
 1160 000e 3B1C     		mov	r3, r7
 1161 0010 0E33     		add	r3, r3, #14
 1162 0012 0022     		mov	r2, #0
 1163 0014 1A80     		strh	r2, [r3]
 160:.\main.c      ****     UART_1_UartPutChar(0xFE);   // message header    
 1164              		.loc 5 160 0
 1165 0016 FE20     		mov	r0, #254
 1166 0018 FFF7FEFF 		bl	UART_1_SpiUartWriteTxData
 161:.\main.c      ****     while(i<(len+1))
 1167              		.loc 5 161 0
 1168 001c 0FE0     		b	.L28
 1169              	.L29:
 162:.\main.c      **** 	{
 163:.\main.c      ****         i++;
 1170              		.loc 5 163 0
 1171 001e 3B1C     		mov	r3, r7
 1172 0020 0E33     		add	r3, r3, #14
 1173 0022 3A1C     		mov	r2, r7
 1174 0024 0E32     		add	r2, r2, #14
 1175 0026 1288     		ldrh	r2, [r2]
 1176 0028 0132     		add	r2, r2, #1
 1177 002a 1A80     		strh	r2, [r3]
 164:.\main.c      ****         UART_1_UartPutChar(buf[i]);
 1178              		.loc 5 164 0
 1179 002c 3B1C     		mov	r3, r7
 1180 002e 0E33     		add	r3, r3, #14
 1181 0030 1B88     		ldrh	r3, [r3]
 1182 0032 7A68     		ldr	r2, [r7, #4]
 1183 0034 D318     		add	r3, r2, r3
 1184 0036 1B78     		ldrb	r3, [r3]
 1185 0038 181C     		mov	r0, r3
 1186 003a FFF7FEFF 		bl	UART_1_SpiUartWriteTxData
 1187              	.L28:
 161:.\main.c      ****     while(i<(len+1))
 1188              		.loc 5 161 0 discriminator 1
 1189 003e 3B1C     		mov	r3, r7
 1190 0040 0E33     		add	r3, r3, #14
 1191 0042 1A88     		ldrh	r2, [r3]
 1192 0044 BB1C     		add	r3, r7, #2
 1193 0046 1B88     		ldrh	r3, [r3]
 1194 0048 0133     		add	r3, r3, #1
 1195 004a 9A42     		cmp	r2, r3
 1196 004c E7DB     		blt	.L29
 165:.\main.c      **** 	}  
 166:.\main.c      **** }
 1197              		.loc 5 166 0
 1198 004e BD46     		mov	sp, r7
 1199 0050 04B0     		add	sp, sp, #16
 1200              		@ sp needed for prologue
ARM GAS  C:\Users\SNFU\AppData\Local\Temp\cc2qKFEC.s 			page 33


 1201 0052 80BD     		pop	{r7, pc}
 1202              		.cfi_endproc
 1203              	.LFE1490:
 1204              		.size	UART_1_UartSendMavlink, .-UART_1_UartSendMavlink
 1205              		.section	.rodata
 1206 0003 00       		.align	2
 1207              	.LC4:
 1208 0004 55415254 		.ascii	"UART OK\015\012\000"
 1208      204F4B0D 
 1208      0A00
 1209 000e 0000     		.align	2
 1210              	.LC6:
 1211 0010 53746172 		.ascii	"Started OK\015\012\000"
 1211      74656420 
 1211      4F4B0D0A 
 1211      00
 1212              		.global	__aeabi_i2d
 1213              		.global	__aeabi_dmul
 1214              		.global	__aeabi_ddiv
 1215              		.global	__aeabi_d2iz
 1216              		.global	__aeabi_i2f
 1217              		.global	__aeabi_fsub
 1218              		.global	__aeabi_fmul
 1219              		.global	__aeabi_fadd
 1220              		.global	__aeabi_f2iz
 1221              		.global	__aeabi_fdiv
 1222              		.global	__aeabi_uidivmod
 1223 001d 000000   		.section	.text.main,"ax",%progbits
 1224              		.align	2
 1225              		.global	main
 1226              		.code	16
 1227              		.thumb_func
 1228              		.type	main, %function
 1229              	main:
 1230              	.LFB1491:
 167:.\main.c      **** 
 168:.\main.c      **** int main()
 169:.\main.c      **** {
 1231              		.loc 5 169 0
 1232              		.cfi_startproc
 1233 0000 F0B5     		push	{r4, r5, r6, r7, lr}
 1234              	.LCFI36:
 1235              		.cfi_def_cfa_offset 20
 1236              		.cfi_offset 4, -20
 1237              		.cfi_offset 5, -16
 1238              		.cfi_offset 6, -12
 1239              		.cfi_offset 7, -8
 1240              		.cfi_offset 14, -4
 1241 0002 8BB0     		sub	sp, sp, #44
 1242              	.LCFI37:
 1243              		.cfi_def_cfa_offset 64
 1244 0004 06AF     		add	r7, sp, #24
 1245              	.LCFI38:
 1246              		.cfi_def_cfa 7, 40
 170:.\main.c      ****     /* Place your initialization/startup code here (e.g. MyInst_Start()) */
 171:.\main.c      ****     CyGlobalIntEnable; 
 1247              		.loc 5 171 0
ARM GAS  C:\Users\SNFU\AppData\Local\Temp\cc2qKFEC.s 			page 34


 1248              	@ 171 ".\main.c" 1
 1249 0006 62B6     		CPSIE   i
 1250              	@ 0 "" 2
 172:.\main.c      **** 
 173:.\main.c      ****     UART_1_Start();     /* Enabling the UART */
 1251              		.loc 5 173 0
 1252              		.code	16
 1253 0008 FFF7FEFF 		bl	UART_1_Start
 174:.\main.c      ****     I2CM_Start();
 1254              		.loc 5 174 0
 1255 000c FFF7FEFF 		bl	I2CM_Start
 175:.\main.c      ****     CyDelay(500);
 1256              		.loc 5 175 0
 1257 0010 FA23     		mov	r3, #250
 1258 0012 5B00     		lsl	r3, r3, #1
 1259 0014 181C     		mov	r0, r3
 1260 0016 FFF7FEFF 		bl	CyDelay
 176:.\main.c      ****     TaskTimer_Start();
 1261              		.loc 5 176 0
 1262 001a FFF7FEFF 		bl	TaskTimer_Start
 177:.\main.c      ****     NavLightPWM_Start();
 1263              		.loc 5 177 0
 1264 001e FFF7FEFF 		bl	NavLightPWM_Start
 178:.\main.c      ****     PPMCounter_Start();
 1265              		.loc 5 178 0
 1266 0022 FFF7FEFF 		bl	PPMCounter_Start
 179:.\main.c      ****     ServoTimer_Start();
 1267              		.loc 5 179 0
 1268 0026 FFF7FEFF 		bl	ServoTimer_Start
 180:.\main.c      ****     PPMISR_Start();
 1269              		.loc 5 180 0
 1270 002a FFF7FEFF 		bl	PPMISR_Start
 181:.\main.c      ****     PPMRstISR_Start();
 1271              		.loc 5 181 0
 1272 002e FFF7FEFF 		bl	PPMRstISR_Start
 182:.\main.c      ****     ServoISR_Start();
 1273              		.loc 5 182 0
 1274 0032 FFF7FEFF 		bl	ServoISR_Start
 183:.\main.c      ****     TaskISR_Start();
 1275              		.loc 5 183 0
 1276 0036 FFF7FEFF 		bl	TaskISR_Start
 184:.\main.c      ****     BootISR_Start();
 1277              		.loc 5 184 0
 1278 003a FFF7FEFF 		bl	BootISR_Start
 185:.\main.c      ****        
 186:.\main.c      ****     // Mavlink Initialization
 187:.\main.c      ****     mavlink_system.sysid = 1;     ///< ID 20 for this airplane
 1279              		.loc 5 187 0
 1280 003e 274B     		ldr	r3, .L42
 1281 0040 0122     		mov	r2, #1
 1282 0042 1A70     		strb	r2, [r3]
 188:.\main.c      ****     mavlink_system.compid = 1;     ///< The component ID
 1283              		.loc 5 188 0
 1284 0044 254B     		ldr	r3, .L42
 1285 0046 0122     		mov	r2, #1
 1286 0048 5A70     		strb	r2, [r3, #1]
 189:.\main.c      ****     
ARM GAS  C:\Users\SNFU\AppData\Local\Temp\cc2qKFEC.s 			page 35


 190:.\main.c      ****     UART_1_UartPutString("UART OK\r\n");
 1287              		.loc 5 190 0
 1288 004a 254B     		ldr	r3, .L42+4
 1289 004c 181C     		mov	r0, r3
 1290 004e FFF7FEFF 		bl	UART_1_UartPutString
 191:.\main.c      ****     
 192:.\main.c      ****     //if(GYRO_TASK == TRUE) gyro_start();
 193:.\main.c      ****     //if(ACC_TASK == TRUE) acc_start();
 194:.\main.c      ****     //if(MAG_TASK == TRUE) mag_start();
 195:.\main.c      ****     uint8_t test = read_gyro_registry(L3GD20H_CTRL_REG1);
 1291              		.loc 5 195 0
 1292 0052 2020     		mov	r0, #32
 1293 0054 FFF7FEFF 		bl	read_gyro_registry
 1294 0058 031C     		mov	r3, r0
 1295 005a 1A1C     		mov	r2, r3
 1296 005c 3B1C     		mov	r3, r7
 1297 005e 0F33     		add	r3, r3, #15
 1298 0060 1A70     		strb	r2, [r3]
 196:.\main.c      ****     UART_1_UartPutNum(test);
 1299              		.loc 5 196 0
 1300 0062 3B1C     		mov	r3, r7
 1301 0064 0F33     		add	r3, r3, #15
 1302 0066 1B78     		ldrb	r3, [r3]
 1303 0068 181C     		mov	r0, r3
 1304 006a FFF7FEFF 		bl	UART_1_UartPutNum
 197:.\main.c      ****     UART_1_UartPutString("Started OK\r\n");
 1305              		.loc 5 197 0
 1306 006e 1D4B     		ldr	r3, .L42+8
 1307 0070 181C     		mov	r0, r3
 1308 0072 FFF7FEFF 		bl	UART_1_UartPutString
 1309 0076 00E0     		b	.L40
 1310              	.L41:
 198:.\main.c      ****     //CyDelay(500);
 199:.\main.c      ****     /* CyGlobalIntEnable; */ /* Uncomment this line to enable global interrupts. */
 200:.\main.c      ****     for(;;)
 201:.\main.c      ****     {
 202:.\main.c      ****         
 203:.\main.c      ****         if(task_flag == TRUE)
 204:.\main.c      ****         {
 205:.\main.c      ****             /*=======================================
 206:.\main.c      ****                 Main Task that is executed every 10ms
 207:.\main.c      ****               =======================================*/
 208:.\main.c      ****             task_flag = FALSE;
 209:.\main.c      ****             
 210:.\main.c      **** //            blink_cnt++;
 211:.\main.c      **** //            if(blink_cnt == 10)
 212:.\main.c      **** //            {
 213:.\main.c      **** //                blink_cnt = 0;   
 214:.\main.c      **** //       
 215:.\main.c      **** //            }
 216:.\main.c      **** //            if(blink_cnt == 100)
 217:.\main.c      **** //            {
 218:.\main.c      **** //                //Pin_2_Write(0xFF);
 219:.\main.c      **** //                
 220:.\main.c      **** //            }
 221:.\main.c      **** //            if(blink_cnt == 110)
 222:.\main.c      **** //            {
ARM GAS  C:\Users\SNFU\AppData\Local\Temp\cc2qKFEC.s 			page 36


 223:.\main.c      **** //                blink_cnt = 0;
 224:.\main.c      **** //                //Pin_2_Write(0x00);    
 225:.\main.c      **** //            }
 226:.\main.c      **** //            //NavLightCompare++;
 227:.\main.c      **** //            //NavLightPWM_WriteCompare(NavLightCompare);      
 228:.\main.c      ****             
 229:.\main.c      ****             /*=======================================
 230:.\main.c      ****                 Light Control
 231:.\main.c      ****               =======================================*/
 232:.\main.c      ****             
 233:.\main.c      ****             if(flag_LightsEnabled == TRUE)
 234:.\main.c      ****             {
 235:.\main.c      ****                 /* Lights enabled */
 236:.\main.c      ****                 // START PWM FOR NAV LIGHTS HERE??
 237:.\main.c      ****                 if(NavLightCompare == NavLightBright)
 238:.\main.c      ****                 {
 239:.\main.c      ****                     flag_NavLightPulse = TRUE;
 240:.\main.c      ****                 }
 241:.\main.c      ****                 else if (NavLightCompare == NavLightDim)
 242:.\main.c      ****                 {
 243:.\main.c      ****                     flag_NavLightPulse = FALSE;
 244:.\main.c      ****                 }
 245:.\main.c      ****                 if(flag_NavLightPulse == 0)
 246:.\main.c      ****                 {
 247:.\main.c      ****                     NavLightCompare+=NavLightStep;
 248:.\main.c      ****                     NavLightPWM_WriteCompare(NavLightCompare);
 249:.\main.c      ****                 }
 250:.\main.c      ****                 else
 251:.\main.c      ****                 {
 252:.\main.c      ****                     NavLightCompare-=NavLightStep;
 253:.\main.c      ****                     NavLightPWM_WriteCompare(NavLightCompare);
 254:.\main.c      ****                 }
 255:.\main.c      ****             }
 256:.\main.c      ****             else
 257:.\main.c      ****             {
 258:.\main.c      ****                 /* Lights disabled*/
 259:.\main.c      ****             }
 260:.\main.c      ****             
 261:.\main.c      ****             /*=======================================
 262:.\main.c      ****                 Sensor Reading
 263:.\main.c      ****               =======================================*/
 264:.\main.c      ****             //turn_rate_p = gyro_read_p();
 265:.\main.c      ****             //UART_1_UartPutNum(turn_rate_p);
 266:.\main.c      ****             if(GYRO_TASK == TRUE)
 267:.\main.c      ****             {
 268:.\main.c      ****                 gyro_read();
 269:.\main.c      ****             }
 270:.\main.c      ****             if(ACC_TASK == TRUE)
 271:.\main.c      ****             {
 272:.\main.c      ****                 acc_read();
 273:.\main.c      ****             }
 274:.\main.c      ****             if(MAG_TASK == TRUE)
 275:.\main.c      ****             {
 276:.\main.c      ****                 mag_read();
 277:.\main.c      ****             }
 278:.\main.c      ****             
 279:.\main.c      ****             /* Theta and Phi out of acceleration data*/
ARM GAS  C:\Users\SNFU\AppData\Local\Temp\cc2qKFEC.s 			page 37


 280:.\main.c      ****             Theta_acc = (atan2(acc_x_g,-acc_z_g))*180/PI;
 281:.\main.c      **** 		    Phi_acc = (atan2(-acc_y_g,-acc_z_g))*180/PI;
 282:.\main.c      ****         
 283:.\main.c      **** 			/*=========================================================*/
 284:.\main.c      **** 			/* Calculating the attitude by using Kalman Filtering START*/
 285:.\main.c      **** 			Theta += sample_time * (turn_rate_q-q_bias);
 286:.\main.c      **** 			
 287:.\main.c      **** 			P_00_Theta +=  - sample_time * ((P_10_Theta + P_01_Theta) - Q_angle);
 288:.\main.c      **** 			P_01_Theta +=  - sample_time * P_11_Theta;
 289:.\main.c      **** 			P_10_Theta = P_01_Theta;
 290:.\main.c      **** 			P_11_Theta +=  + Q_gyro * sample_time;
 291:.\main.c      **** 			
 292:.\main.c      **** 			
 293:.\main.c      **** 			Phi += sample_time * (turn_rate_p-p_bias);
 294:.\main.c      **** 			P_00_Phi +=  - sample_time * ((P_10_Phi + P_01_Phi) - Q_angle);
 295:.\main.c      **** 			P_01_Phi +=  - sample_time * P_11_Phi;
 296:.\main.c      **** 			P_10_Phi = P_01_Phi;
 297:.\main.c      **** 			P_11_Phi +=  + Q_gyro * sample_time;
 298:.\main.c      **** 			
 299:.\main.c      **** 		
 300:.\main.c      **** 			/*
 301:.\main.c      **** 			Psi += sample_time * (r_filt-r_bias);
 302:.\main.c      **** 			P_00_Psi +=  - sample_time * (P_10_Psi + P_01_Psi) + Q_angle * sample_time;
 303:.\main.c      **** 			P_01_Psi +=  - sample_time * P_11_Psi;
 304:.\main.c      **** 			P_10_Psi +=  - sample_time * P_11_Psi;
 305:.\main.c      **** 			P_11_Psi +=  + Q_gyro * sample_time;
 306:.\main.c      **** 			*/
 307:.\main.c      **** 			Theta_temp = Theta_acc - Theta;
 308:.\main.c      **** 			S_Theta = P_00_Theta + R_angle;
 309:.\main.c      **** 			K_0_Theta = P_00_Theta / S_Theta;
 310:.\main.c      **** 			K_1_Theta = P_10_Theta / S_Theta;
 311:.\main.c      **** 			
 312:.\main.c      **** 			Phi_temp = Phi_acc - Phi;
 313:.\main.c      **** 			S_Phi = P_00_Phi + R_angle;
 314:.\main.c      **** 			K_0_Phi = P_00_Phi / S_Phi;
 315:.\main.c      **** 			K_1_Phi = P_10_Phi / S_Phi;
 316:.\main.c      **** 			/*
 317:.\main.c      **** 			Psi_temp = mag - Psi;
 318:.\main.c      **** 			S_Psi = P_00_Psi + R_angle;
 319:.\main.c      **** 			K_0_Psi = P_00_Psi / S_Psi;
 320:.\main.c      **** 			K_1_Psi = P_10_Psi / S_Psi;
 321:.\main.c      **** 			*/
 322:.\main.c      **** 			Theta +=  K_0_Theta * Theta_temp;
 323:.\main.c      **** 			q_bias  +=  K_1_Theta * Theta_temp;
 324:.\main.c      **** 			P_00_Theta -= K_0_Theta * P_00_Theta;
 325:.\main.c      **** 			P_01_Theta -= K_0_Theta * P_01_Theta;
 326:.\main.c      **** 			P_10_Theta -= K_1_Theta * P_00_Theta;
 327:.\main.c      **** 			P_11_Theta -= K_1_Theta * P_01_Theta;
 328:.\main.c      **** 			
 329:.\main.c      **** 			Phi +=  K_0_Phi * Phi_temp;
 330:.\main.c      **** 			p_bias  +=  K_1_Phi * Phi_temp;
 331:.\main.c      **** 			P_00_Phi -= K_0_Phi * P_00_Phi;
 332:.\main.c      **** 			P_01_Phi -= K_0_Phi * P_01_Phi;
 333:.\main.c      **** 			P_10_Phi -= K_1_Phi * P_00_Phi;
 334:.\main.c      **** 			P_11_Phi -= K_1_Phi * P_01_Phi;
 335:.\main.c      **** 		
 336:.\main.c      **** 			
ARM GAS  C:\Users\SNFU\AppData\Local\Temp\cc2qKFEC.s 			page 38


 337:.\main.c      **** 			/* Calculating the attitude by using Kalman Filtering END*/
 338:.\main.c      **** 			/*=======================================================*/
 339:.\main.c      **** 		
 340:.\main.c      **** //            UART_1_UartPutNum(Theta);
 341:.\main.c      **** //            UART_1_UartPutString(" ");
 342:.\main.c      **** //            UART_1_UartPutNum(Phi);
 343:.\main.c      **** //            UART_1_UartPutString(" \r\n");
 344:.\main.c      ****                 
 345:.\main.c      ****                 
 346:.\main.c      ****             /*=======================================
 347:.\main.c      ****                 Output Control
 348:.\main.c      ****               =======================================*/
 349:.\main.c      ****         uint8_t debug = 1;
 350:.\main.c      ****             if(debug == 0)
 351:.\main.c      ****             {
 352:.\main.c      ****                 ctrl_out[out_mot] = ctrl_in[in_mot];    
 353:.\main.c      ****                 ctrl_out[out_ail1] = ctrl_in[in_ail];    
 354:.\main.c      ****                 ctrl_out[out_ail2] = ctrl_in[in_ail];
 355:.\main.c      ****                 ctrl_out[out_ele1] = ctrl_in[in_ele];
 356:.\main.c      ****                 ctrl_out[out_ele2] = ctrl_in[in_ele];
 357:.\main.c      ****                 ctrl_out[out_rud] = ctrl_in[in_rud];
 358:.\main.c      ****                 ctrl_out[out_fl1] = ctrl_in[in_fl];
 359:.\main.c      ****                 ctrl_out[out_fl2] = ctrl_in[in_fl];
 360:.\main.c      ****                 ctrl_out[out_ge1] = ctrl_in[in_ge];
 361:.\main.c      ****                 ctrl_out[out_ge2] = ctrl_in[in_ge];
 362:.\main.c      ****                 ctrl_out[out_ge3] = ctrl_in[in_ge];
 363:.\main.c      ****                 ctrl_out[out_sp1] = ctrl_in[in_sp1];
 364:.\main.c      ****                 ctrl_out[out_sp2] = ctrl_in[in_sp2];
 365:.\main.c      ****             }
 366:.\main.c      ****             else
 367:.\main.c      ****             {
 368:.\main.c      ****                 ctrl_in[in_mot] = 1000;
 369:.\main.c      ****                 ctrl_out[out_mot] = ctrl_in[in_mot];    
 370:.\main.c      ****                 ctrl_out[out_ail1] = ctrl_in[in_mot];    
 371:.\main.c      ****                 ctrl_out[out_ail2] = ctrl_in[in_mot];
 372:.\main.c      ****                 ctrl_out[out_ele1] = ctrl_in[in_mot];
 373:.\main.c      ****                 ctrl_out[out_ele2] = ctrl_in[in_mot];
 374:.\main.c      ****                 ctrl_out[out_rud] = ctrl_in[in_mot];
 375:.\main.c      ****                 ctrl_out[out_fl1] = ctrl_in[in_mot];
 376:.\main.c      ****                 ctrl_out[out_fl2] = ctrl_in[in_mot];
 377:.\main.c      ****                 ctrl_out[out_ge1] = ctrl_in[in_mot];
 378:.\main.c      ****                 ctrl_out[out_ge2] = ctrl_in[in_mot];
 379:.\main.c      ****                 ctrl_out[out_ge3] = ctrl_in[in_mot];
 380:.\main.c      ****                 ctrl_out[out_sp1] = ctrl_in[in_mot];
 381:.\main.c      ****                 ctrl_out[out_sp2] = ctrl_in[in_mot];
 382:.\main.c      ****             }
 383:.\main.c      ****             
 384:.\main.c      ****             /*=======================================
 385:.\main.c      ****                 Data Logging
 386:.\main.c      ****               =======================================*/
 387:.\main.c      ****             // Pack the message
 388:.\main.c      ****             if((cnt_ML_HEARTBEAT_send % 20) == 0)  // 20*10ms = 200ms
 389:.\main.c      ****             {
 390:.\main.c      ****                 mavlink_msg_attitude_pack(mavlink_system.sysid, mavlink_system.compid, &msg, 0, Phi
 391:.\main.c      ****                 uint16_t len = mavlink_msg_to_send_buffer(buf, &msg);
 392:.\main.c      ****                 UART_1_UartSendMavlink(buf, len);
 393:.\main.c      ****             }
ARM GAS  C:\Users\SNFU\AppData\Local\Temp\cc2qKFEC.s 			page 39


 394:.\main.c      ****             
 395:.\main.c      ****             if((cnt_ML_HEARTBEAT_send % 100) == 0)  // 100*10ms = 1000ms
 396:.\main.c      ****             {
 397:.\main.c      ****                   cnt_ML_HEARTBEAT_send = 0;
 398:.\main.c      ****                 
 399:.\main.c      ****                   mavlink_msg_heartbeat_pack(mavlink_system.sysid, mavlink_system.compid, &msg, sys
 400:.\main.c      **** //     
 401:.\main.c      **** //                // Copy the message to the send buffer
 402:.\main.c      ****                   uint16_t len = mavlink_msg_to_send_buffer(buf, &msg);
 403:.\main.c      ****                   
 404:.\main.c      ****                   UART_1_UartSendMavlink(buf, len);
 405:.\main.c      ****                 
 406:.\main.c      **** //                UART_1_UartPutChar(0xFE);   // message header
 407:.\main.c      **** //                UART_1_UartPutChar(0x09);   // message length
 408:.\main.c      **** //                UART_1_UartPutChar(cnt_Mavlink_seq);   // Sequence number (0 to 255 counting)
 409:.\main.c      **** //                UART_1_UartPutChar(mavlink_system.sysid);
 410:.\main.c      **** //                UART_1_UartPutChar(mavlink_system.compid);
 411:.\main.c      **** //                UART_1_UartPutChar(0);      // 0 = Heartbeat Message
 412:.\main.c      **** //                UART_1_UartPutChar(0);      // 0 = Heartbeat Message // Byte 6
 413:.\main.c      **** //                UART_1_UartPutChar(0);      // 0 = Heartbeat Message // Byte 7
 414:.\main.c      **** //                UART_1_UartPutChar(0);      // 0 = Heartbeat Message // Byte 8
 415:.\main.c      **** //                UART_1_UartPutChar(0);      // 0 = Heartbeat Message // Byte 9
 416:.\main.c      **** //                UART_1_UartPutChar(0x01);      // 0 = Heartbeat Message // Byte 10
 417:.\main.c      **** //                UART_1_UartPutChar(0x00);      // 0 = Heartbeat Message // Byte 11
 418:.\main.c      **** //                UART_1_UartPutChar(0x00);      // 0 = Heartbeat Message // Byte 12
 419:.\main.c      **** //                UART_1_UartPutChar(0x03);      // 0 = Heartbeat Message // Byte 13
 420:.\main.c      **** //                UART_1_UartPutChar(0x03);      // 0 = Heartbeat Message // Byte 14
 421:.\main.c      ****                 
 422:.\main.c      ****                 
 423:.\main.c      ****                 //cnt_Mavlink_seq++;
 424:.\main.c      ****             }
 425:.\main.c      ****             cnt_ML_HEARTBEAT_send++;
 426:.\main.c      ****             /*    
 427:.\main.c      ****             UART_1_UartPutNum(ctrl_out[out_mot]);
 428:.\main.c      ****                 UART_1_UartPutString(";");
 429:.\main.c      ****                 UART_1_UartPutNum(ctrl_out[out_ail1]);
 430:.\main.c      ****                 UART_1_UartPutString(";");
 431:.\main.c      ****                 UART_1_UartPutNum(ctrl_in[2]);
 432:.\main.c      ****                 UART_1_UartPutString(";");
 433:.\main.c      ****                 UART_1_UartPutNum(ctrl_in[3]);
 434:.\main.c      ****                 UART_1_UartPutString(";");
 435:.\main.c      ****                 UART_1_UartPutNum(ctrl_in[4]);
 436:.\main.c      ****                 UART_1_UartPutString(";");
 437:.\main.c      ****                 UART_1_UartPutNum(ctrl_in[5]);
 438:.\main.c      ****                 UART_1_UartPutString(";");
 439:.\main.c      ****                 UART_1_UartPutNum(ctrl_in[6]);
 440:.\main.c      ****                 UART_1_UartPutString(";");
 441:.\main.c      ****                 UART_1_UartPutNum(ctrl_in[7]);
 442:.\main.c      ****                 UART_1_UartPutString("\r\n");
 443:.\main.c      ****             */
 444:.\main.c      ****         }
 445:.\main.c      **** 
 446:.\main.c      ****     }
 1311              		.loc 5 446 0
 1312 0078 C046     		mov	r8, r8
 1313              	.L40:
 203:.\main.c      ****         if(task_flag == TRUE)
ARM GAS  C:\Users\SNFU\AppData\Local\Temp\cc2qKFEC.s 			page 40


 1314              		.loc 5 203 0
 1315 007a 1B4B     		ldr	r3, .L42+12
 1316 007c 1B78     		ldrb	r3, [r3]
 1317 007e DBB2     		uxtb	r3, r3
 1318 0080 012B     		cmp	r3, #1
 1319 0082 F9D1     		bne	.L41
 1320              	.LBB2:
 208:.\main.c      ****             task_flag = FALSE;
 1321              		.loc 5 208 0
 1322 0084 184B     		ldr	r3, .L42+12
 1323 0086 0022     		mov	r2, #0
 1324 0088 1A70     		strb	r2, [r3]
 233:.\main.c      ****             if(flag_LightsEnabled == TRUE)
 1325              		.loc 5 233 0
 1326 008a 184B     		ldr	r3, .L42+16
 1327 008c 1B78     		ldrb	r3, [r3]
 1328 008e 012B     		cmp	r3, #1
 1329 0090 45D1     		bne	.L32
 237:.\main.c      ****                 if(NavLightCompare == NavLightBright)
 1330              		.loc 5 237 0
 1331 0092 174B     		ldr	r3, .L42+20
 1332 0094 1A88     		ldrh	r2, [r3]
 1333 0096 174B     		ldr	r3, .L42+24
 1334 0098 1B88     		ldrh	r3, [r3]
 1335 009a 9A42     		cmp	r2, r3
 1336 009c 03D1     		bne	.L33
 239:.\main.c      ****                     flag_NavLightPulse = TRUE;
 1337              		.loc 5 239 0
 1338 009e 164B     		ldr	r3, .L42+28
 1339 00a0 0122     		mov	r2, #1
 1340 00a2 1A70     		strb	r2, [r3]
 1341 00a4 08E0     		b	.L34
 1342              	.L33:
 241:.\main.c      ****                 else if (NavLightCompare == NavLightDim)
 1343              		.loc 5 241 0
 1344 00a6 124B     		ldr	r3, .L42+20
 1345 00a8 1A88     		ldrh	r2, [r3]
 1346 00aa 144B     		ldr	r3, .L42+32
 1347 00ac 1B88     		ldrh	r3, [r3]
 1348 00ae 9A42     		cmp	r2, r3
 1349 00b0 02D1     		bne	.L34
 243:.\main.c      ****                     flag_NavLightPulse = FALSE;
 1350              		.loc 5 243 0
 1351 00b2 114B     		ldr	r3, .L42+28
 1352 00b4 0022     		mov	r2, #0
 1353 00b6 1A70     		strb	r2, [r3]
 1354              	.L34:
 245:.\main.c      ****                 if(flag_NavLightPulse == 0)
 1355              		.loc 5 245 0
 1356 00b8 0F4B     		ldr	r3, .L42+28
 1357 00ba 1B78     		ldrb	r3, [r3]
 1358 00bc 002B     		cmp	r3, #0
 1359 00be 21D1     		bne	.L35
 247:.\main.c      ****                     NavLightCompare+=NavLightStep;
 1360              		.loc 5 247 0
 1361 00c0 0B4B     		ldr	r3, .L42+20
 1362 00c2 1A88     		ldrh	r2, [r3]
ARM GAS  C:\Users\SNFU\AppData\Local\Temp\cc2qKFEC.s 			page 41


 1363 00c4 0E4B     		ldr	r3, .L42+36
 1364 00c6 1B88     		ldrh	r3, [r3]
 1365 00c8 D318     		add	r3, r2, r3
 1366 00ca 9AB2     		uxth	r2, r3
 1367 00cc 084B     		ldr	r3, .L42+20
 1368 00ce 1A80     		strh	r2, [r3]
 248:.\main.c      ****                     NavLightPWM_WriteCompare(NavLightCompare);
 1369              		.loc 5 248 0
 1370 00d0 074B     		ldr	r3, .L42+20
 1371 00d2 1B88     		ldrh	r3, [r3]
 1372 00d4 181C     		mov	r0, r3
 1373 00d6 FFF7FEFF 		bl	NavLightPWM_WriteCompare
 1374 00da 20E0     		b	.L32
 1375              	.L43:
 1376              		.align	2
 1377              	.L42:
 1378 00dc 00000000 		.word	mavlink_system
 1379 00e0 04000000 		.word	.LC4
 1380 00e4 10000000 		.word	.LC6
 1381 00e8 00000000 		.word	task_flag
 1382 00ec 00000000 		.word	flag_LightsEnabled
 1383 00f0 00000000 		.word	NavLightCompare
 1384 00f4 00000000 		.word	NavLightBright
 1385 00f8 00000000 		.word	flag_NavLightPulse
 1386 00fc 00000000 		.word	NavLightDim
 1387 0100 00000000 		.word	NavLightStep
 1388              	.L35:
 252:.\main.c      ****                     NavLightCompare-=NavLightStep;
 1389              		.loc 5 252 0
 1390 0104 F24B     		ldr	r3, .L44+16
 1391 0106 1A88     		ldrh	r2, [r3]
 1392 0108 F24B     		ldr	r3, .L44+20
 1393 010a 1B88     		ldrh	r3, [r3]
 1394 010c D31A     		sub	r3, r2, r3
 1395 010e 9AB2     		uxth	r2, r3
 1396 0110 EF4B     		ldr	r3, .L44+16
 1397 0112 1A80     		strh	r2, [r3]
 253:.\main.c      ****                     NavLightPWM_WriteCompare(NavLightCompare);
 1398              		.loc 5 253 0
 1399 0114 EE4B     		ldr	r3, .L44+16
 1400 0116 1B88     		ldrh	r3, [r3]
 1401 0118 181C     		mov	r0, r3
 1402 011a FFF7FEFF 		bl	NavLightPWM_WriteCompare
 1403              	.L32:
 268:.\main.c      ****                 gyro_read();
 1404              		.loc 5 268 0
 1405 011e FFF7FEFF 		bl	gyro_read
 272:.\main.c      ****                 acc_read();
 1406              		.loc 5 272 0
 1407 0122 FFF7FEFF 		bl	acc_read
 280:.\main.c      ****             Theta_acc = (atan2(acc_x_g,-acc_z_g))*180/PI;
 1408              		.loc 5 280 0
 1409 0126 EC4B     		ldr	r3, .L44+24
 1410 0128 1B88     		ldrh	r3, [r3]
 1411 012a 1BB2     		sxth	r3, r3
 1412 012c 181C     		mov	r0, r3
 1413 012e FFF7FEFF 		bl	__aeabi_i2d
ARM GAS  C:\Users\SNFU\AppData\Local\Temp\cc2qKFEC.s 			page 42


 1414 0132 051C     		mov	r5, r0
 1415 0134 0E1C     		mov	r6, r1
 1416 0136 E94B     		ldr	r3, .L44+28
 1417 0138 1B88     		ldrh	r3, [r3]
 1418 013a 1BB2     		sxth	r3, r3
 1419 013c 5B42     		neg	r3, r3
 1420 013e 181C     		mov	r0, r3
 1421 0140 FFF7FEFF 		bl	__aeabi_i2d
 1422 0144 031C     		mov	r3, r0
 1423 0146 0C1C     		mov	r4, r1
 1424 0148 281C     		mov	r0, r5
 1425 014a 311C     		mov	r1, r6
 1426 014c 1A1C     		mov	r2, r3
 1427 014e 231C     		mov	r3, r4
 1428 0150 FFF7FEFF 		bl	atan2
 1429 0154 031C     		mov	r3, r0
 1430 0156 0C1C     		mov	r4, r1
 1431 0158 181C     		mov	r0, r3
 1432 015a 211C     		mov	r1, r4
 1433 015c D94B     		ldr	r3, .L44+4
 1434 015e D84A     		ldr	r2, .L44
 1435 0160 FFF7FEFF 		bl	__aeabi_dmul
 1436 0164 031C     		mov	r3, r0
 1437 0166 0C1C     		mov	r4, r1
 1438 0168 181C     		mov	r0, r3
 1439 016a 211C     		mov	r1, r4
 1440 016c D64A     		ldr	r2, .L44+8
 1441 016e D74B     		ldr	r3, .L44+12
 1442 0170 FFF7FEFF 		bl	__aeabi_ddiv
 1443 0174 031C     		mov	r3, r0
 1444 0176 0C1C     		mov	r4, r1
 1445 0178 181C     		mov	r0, r3
 1446 017a 211C     		mov	r1, r4
 1447 017c FFF7FEFF 		bl	__aeabi_d2iz
 1448 0180 031C     		mov	r3, r0
 1449 0182 9AB2     		uxth	r2, r3
 1450 0184 D64B     		ldr	r3, .L44+32
 1451 0186 1A80     		strh	r2, [r3]
 281:.\main.c      **** 		    Phi_acc = (atan2(-acc_y_g,-acc_z_g))*180/PI;
 1452              		.loc 5 281 0
 1453 0188 D64B     		ldr	r3, .L44+36
 1454 018a 1B88     		ldrh	r3, [r3]
 1455 018c 1BB2     		sxth	r3, r3
 1456 018e 5B42     		neg	r3, r3
 1457 0190 181C     		mov	r0, r3
 1458 0192 FFF7FEFF 		bl	__aeabi_i2d
 1459 0196 051C     		mov	r5, r0
 1460 0198 0E1C     		mov	r6, r1
 1461 019a D04B     		ldr	r3, .L44+28
 1462 019c 1B88     		ldrh	r3, [r3]
 1463 019e 1BB2     		sxth	r3, r3
 1464 01a0 5B42     		neg	r3, r3
 1465 01a2 181C     		mov	r0, r3
 1466 01a4 FFF7FEFF 		bl	__aeabi_i2d
 1467 01a8 031C     		mov	r3, r0
 1468 01aa 0C1C     		mov	r4, r1
 1469 01ac 281C     		mov	r0, r5
ARM GAS  C:\Users\SNFU\AppData\Local\Temp\cc2qKFEC.s 			page 43


 1470 01ae 311C     		mov	r1, r6
 1471 01b0 1A1C     		mov	r2, r3
 1472 01b2 231C     		mov	r3, r4
 1473 01b4 FFF7FEFF 		bl	atan2
 1474 01b8 031C     		mov	r3, r0
 1475 01ba 0C1C     		mov	r4, r1
 1476 01bc 181C     		mov	r0, r3
 1477 01be 211C     		mov	r1, r4
 1478 01c0 C04B     		ldr	r3, .L44+4
 1479 01c2 BF4A     		ldr	r2, .L44
 1480 01c4 FFF7FEFF 		bl	__aeabi_dmul
 1481 01c8 031C     		mov	r3, r0
 1482 01ca 0C1C     		mov	r4, r1
 1483 01cc 181C     		mov	r0, r3
 1484 01ce 211C     		mov	r1, r4
 1485 01d0 BD4A     		ldr	r2, .L44+8
 1486 01d2 BE4B     		ldr	r3, .L44+12
 1487 01d4 FFF7FEFF 		bl	__aeabi_ddiv
 1488 01d8 031C     		mov	r3, r0
 1489 01da 0C1C     		mov	r4, r1
 1490 01dc 181C     		mov	r0, r3
 1491 01de 211C     		mov	r1, r4
 1492 01e0 FFF7FEFF 		bl	__aeabi_d2iz
 1493 01e4 031C     		mov	r3, r0
 1494 01e6 9AB2     		uxth	r2, r3
 1495 01e8 BF4B     		ldr	r3, .L44+40
 1496 01ea 1A80     		strh	r2, [r3]
 285:.\main.c      **** 			Theta += sample_time * (turn_rate_q-q_bias);
 1497              		.loc 5 285 0
 1498 01ec BF4B     		ldr	r3, .L44+44
 1499 01ee 1B88     		ldrh	r3, [r3]
 1500 01f0 1BB2     		sxth	r3, r3
 1501 01f2 181C     		mov	r0, r3
 1502 01f4 FFF7FEFF 		bl	__aeabi_i2f
 1503 01f8 041C     		add	r4, r0, #0
 1504 01fa BD4B     		ldr	r3, .L44+48
 1505 01fc 1B88     		ldrh	r3, [r3]
 1506 01fe 1BB2     		sxth	r3, r3
 1507 0200 181C     		mov	r0, r3
 1508 0202 FFF7FEFF 		bl	__aeabi_i2f
 1509 0206 021C     		add	r2, r0, #0
 1510 0208 BA4B     		ldr	r3, .L44+52
 1511 020a 1B68     		ldr	r3, [r3]
 1512 020c 101C     		add	r0, r2, #0
 1513 020e 191C     		add	r1, r3, #0
 1514 0210 FFF7FEFF 		bl	__aeabi_fsub
 1515 0214 031C     		add	r3, r0, #0
 1516 0216 1A1C     		add	r2, r3, #0
 1517 0218 B74B     		ldr	r3, .L44+56
 1518 021a 1B68     		ldr	r3, [r3]
 1519 021c 101C     		add	r0, r2, #0
 1520 021e 191C     		add	r1, r3, #0
 1521 0220 FFF7FEFF 		bl	__aeabi_fmul
 1522 0224 031C     		add	r3, r0, #0
 1523 0226 201C     		add	r0, r4, #0
 1524 0228 191C     		add	r1, r3, #0
 1525 022a FFF7FEFF 		bl	__aeabi_fadd
ARM GAS  C:\Users\SNFU\AppData\Local\Temp\cc2qKFEC.s 			page 44


 1526 022e 031C     		add	r3, r0, #0
 1527 0230 181C     		add	r0, r3, #0
 1528 0232 FFF7FEFF 		bl	__aeabi_f2iz
 1529 0236 031C     		mov	r3, r0
 1530 0238 9AB2     		uxth	r2, r3
 1531 023a AC4B     		ldr	r3, .L44+44
 1532 023c 1A80     		strh	r2, [r3]
 287:.\main.c      **** 			P_00_Theta +=  - sample_time * ((P_10_Theta + P_01_Theta) - Q_angle);
 1533              		.loc 5 287 0
 1534 023e AE4B     		ldr	r3, .L44+56
 1535 0240 1B68     		ldr	r3, [r3]
 1536 0242 8022     		mov	r2, #128
 1537 0244 1206     		lsl	r2, r2, #24
 1538 0246 141C     		mov	r4, r2
 1539 0248 5C40     		eor	r4, r3
 1540 024a AC4B     		ldr	r3, .L44+60
 1541 024c 1A68     		ldr	r2, [r3]
 1542 024e AC4B     		ldr	r3, .L44+64
 1543 0250 1B68     		ldr	r3, [r3]
 1544 0252 101C     		add	r0, r2, #0
 1545 0254 191C     		add	r1, r3, #0
 1546 0256 FFF7FEFF 		bl	__aeabi_fadd
 1547 025a 031C     		add	r3, r0, #0
 1548 025c 1A1C     		add	r2, r3, #0
 1549 025e A94B     		ldr	r3, .L44+68
 1550 0260 1B68     		ldr	r3, [r3]
 1551 0262 101C     		add	r0, r2, #0
 1552 0264 191C     		add	r1, r3, #0
 1553 0266 FFF7FEFF 		bl	__aeabi_fsub
 1554 026a 031C     		add	r3, r0, #0
 1555 026c 201C     		add	r0, r4, #0
 1556 026e 191C     		add	r1, r3, #0
 1557 0270 FFF7FEFF 		bl	__aeabi_fmul
 1558 0274 031C     		add	r3, r0, #0
 1559 0276 1A1C     		add	r2, r3, #0
 1560 0278 A34B     		ldr	r3, .L44+72
 1561 027a 1B68     		ldr	r3, [r3]
 1562 027c 101C     		add	r0, r2, #0
 1563 027e 191C     		add	r1, r3, #0
 1564 0280 FFF7FEFF 		bl	__aeabi_fadd
 1565 0284 031C     		add	r3, r0, #0
 1566 0286 1A1C     		add	r2, r3, #0
 1567 0288 9F4B     		ldr	r3, .L44+72
 1568 028a 1A60     		str	r2, [r3]
 288:.\main.c      **** 			P_01_Theta +=  - sample_time * P_11_Theta;
 1569              		.loc 5 288 0
 1570 028c 9A4B     		ldr	r3, .L44+56
 1571 028e 1B68     		ldr	r3, [r3]
 1572 0290 8022     		mov	r2, #128
 1573 0292 1206     		lsl	r2, r2, #24
 1574 0294 5A40     		eor	r2, r3
 1575 0296 9D4B     		ldr	r3, .L44+76
 1576 0298 1B68     		ldr	r3, [r3]
 1577 029a 101C     		add	r0, r2, #0
 1578 029c 191C     		add	r1, r3, #0
 1579 029e FFF7FEFF 		bl	__aeabi_fmul
 1580 02a2 031C     		add	r3, r0, #0
ARM GAS  C:\Users\SNFU\AppData\Local\Temp\cc2qKFEC.s 			page 45


 1581 02a4 1A1C     		add	r2, r3, #0
 1582 02a6 964B     		ldr	r3, .L44+64
 1583 02a8 1B68     		ldr	r3, [r3]
 1584 02aa 101C     		add	r0, r2, #0
 1585 02ac 191C     		add	r1, r3, #0
 1586 02ae FFF7FEFF 		bl	__aeabi_fadd
 1587 02b2 031C     		add	r3, r0, #0
 1588 02b4 1A1C     		add	r2, r3, #0
 1589 02b6 924B     		ldr	r3, .L44+64
 1590 02b8 1A60     		str	r2, [r3]
 289:.\main.c      **** 			P_10_Theta = P_01_Theta;
 1591              		.loc 5 289 0
 1592 02ba 914B     		ldr	r3, .L44+64
 1593 02bc 1A68     		ldr	r2, [r3]
 1594 02be 8F4B     		ldr	r3, .L44+60
 1595 02c0 1A60     		str	r2, [r3]
 290:.\main.c      **** 			P_11_Theta +=  + Q_gyro * sample_time;
 1596              		.loc 5 290 0
 1597 02c2 934B     		ldr	r3, .L44+80
 1598 02c4 1A68     		ldr	r2, [r3]
 1599 02c6 8C4B     		ldr	r3, .L44+56
 1600 02c8 1B68     		ldr	r3, [r3]
 1601 02ca 101C     		add	r0, r2, #0
 1602 02cc 191C     		add	r1, r3, #0
 1603 02ce FFF7FEFF 		bl	__aeabi_fmul
 1604 02d2 031C     		add	r3, r0, #0
 1605 02d4 1A1C     		add	r2, r3, #0
 1606 02d6 8D4B     		ldr	r3, .L44+76
 1607 02d8 1B68     		ldr	r3, [r3]
 1608 02da 101C     		add	r0, r2, #0
 1609 02dc 191C     		add	r1, r3, #0
 1610 02de FFF7FEFF 		bl	__aeabi_fadd
 1611 02e2 031C     		add	r3, r0, #0
 1612 02e4 1A1C     		add	r2, r3, #0
 1613 02e6 894B     		ldr	r3, .L44+76
 1614 02e8 1A60     		str	r2, [r3]
 293:.\main.c      **** 			Phi += sample_time * (turn_rate_p-p_bias);
 1615              		.loc 5 293 0
 1616 02ea 8A4B     		ldr	r3, .L44+84
 1617 02ec 1B88     		ldrh	r3, [r3]
 1618 02ee 1BB2     		sxth	r3, r3
 1619 02f0 181C     		mov	r0, r3
 1620 02f2 FFF7FEFF 		bl	__aeabi_i2f
 1621 02f6 041C     		add	r4, r0, #0
 1622 02f8 874B     		ldr	r3, .L44+88
 1623 02fa 1B88     		ldrh	r3, [r3]
 1624 02fc 1BB2     		sxth	r3, r3
 1625 02fe 181C     		mov	r0, r3
 1626 0300 FFF7FEFF 		bl	__aeabi_i2f
 1627 0304 021C     		add	r2, r0, #0
 1628 0306 854B     		ldr	r3, .L44+92
 1629 0308 1B68     		ldr	r3, [r3]
 1630 030a 101C     		add	r0, r2, #0
 1631 030c 191C     		add	r1, r3, #0
 1632 030e FFF7FEFF 		bl	__aeabi_fsub
 1633 0312 031C     		add	r3, r0, #0
 1634 0314 1A1C     		add	r2, r3, #0
ARM GAS  C:\Users\SNFU\AppData\Local\Temp\cc2qKFEC.s 			page 46


 1635 0316 784B     		ldr	r3, .L44+56
 1636 0318 1B68     		ldr	r3, [r3]
 1637 031a 101C     		add	r0, r2, #0
 1638 031c 191C     		add	r1, r3, #0
 1639 031e FFF7FEFF 		bl	__aeabi_fmul
 1640 0322 031C     		add	r3, r0, #0
 1641 0324 201C     		add	r0, r4, #0
 1642 0326 191C     		add	r1, r3, #0
 1643 0328 FFF7FEFF 		bl	__aeabi_fadd
 1644 032c 031C     		add	r3, r0, #0
 1645 032e 181C     		add	r0, r3, #0
 1646 0330 FFF7FEFF 		bl	__aeabi_f2iz
 1647 0334 031C     		mov	r3, r0
 1648 0336 9AB2     		uxth	r2, r3
 1649 0338 764B     		ldr	r3, .L44+84
 1650 033a 1A80     		strh	r2, [r3]
 294:.\main.c      **** 			P_00_Phi +=  - sample_time * ((P_10_Phi + P_01_Phi) - Q_angle);
 1651              		.loc 5 294 0
 1652 033c 6E4B     		ldr	r3, .L44+56
 1653 033e 1B68     		ldr	r3, [r3]
 1654 0340 8022     		mov	r2, #128
 1655 0342 1206     		lsl	r2, r2, #24
 1656 0344 141C     		mov	r4, r2
 1657 0346 5C40     		eor	r4, r3
 1658 0348 754B     		ldr	r3, .L44+96
 1659 034a 1A68     		ldr	r2, [r3]
 1660 034c 754B     		ldr	r3, .L44+100
 1661 034e 1B68     		ldr	r3, [r3]
 1662 0350 101C     		add	r0, r2, #0
 1663 0352 191C     		add	r1, r3, #0
 1664 0354 FFF7FEFF 		bl	__aeabi_fadd
 1665 0358 031C     		add	r3, r0, #0
 1666 035a 1A1C     		add	r2, r3, #0
 1667 035c 694B     		ldr	r3, .L44+68
 1668 035e 1B68     		ldr	r3, [r3]
 1669 0360 101C     		add	r0, r2, #0
 1670 0362 191C     		add	r1, r3, #0
 1671 0364 FFF7FEFF 		bl	__aeabi_fsub
 1672 0368 031C     		add	r3, r0, #0
 1673 036a 201C     		add	r0, r4, #0
 1674 036c 191C     		add	r1, r3, #0
 1675 036e FFF7FEFF 		bl	__aeabi_fmul
 1676 0372 031C     		add	r3, r0, #0
 1677 0374 1A1C     		add	r2, r3, #0
 1678 0376 6C4B     		ldr	r3, .L44+104
 1679 0378 1B68     		ldr	r3, [r3]
 1680 037a 101C     		add	r0, r2, #0
 1681 037c 191C     		add	r1, r3, #0
 1682 037e FFF7FEFF 		bl	__aeabi_fadd
 1683 0382 031C     		add	r3, r0, #0
 1684 0384 1A1C     		add	r2, r3, #0
 1685 0386 684B     		ldr	r3, .L44+104
 1686 0388 1A60     		str	r2, [r3]
 295:.\main.c      **** 			P_01_Phi +=  - sample_time * P_11_Phi;
 1687              		.loc 5 295 0
 1688 038a 5B4B     		ldr	r3, .L44+56
 1689 038c 1B68     		ldr	r3, [r3]
ARM GAS  C:\Users\SNFU\AppData\Local\Temp\cc2qKFEC.s 			page 47


 1690 038e 8022     		mov	r2, #128
 1691 0390 1206     		lsl	r2, r2, #24
 1692 0392 5A40     		eor	r2, r3
 1693 0394 654B     		ldr	r3, .L44+108
 1694 0396 1B68     		ldr	r3, [r3]
 1695 0398 101C     		add	r0, r2, #0
 1696 039a 191C     		add	r1, r3, #0
 1697 039c FFF7FEFF 		bl	__aeabi_fmul
 1698 03a0 031C     		add	r3, r0, #0
 1699 03a2 1A1C     		add	r2, r3, #0
 1700 03a4 5F4B     		ldr	r3, .L44+100
 1701 03a6 1B68     		ldr	r3, [r3]
 1702 03a8 101C     		add	r0, r2, #0
 1703 03aa 191C     		add	r1, r3, #0
 1704 03ac FFF7FEFF 		bl	__aeabi_fadd
 1705 03b0 031C     		add	r3, r0, #0
 1706 03b2 1A1C     		add	r2, r3, #0
 1707 03b4 5B4B     		ldr	r3, .L44+100
 1708 03b6 1A60     		str	r2, [r3]
 296:.\main.c      **** 			P_10_Phi = P_01_Phi;
 1709              		.loc 5 296 0
 1710 03b8 5A4B     		ldr	r3, .L44+100
 1711 03ba 1A68     		ldr	r2, [r3]
 1712 03bc 584B     		ldr	r3, .L44+96
 1713 03be 1A60     		str	r2, [r3]
 297:.\main.c      **** 			P_11_Phi +=  + Q_gyro * sample_time;
 1714              		.loc 5 297 0
 1715 03c0 534B     		ldr	r3, .L44+80
 1716 03c2 1A68     		ldr	r2, [r3]
 1717 03c4 4C4B     		ldr	r3, .L44+56
 1718 03c6 1B68     		ldr	r3, [r3]
 1719 03c8 101C     		add	r0, r2, #0
 1720 03ca 191C     		add	r1, r3, #0
 1721 03cc FFF7FEFF 		bl	__aeabi_fmul
 1722 03d0 031C     		add	r3, r0, #0
 1723 03d2 1A1C     		add	r2, r3, #0
 1724 03d4 554B     		ldr	r3, .L44+108
 1725 03d6 1B68     		ldr	r3, [r3]
 1726 03d8 101C     		add	r0, r2, #0
 1727 03da 191C     		add	r1, r3, #0
 1728 03dc FFF7FEFF 		bl	__aeabi_fadd
 1729 03e0 031C     		add	r3, r0, #0
 1730 03e2 1A1C     		add	r2, r3, #0
 1731 03e4 514B     		ldr	r3, .L44+108
 1732 03e6 1A60     		str	r2, [r3]
 307:.\main.c      **** 			Theta_temp = Theta_acc - Theta;
 1733              		.loc 5 307 0
 1734 03e8 3D4B     		ldr	r3, .L44+32
 1735 03ea 1B88     		ldrh	r3, [r3]
 1736 03ec 1AB2     		sxth	r2, r3
 1737 03ee 3F4B     		ldr	r3, .L44+44
 1738 03f0 1B88     		ldrh	r3, [r3]
 1739 03f2 1BB2     		sxth	r3, r3
 1740 03f4 D31A     		sub	r3, r2, r3
 1741 03f6 181C     		mov	r0, r3
 1742 03f8 FFF7FEFF 		bl	__aeabi_i2f
 1743 03fc 021C     		add	r2, r0, #0
ARM GAS  C:\Users\SNFU\AppData\Local\Temp\cc2qKFEC.s 			page 48


 1744 03fe 4C4B     		ldr	r3, .L44+112
 1745 0400 1A60     		str	r2, [r3]
 308:.\main.c      **** 			S_Theta = P_00_Theta + R_angle;
 1746              		.loc 5 308 0
 1747 0402 414B     		ldr	r3, .L44+72
 1748 0404 1A68     		ldr	r2, [r3]
 1749 0406 4B4B     		ldr	r3, .L44+116
 1750 0408 1B68     		ldr	r3, [r3]
 1751 040a 101C     		add	r0, r2, #0
 1752 040c 191C     		add	r1, r3, #0
 1753 040e FFF7FEFF 		bl	__aeabi_fadd
 1754 0412 031C     		add	r3, r0, #0
 1755 0414 1A1C     		add	r2, r3, #0
 1756 0416 484B     		ldr	r3, .L44+120
 1757 0418 1A60     		str	r2, [r3]
 309:.\main.c      **** 			K_0_Theta = P_00_Theta / S_Theta;
 1758              		.loc 5 309 0
 1759 041a 3B4B     		ldr	r3, .L44+72
 1760 041c 1A68     		ldr	r2, [r3]
 1761 041e 464B     		ldr	r3, .L44+120
 1762 0420 1B68     		ldr	r3, [r3]
 1763 0422 101C     		add	r0, r2, #0
 1764 0424 191C     		add	r1, r3, #0
 1765 0426 FFF7FEFF 		bl	__aeabi_fdiv
 1766 042a 031C     		add	r3, r0, #0
 1767 042c 1A1C     		add	r2, r3, #0
 1768 042e 434B     		ldr	r3, .L44+124
 1769 0430 1A60     		str	r2, [r3]
 310:.\main.c      **** 			K_1_Theta = P_10_Theta / S_Theta;
 1770              		.loc 5 310 0
 1771 0432 324B     		ldr	r3, .L44+60
 1772 0434 1A68     		ldr	r2, [r3]
 1773 0436 404B     		ldr	r3, .L44+120
 1774 0438 1B68     		ldr	r3, [r3]
 1775 043a 101C     		add	r0, r2, #0
 1776 043c 191C     		add	r1, r3, #0
 1777 043e FFF7FEFF 		bl	__aeabi_fdiv
 1778 0442 031C     		add	r3, r0, #0
 1779 0444 1A1C     		add	r2, r3, #0
 1780 0446 3E4B     		ldr	r3, .L44+128
 1781 0448 1A60     		str	r2, [r3]
 312:.\main.c      **** 			Phi_temp = Phi_acc - Phi;
 1782              		.loc 5 312 0
 1783 044a 274B     		ldr	r3, .L44+40
 1784 044c 1B88     		ldrh	r3, [r3]
 1785 044e 1AB2     		sxth	r2, r3
 1786 0450 304B     		ldr	r3, .L44+84
 1787 0452 1B88     		ldrh	r3, [r3]
 1788 0454 1BB2     		sxth	r3, r3
 1789 0456 D31A     		sub	r3, r2, r3
 1790 0458 181C     		mov	r0, r3
 1791 045a FFF7FEFF 		bl	__aeabi_i2f
 1792 045e 021C     		add	r2, r0, #0
 1793 0460 384B     		ldr	r3, .L44+132
 1794 0462 1A60     		str	r2, [r3]
 313:.\main.c      **** 			S_Phi = P_00_Phi + R_angle;
 1795              		.loc 5 313 0
ARM GAS  C:\Users\SNFU\AppData\Local\Temp\cc2qKFEC.s 			page 49


 1796 0464 304B     		ldr	r3, .L44+104
 1797 0466 1A68     		ldr	r2, [r3]
 1798 0468 324B     		ldr	r3, .L44+116
 1799 046a 1B68     		ldr	r3, [r3]
 1800 046c 101C     		add	r0, r2, #0
 1801 046e 191C     		add	r1, r3, #0
 1802 0470 FFF7FEFF 		bl	__aeabi_fadd
 1803 0474 031C     		add	r3, r0, #0
 1804 0476 1A1C     		add	r2, r3, #0
 1805 0478 334B     		ldr	r3, .L44+136
 1806 047a 1A60     		str	r2, [r3]
 314:.\main.c      **** 			K_0_Phi = P_00_Phi / S_Phi;
 1807              		.loc 5 314 0
 1808 047c 2A4B     		ldr	r3, .L44+104
 1809 047e 1A68     		ldr	r2, [r3]
 1810 0480 314B     		ldr	r3, .L44+136
 1811 0482 1B68     		ldr	r3, [r3]
 1812 0484 101C     		add	r0, r2, #0
 1813 0486 191C     		add	r1, r3, #0
 1814 0488 FFF7FEFF 		bl	__aeabi_fdiv
 1815 048c 031C     		add	r3, r0, #0
 1816 048e 1A1C     		add	r2, r3, #0
 1817 0490 2E4B     		ldr	r3, .L44+140
 1818 0492 1A60     		str	r2, [r3]
 315:.\main.c      **** 			K_1_Phi = P_10_Phi / S_Phi;
 1819              		.loc 5 315 0
 1820 0494 224B     		ldr	r3, .L44+96
 1821 0496 1A68     		ldr	r2, [r3]
 1822 0498 2B4B     		ldr	r3, .L44+136
 1823 049a 1B68     		ldr	r3, [r3]
 1824 049c 101C     		add	r0, r2, #0
 1825 049e 191C     		add	r1, r3, #0
 1826 04a0 FFF7FEFF 		bl	__aeabi_fdiv
 1827 04a4 031C     		add	r3, r0, #0
 1828 04a6 1A1C     		add	r2, r3, #0
 1829 04a8 294B     		ldr	r3, .L44+144
 1830 04aa 1A60     		str	r2, [r3]
 322:.\main.c      **** 			Theta +=  K_0_Theta * Theta_temp;
 1831              		.loc 5 322 0
 1832 04ac 0F4B     		ldr	r3, .L44+44
 1833 04ae 1B88     		ldrh	r3, [r3]
 1834 04b0 1BB2     		sxth	r3, r3
 1835 04b2 181C     		mov	r0, r3
 1836 04b4 FFF7FEFF 		bl	__aeabi_i2f
 1837 04b8 041C     		add	r4, r0, #0
 1838 04ba 204B     		ldr	r3, .L44+124
 1839 04bc 1A68     		ldr	r2, [r3]
 1840 04be 49E0     		b	.L45
 1841              	.L46:
 1842              		.align	3
 1843              	.L44:
 1844 04c0 00000000 		.word	0
 1845 04c4 00806640 		.word	1080459264
 1846 04c8 182D4454 		.word	1413754136
 1847 04cc FB210940 		.word	1074340347
 1848 04d0 00000000 		.word	NavLightCompare
 1849 04d4 00000000 		.word	NavLightStep
ARM GAS  C:\Users\SNFU\AppData\Local\Temp\cc2qKFEC.s 			page 50


 1850 04d8 00000000 		.word	acc_x_g
 1851 04dc 00000000 		.word	acc_z_g
 1852 04e0 00000000 		.word	Theta_acc
 1853 04e4 00000000 		.word	acc_y_g
 1854 04e8 00000000 		.word	Phi_acc
 1855 04ec 00000000 		.word	Theta
 1856 04f0 00000000 		.word	turn_rate_q
 1857 04f4 00000000 		.word	q_bias
 1858 04f8 00000000 		.word	sample_time
 1859 04fc 00000000 		.word	P_10_Theta
 1860 0500 00000000 		.word	P_01_Theta
 1861 0504 00000000 		.word	Q_angle
 1862 0508 00000000 		.word	P_00_Theta
 1863 050c 00000000 		.word	P_11_Theta
 1864 0510 00000000 		.word	Q_gyro
 1865 0514 00000000 		.word	Phi
 1866 0518 00000000 		.word	turn_rate_p
 1867 051c 00000000 		.word	p_bias
 1868 0520 00000000 		.word	P_10_Phi
 1869 0524 00000000 		.word	P_01_Phi
 1870 0528 00000000 		.word	P_00_Phi
 1871 052c 00000000 		.word	P_11_Phi
 1872 0530 00000000 		.word	Theta_temp
 1873 0534 00000000 		.word	R_angle
 1874 0538 00000000 		.word	S_Theta
 1875 053c 00000000 		.word	K_0_Theta
 1876 0540 00000000 		.word	K_1_Theta
 1877 0544 00000000 		.word	Phi_temp
 1878 0548 00000000 		.word	S_Phi
 1879 054c 00000000 		.word	K_0_Phi
 1880 0550 00000000 		.word	K_1_Phi
 1881              	.L45:
 1882 0554 964B     		ldr	r3, .L47
 1883 0556 1B68     		ldr	r3, [r3]
 1884 0558 101C     		add	r0, r2, #0
 1885 055a 191C     		add	r1, r3, #0
 1886 055c FFF7FEFF 		bl	__aeabi_fmul
 1887 0560 031C     		add	r3, r0, #0
 1888 0562 201C     		add	r0, r4, #0
 1889 0564 191C     		add	r1, r3, #0
 1890 0566 FFF7FEFF 		bl	__aeabi_fadd
 1891 056a 031C     		add	r3, r0, #0
 1892 056c 181C     		add	r0, r3, #0
 1893 056e FFF7FEFF 		bl	__aeabi_f2iz
 1894 0572 031C     		mov	r3, r0
 1895 0574 9AB2     		uxth	r2, r3
 1896 0576 8F4B     		ldr	r3, .L47+4
 1897 0578 1A80     		strh	r2, [r3]
 323:.\main.c      **** 			q_bias  +=  K_1_Theta * Theta_temp;
 1898              		.loc 5 323 0
 1899 057a 8F4B     		ldr	r3, .L47+8
 1900 057c 1A68     		ldr	r2, [r3]
 1901 057e 8C4B     		ldr	r3, .L47
 1902 0580 1B68     		ldr	r3, [r3]
 1903 0582 101C     		add	r0, r2, #0
 1904 0584 191C     		add	r1, r3, #0
 1905 0586 FFF7FEFF 		bl	__aeabi_fmul
ARM GAS  C:\Users\SNFU\AppData\Local\Temp\cc2qKFEC.s 			page 51


 1906 058a 031C     		add	r3, r0, #0
 1907 058c 1A1C     		add	r2, r3, #0
 1908 058e 8B4B     		ldr	r3, .L47+12
 1909 0590 1B68     		ldr	r3, [r3]
 1910 0592 101C     		add	r0, r2, #0
 1911 0594 191C     		add	r1, r3, #0
 1912 0596 FFF7FEFF 		bl	__aeabi_fadd
 1913 059a 031C     		add	r3, r0, #0
 1914 059c 1A1C     		add	r2, r3, #0
 1915 059e 874B     		ldr	r3, .L47+12
 1916 05a0 1A60     		str	r2, [r3]
 324:.\main.c      **** 			P_00_Theta -= K_0_Theta * P_00_Theta;
 1917              		.loc 5 324 0
 1918 05a2 874B     		ldr	r3, .L47+16
 1919 05a4 1C68     		ldr	r4, [r3]
 1920 05a6 874B     		ldr	r3, .L47+20
 1921 05a8 1A68     		ldr	r2, [r3]
 1922 05aa 854B     		ldr	r3, .L47+16
 1923 05ac 1B68     		ldr	r3, [r3]
 1924 05ae 101C     		add	r0, r2, #0
 1925 05b0 191C     		add	r1, r3, #0
 1926 05b2 FFF7FEFF 		bl	__aeabi_fmul
 1927 05b6 031C     		add	r3, r0, #0
 1928 05b8 201C     		add	r0, r4, #0
 1929 05ba 191C     		add	r1, r3, #0
 1930 05bc FFF7FEFF 		bl	__aeabi_fsub
 1931 05c0 031C     		add	r3, r0, #0
 1932 05c2 1A1C     		add	r2, r3, #0
 1933 05c4 7E4B     		ldr	r3, .L47+16
 1934 05c6 1A60     		str	r2, [r3]
 325:.\main.c      **** 			P_01_Theta -= K_0_Theta * P_01_Theta;
 1935              		.loc 5 325 0
 1936 05c8 7F4B     		ldr	r3, .L47+24
 1937 05ca 1C68     		ldr	r4, [r3]
 1938 05cc 7D4B     		ldr	r3, .L47+20
 1939 05ce 1A68     		ldr	r2, [r3]
 1940 05d0 7D4B     		ldr	r3, .L47+24
 1941 05d2 1B68     		ldr	r3, [r3]
 1942 05d4 101C     		add	r0, r2, #0
 1943 05d6 191C     		add	r1, r3, #0
 1944 05d8 FFF7FEFF 		bl	__aeabi_fmul
 1945 05dc 031C     		add	r3, r0, #0
 1946 05de 201C     		add	r0, r4, #0
 1947 05e0 191C     		add	r1, r3, #0
 1948 05e2 FFF7FEFF 		bl	__aeabi_fsub
 1949 05e6 031C     		add	r3, r0, #0
 1950 05e8 1A1C     		add	r2, r3, #0
 1951 05ea 774B     		ldr	r3, .L47+24
 1952 05ec 1A60     		str	r2, [r3]
 326:.\main.c      **** 			P_10_Theta -= K_1_Theta * P_00_Theta;
 1953              		.loc 5 326 0
 1954 05ee 774B     		ldr	r3, .L47+28
 1955 05f0 1C68     		ldr	r4, [r3]
 1956 05f2 714B     		ldr	r3, .L47+8
 1957 05f4 1A68     		ldr	r2, [r3]
 1958 05f6 724B     		ldr	r3, .L47+16
 1959 05f8 1B68     		ldr	r3, [r3]
ARM GAS  C:\Users\SNFU\AppData\Local\Temp\cc2qKFEC.s 			page 52


 1960 05fa 101C     		add	r0, r2, #0
 1961 05fc 191C     		add	r1, r3, #0
 1962 05fe FFF7FEFF 		bl	__aeabi_fmul
 1963 0602 031C     		add	r3, r0, #0
 1964 0604 201C     		add	r0, r4, #0
 1965 0606 191C     		add	r1, r3, #0
 1966 0608 FFF7FEFF 		bl	__aeabi_fsub
 1967 060c 031C     		add	r3, r0, #0
 1968 060e 1A1C     		add	r2, r3, #0
 1969 0610 6E4B     		ldr	r3, .L47+28
 1970 0612 1A60     		str	r2, [r3]
 327:.\main.c      **** 			P_11_Theta -= K_1_Theta * P_01_Theta;
 1971              		.loc 5 327 0
 1972 0614 6E4B     		ldr	r3, .L47+32
 1973 0616 1C68     		ldr	r4, [r3]
 1974 0618 674B     		ldr	r3, .L47+8
 1975 061a 1A68     		ldr	r2, [r3]
 1976 061c 6A4B     		ldr	r3, .L47+24
 1977 061e 1B68     		ldr	r3, [r3]
 1978 0620 101C     		add	r0, r2, #0
 1979 0622 191C     		add	r1, r3, #0
 1980 0624 FFF7FEFF 		bl	__aeabi_fmul
 1981 0628 031C     		add	r3, r0, #0
 1982 062a 201C     		add	r0, r4, #0
 1983 062c 191C     		add	r1, r3, #0
 1984 062e FFF7FEFF 		bl	__aeabi_fsub
 1985 0632 031C     		add	r3, r0, #0
 1986 0634 1A1C     		add	r2, r3, #0
 1987 0636 664B     		ldr	r3, .L47+32
 1988 0638 1A60     		str	r2, [r3]
 329:.\main.c      **** 			Phi +=  K_0_Phi * Phi_temp;
 1989              		.loc 5 329 0
 1990 063a 664B     		ldr	r3, .L47+36
 1991 063c 1B88     		ldrh	r3, [r3]
 1992 063e 1BB2     		sxth	r3, r3
 1993 0640 181C     		mov	r0, r3
 1994 0642 FFF7FEFF 		bl	__aeabi_i2f
 1995 0646 041C     		add	r4, r0, #0
 1996 0648 634B     		ldr	r3, .L47+40
 1997 064a 1A68     		ldr	r2, [r3]
 1998 064c 634B     		ldr	r3, .L47+44
 1999 064e 1B68     		ldr	r3, [r3]
 2000 0650 101C     		add	r0, r2, #0
 2001 0652 191C     		add	r1, r3, #0
 2002 0654 FFF7FEFF 		bl	__aeabi_fmul
 2003 0658 031C     		add	r3, r0, #0
 2004 065a 201C     		add	r0, r4, #0
 2005 065c 191C     		add	r1, r3, #0
 2006 065e FFF7FEFF 		bl	__aeabi_fadd
 2007 0662 031C     		add	r3, r0, #0
 2008 0664 181C     		add	r0, r3, #0
 2009 0666 FFF7FEFF 		bl	__aeabi_f2iz
 2010 066a 031C     		mov	r3, r0
 2011 066c 9AB2     		uxth	r2, r3
 2012 066e 594B     		ldr	r3, .L47+36
 2013 0670 1A80     		strh	r2, [r3]
 330:.\main.c      **** 			p_bias  +=  K_1_Phi * Phi_temp;
ARM GAS  C:\Users\SNFU\AppData\Local\Temp\cc2qKFEC.s 			page 53


 2014              		.loc 5 330 0
 2015 0672 5B4B     		ldr	r3, .L47+48
 2016 0674 1A68     		ldr	r2, [r3]
 2017 0676 594B     		ldr	r3, .L47+44
 2018 0678 1B68     		ldr	r3, [r3]
 2019 067a 101C     		add	r0, r2, #0
 2020 067c 191C     		add	r1, r3, #0
 2021 067e FFF7FEFF 		bl	__aeabi_fmul
 2022 0682 031C     		add	r3, r0, #0
 2023 0684 1A1C     		add	r2, r3, #0
 2024 0686 574B     		ldr	r3, .L47+52
 2025 0688 1B68     		ldr	r3, [r3]
 2026 068a 101C     		add	r0, r2, #0
 2027 068c 191C     		add	r1, r3, #0
 2028 068e FFF7FEFF 		bl	__aeabi_fadd
 2029 0692 031C     		add	r3, r0, #0
 2030 0694 1A1C     		add	r2, r3, #0
 2031 0696 534B     		ldr	r3, .L47+52
 2032 0698 1A60     		str	r2, [r3]
 331:.\main.c      **** 			P_00_Phi -= K_0_Phi * P_00_Phi;
 2033              		.loc 5 331 0
 2034 069a 534B     		ldr	r3, .L47+56
 2035 069c 1C68     		ldr	r4, [r3]
 2036 069e 4E4B     		ldr	r3, .L47+40
 2037 06a0 1A68     		ldr	r2, [r3]
 2038 06a2 514B     		ldr	r3, .L47+56
 2039 06a4 1B68     		ldr	r3, [r3]
 2040 06a6 101C     		add	r0, r2, #0
 2041 06a8 191C     		add	r1, r3, #0
 2042 06aa FFF7FEFF 		bl	__aeabi_fmul
 2043 06ae 031C     		add	r3, r0, #0
 2044 06b0 201C     		add	r0, r4, #0
 2045 06b2 191C     		add	r1, r3, #0
 2046 06b4 FFF7FEFF 		bl	__aeabi_fsub
 2047 06b8 031C     		add	r3, r0, #0
 2048 06ba 1A1C     		add	r2, r3, #0
 2049 06bc 4A4B     		ldr	r3, .L47+56
 2050 06be 1A60     		str	r2, [r3]
 332:.\main.c      **** 			P_01_Phi -= K_0_Phi * P_01_Phi;
 2051              		.loc 5 332 0
 2052 06c0 4A4B     		ldr	r3, .L47+60
 2053 06c2 1C68     		ldr	r4, [r3]
 2054 06c4 444B     		ldr	r3, .L47+40
 2055 06c6 1A68     		ldr	r2, [r3]
 2056 06c8 484B     		ldr	r3, .L47+60
 2057 06ca 1B68     		ldr	r3, [r3]
 2058 06cc 101C     		add	r0, r2, #0
 2059 06ce 191C     		add	r1, r3, #0
 2060 06d0 FFF7FEFF 		bl	__aeabi_fmul
 2061 06d4 031C     		add	r3, r0, #0
 2062 06d6 201C     		add	r0, r4, #0
 2063 06d8 191C     		add	r1, r3, #0
 2064 06da FFF7FEFF 		bl	__aeabi_fsub
 2065 06de 031C     		add	r3, r0, #0
 2066 06e0 1A1C     		add	r2, r3, #0
 2067 06e2 424B     		ldr	r3, .L47+60
 2068 06e4 1A60     		str	r2, [r3]
ARM GAS  C:\Users\SNFU\AppData\Local\Temp\cc2qKFEC.s 			page 54


 333:.\main.c      **** 			P_10_Phi -= K_1_Phi * P_00_Phi;
 2069              		.loc 5 333 0
 2070 06e6 424B     		ldr	r3, .L47+64
 2071 06e8 1C68     		ldr	r4, [r3]
 2072 06ea 3D4B     		ldr	r3, .L47+48
 2073 06ec 1A68     		ldr	r2, [r3]
 2074 06ee 3E4B     		ldr	r3, .L47+56
 2075 06f0 1B68     		ldr	r3, [r3]
 2076 06f2 101C     		add	r0, r2, #0
 2077 06f4 191C     		add	r1, r3, #0
 2078 06f6 FFF7FEFF 		bl	__aeabi_fmul
 2079 06fa 031C     		add	r3, r0, #0
 2080 06fc 201C     		add	r0, r4, #0
 2081 06fe 191C     		add	r1, r3, #0
 2082 0700 FFF7FEFF 		bl	__aeabi_fsub
 2083 0704 031C     		add	r3, r0, #0
 2084 0706 1A1C     		add	r2, r3, #0
 2085 0708 394B     		ldr	r3, .L47+64
 2086 070a 1A60     		str	r2, [r3]
 334:.\main.c      **** 			P_11_Phi -= K_1_Phi * P_01_Phi;
 2087              		.loc 5 334 0
 2088 070c 394B     		ldr	r3, .L47+68
 2089 070e 1C68     		ldr	r4, [r3]
 2090 0710 334B     		ldr	r3, .L47+48
 2091 0712 1A68     		ldr	r2, [r3]
 2092 0714 354B     		ldr	r3, .L47+60
 2093 0716 1B68     		ldr	r3, [r3]
 2094 0718 101C     		add	r0, r2, #0
 2095 071a 191C     		add	r1, r3, #0
 2096 071c FFF7FEFF 		bl	__aeabi_fmul
 2097 0720 031C     		add	r3, r0, #0
 2098 0722 201C     		add	r0, r4, #0
 2099 0724 191C     		add	r1, r3, #0
 2100 0726 FFF7FEFF 		bl	__aeabi_fsub
 2101 072a 031C     		add	r3, r0, #0
 2102 072c 1A1C     		add	r2, r3, #0
 2103 072e 314B     		ldr	r3, .L47+68
 2104 0730 1A60     		str	r2, [r3]
 349:.\main.c      ****         uint8_t debug = 1;
 2105              		.loc 5 349 0
 2106 0732 3B1C     		mov	r3, r7
 2107 0734 0E33     		add	r3, r3, #14
 2108 0736 0122     		mov	r2, #1
 2109 0738 1A70     		strb	r2, [r3]
 350:.\main.c      ****             if(debug == 0)
 2110              		.loc 5 350 0
 2111 073a 3B1C     		mov	r3, r7
 2112 073c 0E33     		add	r3, r3, #14
 2113 073e 1B78     		ldrb	r3, [r3]
 2114 0740 002B     		cmp	r3, #0
 2115 0742 5DD1     		bne	.L36
 352:.\main.c      ****                 ctrl_out[out_mot] = ctrl_in[in_mot];    
 2116              		.loc 5 352 0
 2117 0744 2C4B     		ldr	r3, .L47+72
 2118 0746 1A88     		ldrh	r2, [r3]
 2119 0748 2C4B     		ldr	r3, .L47+76
 2120 074a 1A80     		strh	r2, [r3]
ARM GAS  C:\Users\SNFU\AppData\Local\Temp\cc2qKFEC.s 			page 55


 353:.\main.c      ****                 ctrl_out[out_ail1] = ctrl_in[in_ail];    
 2121              		.loc 5 353 0
 2122 074c 2A4B     		ldr	r3, .L47+72
 2123 074e 5A88     		ldrh	r2, [r3, #2]
 2124 0750 2A4B     		ldr	r3, .L47+76
 2125 0752 5A80     		strh	r2, [r3, #2]
 354:.\main.c      ****                 ctrl_out[out_ail2] = ctrl_in[in_ail];
 2126              		.loc 5 354 0
 2127 0754 284B     		ldr	r3, .L47+72
 2128 0756 5A88     		ldrh	r2, [r3, #2]
 2129 0758 284B     		ldr	r3, .L47+76
 2130 075a 9A80     		strh	r2, [r3, #4]
 355:.\main.c      ****                 ctrl_out[out_ele1] = ctrl_in[in_ele];
 2131              		.loc 5 355 0
 2132 075c 264B     		ldr	r3, .L47+72
 2133 075e 9A88     		ldrh	r2, [r3, #4]
 2134 0760 264B     		ldr	r3, .L47+76
 2135 0762 DA80     		strh	r2, [r3, #6]
 356:.\main.c      ****                 ctrl_out[out_ele2] = ctrl_in[in_ele];
 2136              		.loc 5 356 0
 2137 0764 244B     		ldr	r3, .L47+72
 2138 0766 9A88     		ldrh	r2, [r3, #4]
 2139 0768 244B     		ldr	r3, .L47+76
 2140 076a 1A81     		strh	r2, [r3, #8]
 357:.\main.c      ****                 ctrl_out[out_rud] = ctrl_in[in_rud];
 2141              		.loc 5 357 0
 2142 076c 224B     		ldr	r3, .L47+72
 2143 076e DA88     		ldrh	r2, [r3, #6]
 2144 0770 224B     		ldr	r3, .L47+76
 2145 0772 5A81     		strh	r2, [r3, #10]
 358:.\main.c      ****                 ctrl_out[out_fl1] = ctrl_in[in_fl];
 2146              		.loc 5 358 0
 2147 0774 204B     		ldr	r3, .L47+72
 2148 0776 1A89     		ldrh	r2, [r3, #8]
 2149 0778 204B     		ldr	r3, .L47+76
 2150 077a 9A81     		strh	r2, [r3, #12]
 359:.\main.c      ****                 ctrl_out[out_fl2] = ctrl_in[in_fl];
 2151              		.loc 5 359 0
 2152 077c 1E4B     		ldr	r3, .L47+72
 2153 077e 1A89     		ldrh	r2, [r3, #8]
 2154 0780 1E4B     		ldr	r3, .L47+76
 2155 0782 DA81     		strh	r2, [r3, #14]
 360:.\main.c      ****                 ctrl_out[out_ge1] = ctrl_in[in_ge];
 2156              		.loc 5 360 0
 2157 0784 1C4B     		ldr	r3, .L47+72
 2158 0786 5A89     		ldrh	r2, [r3, #10]
 2159 0788 1C4B     		ldr	r3, .L47+76
 2160 078a 1A82     		strh	r2, [r3, #16]
 361:.\main.c      ****                 ctrl_out[out_ge2] = ctrl_in[in_ge];
 2161              		.loc 5 361 0
 2162 078c 1A4B     		ldr	r3, .L47+72
 2163 078e 5A89     		ldrh	r2, [r3, #10]
 2164 0790 1A4B     		ldr	r3, .L47+76
 2165 0792 5A82     		strh	r2, [r3, #18]
 362:.\main.c      ****                 ctrl_out[out_ge3] = ctrl_in[in_ge];
 2166              		.loc 5 362 0
 2167 0794 184B     		ldr	r3, .L47+72
ARM GAS  C:\Users\SNFU\AppData\Local\Temp\cc2qKFEC.s 			page 56


 2168 0796 5A89     		ldrh	r2, [r3, #10]
 2169 0798 184B     		ldr	r3, .L47+76
 2170 079a 9A82     		strh	r2, [r3, #20]
 363:.\main.c      ****                 ctrl_out[out_sp1] = ctrl_in[in_sp1];
 2171              		.loc 5 363 0
 2172 079c 164B     		ldr	r3, .L47+72
 2173 079e 9A89     		ldrh	r2, [r3, #12]
 2174 07a0 164B     		ldr	r3, .L47+76
 2175 07a2 DA82     		strh	r2, [r3, #22]
 364:.\main.c      ****                 ctrl_out[out_sp2] = ctrl_in[in_sp2];
 2176              		.loc 5 364 0
 2177 07a4 144B     		ldr	r3, .L47+72
 2178 07a6 DA89     		ldrh	r2, [r3, #14]
 2179 07a8 144B     		ldr	r3, .L47+76
 2180 07aa 1A83     		strh	r2, [r3, #24]
 2181 07ac 60E0     		b	.L37
 2182              	.L48:
 2183 07ae C046     		.align	2
 2184              	.L47:
 2185 07b0 00000000 		.word	Theta_temp
 2186 07b4 00000000 		.word	Theta
 2187 07b8 00000000 		.word	K_1_Theta
 2188 07bc 00000000 		.word	q_bias
 2189 07c0 00000000 		.word	P_00_Theta
 2190 07c4 00000000 		.word	K_0_Theta
 2191 07c8 00000000 		.word	P_01_Theta
 2192 07cc 00000000 		.word	P_10_Theta
 2193 07d0 00000000 		.word	P_11_Theta
 2194 07d4 00000000 		.word	Phi
 2195 07d8 00000000 		.word	K_0_Phi
 2196 07dc 00000000 		.word	Phi_temp
 2197 07e0 00000000 		.word	K_1_Phi
 2198 07e4 00000000 		.word	p_bias
 2199 07e8 00000000 		.word	P_00_Phi
 2200 07ec 00000000 		.word	P_01_Phi
 2201 07f0 00000000 		.word	P_10_Phi
 2202 07f4 00000000 		.word	P_11_Phi
 2203 07f8 00000000 		.word	ctrl_in
 2204 07fc 00000000 		.word	ctrl_out
 2205              	.L36:
 368:.\main.c      ****                 ctrl_in[in_mot] = 1000;
 2206              		.loc 5 368 0
 2207 0800 5C4B     		ldr	r3, .L49
 2208 0802 FA22     		mov	r2, #250
 2209 0804 9200     		lsl	r2, r2, #2
 2210 0806 1A80     		strh	r2, [r3]
 369:.\main.c      ****                 ctrl_out[out_mot] = ctrl_in[in_mot];    
 2211              		.loc 5 369 0
 2212 0808 5A4B     		ldr	r3, .L49
 2213 080a 1A88     		ldrh	r2, [r3]
 2214 080c 5A4B     		ldr	r3, .L49+4
 2215 080e 1A80     		strh	r2, [r3]
 370:.\main.c      ****                 ctrl_out[out_ail1] = ctrl_in[in_mot];    
 2216              		.loc 5 370 0
 2217 0810 584B     		ldr	r3, .L49
 2218 0812 1A88     		ldrh	r2, [r3]
 2219 0814 584B     		ldr	r3, .L49+4
ARM GAS  C:\Users\SNFU\AppData\Local\Temp\cc2qKFEC.s 			page 57


 2220 0816 5A80     		strh	r2, [r3, #2]
 371:.\main.c      ****                 ctrl_out[out_ail2] = ctrl_in[in_mot];
 2221              		.loc 5 371 0
 2222 0818 564B     		ldr	r3, .L49
 2223 081a 1A88     		ldrh	r2, [r3]
 2224 081c 564B     		ldr	r3, .L49+4
 2225 081e 9A80     		strh	r2, [r3, #4]
 372:.\main.c      ****                 ctrl_out[out_ele1] = ctrl_in[in_mot];
 2226              		.loc 5 372 0
 2227 0820 544B     		ldr	r3, .L49
 2228 0822 1A88     		ldrh	r2, [r3]
 2229 0824 544B     		ldr	r3, .L49+4
 2230 0826 DA80     		strh	r2, [r3, #6]
 373:.\main.c      ****                 ctrl_out[out_ele2] = ctrl_in[in_mot];
 2231              		.loc 5 373 0
 2232 0828 524B     		ldr	r3, .L49
 2233 082a 1A88     		ldrh	r2, [r3]
 2234 082c 524B     		ldr	r3, .L49+4
 2235 082e 1A81     		strh	r2, [r3, #8]
 374:.\main.c      ****                 ctrl_out[out_rud] = ctrl_in[in_mot];
 2236              		.loc 5 374 0
 2237 0830 504B     		ldr	r3, .L49
 2238 0832 1A88     		ldrh	r2, [r3]
 2239 0834 504B     		ldr	r3, .L49+4
 2240 0836 5A81     		strh	r2, [r3, #10]
 375:.\main.c      ****                 ctrl_out[out_fl1] = ctrl_in[in_mot];
 2241              		.loc 5 375 0
 2242 0838 4E4B     		ldr	r3, .L49
 2243 083a 1A88     		ldrh	r2, [r3]
 2244 083c 4E4B     		ldr	r3, .L49+4
 2245 083e 9A81     		strh	r2, [r3, #12]
 376:.\main.c      ****                 ctrl_out[out_fl2] = ctrl_in[in_mot];
 2246              		.loc 5 376 0
 2247 0840 4C4B     		ldr	r3, .L49
 2248 0842 1A88     		ldrh	r2, [r3]
 2249 0844 4C4B     		ldr	r3, .L49+4
 2250 0846 DA81     		strh	r2, [r3, #14]
 377:.\main.c      ****                 ctrl_out[out_ge1] = ctrl_in[in_mot];
 2251              		.loc 5 377 0
 2252 0848 4A4B     		ldr	r3, .L49
 2253 084a 1A88     		ldrh	r2, [r3]
 2254 084c 4A4B     		ldr	r3, .L49+4
 2255 084e 1A82     		strh	r2, [r3, #16]
 378:.\main.c      ****                 ctrl_out[out_ge2] = ctrl_in[in_mot];
 2256              		.loc 5 378 0
 2257 0850 484B     		ldr	r3, .L49
 2258 0852 1A88     		ldrh	r2, [r3]
 2259 0854 484B     		ldr	r3, .L49+4
 2260 0856 5A82     		strh	r2, [r3, #18]
 379:.\main.c      ****                 ctrl_out[out_ge3] = ctrl_in[in_mot];
 2261              		.loc 5 379 0
 2262 0858 464B     		ldr	r3, .L49
 2263 085a 1A88     		ldrh	r2, [r3]
 2264 085c 464B     		ldr	r3, .L49+4
 2265 085e 9A82     		strh	r2, [r3, #20]
 380:.\main.c      ****                 ctrl_out[out_sp1] = ctrl_in[in_mot];
 2266              		.loc 5 380 0
ARM GAS  C:\Users\SNFU\AppData\Local\Temp\cc2qKFEC.s 			page 58


 2267 0860 444B     		ldr	r3, .L49
 2268 0862 1A88     		ldrh	r2, [r3]
 2269 0864 444B     		ldr	r3, .L49+4
 2270 0866 DA82     		strh	r2, [r3, #22]
 381:.\main.c      ****                 ctrl_out[out_sp2] = ctrl_in[in_mot];
 2271              		.loc 5 381 0
 2272 0868 424B     		ldr	r3, .L49
 2273 086a 1A88     		ldrh	r2, [r3]
 2274 086c 424B     		ldr	r3, .L49+4
 2275 086e 1A83     		strh	r2, [r3, #24]
 2276              	.L37:
 388:.\main.c      ****             if((cnt_ML_HEARTBEAT_send % 20) == 0)  // 20*10ms = 200ms
 2277              		.loc 5 388 0
 2278 0870 424B     		ldr	r3, .L49+8
 2279 0872 1B78     		ldrb	r3, [r3]
 2280 0874 181C     		mov	r0, r3
 2281 0876 1421     		mov	r1, #20
 2282 0878 FFF7FEFF 		bl	__aeabi_uidivmod
 2283 087c 0B1C     		mov	r3, r1
 2284 087e DBB2     		uxtb	r3, r3
 2285 0880 002B     		cmp	r3, #0
 2286 0882 34D1     		bne	.L38
 2287              	.LBB3:
 390:.\main.c      ****                 mavlink_msg_attitude_pack(mavlink_system.sysid, mavlink_system.compid, &msg, 0, Phi
 2288              		.loc 5 390 0
 2289 0884 3E4B     		ldr	r3, .L49+12
 2290 0886 1D78     		ldrb	r5, [r3]
 2291 0888 3D4B     		ldr	r3, .L49+12
 2292 088a 5C78     		ldrb	r4, [r3, #1]
 2293 088c 3D4B     		ldr	r3, .L49+16
 2294 088e 1B88     		ldrh	r3, [r3]
 2295 0890 1BB2     		sxth	r3, r3
 2296 0892 181C     		mov	r0, r3
 2297 0894 FFF7FEFF 		bl	__aeabi_i2f
 2298 0898 061C     		add	r6, r0, #0
 2299 089a 3B4B     		ldr	r3, .L49+20
 2300 089c 1B88     		ldrh	r3, [r3]
 2301 089e 1BB2     		sxth	r3, r3
 2302 08a0 181C     		mov	r0, r3
 2303 08a2 FFF7FEFF 		bl	__aeabi_i2f
 2304 08a6 021C     		add	r2, r0, #0
 2305 08a8 384B     		ldr	r3, .L49+24
 2306 08aa 0096     		str	r6, [sp]
 2307 08ac 0192     		str	r2, [sp, #4]
 2308 08ae 0022     		mov	r2, #0
 2309 08b0 0292     		str	r2, [sp, #8]
 2310 08b2 0022     		mov	r2, #0
 2311 08b4 0392     		str	r2, [sp, #12]
 2312 08b6 0022     		mov	r2, #0
 2313 08b8 0492     		str	r2, [sp, #16]
 2314 08ba 0022     		mov	r2, #0
 2315 08bc 0592     		str	r2, [sp, #20]
 2316 08be 281C     		mov	r0, r5
 2317 08c0 211C     		mov	r1, r4
 2318 08c2 1A1C     		mov	r2, r3
 2319 08c4 0023     		mov	r3, #0
 2320 08c6 FFF7FEFF 		bl	mavlink_msg_attitude_pack
ARM GAS  C:\Users\SNFU\AppData\Local\Temp\cc2qKFEC.s 			page 59


 391:.\main.c      ****                 uint16_t len = mavlink_msg_to_send_buffer(buf, &msg);
 2321              		.loc 5 391 0
 2322 08ca 3C1C     		mov	r4, r7
 2323 08cc 0C34     		add	r4, r4, #12
 2324 08ce 304A     		ldr	r2, .L49+28
 2325 08d0 2E4B     		ldr	r3, .L49+24
 2326 08d2 101C     		mov	r0, r2
 2327 08d4 191C     		mov	r1, r3
 2328 08d6 FFF7FEFF 		bl	mavlink_msg_to_send_buffer
 2329 08da 031C     		mov	r3, r0
 2330 08dc 2380     		strh	r3, [r4]
 392:.\main.c      ****                 UART_1_UartSendMavlink(buf, len);
 2331              		.loc 5 392 0
 2332 08de 2C4A     		ldr	r2, .L49+28
 2333 08e0 3B1C     		mov	r3, r7
 2334 08e2 0C33     		add	r3, r3, #12
 2335 08e4 1B88     		ldrh	r3, [r3]
 2336 08e6 101C     		mov	r0, r2
 2337 08e8 191C     		mov	r1, r3
 2338 08ea FFF7FEFF 		bl	UART_1_UartSendMavlink
 2339              	.L38:
 2340              	.LBE3:
 395:.\main.c      ****             if((cnt_ML_HEARTBEAT_send % 100) == 0)  // 100*10ms = 1000ms
 2341              		.loc 5 395 0
 2342 08ee 234B     		ldr	r3, .L49+8
 2343 08f0 1B78     		ldrb	r3, [r3]
 2344 08f2 181C     		mov	r0, r3
 2345 08f4 6421     		mov	r1, #100
 2346 08f6 FFF7FEFF 		bl	__aeabi_uidivmod
 2347 08fa 0B1C     		mov	r3, r1
 2348 08fc DBB2     		uxtb	r3, r3
 2349 08fe 002B     		cmp	r3, #0
 2350 0900 30D1     		bne	.L39
 2351              	.LBB4:
 397:.\main.c      ****                   cnt_ML_HEARTBEAT_send = 0;
 2352              		.loc 5 397 0
 2353 0902 1E4B     		ldr	r3, .L49+8
 2354 0904 0022     		mov	r2, #0
 2355 0906 1A70     		strb	r2, [r3]
 399:.\main.c      ****                   mavlink_msg_heartbeat_pack(mavlink_system.sysid, mavlink_system.compid, &msg, sys
 2356              		.loc 5 399 0
 2357 0908 1D4B     		ldr	r3, .L49+12
 2358 090a 1978     		ldrb	r1, [r3]
 2359 090c 1C4B     		ldr	r3, .L49+12
 2360 090e 5A78     		ldrb	r2, [r3, #1]
 2361 0910 204B     		ldr	r3, .L49+32
 2362 0912 1C78     		ldrb	r4, [r3]
 2363 0914 204B     		ldr	r3, .L49+36
 2364 0916 1B78     		ldrb	r3, [r3]
 2365 0918 9C46     		mov	ip, r3
 2366 091a 204B     		ldr	r3, .L49+40
 2367 091c 1E78     		ldrb	r6, [r3]
 2368 091e 204B     		ldr	r3, .L49+44
 2369 0920 1D68     		ldr	r5, [r3]
 2370 0922 204B     		ldr	r3, .L49+48
 2371 0924 1878     		ldrb	r0, [r3]
 2372 0926 194B     		ldr	r3, .L49+24
ARM GAS  C:\Users\SNFU\AppData\Local\Temp\cc2qKFEC.s 			page 60


 2373 0928 7B60     		str	r3, [r7, #4]
 2374 092a 6346     		mov	r3, ip
 2375 092c 0093     		str	r3, [sp]
 2376 092e 0196     		str	r6, [sp, #4]
 2377 0930 0295     		str	r5, [sp, #8]
 2378 0932 0390     		str	r0, [sp, #12]
 2379 0934 081C     		mov	r0, r1
 2380 0936 111C     		mov	r1, r2
 2381 0938 7A68     		ldr	r2, [r7, #4]
 2382 093a 231C     		mov	r3, r4
 2383 093c FFF7FEFF 		bl	mavlink_msg_heartbeat_pack
 402:.\main.c      ****                   uint16_t len = mavlink_msg_to_send_buffer(buf, &msg);
 2384              		.loc 5 402 0
 2385 0940 3C1C     		mov	r4, r7
 2386 0942 0A34     		add	r4, r4, #10
 2387 0944 124A     		ldr	r2, .L49+28
 2388 0946 114B     		ldr	r3, .L49+24
 2389 0948 101C     		mov	r0, r2
 2390 094a 191C     		mov	r1, r3
 2391 094c FFF7FEFF 		bl	mavlink_msg_to_send_buffer
 2392 0950 031C     		mov	r3, r0
 2393 0952 2380     		strh	r3, [r4]
 404:.\main.c      ****                   UART_1_UartSendMavlink(buf, len);
 2394              		.loc 5 404 0
 2395 0954 0E4A     		ldr	r2, .L49+28
 2396 0956 3B1C     		mov	r3, r7
 2397 0958 0A33     		add	r3, r3, #10
 2398 095a 1B88     		ldrh	r3, [r3]
 2399 095c 101C     		mov	r0, r2
 2400 095e 191C     		mov	r1, r3
 2401 0960 FFF7FEFF 		bl	UART_1_UartSendMavlink
 2402              	.L39:
 2403              	.LBE4:
 425:.\main.c      ****             cnt_ML_HEARTBEAT_send++;
 2404              		.loc 5 425 0
 2405 0964 054B     		ldr	r3, .L49+8
 2406 0966 1B78     		ldrb	r3, [r3]
 2407 0968 0133     		add	r3, r3, #1
 2408 096a DAB2     		uxtb	r2, r3
 2409 096c 034B     		ldr	r3, .L49+8
 2410 096e 1A70     		strb	r2, [r3]
 2411              	.LBE2:
 2412              		.loc 5 446 0
 2413 0970 FFF782FB 		bl	.L41	@ far jump
 2414              	.L50:
 2415              		.align	2
 2416              	.L49:
 2417 0974 00000000 		.word	ctrl_in
 2418 0978 00000000 		.word	ctrl_out
 2419 097c 00000000 		.word	cnt_ML_HEARTBEAT_send
 2420 0980 00000000 		.word	mavlink_system
 2421 0984 00000000 		.word	Phi
 2422 0988 00000000 		.word	Theta
 2423 098c 00000000 		.word	msg
 2424 0990 00000000 		.word	buf
 2425 0994 00000000 		.word	system_type
 2426 0998 00000000 		.word	autopilot_type
ARM GAS  C:\Users\SNFU\AppData\Local\Temp\cc2qKFEC.s 			page 61


 2427 099c 00000000 		.word	system_mode
 2428 09a0 00000000 		.word	custom_mode
 2429 09a4 00000000 		.word	system_state
 2430              		.cfi_endproc
 2431              	.LFE1491:
 2432              		.size	main, .-main
 2433              		.bss
 2434 006e 0000     		.align	2
 2435              	m_mavlink_status.7719:
 2436 0070 00000000 		.space	48
 2436      00000000 
 2436      00000000 
 2436      00000000 
 2436      00000000 
 2437              		.text
 2438              	.Letext0:
 2439              		.file 6 "c:\\program files\\cypress\\psoc creator\\3.0\\psoc creator\\import\\gnu_cs\\arm\\4.7.3\\
 2440              		.file 7 "./Generated_Source/PSoC4/cytypes.h"
 2441              		.file 8 "./common/../mavlink_types.h"
 2442              		.file 9 "./common/common.h"
 2443              		.section	.debug_info,"",%progbits
 2444              	.Ldebug_info0:
 2445 0000 2F0F0000 		.4byte	0xf2f
 2446 0004 0200     		.2byte	0x2
 2447 0006 00000000 		.4byte	.Ldebug_abbrev0
 2448 000a 04       		.byte	0x4
 2449 000b 01       		.uleb128 0x1
 2450 000c 93030000 		.4byte	.LASF247
 2451 0010 01       		.byte	0x1
 2452 0011 610E0000 		.4byte	.LASF248
 2453 0015 A8040000 		.4byte	.LASF249
 2454 0019 00000000 		.4byte	.Ldebug_ranges0+0
 2455 001d 00000000 		.4byte	0
 2456 0021 00000000 		.4byte	0
 2457 0025 00000000 		.4byte	.Ldebug_line0
 2458 0029 02       		.uleb128 0x2
 2459 002a 01       		.byte	0x1
 2460 002b 06       		.byte	0x6
 2461 002c 1C030000 		.4byte	.LASF0
 2462 0030 03       		.uleb128 0x3
 2463 0031 32030000 		.4byte	.LASF2
 2464 0035 06       		.byte	0x6
 2465 0036 2A       		.byte	0x2a
 2466 0037 3B000000 		.4byte	0x3b
 2467 003b 02       		.uleb128 0x2
 2468 003c 01       		.byte	0x1
 2469 003d 08       		.byte	0x8
 2470 003e 85030000 		.4byte	.LASF1
 2471 0042 03       		.uleb128 0x3
 2472 0043 A90C0000 		.4byte	.LASF3
 2473 0047 06       		.byte	0x6
 2474 0048 35       		.byte	0x35
 2475 0049 4D000000 		.4byte	0x4d
 2476 004d 02       		.uleb128 0x2
 2477 004e 02       		.byte	0x2
 2478 004f 05       		.byte	0x5
 2479 0050 330C0000 		.4byte	.LASF4
ARM GAS  C:\Users\SNFU\AppData\Local\Temp\cc2qKFEC.s 			page 62


 2480 0054 03       		.uleb128 0x3
 2481 0055 3C0A0000 		.4byte	.LASF5
 2482 0059 06       		.byte	0x6
 2483 005a 36       		.byte	0x36
 2484 005b 5F000000 		.4byte	0x5f
 2485 005f 02       		.uleb128 0x2
 2486 0060 02       		.byte	0x2
 2487 0061 07       		.byte	0x7
 2488 0062 770E0000 		.4byte	.LASF6
 2489 0066 03       		.uleb128 0x3
 2490 0067 53000000 		.4byte	.LASF7
 2491 006b 06       		.byte	0x6
 2492 006c 4F       		.byte	0x4f
 2493 006d 71000000 		.4byte	0x71
 2494 0071 02       		.uleb128 0x2
 2495 0072 04       		.byte	0x4
 2496 0073 05       		.byte	0x5
 2497 0074 2C020000 		.4byte	.LASF8
 2498 0078 03       		.uleb128 0x3
 2499 0079 E30D0000 		.4byte	.LASF9
 2500 007d 06       		.byte	0x6
 2501 007e 50       		.byte	0x50
 2502 007f 83000000 		.4byte	0x83
 2503 0083 02       		.uleb128 0x2
 2504 0084 04       		.byte	0x4
 2505 0085 07       		.byte	0x7
 2506 0086 C1050000 		.4byte	.LASF10
 2507 008a 02       		.uleb128 0x2
 2508 008b 08       		.byte	0x8
 2509 008c 05       		.byte	0x5
 2510 008d 1A070000 		.4byte	.LASF11
 2511 0091 03       		.uleb128 0x3
 2512 0092 530C0000 		.4byte	.LASF12
 2513 0096 06       		.byte	0x6
 2514 0097 78       		.byte	0x78
 2515 0098 9C000000 		.4byte	0x9c
 2516 009c 02       		.uleb128 0x2
 2517 009d 08       		.byte	0x8
 2518 009e 07       		.byte	0x7
 2519 009f 1E0A0000 		.4byte	.LASF13
 2520 00a3 04       		.uleb128 0x4
 2521 00a4 04       		.byte	0x4
 2522 00a5 05       		.byte	0x5
 2523 00a6 696E7400 		.ascii	"int\000"
 2524 00aa 02       		.uleb128 0x2
 2525 00ab 04       		.byte	0x4
 2526 00ac 07       		.byte	0x7
 2527 00ad 60080000 		.4byte	.LASF14
 2528 00b1 03       		.uleb128 0x3
 2529 00b2 87000000 		.4byte	.LASF15
 2530 00b6 07       		.byte	0x7
 2531 00b7 5D       		.byte	0x5d
 2532 00b8 83000000 		.4byte	0x83
 2533 00bc 02       		.uleb128 0x2
 2534 00bd 04       		.byte	0x4
 2535 00be 04       		.byte	0x4
 2536 00bf 40080000 		.4byte	.LASF16
ARM GAS  C:\Users\SNFU\AppData\Local\Temp\cc2qKFEC.s 			page 63


 2537 00c3 02       		.uleb128 0x2
 2538 00c4 08       		.byte	0x8
 2539 00c5 04       		.byte	0x4
 2540 00c6 68070000 		.4byte	.LASF17
 2541 00ca 02       		.uleb128 0x2
 2542 00cb 01       		.byte	0x1
 2543 00cc 08       		.byte	0x8
 2544 00cd E9030000 		.4byte	.LASF18
 2545 00d1 02       		.uleb128 0x2
 2546 00d2 04       		.byte	0x4
 2547 00d3 07       		.byte	0x7
 2548 00d4 00000000 		.4byte	.LASF19
 2549 00d8 05       		.uleb128 0x5
 2550 00d9 04       		.byte	0x4
 2551 00da DE000000 		.4byte	0xde
 2552 00de 06       		.uleb128 0x6
 2553 00df CA000000 		.4byte	0xca
 2554 00e3 02       		.uleb128 0x2
 2555 00e4 08       		.byte	0x8
 2556 00e5 04       		.byte	0x4
 2557 00e6 5E090000 		.4byte	.LASF20
 2558 00ea 07       		.uleb128 0x7
 2559 00eb 130F0000 		.4byte	.LASF24
 2560 00ef 02       		.byte	0x2
 2561 00f0 08       		.byte	0x8
 2562 00f1 6A       		.byte	0x6a
 2563 00f2 13010000 		.4byte	0x113
 2564 00f6 08       		.uleb128 0x8
 2565 00f7 170D0000 		.4byte	.LASF21
 2566 00fb 08       		.byte	0x8
 2567 00fc 6A       		.byte	0x6a
 2568 00fd 30000000 		.4byte	0x30
 2569 0101 02       		.byte	0x2
 2570 0102 23       		.byte	0x23
 2571 0103 00       		.uleb128 0
 2572 0104 08       		.uleb128 0x8
 2573 0105 8D080000 		.4byte	.LASF22
 2574 0109 08       		.byte	0x8
 2575 010a 6A       		.byte	0x6a
 2576 010b 30000000 		.4byte	0x30
 2577 010f 02       		.byte	0x2
 2578 0110 23       		.byte	0x23
 2579 0111 01       		.uleb128 0x1
 2580 0112 00       		.byte	0
 2581 0113 03       		.uleb128 0x3
 2582 0114 5C0C0000 		.4byte	.LASF23
 2583 0118 08       		.byte	0x8
 2584 0119 6E       		.byte	0x6e
 2585 011a EA000000 		.4byte	0xea
 2586 011e 09       		.uleb128 0x9
 2587 011f 83090000 		.4byte	.LASF25
 2588 0123 1001     		.2byte	0x110
 2589 0125 08       		.byte	0x8
 2590 0126 70       		.byte	0x70
 2591 0127 9C010000 		.4byte	0x19c
 2592 012b 08       		.uleb128 0x8
 2593 012c 95090000 		.4byte	.LASF26
ARM GAS  C:\Users\SNFU\AppData\Local\Temp\cc2qKFEC.s 			page 64


 2594 0130 08       		.byte	0x8
 2595 0131 70       		.byte	0x70
 2596 0132 54000000 		.4byte	0x54
 2597 0136 02       		.byte	0x2
 2598 0137 23       		.byte	0x23
 2599 0138 00       		.uleb128 0
 2600 0139 08       		.uleb128 0x8
 2601 013a 8A0E0000 		.4byte	.LASF27
 2602 013e 08       		.byte	0x8
 2603 013f 70       		.byte	0x70
 2604 0140 30000000 		.4byte	0x30
 2605 0144 02       		.byte	0x2
 2606 0145 23       		.byte	0x23
 2607 0146 02       		.uleb128 0x2
 2608 0147 0A       		.uleb128 0xa
 2609 0148 6C656E00 		.ascii	"len\000"
 2610 014c 08       		.byte	0x8
 2611 014d 70       		.byte	0x70
 2612 014e 30000000 		.4byte	0x30
 2613 0152 02       		.byte	0x2
 2614 0153 23       		.byte	0x23
 2615 0154 03       		.uleb128 0x3
 2616 0155 0A       		.uleb128 0xa
 2617 0156 73657100 		.ascii	"seq\000"
 2618 015a 08       		.byte	0x8
 2619 015b 70       		.byte	0x70
 2620 015c 30000000 		.4byte	0x30
 2621 0160 02       		.byte	0x2
 2622 0161 23       		.byte	0x23
 2623 0162 04       		.uleb128 0x4
 2624 0163 08       		.uleb128 0x8
 2625 0164 170D0000 		.4byte	.LASF21
 2626 0168 08       		.byte	0x8
 2627 0169 70       		.byte	0x70
 2628 016a 30000000 		.4byte	0x30
 2629 016e 02       		.byte	0x2
 2630 016f 23       		.byte	0x23
 2631 0170 05       		.uleb128 0x5
 2632 0171 08       		.uleb128 0x8
 2633 0172 8D080000 		.4byte	.LASF22
 2634 0176 08       		.byte	0x8
 2635 0177 70       		.byte	0x70
 2636 0178 30000000 		.4byte	0x30
 2637 017c 02       		.byte	0x2
 2638 017d 23       		.byte	0x23
 2639 017e 06       		.uleb128 0x6
 2640 017f 08       		.uleb128 0x8
 2641 0180 25000000 		.4byte	.LASF28
 2642 0184 08       		.byte	0x8
 2643 0185 70       		.byte	0x70
 2644 0186 30000000 		.4byte	0x30
 2645 018a 02       		.byte	0x2
 2646 018b 23       		.byte	0x23
 2647 018c 07       		.uleb128 0x7
 2648 018d 08       		.uleb128 0x8
 2649 018e 94080000 		.4byte	.LASF29
 2650 0192 08       		.byte	0x8
ARM GAS  C:\Users\SNFU\AppData\Local\Temp\cc2qKFEC.s 			page 65


 2651 0193 70       		.byte	0x70
 2652 0194 9C010000 		.4byte	0x19c
 2653 0198 02       		.byte	0x2
 2654 0199 23       		.byte	0x23
 2655 019a 08       		.uleb128 0x8
 2656 019b 00       		.byte	0
 2657 019c 0B       		.uleb128 0xb
 2658 019d 91000000 		.4byte	0x91
 2659 01a1 AC010000 		.4byte	0x1ac
 2660 01a5 0C       		.uleb128 0xc
 2661 01a6 D1000000 		.4byte	0xd1
 2662 01aa 20       		.byte	0x20
 2663 01ab 00       		.byte	0
 2664 01ac 03       		.uleb128 0x3
 2665 01ad D10D0000 		.4byte	.LASF30
 2666 01b1 08       		.byte	0x8
 2667 01b2 7A       		.byte	0x7a
 2668 01b3 1E010000 		.4byte	0x11e
 2669 01b7 0D       		.uleb128 0xd
 2670 01b8 01       		.byte	0x1
 2671 01b9 08       		.byte	0x8
 2672 01ba AB       		.byte	0xab
 2673 01bb D8010000 		.4byte	0x1d8
 2674 01bf 0E       		.uleb128 0xe
 2675 01c0 6D0C0000 		.4byte	.LASF31
 2676 01c4 00       		.sleb128 0
 2677 01c5 0E       		.uleb128 0xe
 2678 01c6 7C0C0000 		.4byte	.LASF32
 2679 01ca 01       		.sleb128 1
 2680 01cb 0E       		.uleb128 0xe
 2681 01cc 8B0C0000 		.4byte	.LASF33
 2682 01d0 02       		.sleb128 2
 2683 01d1 0E       		.uleb128 0xe
 2684 01d2 9A0C0000 		.4byte	.LASF34
 2685 01d6 03       		.sleb128 3
 2686 01d7 00       		.byte	0
 2687 01d8 0D       		.uleb128 0xd
 2688 01d9 01       		.byte	0x1
 2689 01da 08       		.byte	0x8
 2690 01db BF       		.byte	0xbf
 2691 01dc 1D020000 		.4byte	0x21d
 2692 01e0 0E       		.uleb128 0xe
 2693 01e1 B0010000 		.4byte	.LASF35
 2694 01e5 00       		.sleb128 0
 2695 01e6 0E       		.uleb128 0xe
 2696 01e7 DC0C0000 		.4byte	.LASF36
 2697 01eb 01       		.sleb128 1
 2698 01ec 0E       		.uleb128 0xe
 2699 01ed 09000000 		.4byte	.LASF37
 2700 01f1 02       		.sleb128 2
 2701 01f2 0E       		.uleb128 0xe
 2702 01f3 95070000 		.4byte	.LASF38
 2703 01f7 03       		.sleb128 3
 2704 01f8 0E       		.uleb128 0xe
 2705 01f9 3F090000 		.4byte	.LASF39
 2706 01fd 04       		.sleb128 4
 2707 01fe 0E       		.uleb128 0xe
ARM GAS  C:\Users\SNFU\AppData\Local\Temp\cc2qKFEC.s 			page 66


 2708 01ff F0090000 		.4byte	.LASF40
 2709 0203 05       		.sleb128 5
 2710 0204 0E       		.uleb128 0xe
 2711 0205 B1070000 		.4byte	.LASF41
 2712 0209 06       		.sleb128 6
 2713 020a 0E       		.uleb128 0xe
 2714 020b A7020000 		.4byte	.LASF42
 2715 020f 07       		.sleb128 7
 2716 0210 0E       		.uleb128 0xe
 2717 0211 670B0000 		.4byte	.LASF43
 2718 0215 08       		.sleb128 8
 2719 0216 0E       		.uleb128 0xe
 2720 0217 A10D0000 		.4byte	.LASF44
 2721 021b 09       		.sleb128 9
 2722 021c 00       		.byte	0
 2723 021d 03       		.uleb128 0x3
 2724 021e 080C0000 		.4byte	.LASF45
 2725 0222 08       		.byte	0x8
 2726 0223 CA       		.byte	0xca
 2727 0224 D8010000 		.4byte	0x1d8
 2728 0228 07       		.uleb128 0x7
 2729 0229 3A030000 		.4byte	.LASF46
 2730 022d 0C       		.byte	0xc
 2731 022e 08       		.byte	0x8
 2732 022f CC       		.byte	0xcc
 2733 0230 B3020000 		.4byte	0x2b3
 2734 0234 08       		.uleb128 0x8
 2735 0235 6A0E0000 		.4byte	.LASF47
 2736 0239 08       		.byte	0x8
 2737 023a CD       		.byte	0xcd
 2738 023b 30000000 		.4byte	0x30
 2739 023f 02       		.byte	0x2
 2740 0240 23       		.byte	0x23
 2741 0241 00       		.uleb128 0
 2742 0242 08       		.uleb128 0x8
 2743 0243 14020000 		.4byte	.LASF48
 2744 0247 08       		.byte	0x8
 2745 0248 CE       		.byte	0xce
 2746 0249 30000000 		.4byte	0x30
 2747 024d 02       		.byte	0x2
 2748 024e 23       		.byte	0x23
 2749 024f 01       		.uleb128 0x1
 2750 0250 08       		.uleb128 0x8
 2751 0251 2A040000 		.4byte	.LASF49
 2752 0255 08       		.byte	0x8
 2753 0256 CF       		.byte	0xcf
 2754 0257 30000000 		.4byte	0x30
 2755 025b 02       		.byte	0x2
 2756 025c 23       		.byte	0x23
 2757 025d 02       		.uleb128 0x2
 2758 025e 08       		.uleb128 0x8
 2759 025f D00C0000 		.4byte	.LASF50
 2760 0263 08       		.byte	0x8
 2761 0264 D0       		.byte	0xd0
 2762 0265 1D020000 		.4byte	0x21d
 2763 0269 02       		.byte	0x2
 2764 026a 23       		.byte	0x23
ARM GAS  C:\Users\SNFU\AppData\Local\Temp\cc2qKFEC.s 			page 67


 2765 026b 03       		.uleb128 0x3
 2766 026c 08       		.uleb128 0x8
 2767 026d 3F070000 		.4byte	.LASF51
 2768 0271 08       		.byte	0x8
 2769 0272 D1       		.byte	0xd1
 2770 0273 30000000 		.4byte	0x30
 2771 0277 02       		.byte	0x2
 2772 0278 23       		.byte	0x23
 2773 0279 04       		.uleb128 0x4
 2774 027a 08       		.uleb128 0x8
 2775 027b FB070000 		.4byte	.LASF52
 2776 027f 08       		.byte	0x8
 2777 0280 D2       		.byte	0xd2
 2778 0281 30000000 		.4byte	0x30
 2779 0285 02       		.byte	0x2
 2780 0286 23       		.byte	0x23
 2781 0287 05       		.uleb128 0x5
 2782 0288 08       		.uleb128 0x8
 2783 0289 E4000000 		.4byte	.LASF53
 2784 028d 08       		.byte	0x8
 2785 028e D3       		.byte	0xd3
 2786 028f 30000000 		.4byte	0x30
 2787 0293 02       		.byte	0x2
 2788 0294 23       		.byte	0x23
 2789 0295 06       		.uleb128 0x6
 2790 0296 08       		.uleb128 0x8
 2791 0297 6F000000 		.4byte	.LASF54
 2792 029b 08       		.byte	0x8
 2793 029c D4       		.byte	0xd4
 2794 029d 54000000 		.4byte	0x54
 2795 02a1 02       		.byte	0x2
 2796 02a2 23       		.byte	0x23
 2797 02a3 08       		.uleb128 0x8
 2798 02a4 08       		.uleb128 0x8
 2799 02a5 2B000000 		.4byte	.LASF55
 2800 02a9 08       		.byte	0x8
 2801 02aa D5       		.byte	0xd5
 2802 02ab 54000000 		.4byte	0x54
 2803 02af 02       		.byte	0x2
 2804 02b0 23       		.byte	0x23
 2805 02b1 0A       		.uleb128 0xa
 2806 02b2 00       		.byte	0
 2807 02b3 03       		.uleb128 0x3
 2808 02b4 BF0C0000 		.4byte	.LASF56
 2809 02b8 08       		.byte	0x8
 2810 02b9 D6       		.byte	0xd6
 2811 02ba 28020000 		.4byte	0x228
 2812 02be 0F       		.uleb128 0xf
 2813 02bf 24010000 		.4byte	.LASF76
 2814 02c3 01       		.byte	0x1
 2815 02c4 09       		.byte	0x9
 2816 02c5 28       		.byte	0x28
 2817 02c6 3D030000 		.4byte	0x33d
 2818 02ca 0E       		.uleb128 0xe
 2819 02cb B0090000 		.4byte	.LASF57
 2820 02cf 00       		.sleb128 0
 2821 02d0 0E       		.uleb128 0xe
ARM GAS  C:\Users\SNFU\AppData\Local\Temp\cc2qKFEC.s 			page 68


 2822 02d1 2F0E0000 		.4byte	.LASF58
 2823 02d5 01       		.sleb128 1
 2824 02d6 0E       		.uleb128 0xe
 2825 02d7 700A0000 		.4byte	.LASF59
 2826 02db 02       		.sleb128 2
 2827 02dc 0E       		.uleb128 0xe
 2828 02dd D0060000 		.4byte	.LASF60
 2829 02e1 03       		.sleb128 3
 2830 02e2 0E       		.uleb128 0xe
 2831 02e3 28080000 		.4byte	.LASF61
 2832 02e7 04       		.sleb128 4
 2833 02e8 0E       		.uleb128 0xe
 2834 02e9 53010000 		.4byte	.LASF62
 2835 02ed 05       		.sleb128 5
 2836 02ee 0E       		.uleb128 0xe
 2837 02ef 000B0000 		.4byte	.LASF63
 2838 02f3 06       		.sleb128 6
 2839 02f4 0E       		.uleb128 0xe
 2840 02f5 04060000 		.4byte	.LASF64
 2841 02f9 07       		.sleb128 7
 2842 02fa 0E       		.uleb128 0xe
 2843 02fb 3D0C0000 		.4byte	.LASF65
 2844 02ff 08       		.sleb128 8
 2845 0300 0E       		.uleb128 0xe
 2846 0301 450A0000 		.4byte	.LASF66
 2847 0305 09       		.sleb128 9
 2848 0306 0E       		.uleb128 0xe
 2849 0307 FA040000 		.4byte	.LASF67
 2850 030b 0A       		.sleb128 10
 2851 030c 0E       		.uleb128 0xe
 2852 030d 1D0D0000 		.4byte	.LASF68
 2853 0311 0B       		.sleb128 11
 2854 0312 0E       		.uleb128 0xe
 2855 0313 BA0E0000 		.4byte	.LASF69
 2856 0317 0C       		.sleb128 12
 2857 0318 0E       		.uleb128 0xe
 2858 0319 58030000 		.4byte	.LASF70
 2859 031d 0D       		.sleb128 13
 2860 031e 0E       		.uleb128 0xe
 2861 031f F4080000 		.4byte	.LASF71
 2862 0323 0E       		.sleb128 14
 2863 0324 0E       		.uleb128 0xe
 2864 0325 90020000 		.4byte	.LASF72
 2865 0329 0F       		.sleb128 15
 2866 032a 0E       		.uleb128 0xe
 2867 032b 22090000 		.4byte	.LASF73
 2868 032f 10       		.sleb128 16
 2869 0330 0E       		.uleb128 0xe
 2870 0331 93040000 		.4byte	.LASF74
 2871 0335 11       		.sleb128 17
 2872 0336 0E       		.uleb128 0xe
 2873 0337 15050000 		.4byte	.LASF75
 2874 033b 12       		.sleb128 18
 2875 033c 00       		.byte	0
 2876 033d 0F       		.uleb128 0xf
 2877 033e 1B010000 		.4byte	.LASF77
 2878 0342 01       		.byte	0x1
ARM GAS  C:\Users\SNFU\AppData\Local\Temp\cc2qKFEC.s 			page 69


 2879 0343 09       		.byte	0x9
 2880 0344 43       		.byte	0x43
 2881 0345 F2030000 		.4byte	0x3f2
 2882 0349 0E       		.uleb128 0xe
 2883 034a 570A0000 		.4byte	.LASF78
 2884 034e 00       		.sleb128 0
 2885 034f 0E       		.uleb128 0xe
 2886 0350 5B060000 		.4byte	.LASF79
 2887 0354 01       		.sleb128 1
 2888 0355 0E       		.uleb128 0xe
 2889 0356 72030000 		.4byte	.LASF80
 2890 035a 02       		.sleb128 2
 2891 035b 0E       		.uleb128 0xe
 2892 035c 0B030000 		.4byte	.LASF81
 2893 0360 03       		.sleb128 3
 2894 0361 0E       		.uleb128 0xe
 2895 0362 72050000 		.4byte	.LASF82
 2896 0366 04       		.sleb128 4
 2897 0367 0E       		.uleb128 0xe
 2898 0368 FE0C0000 		.4byte	.LASF83
 2899 036c 05       		.sleb128 5
 2900 036d 0E       		.uleb128 0xe
 2901 036e 36040000 		.4byte	.LASF84
 2902 0372 06       		.sleb128 6
 2903 0373 0E       		.uleb128 0xe
 2904 0374 6A090000 		.4byte	.LASF85
 2905 0378 07       		.sleb128 7
 2906 0379 0E       		.uleb128 0xe
 2907 037a 240F0000 		.4byte	.LASF86
 2908 037e 08       		.sleb128 8
 2909 037f 0E       		.uleb128 0xe
 2910 0380 6E040000 		.4byte	.LASF87
 2911 0384 09       		.sleb128 9
 2912 0385 0E       		.uleb128 0xe
 2913 0386 0A080000 		.4byte	.LASF88
 2914 038a 0A       		.sleb128 10
 2915 038b 0E       		.uleb128 0xe
 2916 038c 510B0000 		.4byte	.LASF89
 2917 0390 0B       		.sleb128 11
 2918 0391 0E       		.uleb128 0xe
 2919 0392 9E080000 		.4byte	.LASF90
 2920 0396 0C       		.sleb128 12
 2921 0397 0E       		.uleb128 0xe
 2922 0398 07070000 		.4byte	.LASF91
 2923 039c 0D       		.sleb128 13
 2924 039d 0E       		.uleb128 0xe
 2925 039e AD060000 		.4byte	.LASF92
 2926 03a2 0E       		.sleb128 14
 2927 03a3 0E       		.uleb128 0xe
 2928 03a4 350D0000 		.4byte	.LASF93
 2929 03a8 0F       		.sleb128 15
 2930 03a9 0E       		.uleb128 0xe
 2931 03aa F8000000 		.4byte	.LASF94
 2932 03ae 10       		.sleb128 16
 2933 03af 0E       		.uleb128 0xe
 2934 03b0 DF0A0000 		.4byte	.LASF95
 2935 03b4 11       		.sleb128 17
ARM GAS  C:\Users\SNFU\AppData\Local\Temp\cc2qKFEC.s 			page 70


 2936 03b5 0E       		.uleb128 0xe
 2937 03b6 79070000 		.4byte	.LASF96
 2938 03ba 12       		.sleb128 18
 2939 03bb 0E       		.uleb128 0xe
 2940 03bc 480D0000 		.4byte	.LASF97
 2941 03c0 13       		.sleb128 19
 2942 03c1 0E       		.uleb128 0xe
 2943 03c2 EC050000 		.4byte	.LASF98
 2944 03c6 14       		.sleb128 20
 2945 03c7 0E       		.uleb128 0xe
 2946 03c8 900B0000 		.4byte	.LASF99
 2947 03cc 15       		.sleb128 21
 2948 03cd 0E       		.uleb128 0xe
 2949 03ce A80B0000 		.4byte	.LASF100
 2950 03d2 16       		.sleb128 22
 2951 03d3 0E       		.uleb128 0xe
 2952 03d4 C00B0000 		.4byte	.LASF101
 2953 03d8 17       		.sleb128 23
 2954 03d9 0E       		.uleb128 0xe
 2955 03da D80B0000 		.4byte	.LASF102
 2956 03de 18       		.sleb128 24
 2957 03df 0E       		.uleb128 0xe
 2958 03e0 F00B0000 		.4byte	.LASF103
 2959 03e4 19       		.sleb128 25
 2960 03e5 0E       		.uleb128 0xe
 2961 03e6 7D080000 		.4byte	.LASF104
 2962 03ea 1A       		.sleb128 26
 2963 03eb 0E       		.uleb128 0xe
 2964 03ec 7A0D0000 		.4byte	.LASF105
 2965 03f0 1B       		.sleb128 27
 2966 03f1 00       		.byte	0
 2967 03f2 0F       		.uleb128 0xf
 2968 03f3 23020000 		.4byte	.LASF106
 2969 03f7 01       		.byte	0x1
 2970 03f8 09       		.byte	0x9
 2971 03f9 97       		.byte	0x97
 2972 03fa 52040000 		.4byte	0x452
 2973 03fe 0E       		.uleb128 0xe
 2974 03ff B1080000 		.4byte	.LASF107
 2975 0403 00       		.sleb128 0
 2976 0404 0E       		.uleb128 0xe
 2977 0405 CA020000 		.4byte	.LASF108
 2978 0409 C000     		.sleb128 64
 2979 040b 0E       		.uleb128 0xe
 2980 040c 28070000 		.4byte	.LASF109
 2981 0410 C200     		.sleb128 66
 2982 0412 0E       		.uleb128 0xe
 2983 0413 450E0000 		.4byte	.LASF110
 2984 0417 D000     		.sleb128 80
 2985 0419 0E       		.uleb128 0xe
 2986 041a D3050000 		.4byte	.LASF111
 2987 041e D800     		.sleb128 88
 2988 0420 0E       		.uleb128 0xe
 2989 0421 3C060000 		.4byte	.LASF112
 2990 0425 DC00     		.sleb128 92
 2991 0427 0E       		.uleb128 0xe
 2992 0428 3D010000 		.4byte	.LASF113
ARM GAS  C:\Users\SNFU\AppData\Local\Temp\cc2qKFEC.s 			page 71


 2993 042c C001     		.sleb128 192
 2994 042e 0E       		.uleb128 0xe
 2995 042f 77060000 		.4byte	.LASF114
 2996 0433 C201     		.sleb128 194
 2997 0435 0E       		.uleb128 0xe
 2998 0436 BF0A0000 		.4byte	.LASF115
 2999 043a D001     		.sleb128 208
 3000 043c 0E       		.uleb128 0xe
 3001 043d D60E0000 		.4byte	.LASF116
 3002 0441 D801     		.sleb128 216
 3003 0443 0E       		.uleb128 0xe
 3004 0444 E0010000 		.4byte	.LASF117
 3005 0448 DC01     		.sleb128 220
 3006 044a 0E       		.uleb128 0xe
 3007 044b 0C040000 		.4byte	.LASF118
 3008 044f DD01     		.sleb128 221
 3009 0451 00       		.byte	0
 3010 0452 0F       		.uleb128 0xf
 3011 0453 690D0000 		.4byte	.LASF119
 3012 0457 01       		.byte	0x1
 3013 0458 09       		.byte	0x9
 3014 0459 AB       		.byte	0xab
 3015 045a 95040000 		.4byte	0x495
 3016 045e 0E       		.uleb128 0xe
 3017 045f 78010000 		.4byte	.LASF120
 3018 0463 00       		.sleb128 0
 3019 0464 0E       		.uleb128 0xe
 3020 0465 27060000 		.4byte	.LASF121
 3021 0469 01       		.sleb128 1
 3022 046a 0E       		.uleb128 0xe
 3023 046b CE000000 		.4byte	.LASF122
 3024 046f 02       		.sleb128 2
 3025 0470 0E       		.uleb128 0xe
 3026 0471 AA000000 		.4byte	.LASF123
 3027 0475 03       		.sleb128 3
 3028 0476 0E       		.uleb128 0xe
 3029 0477 D0070000 		.4byte	.LASF124
 3030 047b 04       		.sleb128 4
 3031 047c 0E       		.uleb128 0xe
 3032 047d F10E0000 		.4byte	.LASF125
 3033 0481 05       		.sleb128 5
 3034 0482 0E       		.uleb128 0xe
 3035 0483 6E020000 		.4byte	.LASF126
 3036 0487 06       		.sleb128 6
 3037 0488 0E       		.uleb128 0xe
 3038 0489 89010000 		.4byte	.LASF127
 3039 048d 07       		.sleb128 7
 3040 048e 0E       		.uleb128 0xe
 3041 048f ED0A0000 		.4byte	.LASF128
 3042 0493 08       		.sleb128 8
 3043 0494 00       		.byte	0
 3044 0495 07       		.uleb128 0x7
 3045 0496 52070000 		.4byte	.LASF129
 3046 049a 0C       		.byte	0xc
 3047 049b 03       		.byte	0x3
 3048 049c 08       		.byte	0x8
 3049 049d F6040000 		.4byte	0x4f6
ARM GAS  C:\Users\SNFU\AppData\Local\Temp\cc2qKFEC.s 			page 72


 3050 04a1 08       		.uleb128 0x8
 3051 04a2 2C050000 		.4byte	.LASF130
 3052 04a6 03       		.byte	0x3
 3053 04a7 0A       		.byte	0xa
 3054 04a8 78000000 		.4byte	0x78
 3055 04ac 02       		.byte	0x2
 3056 04ad 23       		.byte	0x23
 3057 04ae 00       		.uleb128 0
 3058 04af 08       		.uleb128 0x8
 3059 04b0 F3000000 		.4byte	.LASF131
 3060 04b4 03       		.byte	0x3
 3061 04b5 0B       		.byte	0xb
 3062 04b6 30000000 		.4byte	0x30
 3063 04ba 02       		.byte	0x2
 3064 04bb 23       		.byte	0x23
 3065 04bc 04       		.uleb128 0x4
 3066 04bd 08       		.uleb128 0x8
 3067 04be CC0E0000 		.4byte	.LASF132
 3068 04c2 03       		.byte	0x3
 3069 04c3 0C       		.byte	0xc
 3070 04c4 30000000 		.4byte	0x30
 3071 04c8 02       		.byte	0x2
 3072 04c9 23       		.byte	0x23
 3073 04ca 05       		.uleb128 0x5
 3074 04cb 08       		.uleb128 0x8
 3075 04cc 28030000 		.4byte	.LASF133
 3076 04d0 03       		.byte	0x3
 3077 04d1 0D       		.byte	0xd
 3078 04d2 30000000 		.4byte	0x30
 3079 04d6 02       		.byte	0x2
 3080 04d7 23       		.byte	0x23
 3081 04d8 06       		.uleb128 0x6
 3082 04d9 08       		.uleb128 0x8
 3083 04da 86050000 		.4byte	.LASF134
 3084 04de 03       		.byte	0x3
 3085 04df 0E       		.byte	0xe
 3086 04e0 30000000 		.4byte	0x30
 3087 04e4 02       		.byte	0x2
 3088 04e5 23       		.byte	0x23
 3089 04e6 07       		.uleb128 0x7
 3090 04e7 08       		.uleb128 0x8
 3091 04e8 C0060000 		.4byte	.LASF135
 3092 04ec 03       		.byte	0x3
 3093 04ed 0F       		.byte	0xf
 3094 04ee 30000000 		.4byte	0x30
 3095 04f2 02       		.byte	0x2
 3096 04f3 23       		.byte	0x23
 3097 04f4 08       		.uleb128 0x8
 3098 04f5 00       		.byte	0
 3099 04f6 03       		.uleb128 0x3
 3100 04f7 38050000 		.4byte	.LASF136
 3101 04fb 03       		.byte	0x3
 3102 04fc 10       		.byte	0x10
 3103 04fd 95040000 		.4byte	0x495
 3104 0501 07       		.uleb128 0x7
 3105 0502 59020000 		.4byte	.LASF137
 3106 0506 1C       		.byte	0x1c
ARM GAS  C:\Users\SNFU\AppData\Local\Temp\cc2qKFEC.s 			page 73


 3107 0507 04       		.byte	0x4
 3108 0508 09       		.byte	0x9
 3109 0509 70050000 		.4byte	0x570
 3110 050d 08       		.uleb128 0x8
 3111 050e 940D0000 		.4byte	.LASF138
 3112 0512 04       		.byte	0x4
 3113 0513 0B       		.byte	0xb
 3114 0514 78000000 		.4byte	0x78
 3115 0518 02       		.byte	0x2
 3116 0519 23       		.byte	0x23
 3117 051a 00       		.uleb128 0
 3118 051b 08       		.uleb128 0x8
 3119 051c 960E0000 		.4byte	.LASF139
 3120 0520 04       		.byte	0x4
 3121 0521 0C       		.byte	0xc
 3122 0522 BC000000 		.4byte	0xbc
 3123 0526 02       		.byte	0x2
 3124 0527 23       		.byte	0x23
 3125 0528 04       		.uleb128 0x4
 3126 0529 08       		.uleb128 0x8
 3127 052a 900E0000 		.4byte	.LASF140
 3128 052e 04       		.byte	0x4
 3129 052f 0D       		.byte	0xd
 3130 0530 BC000000 		.4byte	0xbc
 3131 0534 02       		.byte	0x2
 3132 0535 23       		.byte	0x23
 3133 0536 08       		.uleb128 0x8
 3134 0537 0A       		.uleb128 0xa
 3135 0538 79617700 		.ascii	"yaw\000"
 3136 053c 04       		.byte	0x4
 3137 053d 0E       		.byte	0xe
 3138 053e BC000000 		.4byte	0xbc
 3139 0542 02       		.byte	0x2
 3140 0543 23       		.byte	0x23
 3141 0544 0C       		.uleb128 0xc
 3142 0545 08       		.uleb128 0x8
 3143 0546 5F0D0000 		.4byte	.LASF141
 3144 054a 04       		.byte	0x4
 3145 054b 0F       		.byte	0xf
 3146 054c BC000000 		.4byte	0xbc
 3147 0550 02       		.byte	0x2
 3148 0551 23       		.byte	0x23
 3149 0552 10       		.uleb128 0x10
 3150 0553 08       		.uleb128 0x8
 3151 0554 4E020000 		.4byte	.LASF142
 3152 0558 04       		.byte	0x4
 3153 0559 10       		.byte	0x10
 3154 055a BC000000 		.4byte	0xbc
 3155 055e 02       		.byte	0x2
 3156 055f 23       		.byte	0x23
 3157 0560 14       		.uleb128 0x14
 3158 0561 08       		.uleb128 0x8
 3159 0562 EC0D0000 		.4byte	.LASF143
 3160 0566 04       		.byte	0x4
 3161 0567 11       		.byte	0x11
 3162 0568 BC000000 		.4byte	0xbc
 3163 056c 02       		.byte	0x2
ARM GAS  C:\Users\SNFU\AppData\Local\Temp\cc2qKFEC.s 			page 74


 3164 056d 23       		.byte	0x23
 3165 056e 18       		.uleb128 0x18
 3166 056f 00       		.byte	0
 3167 0570 03       		.uleb128 0x3
 3168 0571 BE0D0000 		.4byte	.LASF144
 3169 0575 04       		.byte	0x4
 3170 0576 12       		.byte	0x12
 3171 0577 01050000 		.4byte	0x501
 3172 057b 0F       		.uleb128 0xf
 3173 057c 840A0000 		.4byte	.LASF145
 3174 0580 01       		.byte	0x1
 3175 0581 05       		.byte	0x5
 3176 0582 2C       		.byte	0x2c
 3177 0583 B8050000 		.4byte	0x5b8
 3178 0587 0E       		.uleb128 0xe
 3179 0588 E0080000 		.4byte	.LASF146
 3180 058c 00       		.sleb128 0
 3181 058d 0E       		.uleb128 0xe
 3182 058e 0C0F0000 		.4byte	.LASF147
 3183 0592 01       		.sleb128 1
 3184 0593 0E       		.uleb128 0xe
 3185 0594 730D0000 		.4byte	.LASF148
 3186 0598 02       		.sleb128 2
 3187 0599 0E       		.uleb128 0xe
 3188 059a 1E0C0000 		.4byte	.LASF149
 3189 059e 03       		.sleb128 3
 3190 059f 0E       		.uleb128 0xe
 3191 05a0 BB050000 		.4byte	.LASF150
 3192 05a4 04       		.sleb128 4
 3193 05a5 0E       		.uleb128 0xe
 3194 05a6 36060000 		.4byte	.LASF151
 3195 05aa 05       		.sleb128 5
 3196 05ab 0E       		.uleb128 0xe
 3197 05ac 250C0000 		.4byte	.LASF152
 3198 05b0 06       		.sleb128 6
 3199 05b1 0E       		.uleb128 0xe
 3200 05b2 2C0C0000 		.4byte	.LASF153
 3201 05b6 07       		.sleb128 7
 3202 05b7 00       		.byte	0
 3203 05b8 0F       		.uleb128 0xf
 3204 05b9 FC020000 		.4byte	.LASF154
 3205 05bd 01       		.byte	0x1
 3206 05be 05       		.byte	0x5
 3207 05bf 37       		.byte	0x37
 3208 05c0 13060000 		.4byte	0x613
 3209 05c4 0E       		.uleb128 0xe
 3210 05c5 DC030000 		.4byte	.LASF155
 3211 05c9 00       		.sleb128 0
 3212 05ca 0E       		.uleb128 0xe
 3213 05cb 9E090000 		.4byte	.LASF156
 3214 05cf 01       		.sleb128 1
 3215 05d0 0E       		.uleb128 0xe
 3216 05d1 A7090000 		.4byte	.LASF157
 3217 05d5 02       		.sleb128 2
 3218 05d6 0E       		.uleb128 0xe
 3219 05d7 BC000000 		.4byte	.LASF158
 3220 05db 03       		.sleb128 3
ARM GAS  C:\Users\SNFU\AppData\Local\Temp\cc2qKFEC.s 			page 75


 3221 05dc 0E       		.uleb128 0xe
 3222 05dd C5000000 		.4byte	.LASF159
 3223 05e1 04       		.sleb128 4
 3224 05e2 0E       		.uleb128 0xe
 3225 05e3 6F060000 		.4byte	.LASF160
 3226 05e7 05       		.sleb128 5
 3227 05e8 0E       		.uleb128 0xe
 3228 05e9 B20E0000 		.4byte	.LASF161
 3229 05ed 06       		.sleb128 6
 3230 05ee 0E       		.uleb128 0xe
 3231 05ef 680A0000 		.4byte	.LASF162
 3232 05f3 07       		.sleb128 7
 3233 05f4 0E       		.uleb128 0xe
 3234 05f5 8C0D0000 		.4byte	.LASF163
 3235 05f9 08       		.sleb128 8
 3236 05fa 0E       		.uleb128 0xe
 3237 05fb 0E0A0000 		.4byte	.LASF164
 3238 05ff 09       		.sleb128 9
 3239 0600 0E       		.uleb128 0xe
 3240 0601 160A0000 		.4byte	.LASF165
 3241 0605 0A       		.sleb128 10
 3242 0606 0E       		.uleb128 0xe
 3243 0607 8B060000 		.4byte	.LASF166
 3244 060b 0B       		.sleb128 11
 3245 060c 0E       		.uleb128 0xe
 3246 060d 93060000 		.4byte	.LASF167
 3247 0611 0C       		.sleb128 12
 3248 0612 00       		.byte	0
 3249 0613 10       		.uleb128 0x10
 3250 0614 A30E0000 		.4byte	.LASF170
 3251 0618 01       		.byte	0x1
 3252 0619 23       		.byte	0x23
 3253 061a 01       		.byte	0x1
 3254 061b 00000000 		.4byte	.LFB33
 3255 061f 7A000000 		.4byte	.LFE33
 3256 0623 00000000 		.4byte	.LLST0
 3257 0627 01       		.byte	0x1
 3258 0628 57060000 		.4byte	0x657
 3259 062c 11       		.uleb128 0x11
 3260 062d EC0E0000 		.4byte	.LASF168
 3261 0631 01       		.byte	0x1
 3262 0632 23       		.byte	0x23
 3263 0633 30000000 		.4byte	0x30
 3264 0637 02       		.byte	0x2
 3265 0638 91       		.byte	0x91
 3266 0639 6F       		.sleb128 -17
 3267 063a 11       		.uleb128 0x11
 3268 063b F50C0000 		.4byte	.LASF169
 3269 063f 01       		.byte	0x1
 3270 0640 23       		.byte	0x23
 3271 0641 57060000 		.4byte	0x657
 3272 0645 02       		.byte	0x2
 3273 0646 91       		.byte	0x91
 3274 0647 68       		.sleb128 -24
 3275 0648 12       		.uleb128 0x12
 3276 0649 746D7000 		.ascii	"tmp\000"
 3277 064d 01       		.byte	0x1
ARM GAS  C:\Users\SNFU\AppData\Local\Temp\cc2qKFEC.s 			page 76


 3278 064e 26       		.byte	0x26
 3279 064f 30000000 		.4byte	0x30
 3280 0653 02       		.byte	0x2
 3281 0654 91       		.byte	0x91
 3282 0655 77       		.sleb128 -9
 3283 0656 00       		.byte	0
 3284 0657 05       		.uleb128 0x5
 3285 0658 04       		.byte	0x4
 3286 0659 54000000 		.4byte	0x54
 3287 065d 10       		.uleb128 0x10
 3288 065e 0B020000 		.4byte	.LASF171
 3289 0662 01       		.byte	0x1
 3290 0663 34       		.byte	0x34
 3291 0664 01       		.byte	0x1
 3292 0665 00000000 		.4byte	.LFB34
 3293 0669 16000000 		.4byte	.LFE34
 3294 066d 38000000 		.4byte	.LLST1
 3295 0671 01       		.byte	0x1
 3296 0672 85060000 		.4byte	0x685
 3297 0676 11       		.uleb128 0x11
 3298 0677 F50C0000 		.4byte	.LASF169
 3299 067b 01       		.byte	0x1
 3300 067c 34       		.byte	0x34
 3301 067d 57060000 		.4byte	0x657
 3302 0681 02       		.byte	0x2
 3303 0682 91       		.byte	0x91
 3304 0683 74       		.sleb128 -12
 3305 0684 00       		.byte	0
 3306 0685 13       		.uleb128 0x13
 3307 0686 B10C0000 		.4byte	.LASF176
 3308 068a 01       		.byte	0x1
 3309 068b 41       		.byte	0x41
 3310 068c 01       		.byte	0x1
 3311 068d 54000000 		.4byte	0x54
 3312 0691 00000000 		.4byte	.LFB35
 3313 0695 56000000 		.4byte	.LFE35
 3314 0699 70000000 		.4byte	.LLST2
 3315 069d 01       		.byte	0x1
 3316 069e CD060000 		.4byte	0x6cd
 3317 06a2 11       		.uleb128 0x11
 3318 06a3 6A050000 		.4byte	.LASF172
 3319 06a7 01       		.byte	0x1
 3320 06a8 41       		.byte	0x41
 3321 06a9 CD060000 		.4byte	0x6cd
 3322 06ad 02       		.byte	0x2
 3323 06ae 91       		.byte	0x91
 3324 06af 6C       		.sleb128 -20
 3325 06b0 11       		.uleb128 0x11
 3326 06b1 350A0000 		.4byte	.LASF173
 3327 06b5 01       		.byte	0x1
 3328 06b6 41       		.byte	0x41
 3329 06b7 54000000 		.4byte	0x54
 3330 06bb 02       		.byte	0x2
 3331 06bc 91       		.byte	0x91
 3332 06bd 6A       		.sleb128 -22
 3333 06be 14       		.uleb128 0x14
 3334 06bf 59080000 		.4byte	.LASF174
ARM GAS  C:\Users\SNFU\AppData\Local\Temp\cc2qKFEC.s 			page 77


 3335 06c3 01       		.byte	0x1
 3336 06c4 43       		.byte	0x43
 3337 06c5 54000000 		.4byte	0x54
 3338 06c9 02       		.byte	0x2
 3339 06ca 91       		.byte	0x91
 3340 06cb 76       		.sleb128 -10
 3341 06cc 00       		.byte	0
 3342 06cd 05       		.uleb128 0x5
 3343 06ce 04       		.byte	0x4
 3344 06cf D3060000 		.4byte	0x6d3
 3345 06d3 06       		.uleb128 0x6
 3346 06d4 30000000 		.4byte	0x30
 3347 06d8 15       		.uleb128 0x15
 3348 06d9 190E0000 		.4byte	.LASF175
 3349 06dd 01       		.byte	0x1
 3350 06de 55       		.byte	0x55
 3351 06df 01       		.byte	0x1
 3352 06e0 00000000 		.4byte	.LFB36
 3353 06e4 46000000 		.4byte	.LFE36
 3354 06e8 A8000000 		.4byte	.LLST3
 3355 06ec 01       		.byte	0x1
 3356 06ed 28070000 		.4byte	0x728
 3357 06f1 11       		.uleb128 0x11
 3358 06f2 F50C0000 		.4byte	.LASF169
 3359 06f6 01       		.byte	0x1
 3360 06f7 55       		.byte	0x55
 3361 06f8 57060000 		.4byte	0x657
 3362 06fc 02       		.byte	0x2
 3363 06fd 91       		.byte	0x91
 3364 06fe 6C       		.sleb128 -20
 3365 06ff 11       		.uleb128 0x11
 3366 0700 6A050000 		.4byte	.LASF172
 3367 0704 01       		.byte	0x1
 3368 0705 55       		.byte	0x55
 3369 0706 D8000000 		.4byte	0xd8
 3370 070a 02       		.byte	0x2
 3371 070b 91       		.byte	0x91
 3372 070c 68       		.sleb128 -24
 3373 070d 11       		.uleb128 0x11
 3374 070e 350A0000 		.4byte	.LASF173
 3375 0712 01       		.byte	0x1
 3376 0713 55       		.byte	0x55
 3377 0714 54000000 		.4byte	0x54
 3378 0718 02       		.byte	0x2
 3379 0719 91       		.byte	0x91
 3380 071a 66       		.sleb128 -26
 3381 071b 12       		.uleb128 0x12
 3382 071c 7000     		.ascii	"p\000"
 3383 071e 01       		.byte	0x1
 3384 071f 57       		.byte	0x57
 3385 0720 CD060000 		.4byte	0x6cd
 3386 0724 02       		.byte	0x2
 3387 0725 91       		.byte	0x91
 3388 0726 74       		.sleb128 -12
 3389 0727 00       		.byte	0
 3390 0728 16       		.uleb128 0x16
 3391 0729 A0050000 		.4byte	.LASF177
ARM GAS  C:\Users\SNFU\AppData\Local\Temp\cc2qKFEC.s 			page 78


 3392 072d 02       		.byte	0x2
 3393 072e 11       		.byte	0x11
 3394 072f 01       		.byte	0x1
 3395 0730 65070000 		.4byte	0x765
 3396 0734 00000000 		.4byte	.LFB43
 3397 0738 28000000 		.4byte	.LFE43
 3398 073c E0000000 		.4byte	.LLST4
 3399 0740 01       		.byte	0x1
 3400 0741 65070000 		.4byte	0x765
 3401 0745 11       		.uleb128 0x11
 3402 0746 E4030000 		.4byte	.LASF178
 3403 074a 02       		.byte	0x2
 3404 074b 11       		.byte	0x11
 3405 074c 30000000 		.4byte	0x30
 3406 0750 02       		.byte	0x2
 3407 0751 91       		.byte	0x91
 3408 0752 77       		.sleb128 -9
 3409 0753 14       		.uleb128 0x14
 3410 0754 99000000 		.4byte	.LASF179
 3411 0758 02       		.byte	0x2
 3412 0759 17       		.byte	0x17
 3413 075a 6B070000 		.4byte	0x76b
 3414 075e 05       		.byte	0x5
 3415 075f 03       		.byte	0x3
 3416 0760 70000000 		.4byte	m_mavlink_status.7719
 3417 0764 00       		.byte	0
 3418 0765 05       		.uleb128 0x5
 3419 0766 04       		.byte	0x4
 3420 0767 B3020000 		.4byte	0x2b3
 3421 076b 0B       		.uleb128 0xb
 3422 076c B3020000 		.4byte	0x2b3
 3423 0770 7B070000 		.4byte	0x77b
 3424 0774 0C       		.uleb128 0xc
 3425 0775 D1000000 		.4byte	0xd1
 3426 0779 03       		.byte	0x3
 3427 077a 00       		.byte	0
 3428 077b 13       		.uleb128 0x13
 3429 077c EE030000 		.4byte	.LASF180
 3430 0780 02       		.byte	0x2
 3431 0781 44       		.byte	0x44
 3432 0782 01       		.byte	0x1
 3433 0783 54000000 		.4byte	0x54
 3434 0787 00000000 		.4byte	.LFB46
 3435 078b 12010000 		.4byte	.LFE46
 3436 078f 18010000 		.4byte	.LLST5
 3437 0793 01       		.byte	0x1
 3438 0794 ED070000 		.4byte	0x7ed
 3439 0798 17       		.uleb128 0x17
 3440 0799 6D736700 		.ascii	"msg\000"
 3441 079d 02       		.byte	0x2
 3442 079e 44       		.byte	0x44
 3443 079f ED070000 		.4byte	0x7ed
 3444 07a3 02       		.byte	0x2
 3445 07a4 91       		.byte	0x91
 3446 07a5 6C       		.sleb128 -20
 3447 07a6 11       		.uleb128 0x11
 3448 07a7 9A0A0000 		.4byte	.LASF181
ARM GAS  C:\Users\SNFU\AppData\Local\Temp\cc2qKFEC.s 			page 79


 3449 07ab 02       		.byte	0x2
 3450 07ac 44       		.byte	0x44
 3451 07ad 30000000 		.4byte	0x30
 3452 07b1 02       		.byte	0x2
 3453 07b2 91       		.byte	0x91
 3454 07b3 6B       		.sleb128 -21
 3455 07b4 11       		.uleb128 0x11
 3456 07b5 9C010000 		.4byte	.LASF182
 3457 07b9 02       		.byte	0x2
 3458 07ba 44       		.byte	0x44
 3459 07bb 30000000 		.4byte	0x30
 3460 07bf 02       		.byte	0x2
 3461 07c0 91       		.byte	0x91
 3462 07c1 6A       		.sleb128 -22
 3463 07c2 11       		.uleb128 0x11
 3464 07c3 E4030000 		.4byte	.LASF178
 3465 07c7 02       		.byte	0x2
 3466 07c8 45       		.byte	0x45
 3467 07c9 30000000 		.4byte	0x30
 3468 07cd 02       		.byte	0x2
 3469 07ce 91       		.byte	0x91
 3470 07cf 69       		.sleb128 -23
 3471 07d0 11       		.uleb128 0x11
 3472 07d1 350A0000 		.4byte	.LASF173
 3473 07d5 02       		.byte	0x2
 3474 07d6 45       		.byte	0x45
 3475 07d7 30000000 		.4byte	0x30
 3476 07db 02       		.byte	0x2
 3477 07dc 91       		.byte	0x91
 3478 07dd 00       		.sleb128 0
 3479 07de 11       		.uleb128 0x11
 3480 07df 6F070000 		.4byte	.LASF183
 3481 07e3 02       		.byte	0x2
 3482 07e4 45       		.byte	0x45
 3483 07e5 30000000 		.4byte	0x30
 3484 07e9 02       		.byte	0x2
 3485 07ea 91       		.byte	0x91
 3486 07eb 04       		.sleb128 4
 3487 07ec 00       		.byte	0
 3488 07ed 05       		.uleb128 0x5
 3489 07ee 04       		.byte	0x4
 3490 07ef AC010000 		.4byte	0x1ac
 3491 07f3 13       		.uleb128 0x13
 3492 07f4 35020000 		.4byte	.LASF184
 3493 07f8 02       		.byte	0x2
 3494 07f9 63       		.byte	0x63
 3495 07fa 01       		.byte	0x1
 3496 07fb 54000000 		.4byte	0x54
 3497 07ff 00000000 		.4byte	.LFB47
 3498 0803 48000000 		.4byte	.LFE47
 3499 0807 50010000 		.4byte	.LLST6
 3500 080b 01       		.byte	0x1
 3501 080c 57080000 		.4byte	0x857
 3502 0810 17       		.uleb128 0x17
 3503 0811 6D736700 		.ascii	"msg\000"
 3504 0815 02       		.byte	0x2
 3505 0816 63       		.byte	0x63
ARM GAS  C:\Users\SNFU\AppData\Local\Temp\cc2qKFEC.s 			page 80


 3506 0817 ED070000 		.4byte	0x7ed
 3507 081b 02       		.byte	0x2
 3508 081c 91       		.byte	0x91
 3509 081d 74       		.sleb128 -12
 3510 081e 11       		.uleb128 0x11
 3511 081f 9A0A0000 		.4byte	.LASF181
 3512 0823 02       		.byte	0x2
 3513 0824 63       		.byte	0x63
 3514 0825 30000000 		.4byte	0x30
 3515 0829 02       		.byte	0x2
 3516 082a 91       		.byte	0x91
 3517 082b 73       		.sleb128 -13
 3518 082c 11       		.uleb128 0x11
 3519 082d 9C010000 		.4byte	.LASF182
 3520 0831 02       		.byte	0x2
 3521 0832 63       		.byte	0x63
 3522 0833 30000000 		.4byte	0x30
 3523 0837 02       		.byte	0x2
 3524 0838 91       		.byte	0x91
 3525 0839 72       		.sleb128 -14
 3526 083a 11       		.uleb128 0x11
 3527 083b 350A0000 		.4byte	.LASF173
 3528 083f 02       		.byte	0x2
 3529 0840 64       		.byte	0x64
 3530 0841 30000000 		.4byte	0x30
 3531 0845 02       		.byte	0x2
 3532 0846 91       		.byte	0x91
 3533 0847 71       		.sleb128 -15
 3534 0848 11       		.uleb128 0x11
 3535 0849 6F070000 		.4byte	.LASF183
 3536 084d 02       		.byte	0x2
 3537 084e 64       		.byte	0x64
 3538 084f 30000000 		.4byte	0x30
 3539 0853 02       		.byte	0x2
 3540 0854 91       		.byte	0x91
 3541 0855 00       		.sleb128 0
 3542 0856 00       		.byte	0
 3543 0857 13       		.uleb128 0x13
 3544 0858 EC060000 		.4byte	.LASF185
 3545 085c 02       		.byte	0x2
 3546 085d AE       		.byte	0xae
 3547 085e 01       		.byte	0x1
 3548 085f 54000000 		.4byte	0x54
 3549 0863 00000000 		.4byte	.LFB48
 3550 0867 66000000 		.4byte	.LFE48
 3551 086b 88010000 		.4byte	.LLST7
 3552 086f 01       		.byte	0x1
 3553 0870 9E080000 		.4byte	0x89e
 3554 0874 11       		.uleb128 0x11
 3555 0875 58050000 		.4byte	.LASF186
 3556 0879 02       		.byte	0x2
 3557 087a AE       		.byte	0xae
 3558 087b 9E080000 		.4byte	0x89e
 3559 087f 02       		.byte	0x2
 3560 0880 91       		.byte	0x91
 3561 0881 6C       		.sleb128 -20
 3562 0882 17       		.uleb128 0x17
ARM GAS  C:\Users\SNFU\AppData\Local\Temp\cc2qKFEC.s 			page 81


 3563 0883 6D736700 		.ascii	"msg\000"
 3564 0887 02       		.byte	0x2
 3565 0888 AE       		.byte	0xae
 3566 0889 A4080000 		.4byte	0x8a4
 3567 088d 02       		.byte	0x2
 3568 088e 91       		.byte	0x91
 3569 088f 68       		.sleb128 -24
 3570 0890 12       		.uleb128 0x12
 3571 0891 636B00   		.ascii	"ck\000"
 3572 0894 02       		.byte	0x2
 3573 0895 B2       		.byte	0xb2
 3574 0896 9E080000 		.4byte	0x89e
 3575 089a 02       		.byte	0x2
 3576 089b 91       		.byte	0x91
 3577 089c 74       		.sleb128 -12
 3578 089d 00       		.byte	0
 3579 089e 05       		.uleb128 0x5
 3580 089f 04       		.byte	0x4
 3581 08a0 30000000 		.4byte	0x30
 3582 08a4 05       		.uleb128 0x5
 3583 08a5 04       		.byte	0x4
 3584 08a6 AA080000 		.4byte	0x8aa
 3585 08aa 06       		.uleb128 0x6
 3586 08ab AC010000 		.4byte	0x1ac
 3587 08af 13       		.uleb128 0x13
 3588 08b0 A40A0000 		.4byte	.LASF187
 3589 08b4 03       		.byte	0x3
 3590 08b5 34       		.byte	0x34
 3591 08b6 01       		.byte	0x1
 3592 08b7 54000000 		.4byte	0x54
 3593 08bb 00000000 		.4byte	.LFB85
 3594 08bf 92000000 		.4byte	.LFE85
 3595 08c3 C0010000 		.4byte	.LLST8
 3596 08c7 01       		.byte	0x1
 3597 08c8 4B090000 		.4byte	0x94b
 3598 08cc 11       		.uleb128 0x11
 3599 08cd 9A0A0000 		.4byte	.LASF181
 3600 08d1 03       		.byte	0x3
 3601 08d2 34       		.byte	0x34
 3602 08d3 30000000 		.4byte	0x30
 3603 08d7 02       		.byte	0x2
 3604 08d8 91       		.byte	0x91
 3605 08d9 67       		.sleb128 -25
 3606 08da 11       		.uleb128 0x11
 3607 08db 9C010000 		.4byte	.LASF182
 3608 08df 03       		.byte	0x3
 3609 08e0 34       		.byte	0x34
 3610 08e1 30000000 		.4byte	0x30
 3611 08e5 02       		.byte	0x2
 3612 08e6 91       		.byte	0x91
 3613 08e7 66       		.sleb128 -26
 3614 08e8 17       		.uleb128 0x17
 3615 08e9 6D736700 		.ascii	"msg\000"
 3616 08ed 03       		.byte	0x3
 3617 08ee 34       		.byte	0x34
 3618 08ef ED070000 		.4byte	0x7ed
 3619 08f3 02       		.byte	0x2
ARM GAS  C:\Users\SNFU\AppData\Local\Temp\cc2qKFEC.s 			page 82


 3620 08f4 91       		.byte	0x91
 3621 08f5 60       		.sleb128 -32
 3622 08f6 11       		.uleb128 0x11
 3623 08f7 F3000000 		.4byte	.LASF131
 3624 08fb 03       		.byte	0x3
 3625 08fc 35       		.byte	0x35
 3626 08fd 30000000 		.4byte	0x30
 3627 0901 02       		.byte	0x2
 3628 0902 91       		.byte	0x91
 3629 0903 65       		.sleb128 -27
 3630 0904 11       		.uleb128 0x11
 3631 0905 CC0E0000 		.4byte	.LASF132
 3632 0909 03       		.byte	0x3
 3633 090a 35       		.byte	0x35
 3634 090b 30000000 		.4byte	0x30
 3635 090f 02       		.byte	0x2
 3636 0910 91       		.byte	0x91
 3637 0911 00       		.sleb128 0
 3638 0912 11       		.uleb128 0x11
 3639 0913 28030000 		.4byte	.LASF133
 3640 0917 03       		.byte	0x3
 3641 0918 35       		.byte	0x35
 3642 0919 30000000 		.4byte	0x30
 3643 091d 02       		.byte	0x2
 3644 091e 91       		.byte	0x91
 3645 091f 04       		.sleb128 4
 3646 0920 11       		.uleb128 0x11
 3647 0921 2C050000 		.4byte	.LASF130
 3648 0925 03       		.byte	0x3
 3649 0926 35       		.byte	0x35
 3650 0927 78000000 		.4byte	0x78
 3651 092b 02       		.byte	0x2
 3652 092c 91       		.byte	0x91
 3653 092d 08       		.sleb128 8
 3654 092e 11       		.uleb128 0x11
 3655 092f 86050000 		.4byte	.LASF134
 3656 0933 03       		.byte	0x3
 3657 0934 35       		.byte	0x35
 3658 0935 30000000 		.4byte	0x30
 3659 0939 02       		.byte	0x2
 3660 093a 91       		.byte	0x91
 3661 093b 0C       		.sleb128 12
 3662 093c 14       		.uleb128 0x14
 3663 093d 2E0D0000 		.4byte	.LASF188
 3664 0941 03       		.byte	0x3
 3665 0942 42       		.byte	0x42
 3666 0943 F6040000 		.4byte	0x4f6
 3667 0947 02       		.byte	0x2
 3668 0948 91       		.byte	0x91
 3669 0949 6C       		.sleb128 -20
 3670 094a 00       		.byte	0
 3671 094b 13       		.uleb128 0x13
 3672 094c E1070000 		.4byte	.LASF189
 3673 0950 04       		.byte	0x4
 3674 0951 39       		.byte	0x39
 3675 0952 01       		.byte	0x1
 3676 0953 54000000 		.4byte	0x54
ARM GAS  C:\Users\SNFU\AppData\Local\Temp\cc2qKFEC.s 			page 83


 3677 0957 00000000 		.4byte	.LFB272
 3678 095b 94000000 		.4byte	.LFE272
 3679 095f F8010000 		.4byte	.LLST9
 3680 0963 01       		.byte	0x1
 3681 0964 030A0000 		.4byte	0xa03
 3682 0968 11       		.uleb128 0x11
 3683 0969 9A0A0000 		.4byte	.LASF181
 3684 096d 04       		.byte	0x4
 3685 096e 39       		.byte	0x39
 3686 096f 30000000 		.4byte	0x30
 3687 0973 02       		.byte	0x2
 3688 0974 91       		.byte	0x91
 3689 0975 57       		.sleb128 -41
 3690 0976 11       		.uleb128 0x11
 3691 0977 9C010000 		.4byte	.LASF182
 3692 097b 04       		.byte	0x4
 3693 097c 39       		.byte	0x39
 3694 097d 30000000 		.4byte	0x30
 3695 0981 02       		.byte	0x2
 3696 0982 91       		.byte	0x91
 3697 0983 56       		.sleb128 -42
 3698 0984 17       		.uleb128 0x17
 3699 0985 6D736700 		.ascii	"msg\000"
 3700 0989 04       		.byte	0x4
 3701 098a 39       		.byte	0x39
 3702 098b ED070000 		.4byte	0x7ed
 3703 098f 02       		.byte	0x2
 3704 0990 91       		.byte	0x91
 3705 0991 50       		.sleb128 -48
 3706 0992 11       		.uleb128 0x11
 3707 0993 940D0000 		.4byte	.LASF138
 3708 0997 04       		.byte	0x4
 3709 0998 3A       		.byte	0x3a
 3710 0999 78000000 		.4byte	0x78
 3711 099d 02       		.byte	0x2
 3712 099e 91       		.byte	0x91
 3713 099f 4C       		.sleb128 -52
 3714 09a0 11       		.uleb128 0x11
 3715 09a1 960E0000 		.4byte	.LASF139
 3716 09a5 04       		.byte	0x4
 3717 09a6 3A       		.byte	0x3a
 3718 09a7 BC000000 		.4byte	0xbc
 3719 09ab 02       		.byte	0x2
 3720 09ac 91       		.byte	0x91
 3721 09ad 00       		.sleb128 0
 3722 09ae 11       		.uleb128 0x11
 3723 09af 900E0000 		.4byte	.LASF140
 3724 09b3 04       		.byte	0x4
 3725 09b4 3A       		.byte	0x3a
 3726 09b5 BC000000 		.4byte	0xbc
 3727 09b9 02       		.byte	0x2
 3728 09ba 91       		.byte	0x91
 3729 09bb 04       		.sleb128 4
 3730 09bc 17       		.uleb128 0x17
 3731 09bd 79617700 		.ascii	"yaw\000"
 3732 09c1 04       		.byte	0x4
 3733 09c2 3A       		.byte	0x3a
ARM GAS  C:\Users\SNFU\AppData\Local\Temp\cc2qKFEC.s 			page 84


 3734 09c3 BC000000 		.4byte	0xbc
 3735 09c7 02       		.byte	0x2
 3736 09c8 91       		.byte	0x91
 3737 09c9 08       		.sleb128 8
 3738 09ca 11       		.uleb128 0x11
 3739 09cb 5F0D0000 		.4byte	.LASF141
 3740 09cf 04       		.byte	0x4
 3741 09d0 3A       		.byte	0x3a
 3742 09d1 BC000000 		.4byte	0xbc
 3743 09d5 02       		.byte	0x2
 3744 09d6 91       		.byte	0x91
 3745 09d7 0C       		.sleb128 12
 3746 09d8 11       		.uleb128 0x11
 3747 09d9 4E020000 		.4byte	.LASF142
 3748 09dd 04       		.byte	0x4
 3749 09de 3A       		.byte	0x3a
 3750 09df BC000000 		.4byte	0xbc
 3751 09e3 02       		.byte	0x2
 3752 09e4 91       		.byte	0x91
 3753 09e5 10       		.sleb128 16
 3754 09e6 11       		.uleb128 0x11
 3755 09e7 EC0D0000 		.4byte	.LASF143
 3756 09eb 04       		.byte	0x4
 3757 09ec 3A       		.byte	0x3a
 3758 09ed BC000000 		.4byte	0xbc
 3759 09f1 02       		.byte	0x2
 3760 09f2 91       		.byte	0x91
 3761 09f3 14       		.sleb128 20
 3762 09f4 14       		.uleb128 0x14
 3763 09f5 2E0D0000 		.4byte	.LASF188
 3764 09f9 04       		.byte	0x4
 3765 09fa 48       		.byte	0x48
 3766 09fb 70050000 		.4byte	0x570
 3767 09ff 02       		.byte	0x2
 3768 0a00 91       		.byte	0x91
 3769 0a01 5C       		.sleb128 -36
 3770 0a02 00       		.byte	0
 3771 0a03 18       		.uleb128 0x18
 3772 0a04 01       		.byte	0x1
 3773 0a05 C4080000 		.4byte	.LASF190
 3774 0a09 05       		.byte	0x5
 3775 0a0a 95       		.byte	0x95
 3776 0a0b 01       		.byte	0x1
 3777 0a0c 00000000 		.4byte	.LFB1489
 3778 0a10 30000000 		.4byte	.LFE1489
 3779 0a14 31020000 		.4byte	.LLST10
 3780 0a18 01       		.byte	0x1
 3781 0a19 380A0000 		.4byte	0xa38
 3782 0a1d 17       		.uleb128 0x17
 3783 0a1e 6E756D00 		.ascii	"num\000"
 3784 0a22 05       		.byte	0x5
 3785 0a23 95       		.byte	0x95
 3786 0a24 380A0000 		.4byte	0xa38
 3787 0a28 02       		.byte	0x2
 3788 0a29 91       		.byte	0x91
 3789 0a2a 54       		.sleb128 -44
 3790 0a2b 12       		.uleb128 0x12
ARM GAS  C:\Users\SNFU\AppData\Local\Temp\cc2qKFEC.s 			page 85


 3791 0a2c 6B00     		.ascii	"k\000"
 3792 0a2e 05       		.byte	0x5
 3793 0a2f 97       		.byte	0x97
 3794 0a30 3E0A0000 		.4byte	0xa3e
 3795 0a34 02       		.byte	0x2
 3796 0a35 91       		.byte	0x91
 3797 0a36 58       		.sleb128 -40
 3798 0a37 00       		.byte	0
 3799 0a38 05       		.uleb128 0x5
 3800 0a39 04       		.byte	0x4
 3801 0a3a 66000000 		.4byte	0x66
 3802 0a3e 0B       		.uleb128 0xb
 3803 0a3f CA000000 		.4byte	0xca
 3804 0a43 4E0A0000 		.4byte	0xa4e
 3805 0a47 0C       		.uleb128 0xc
 3806 0a48 D1000000 		.4byte	0xd1
 3807 0a4c 1E       		.byte	0x1e
 3808 0a4d 00       		.byte	0
 3809 0a4e 18       		.uleb128 0x18
 3810 0a4f 01       		.byte	0x1
 3811 0a50 0B090000 		.4byte	.LASF191
 3812 0a54 05       		.byte	0x5
 3813 0a55 9D       		.byte	0x9d
 3814 0a56 01       		.byte	0x1
 3815 0a57 00000000 		.4byte	.LFB1490
 3816 0a5b 54000000 		.4byte	.LFE1490
 3817 0a5f 69020000 		.4byte	.LLST11
 3818 0a63 01       		.byte	0x1
 3819 0a64 910A0000 		.4byte	0xa91
 3820 0a68 17       		.uleb128 0x17
 3821 0a69 62756600 		.ascii	"buf\000"
 3822 0a6d 05       		.byte	0x5
 3823 0a6e 9D       		.byte	0x9d
 3824 0a6f 9E080000 		.4byte	0x89e
 3825 0a73 02       		.byte	0x2
 3826 0a74 91       		.byte	0x91
 3827 0a75 6C       		.sleb128 -20
 3828 0a76 17       		.uleb128 0x17
 3829 0a77 6C656E00 		.ascii	"len\000"
 3830 0a7b 05       		.byte	0x5
 3831 0a7c 9D       		.byte	0x9d
 3832 0a7d 54000000 		.4byte	0x54
 3833 0a81 02       		.byte	0x2
 3834 0a82 91       		.byte	0x91
 3835 0a83 6A       		.sleb128 -22
 3836 0a84 12       		.uleb128 0x12
 3837 0a85 6900     		.ascii	"i\000"
 3838 0a87 05       		.byte	0x5
 3839 0a88 9F       		.byte	0x9f
 3840 0a89 54000000 		.4byte	0x54
 3841 0a8d 02       		.byte	0x2
 3842 0a8e 91       		.byte	0x91
 3843 0a8f 76       		.sleb128 -10
 3844 0a90 00       		.byte	0
 3845 0a91 19       		.uleb128 0x19
 3846 0a92 01       		.byte	0x1
 3847 0a93 C5020000 		.4byte	.LASF192
ARM GAS  C:\Users\SNFU\AppData\Local\Temp\cc2qKFEC.s 			page 86


 3848 0a97 05       		.byte	0x5
 3849 0a98 A8       		.byte	0xa8
 3850 0a99 A3000000 		.4byte	0xa3
 3851 0a9d 00000000 		.4byte	.LFB1491
 3852 0aa1 A8090000 		.4byte	.LFE1491
 3853 0aa5 A1020000 		.4byte	.LLST12
 3854 0aa9 01       		.byte	0x1
 3855 0aaa 0C0B0000 		.4byte	0xb0c
 3856 0aae 14       		.uleb128 0x14
 3857 0aaf 8B020000 		.4byte	.LASF193
 3858 0ab3 05       		.byte	0x5
 3859 0ab4 C3       		.byte	0xc3
 3860 0ab5 30000000 		.4byte	0x30
 3861 0ab9 02       		.byte	0x2
 3862 0aba 91       		.byte	0x91
 3863 0abb 67       		.sleb128 -25
 3864 0abc 1A       		.uleb128 0x1a
 3865 0abd 84000000 		.4byte	.LBB2
 3866 0ac1 70090000 		.4byte	.LBE2
 3867 0ac5 1B       		.uleb128 0x1b
 3868 0ac6 890A0000 		.4byte	.LASF194
 3869 0aca 05       		.byte	0x5
 3870 0acb 5D01     		.2byte	0x15d
 3871 0acd 30000000 		.4byte	0x30
 3872 0ad1 02       		.byte	0x2
 3873 0ad2 91       		.byte	0x91
 3874 0ad3 66       		.sleb128 -26
 3875 0ad4 1C       		.uleb128 0x1c
 3876 0ad5 84080000 		.4byte	.LBB3
 3877 0ad9 EE080000 		.4byte	.LBE3
 3878 0add F10A0000 		.4byte	0xaf1
 3879 0ae1 1D       		.uleb128 0x1d
 3880 0ae2 6C656E00 		.ascii	"len\000"
 3881 0ae6 05       		.byte	0x5
 3882 0ae7 8701     		.2byte	0x187
 3883 0ae9 54000000 		.4byte	0x54
 3884 0aed 02       		.byte	0x2
 3885 0aee 91       		.byte	0x91
 3886 0aef 64       		.sleb128 -28
 3887 0af0 00       		.byte	0
 3888 0af1 1A       		.uleb128 0x1a
 3889 0af2 02090000 		.4byte	.LBB4
 3890 0af6 64090000 		.4byte	.LBE4
 3891 0afa 1D       		.uleb128 0x1d
 3892 0afb 6C656E00 		.ascii	"len\000"
 3893 0aff 05       		.byte	0x5
 3894 0b00 9201     		.2byte	0x192
 3895 0b02 54000000 		.4byte	0x54
 3896 0b06 02       		.byte	0x2
 3897 0b07 91       		.byte	0x91
 3898 0b08 62       		.sleb128 -30
 3899 0b09 00       		.byte	0
 3900 0b0a 00       		.byte	0
 3901 0b0b 00       		.byte	0
 3902 0b0c 1E       		.uleb128 0x1e
 3903 0b0d 64040000 		.4byte	.LASF195
 3904 0b11 05       		.byte	0x5
ARM GAS  C:\Users\SNFU\AppData\Local\Temp\cc2qKFEC.s 			page 87


 3905 0b12 1B       		.byte	0x1b
 3906 0b13 1E0B0000 		.4byte	0xb1e
 3907 0b17 01       		.byte	0x1
 3908 0b18 05       		.byte	0x5
 3909 0b19 03       		.byte	0x3
 3910 0b1a 00000000 		.4byte	task_flag
 3911 0b1e 1F       		.uleb128 0x1f
 3912 0b1f 30000000 		.4byte	0x30
 3913 0b23 1E       		.uleb128 0x1e
 3914 0b24 E3020000 		.4byte	.LASF196
 3915 0b28 05       		.byte	0x5
 3916 0b29 1C       		.byte	0x1c
 3917 0b2a 1E0B0000 		.4byte	0xb1e
 3918 0b2e 01       		.byte	0x1
 3919 0b2f 05       		.byte	0x5
 3920 0b30 03       		.byte	0x3
 3921 0b31 00000000 		.4byte	blink_cnt
 3922 0b35 1E       		.uleb128 0x1e
 3923 0b36 1E040000 		.4byte	.LASF197
 3924 0b3a 05       		.byte	0x5
 3925 0b3b 1D       		.byte	0x1d
 3926 0b3c BC000000 		.4byte	0xbc
 3927 0b40 01       		.byte	0x1
 3928 0b41 05       		.byte	0x5
 3929 0b42 03       		.byte	0x3
 3930 0b43 00000000 		.4byte	sample_time
 3931 0b47 1E       		.uleb128 0x1e
 3932 0b48 94050000 		.4byte	.LASF198
 3933 0b4c 05       		.byte	0x5
 3934 0b4d 28       		.byte	0x28
 3935 0b4e 30000000 		.4byte	0x30
 3936 0b52 01       		.byte	0x1
 3937 0b53 05       		.byte	0x5
 3938 0b54 03       		.byte	0x3
 3939 0b55 00000000 		.4byte	PPM_channel
 3940 0b59 0B       		.uleb128 0xb
 3941 0b5a 54000000 		.4byte	0x54
 3942 0b5e 690B0000 		.4byte	0xb69
 3943 0b62 0C       		.uleb128 0xc
 3944 0b63 D1000000 		.4byte	0xd1
 3945 0b67 07       		.byte	0x7
 3946 0b68 00       		.byte	0
 3947 0b69 1E       		.uleb128 0x1e
 3948 0b6a 75080000 		.4byte	.LASF199
 3949 0b6e 05       		.byte	0x5
 3950 0b6f 29       		.byte	0x29
 3951 0b70 590B0000 		.4byte	0xb59
 3952 0b74 01       		.byte	0x1
 3953 0b75 05       		.byte	0x5
 3954 0b76 03       		.byte	0x3
 3955 0b77 00000000 		.4byte	ctrl_in
 3956 0b7b 0B       		.uleb128 0xb
 3957 0b7c 54000000 		.4byte	0x54
 3958 0b80 8B0B0000 		.4byte	0xb8b
 3959 0b84 0C       		.uleb128 0xc
 3960 0b85 D1000000 		.4byte	0xd1
 3961 0b89 0C       		.byte	0xc
ARM GAS  C:\Users\SNFU\AppData\Local\Temp\cc2qKFEC.s 			page 88


 3962 0b8a 00       		.byte	0
 3963 0b8b 1E       		.uleb128 0x1e
 3964 0b8c 36090000 		.4byte	.LASF200
 3965 0b90 05       		.byte	0x5
 3966 0b91 2A       		.byte	0x2a
 3967 0b92 7B0B0000 		.4byte	0xb7b
 3968 0b96 01       		.byte	0x1
 3969 0b97 05       		.byte	0x5
 3970 0b98 03       		.byte	0x3
 3971 0b99 00000000 		.4byte	ctrl_out
 3972 0b9d 1E       		.uleb128 0x1e
 3973 0b9e 4B040000 		.4byte	.LASF201
 3974 0ba2 05       		.byte	0x5
 3975 0ba3 4A       		.byte	0x4a
 3976 0ba4 30000000 		.4byte	0x30
 3977 0ba8 01       		.byte	0x1
 3978 0ba9 05       		.byte	0x5
 3979 0baa 03       		.byte	0x3
 3980 0bab 00000000 		.4byte	flag_LightsEnabled
 3981 0baf 1E       		.uleb128 0x1e
 3982 0bb0 40000000 		.4byte	.LASF202
 3983 0bb4 05       		.byte	0x5
 3984 0bb5 4D       		.byte	0x4d
 3985 0bb6 30000000 		.4byte	0x30
 3986 0bba 01       		.byte	0x1
 3987 0bbb 05       		.byte	0x5
 3988 0bbc 03       		.byte	0x3
 3989 0bbd 00000000 		.4byte	flag_NavLightPulse
 3990 0bc1 1E       		.uleb128 0x1e
 3991 0bc2 C6090000 		.4byte	.LASF203
 3992 0bc6 05       		.byte	0x5
 3993 0bc7 4E       		.byte	0x4e
 3994 0bc8 54000000 		.4byte	0x54
 3995 0bcc 01       		.byte	0x1
 3996 0bcd 05       		.byte	0x5
 3997 0bce 03       		.byte	0x3
 3998 0bcf 00000000 		.4byte	NavLightBright
 3999 0bd3 1E       		.uleb128 0x1e
 4000 0bd4 4C050000 		.4byte	.LASF204
 4001 0bd8 05       		.byte	0x5
 4002 0bd9 4F       		.byte	0x4f
 4003 0bda 54000000 		.4byte	0x54
 4004 0bde 01       		.byte	0x1
 4005 0bdf 05       		.byte	0x5
 4006 0be0 03       		.byte	0x3
 4007 0be1 00000000 		.4byte	NavLightDim
 4008 0be5 1E       		.uleb128 0x1e
 4009 0be6 E7080000 		.4byte	.LASF205
 4010 0bea 05       		.byte	0x5
 4011 0beb 50       		.byte	0x50
 4012 0bec 54000000 		.4byte	0x54
 4013 0bf0 01       		.byte	0x1
 4014 0bf1 05       		.byte	0x5
 4015 0bf2 03       		.byte	0x3
 4016 0bf3 00000000 		.4byte	NavLightStep
 4017 0bf7 1E       		.uleb128 0x1e
 4018 0bf8 F4010000 		.4byte	.LASF206
ARM GAS  C:\Users\SNFU\AppData\Local\Temp\cc2qKFEC.s 			page 89


 4019 0bfc 05       		.byte	0x5
 4020 0bfd 51       		.byte	0x51
 4021 0bfe 54000000 		.4byte	0x54
 4022 0c02 01       		.byte	0x1
 4023 0c03 05       		.byte	0x5
 4024 0c04 03       		.byte	0x3
 4025 0c05 00000000 		.4byte	NavLightCompare
 4026 0c09 1E       		.uleb128 0x1e
 4027 0c0a F50D0000 		.4byte	.LASF207
 4028 0c0e 05       		.byte	0x5
 4029 0c0f 5C       		.byte	0x5c
 4030 0c10 42000000 		.4byte	0x42
 4031 0c14 01       		.byte	0x1
 4032 0c15 05       		.byte	0x5
 4033 0c16 03       		.byte	0x3
 4034 0c17 00000000 		.4byte	turn_rate_p
 4035 0c1b 1E       		.uleb128 0x1e
 4036 0c1c 010E0000 		.4byte	.LASF208
 4037 0c20 05       		.byte	0x5
 4038 0c21 5D       		.byte	0x5d
 4039 0c22 42000000 		.4byte	0x42
 4040 0c26 01       		.byte	0x1
 4041 0c27 05       		.byte	0x5
 4042 0c28 03       		.byte	0x3
 4043 0c29 00000000 		.4byte	turn_rate_q
 4044 0c2d 1E       		.uleb128 0x1e
 4045 0c2e 0D0E0000 		.4byte	.LASF209
 4046 0c32 05       		.byte	0x5
 4047 0c33 5E       		.byte	0x5e
 4048 0c34 42000000 		.4byte	0x42
 4049 0c38 01       		.byte	0x1
 4050 0c39 05       		.byte	0x5
 4051 0c3a 03       		.byte	0x3
 4052 0c3b 00000000 		.4byte	turn_rate_r
 4053 0c3f 1E       		.uleb128 0x1e
 4054 0c40 20080000 		.4byte	.LASF210
 4055 0c44 05       		.byte	0x5
 4056 0c45 60       		.byte	0x60
 4057 0c46 42000000 		.4byte	0x42
 4058 0c4a 01       		.byte	0x1
 4059 0c4b 05       		.byte	0x5
 4060 0c4c 03       		.byte	0x3
 4061 0c4d 00000000 		.4byte	acc_x_g
 4062 0c51 1E       		.uleb128 0x1e
 4063 0c52 E8090000 		.4byte	.LASF211
 4064 0c56 05       		.byte	0x5
 4065 0c57 61       		.byte	0x61
 4066 0c58 42000000 		.4byte	0x42
 4067 0c5c 01       		.byte	0x1
 4068 0c5d 05       		.byte	0x5
 4069 0c5e 03       		.byte	0x3
 4070 0c5f 00000000 		.4byte	acc_y_g
 4071 0c63 1E       		.uleb128 0x1e
 4072 0c64 9B0E0000 		.4byte	.LASF212
 4073 0c68 05       		.byte	0x5
 4074 0c69 62       		.byte	0x62
 4075 0c6a 42000000 		.4byte	0x42
ARM GAS  C:\Users\SNFU\AppData\Local\Temp\cc2qKFEC.s 			page 90


 4076 0c6e 01       		.byte	0x1
 4077 0c6f 05       		.byte	0x5
 4078 0c70 03       		.byte	0x3
 4079 0c71 00000000 		.4byte	acc_z_g
 4080 0c75 1E       		.uleb128 0x1e
 4081 0c76 43040000 		.4byte	.LASF213
 4082 0c7a 05       		.byte	0x5
 4083 0c7b 64       		.byte	0x64
 4084 0c7c 42000000 		.4byte	0x42
 4085 0c80 01       		.byte	0x1
 4086 0c81 05       		.byte	0x5
 4087 0c82 03       		.byte	0x3
 4088 0c83 00000000 		.4byte	mag_x_g
 4089 0c87 1E       		.uleb128 0x1e
 4090 0c88 A5060000 		.4byte	.LASF214
 4091 0c8c 05       		.byte	0x5
 4092 0c8d 65       		.byte	0x65
 4093 0c8e 42000000 		.4byte	0x42
 4094 0c92 01       		.byte	0x1
 4095 0c93 05       		.byte	0x5
 4096 0c94 03       		.byte	0x3
 4097 0c95 00000000 		.4byte	mag_y_g
 4098 0c99 1E       		.uleb128 0x1e
 4099 0c9a D5090000 		.4byte	.LASF215
 4100 0c9e 05       		.byte	0x5
 4101 0c9f 66       		.byte	0x66
 4102 0ca0 42000000 		.4byte	0x42
 4103 0ca4 01       		.byte	0x1
 4104 0ca5 05       		.byte	0x5
 4105 0ca6 03       		.byte	0x3
 4106 0ca7 00000000 		.4byte	mag_z_g
 4107 0cab 1E       		.uleb128 0x1e
 4108 0cac 8D040000 		.4byte	.LASF216
 4109 0cb0 05       		.byte	0x5
 4110 0cb1 69       		.byte	0x69
 4111 0cb2 42000000 		.4byte	0x42
 4112 0cb6 01       		.byte	0x1
 4113 0cb7 05       		.byte	0x5
 4114 0cb8 03       		.byte	0x3
 4115 0cb9 00000000 		.4byte	Theta
 4116 0cbd 1E       		.uleb128 0x1e
 4117 0cbe 9B060000 		.4byte	.LASF217
 4118 0cc2 05       		.byte	0x5
 4119 0cc3 69       		.byte	0x69
 4120 0cc4 42000000 		.4byte	0x42
 4121 0cc8 01       		.byte	0x1
 4122 0cc9 05       		.byte	0x5
 4123 0cca 03       		.byte	0x3
 4124 0ccb 00000000 		.4byte	Theta_acc
 4125 0ccf 20       		.uleb128 0x20
 4126 0cd0 50686900 		.ascii	"Phi\000"
 4127 0cd4 05       		.byte	0x5
 4128 0cd5 6A       		.byte	0x6a
 4129 0cd6 42000000 		.4byte	0x42
 4130 0cda 01       		.byte	0x1
 4131 0cdb 05       		.byte	0x5
 4132 0cdc 03       		.byte	0x3
ARM GAS  C:\Users\SNFU\AppData\Local\Temp\cc2qKFEC.s 			page 91


 4133 0cdd 00000000 		.4byte	Phi
 4134 0ce1 1E       		.uleb128 0x1e
 4135 0ce2 7B090000 		.4byte	.LASF218
 4136 0ce6 05       		.byte	0x5
 4137 0ce7 6A       		.byte	0x6a
 4138 0ce8 42000000 		.4byte	0x42
 4139 0cec 01       		.byte	0x1
 4140 0ced 05       		.byte	0x5
 4141 0cee 03       		.byte	0x3
 4142 0cef 00000000 		.4byte	Phi_acc
 4143 0cf3 1E       		.uleb128 0x1e
 4144 0cf4 4A070000 		.4byte	.LASF219
 4145 0cf8 05       		.byte	0x5
 4146 0cf9 72       		.byte	0x72
 4147 0cfa BC000000 		.4byte	0xbc
 4148 0cfe 01       		.byte	0x1
 4149 0cff 05       		.byte	0x5
 4150 0d00 03       		.byte	0x3
 4151 0d01 00000000 		.4byte	Q_angle
 4152 0d05 1E       		.uleb128 0x1e
 4153 0d06 A9010000 		.4byte	.LASF220
 4154 0d0a 05       		.byte	0x5
 4155 0d0b 73       		.byte	0x73
 4156 0d0c BC000000 		.4byte	0xbc
 4157 0d10 01       		.byte	0x1
 4158 0d11 05       		.byte	0x5
 4159 0d12 03       		.byte	0x3
 4160 0d13 00000000 		.4byte	Q_gyro
 4161 0d17 1E       		.uleb128 0x1e
 4162 0d18 6D080000 		.4byte	.LASF221
 4163 0d1c 05       		.byte	0x5
 4164 0d1d 74       		.byte	0x74
 4165 0d1e BC000000 		.4byte	0xbc
 4166 0d22 01       		.byte	0x1
 4167 0d23 05       		.byte	0x5
 4168 0d24 03       		.byte	0x3
 4169 0d25 00000000 		.4byte	R_angle
 4170 0d29 1E       		.uleb128 0x1e
 4171 0d2a D80A0000 		.4byte	.LASF222
 4172 0d2e 05       		.byte	0x5
 4173 0d2f 76       		.byte	0x76
 4174 0d30 BC000000 		.4byte	0xbc
 4175 0d34 01       		.byte	0x1
 4176 0d35 05       		.byte	0x5
 4177 0d36 03       		.byte	0x3
 4178 0d37 00000000 		.4byte	q_bias
 4179 0d3b 1E       		.uleb128 0x1e
 4180 0d3c 8E000000 		.4byte	.LASF223
 4181 0d40 05       		.byte	0x5
 4182 0d41 77       		.byte	0x77
 4183 0d42 BC000000 		.4byte	0xbc
 4184 0d46 01       		.byte	0x1
 4185 0d47 05       		.byte	0x5
 4186 0d48 03       		.byte	0x3
 4187 0d49 00000000 		.4byte	P_00_Theta
 4188 0d4d 1E       		.uleb128 0x1e
 4189 0d4e 32010000 		.4byte	.LASF224
ARM GAS  C:\Users\SNFU\AppData\Local\Temp\cc2qKFEC.s 			page 92


 4190 0d52 05       		.byte	0x5
 4191 0d53 77       		.byte	0x77
 4192 0d54 BC000000 		.4byte	0xbc
 4193 0d58 01       		.byte	0x1
 4194 0d59 05       		.byte	0x5
 4195 0d5a 03       		.byte	0x3
 4196 0d5b 00000000 		.4byte	P_01_Theta
 4197 0d5f 1E       		.uleb128 0x1e
 4198 0d60 DD090000 		.4byte	.LASF225
 4199 0d64 05       		.byte	0x5
 4200 0d65 77       		.byte	0x77
 4201 0d66 BC000000 		.4byte	0xbc
 4202 0d6a 01       		.byte	0x1
 4203 0d6b 05       		.byte	0x5
 4204 0d6c 03       		.byte	0x3
 4205 0d6d 00000000 		.4byte	P_10_Theta
 4206 0d71 1E       		.uleb128 0x1e
 4207 0d72 8F0A0000 		.4byte	.LASF226
 4208 0d76 05       		.byte	0x5
 4209 0d77 77       		.byte	0x77
 4210 0d78 BC000000 		.4byte	0xbc
 4211 0d7c 01       		.byte	0x1
 4212 0d7d 05       		.byte	0x5
 4213 0d7e 03       		.byte	0x3
 4214 0d7f 00000000 		.4byte	P_11_Theta
 4215 0d83 1E       		.uleb128 0x1e
 4216 0d84 5F050000 		.4byte	.LASF227
 4217 0d88 05       		.byte	0x5
 4218 0d89 78       		.byte	0x78
 4219 0d8a BC000000 		.4byte	0xbc
 4220 0d8e 01       		.byte	0x1
 4221 0d8f 05       		.byte	0x5
 4222 0d90 03       		.byte	0x3
 4223 0d91 00000000 		.4byte	Theta_temp
 4224 0d95 1E       		.uleb128 0x1e
 4225 0d96 53060000 		.4byte	.LASF228
 4226 0d9a 05       		.byte	0x5
 4227 0d9b 78       		.byte	0x78
 4228 0d9c BC000000 		.4byte	0xbc
 4229 0da0 01       		.byte	0x1
 4230 0da1 05       		.byte	0x5
 4231 0da2 03       		.byte	0x3
 4232 0da3 00000000 		.4byte	S_Theta
 4233 0da7 1E       		.uleb128 0x1e
 4234 0da8 4F080000 		.4byte	.LASF229
 4235 0dac 05       		.byte	0x5
 4236 0dad 78       		.byte	0x78
 4237 0dae BC000000 		.4byte	0xbc
 4238 0db2 01       		.byte	0x1
 4239 0db3 05       		.byte	0x5
 4240 0db4 03       		.byte	0x3
 4241 0db5 00000000 		.4byte	K_0_Theta
 4242 0db9 1E       		.uleb128 0x1e
 4243 0dba D6080000 		.4byte	.LASF230
 4244 0dbe 05       		.byte	0x5
 4245 0dbf 78       		.byte	0x78
 4246 0dc0 BC000000 		.4byte	0xbc
ARM GAS  C:\Users\SNFU\AppData\Local\Temp\cc2qKFEC.s 			page 93


 4247 0dc4 01       		.byte	0x1
 4248 0dc5 05       		.byte	0x5
 4249 0dc6 03       		.byte	0x3
 4250 0dc7 00000000 		.4byte	K_1_Theta
 4251 0dcb 1E       		.uleb128 0x1e
 4252 0dcc 04020000 		.4byte	.LASF231
 4253 0dd0 05       		.byte	0x5
 4254 0dd1 7A       		.byte	0x7a
 4255 0dd2 BC000000 		.4byte	0xbc
 4256 0dd6 01       		.byte	0x1
 4257 0dd7 05       		.byte	0x5
 4258 0dd8 03       		.byte	0x3
 4259 0dd9 00000000 		.4byte	p_bias
 4260 0ddd 1E       		.uleb128 0x1e
 4261 0dde 02030000 		.4byte	.LASF232
 4262 0de2 05       		.byte	0x5
 4263 0de3 7B       		.byte	0x7b
 4264 0de4 BC000000 		.4byte	0xbc
 4265 0de8 01       		.byte	0x1
 4266 0de9 05       		.byte	0x5
 4267 0dea 03       		.byte	0x3
 4268 0deb 00000000 		.4byte	P_00_Phi
 4269 0def 1E       		.uleb128 0x1e
 4270 0df0 46080000 		.4byte	.LASF233
 4271 0df4 05       		.byte	0x5
 4272 0df5 7B       		.byte	0x7b
 4273 0df6 BC000000 		.4byte	0xbc
 4274 0dfa 01       		.byte	0x1
 4275 0dfb 05       		.byte	0x5
 4276 0dfc 03       		.byte	0x3
 4277 0dfd 00000000 		.4byte	P_01_Phi
 4278 0e01 1E       		.uleb128 0x1e
 4279 0e02 0C050000 		.4byte	.LASF234
 4280 0e06 05       		.byte	0x5
 4281 0e07 7B       		.byte	0x7b
 4282 0e08 BC000000 		.4byte	0xbc
 4283 0e0c 01       		.byte	0x1
 4284 0e0d 05       		.byte	0x5
 4285 0e0e 03       		.byte	0x3
 4286 0e0f 00000000 		.4byte	P_10_Phi
 4287 0e13 1E       		.uleb128 0x1e
 4288 0e14 82020000 		.4byte	.LASF235
 4289 0e18 05       		.byte	0x5
 4290 0e19 7B       		.byte	0x7b
 4291 0e1a BC000000 		.4byte	0xbc
 4292 0e1e 01       		.byte	0x1
 4293 0e1f 05       		.byte	0x5
 4294 0e20 03       		.byte	0x3
 4295 0e21 00000000 		.4byte	P_11_Phi
 4296 0e25 1E       		.uleb128 0x1e
 4297 0e26 870B0000 		.4byte	.LASF236
 4298 0e2a 05       		.byte	0x5
 4299 0e2b 7C       		.byte	0x7c
 4300 0e2c BC000000 		.4byte	0xbc
 4301 0e30 01       		.byte	0x1
 4302 0e31 05       		.byte	0x5
 4303 0e32 03       		.byte	0x3
ARM GAS  C:\Users\SNFU\AppData\Local\Temp\cc2qKFEC.s 			page 94


 4304 0e33 00000000 		.4byte	Phi_temp
 4305 0e37 1E       		.uleb128 0x1e
 4306 0e38 5E040000 		.4byte	.LASF237
 4307 0e3c 05       		.byte	0x5
 4308 0e3d 7C       		.byte	0x7c
 4309 0e3e BC000000 		.4byte	0xbc
 4310 0e42 01       		.byte	0x1
 4311 0e43 05       		.byte	0x5
 4312 0e44 03       		.byte	0x3
 4313 0e45 00000000 		.4byte	S_Phi
 4314 0e49 1E       		.uleb128 0x1e
 4315 0e4a 67000000 		.4byte	.LASF238
 4316 0e4e 05       		.byte	0x5
 4317 0e4f 7C       		.byte	0x7c
 4318 0e50 BC000000 		.4byte	0xbc
 4319 0e54 01       		.byte	0x1
 4320 0e55 05       		.byte	0x5
 4321 0e56 03       		.byte	0x3
 4322 0e57 00000000 		.4byte	K_0_Phi
 4323 0e5b 1E       		.uleb128 0x1e
 4324 0e5c 040F0000 		.4byte	.LASF239
 4325 0e60 05       		.byte	0x5
 4326 0e61 7C       		.byte	0x7c
 4327 0e62 BC000000 		.4byte	0xbc
 4328 0e66 01       		.byte	0x1
 4329 0e67 05       		.byte	0x5
 4330 0e68 03       		.byte	0x3
 4331 0e69 00000000 		.4byte	K_1_Phi
 4332 0e6d 1E       		.uleb128 0x1e
 4333 0e6e ED020000 		.4byte	.LASF240
 4334 0e72 05       		.byte	0x5
 4335 0e73 81       		.byte	0x81
 4336 0e74 13010000 		.4byte	0x113
 4337 0e78 01       		.byte	0x1
 4338 0e79 05       		.byte	0x5
 4339 0e7a 03       		.byte	0x3
 4340 0e7b 00000000 		.4byte	mavlink_system
 4341 0e7f 1E       		.uleb128 0x1e
 4342 0e80 5B000000 		.4byte	.LASF241
 4343 0e84 05       		.byte	0x5
 4344 0e85 83       		.byte	0x83
 4345 0e86 30000000 		.4byte	0x30
 4346 0e8a 01       		.byte	0x1
 4347 0e8b 05       		.byte	0x5
 4348 0e8c 03       		.byte	0x3
 4349 0e8d 00000000 		.4byte	system_type
 4350 0e91 1E       		.uleb128 0x1e
 4351 0e92 7E040000 		.4byte	.LASF242
 4352 0e96 05       		.byte	0x5
 4353 0e97 84       		.byte	0x84
 4354 0e98 30000000 		.4byte	0x30
 4355 0e9c 01       		.byte	0x1
 4356 0e9d 05       		.byte	0x5
 4357 0e9e 03       		.byte	0x3
 4358 0e9f 00000000 		.4byte	autopilot_type
 4359 0ea3 1E       		.uleb128 0x1e
 4360 0ea4 0F010000 		.4byte	.LASF243
ARM GAS  C:\Users\SNFU\AppData\Local\Temp\cc2qKFEC.s 			page 95


 4361 0ea8 05       		.byte	0x5
 4362 0ea9 86       		.byte	0x86
 4363 0eaa 30000000 		.4byte	0x30
 4364 0eae 01       		.byte	0x1
 4365 0eaf 05       		.byte	0x5
 4366 0eb0 03       		.byte	0x3
 4367 0eb1 00000000 		.4byte	system_mode
 4368 0eb5 1E       		.uleb128 0x1e
 4369 0eb6 2C050000 		.4byte	.LASF130
 4370 0eba 05       		.byte	0x5
 4371 0ebb 87       		.byte	0x87
 4372 0ebc 78000000 		.4byte	0x78
 4373 0ec0 01       		.byte	0x1
 4374 0ec1 05       		.byte	0x5
 4375 0ec2 03       		.byte	0x3
 4376 0ec3 00000000 		.4byte	custom_mode
 4377 0ec7 1E       		.uleb128 0x1e
 4378 0ec8 4B030000 		.4byte	.LASF244
 4379 0ecc 05       		.byte	0x5
 4380 0ecd 88       		.byte	0x88
 4381 0ece 30000000 		.4byte	0x30
 4382 0ed2 01       		.byte	0x1
 4383 0ed3 05       		.byte	0x5
 4384 0ed4 03       		.byte	0x3
 4385 0ed5 00000000 		.4byte	system_state
 4386 0ed9 20       		.uleb128 0x20
 4387 0eda 6D736700 		.ascii	"msg\000"
 4388 0ede 05       		.byte	0x5
 4389 0edf 8B       		.byte	0x8b
 4390 0ee0 AC010000 		.4byte	0x1ac
 4391 0ee4 01       		.byte	0x1
 4392 0ee5 05       		.byte	0x5
 4393 0ee6 03       		.byte	0x3
 4394 0ee7 00000000 		.4byte	msg
 4395 0eeb 0B       		.uleb128 0xb
 4396 0eec 30000000 		.4byte	0x30
 4397 0ef0 FC0E0000 		.4byte	0xefc
 4398 0ef4 21       		.uleb128 0x21
 4399 0ef5 D1000000 		.4byte	0xd1
 4400 0ef9 0601     		.2byte	0x106
 4401 0efb 00       		.byte	0
 4402 0efc 20       		.uleb128 0x20
 4403 0efd 62756600 		.ascii	"buf\000"
 4404 0f01 05       		.byte	0x5
 4405 0f02 8C       		.byte	0x8c
 4406 0f03 EB0E0000 		.4byte	0xeeb
 4407 0f07 01       		.byte	0x1
 4408 0f08 05       		.byte	0x5
 4409 0f09 03       		.byte	0x3
 4410 0f0a 00000000 		.4byte	buf
 4411 0f0e 1E       		.uleb128 0x1e
 4412 0f0f 3B0B0000 		.4byte	.LASF245
 4413 0f13 05       		.byte	0x5
 4414 0f14 8E       		.byte	0x8e
 4415 0f15 30000000 		.4byte	0x30
 4416 0f19 01       		.byte	0x1
 4417 0f1a 05       		.byte	0x5
ARM GAS  C:\Users\SNFU\AppData\Local\Temp\cc2qKFEC.s 			page 96


 4418 0f1b 03       		.byte	0x3
 4419 0f1c 00000000 		.4byte	cnt_ML_HEARTBEAT_send
 4420 0f20 1E       		.uleb128 0x1e
 4421 0f21 CB010000 		.4byte	.LASF246
 4422 0f25 05       		.byte	0x5
 4423 0f26 8F       		.byte	0x8f
 4424 0f27 30000000 		.4byte	0x30
 4425 0f2b 01       		.byte	0x1
 4426 0f2c 05       		.byte	0x5
 4427 0f2d 03       		.byte	0x3
 4428 0f2e 00000000 		.4byte	cnt_ML_ATTITUDE_send
 4429 0f32 00       		.byte	0
 4430              		.section	.debug_abbrev,"",%progbits
 4431              	.Ldebug_abbrev0:
 4432 0000 01       		.uleb128 0x1
 4433 0001 11       		.uleb128 0x11
 4434 0002 01       		.byte	0x1
 4435 0003 25       		.uleb128 0x25
 4436 0004 0E       		.uleb128 0xe
 4437 0005 13       		.uleb128 0x13
 4438 0006 0B       		.uleb128 0xb
 4439 0007 03       		.uleb128 0x3
 4440 0008 0E       		.uleb128 0xe
 4441 0009 1B       		.uleb128 0x1b
 4442 000a 0E       		.uleb128 0xe
 4443 000b 55       		.uleb128 0x55
 4444 000c 06       		.uleb128 0x6
 4445 000d 11       		.uleb128 0x11
 4446 000e 01       		.uleb128 0x1
 4447 000f 52       		.uleb128 0x52
 4448 0010 01       		.uleb128 0x1
 4449 0011 10       		.uleb128 0x10
 4450 0012 06       		.uleb128 0x6
 4451 0013 00       		.byte	0
 4452 0014 00       		.byte	0
 4453 0015 02       		.uleb128 0x2
 4454 0016 24       		.uleb128 0x24
 4455 0017 00       		.byte	0
 4456 0018 0B       		.uleb128 0xb
 4457 0019 0B       		.uleb128 0xb
 4458 001a 3E       		.uleb128 0x3e
 4459 001b 0B       		.uleb128 0xb
 4460 001c 03       		.uleb128 0x3
 4461 001d 0E       		.uleb128 0xe
 4462 001e 00       		.byte	0
 4463 001f 00       		.byte	0
 4464 0020 03       		.uleb128 0x3
 4465 0021 16       		.uleb128 0x16
 4466 0022 00       		.byte	0
 4467 0023 03       		.uleb128 0x3
 4468 0024 0E       		.uleb128 0xe
 4469 0025 3A       		.uleb128 0x3a
 4470 0026 0B       		.uleb128 0xb
 4471 0027 3B       		.uleb128 0x3b
 4472 0028 0B       		.uleb128 0xb
 4473 0029 49       		.uleb128 0x49
 4474 002a 13       		.uleb128 0x13
ARM GAS  C:\Users\SNFU\AppData\Local\Temp\cc2qKFEC.s 			page 97


 4475 002b 00       		.byte	0
 4476 002c 00       		.byte	0
 4477 002d 04       		.uleb128 0x4
 4478 002e 24       		.uleb128 0x24
 4479 002f 00       		.byte	0
 4480 0030 0B       		.uleb128 0xb
 4481 0031 0B       		.uleb128 0xb
 4482 0032 3E       		.uleb128 0x3e
 4483 0033 0B       		.uleb128 0xb
 4484 0034 03       		.uleb128 0x3
 4485 0035 08       		.uleb128 0x8
 4486 0036 00       		.byte	0
 4487 0037 00       		.byte	0
 4488 0038 05       		.uleb128 0x5
 4489 0039 0F       		.uleb128 0xf
 4490 003a 00       		.byte	0
 4491 003b 0B       		.uleb128 0xb
 4492 003c 0B       		.uleb128 0xb
 4493 003d 49       		.uleb128 0x49
 4494 003e 13       		.uleb128 0x13
 4495 003f 00       		.byte	0
 4496 0040 00       		.byte	0
 4497 0041 06       		.uleb128 0x6
 4498 0042 26       		.uleb128 0x26
 4499 0043 00       		.byte	0
 4500 0044 49       		.uleb128 0x49
 4501 0045 13       		.uleb128 0x13
 4502 0046 00       		.byte	0
 4503 0047 00       		.byte	0
 4504 0048 07       		.uleb128 0x7
 4505 0049 13       		.uleb128 0x13
 4506 004a 01       		.byte	0x1
 4507 004b 03       		.uleb128 0x3
 4508 004c 0E       		.uleb128 0xe
 4509 004d 0B       		.uleb128 0xb
 4510 004e 0B       		.uleb128 0xb
 4511 004f 3A       		.uleb128 0x3a
 4512 0050 0B       		.uleb128 0xb
 4513 0051 3B       		.uleb128 0x3b
 4514 0052 0B       		.uleb128 0xb
 4515 0053 01       		.uleb128 0x1
 4516 0054 13       		.uleb128 0x13
 4517 0055 00       		.byte	0
 4518 0056 00       		.byte	0
 4519 0057 08       		.uleb128 0x8
 4520 0058 0D       		.uleb128 0xd
 4521 0059 00       		.byte	0
 4522 005a 03       		.uleb128 0x3
 4523 005b 0E       		.uleb128 0xe
 4524 005c 3A       		.uleb128 0x3a
 4525 005d 0B       		.uleb128 0xb
 4526 005e 3B       		.uleb128 0x3b
 4527 005f 0B       		.uleb128 0xb
 4528 0060 49       		.uleb128 0x49
 4529 0061 13       		.uleb128 0x13
 4530 0062 38       		.uleb128 0x38
 4531 0063 0A       		.uleb128 0xa
ARM GAS  C:\Users\SNFU\AppData\Local\Temp\cc2qKFEC.s 			page 98


 4532 0064 00       		.byte	0
 4533 0065 00       		.byte	0
 4534 0066 09       		.uleb128 0x9
 4535 0067 13       		.uleb128 0x13
 4536 0068 01       		.byte	0x1
 4537 0069 03       		.uleb128 0x3
 4538 006a 0E       		.uleb128 0xe
 4539 006b 0B       		.uleb128 0xb
 4540 006c 05       		.uleb128 0x5
 4541 006d 3A       		.uleb128 0x3a
 4542 006e 0B       		.uleb128 0xb
 4543 006f 3B       		.uleb128 0x3b
 4544 0070 0B       		.uleb128 0xb
 4545 0071 01       		.uleb128 0x1
 4546 0072 13       		.uleb128 0x13
 4547 0073 00       		.byte	0
 4548 0074 00       		.byte	0
 4549 0075 0A       		.uleb128 0xa
 4550 0076 0D       		.uleb128 0xd
 4551 0077 00       		.byte	0
 4552 0078 03       		.uleb128 0x3
 4553 0079 08       		.uleb128 0x8
 4554 007a 3A       		.uleb128 0x3a
 4555 007b 0B       		.uleb128 0xb
 4556 007c 3B       		.uleb128 0x3b
 4557 007d 0B       		.uleb128 0xb
 4558 007e 49       		.uleb128 0x49
 4559 007f 13       		.uleb128 0x13
 4560 0080 38       		.uleb128 0x38
 4561 0081 0A       		.uleb128 0xa
 4562 0082 00       		.byte	0
 4563 0083 00       		.byte	0
 4564 0084 0B       		.uleb128 0xb
 4565 0085 01       		.uleb128 0x1
 4566 0086 01       		.byte	0x1
 4567 0087 49       		.uleb128 0x49
 4568 0088 13       		.uleb128 0x13
 4569 0089 01       		.uleb128 0x1
 4570 008a 13       		.uleb128 0x13
 4571 008b 00       		.byte	0
 4572 008c 00       		.byte	0
 4573 008d 0C       		.uleb128 0xc
 4574 008e 21       		.uleb128 0x21
 4575 008f 00       		.byte	0
 4576 0090 49       		.uleb128 0x49
 4577 0091 13       		.uleb128 0x13
 4578 0092 2F       		.uleb128 0x2f
 4579 0093 0B       		.uleb128 0xb
 4580 0094 00       		.byte	0
 4581 0095 00       		.byte	0
 4582 0096 0D       		.uleb128 0xd
 4583 0097 04       		.uleb128 0x4
 4584 0098 01       		.byte	0x1
 4585 0099 0B       		.uleb128 0xb
 4586 009a 0B       		.uleb128 0xb
 4587 009b 3A       		.uleb128 0x3a
 4588 009c 0B       		.uleb128 0xb
ARM GAS  C:\Users\SNFU\AppData\Local\Temp\cc2qKFEC.s 			page 99


 4589 009d 3B       		.uleb128 0x3b
 4590 009e 0B       		.uleb128 0xb
 4591 009f 01       		.uleb128 0x1
 4592 00a0 13       		.uleb128 0x13
 4593 00a1 00       		.byte	0
 4594 00a2 00       		.byte	0
 4595 00a3 0E       		.uleb128 0xe
 4596 00a4 28       		.uleb128 0x28
 4597 00a5 00       		.byte	0
 4598 00a6 03       		.uleb128 0x3
 4599 00a7 0E       		.uleb128 0xe
 4600 00a8 1C       		.uleb128 0x1c
 4601 00a9 0D       		.uleb128 0xd
 4602 00aa 00       		.byte	0
 4603 00ab 00       		.byte	0
 4604 00ac 0F       		.uleb128 0xf
 4605 00ad 04       		.uleb128 0x4
 4606 00ae 01       		.byte	0x1
 4607 00af 03       		.uleb128 0x3
 4608 00b0 0E       		.uleb128 0xe
 4609 00b1 0B       		.uleb128 0xb
 4610 00b2 0B       		.uleb128 0xb
 4611 00b3 3A       		.uleb128 0x3a
 4612 00b4 0B       		.uleb128 0xb
 4613 00b5 3B       		.uleb128 0x3b
 4614 00b6 0B       		.uleb128 0xb
 4615 00b7 01       		.uleb128 0x1
 4616 00b8 13       		.uleb128 0x13
 4617 00b9 00       		.byte	0
 4618 00ba 00       		.byte	0
 4619 00bb 10       		.uleb128 0x10
 4620 00bc 2E       		.uleb128 0x2e
 4621 00bd 01       		.byte	0x1
 4622 00be 03       		.uleb128 0x3
 4623 00bf 0E       		.uleb128 0xe
 4624 00c0 3A       		.uleb128 0x3a
 4625 00c1 0B       		.uleb128 0xb
 4626 00c2 3B       		.uleb128 0x3b
 4627 00c3 0B       		.uleb128 0xb
 4628 00c4 27       		.uleb128 0x27
 4629 00c5 0C       		.uleb128 0xc
 4630 00c6 11       		.uleb128 0x11
 4631 00c7 01       		.uleb128 0x1
 4632 00c8 12       		.uleb128 0x12
 4633 00c9 01       		.uleb128 0x1
 4634 00ca 40       		.uleb128 0x40
 4635 00cb 06       		.uleb128 0x6
 4636 00cc 9742     		.uleb128 0x2117
 4637 00ce 0C       		.uleb128 0xc
 4638 00cf 01       		.uleb128 0x1
 4639 00d0 13       		.uleb128 0x13
 4640 00d1 00       		.byte	0
 4641 00d2 00       		.byte	0
 4642 00d3 11       		.uleb128 0x11
 4643 00d4 05       		.uleb128 0x5
 4644 00d5 00       		.byte	0
 4645 00d6 03       		.uleb128 0x3
ARM GAS  C:\Users\SNFU\AppData\Local\Temp\cc2qKFEC.s 			page 100


 4646 00d7 0E       		.uleb128 0xe
 4647 00d8 3A       		.uleb128 0x3a
 4648 00d9 0B       		.uleb128 0xb
 4649 00da 3B       		.uleb128 0x3b
 4650 00db 0B       		.uleb128 0xb
 4651 00dc 49       		.uleb128 0x49
 4652 00dd 13       		.uleb128 0x13
 4653 00de 02       		.uleb128 0x2
 4654 00df 0A       		.uleb128 0xa
 4655 00e0 00       		.byte	0
 4656 00e1 00       		.byte	0
 4657 00e2 12       		.uleb128 0x12
 4658 00e3 34       		.uleb128 0x34
 4659 00e4 00       		.byte	0
 4660 00e5 03       		.uleb128 0x3
 4661 00e6 08       		.uleb128 0x8
 4662 00e7 3A       		.uleb128 0x3a
 4663 00e8 0B       		.uleb128 0xb
 4664 00e9 3B       		.uleb128 0x3b
 4665 00ea 0B       		.uleb128 0xb
 4666 00eb 49       		.uleb128 0x49
 4667 00ec 13       		.uleb128 0x13
 4668 00ed 02       		.uleb128 0x2
 4669 00ee 0A       		.uleb128 0xa
 4670 00ef 00       		.byte	0
 4671 00f0 00       		.byte	0
 4672 00f1 13       		.uleb128 0x13
 4673 00f2 2E       		.uleb128 0x2e
 4674 00f3 01       		.byte	0x1
 4675 00f4 03       		.uleb128 0x3
 4676 00f5 0E       		.uleb128 0xe
 4677 00f6 3A       		.uleb128 0x3a
 4678 00f7 0B       		.uleb128 0xb
 4679 00f8 3B       		.uleb128 0x3b
 4680 00f9 0B       		.uleb128 0xb
 4681 00fa 27       		.uleb128 0x27
 4682 00fb 0C       		.uleb128 0xc
 4683 00fc 49       		.uleb128 0x49
 4684 00fd 13       		.uleb128 0x13
 4685 00fe 11       		.uleb128 0x11
 4686 00ff 01       		.uleb128 0x1
 4687 0100 12       		.uleb128 0x12
 4688 0101 01       		.uleb128 0x1
 4689 0102 40       		.uleb128 0x40
 4690 0103 06       		.uleb128 0x6
 4691 0104 9642     		.uleb128 0x2116
 4692 0106 0C       		.uleb128 0xc
 4693 0107 01       		.uleb128 0x1
 4694 0108 13       		.uleb128 0x13
 4695 0109 00       		.byte	0
 4696 010a 00       		.byte	0
 4697 010b 14       		.uleb128 0x14
 4698 010c 34       		.uleb128 0x34
 4699 010d 00       		.byte	0
 4700 010e 03       		.uleb128 0x3
 4701 010f 0E       		.uleb128 0xe
 4702 0110 3A       		.uleb128 0x3a
ARM GAS  C:\Users\SNFU\AppData\Local\Temp\cc2qKFEC.s 			page 101


 4703 0111 0B       		.uleb128 0xb
 4704 0112 3B       		.uleb128 0x3b
 4705 0113 0B       		.uleb128 0xb
 4706 0114 49       		.uleb128 0x49
 4707 0115 13       		.uleb128 0x13
 4708 0116 02       		.uleb128 0x2
 4709 0117 0A       		.uleb128 0xa
 4710 0118 00       		.byte	0
 4711 0119 00       		.byte	0
 4712 011a 15       		.uleb128 0x15
 4713 011b 2E       		.uleb128 0x2e
 4714 011c 01       		.byte	0x1
 4715 011d 03       		.uleb128 0x3
 4716 011e 0E       		.uleb128 0xe
 4717 011f 3A       		.uleb128 0x3a
 4718 0120 0B       		.uleb128 0xb
 4719 0121 3B       		.uleb128 0x3b
 4720 0122 0B       		.uleb128 0xb
 4721 0123 27       		.uleb128 0x27
 4722 0124 0C       		.uleb128 0xc
 4723 0125 11       		.uleb128 0x11
 4724 0126 01       		.uleb128 0x1
 4725 0127 12       		.uleb128 0x12
 4726 0128 01       		.uleb128 0x1
 4727 0129 40       		.uleb128 0x40
 4728 012a 06       		.uleb128 0x6
 4729 012b 9642     		.uleb128 0x2116
 4730 012d 0C       		.uleb128 0xc
 4731 012e 01       		.uleb128 0x1
 4732 012f 13       		.uleb128 0x13
 4733 0130 00       		.byte	0
 4734 0131 00       		.byte	0
 4735 0132 16       		.uleb128 0x16
 4736 0133 2E       		.uleb128 0x2e
 4737 0134 01       		.byte	0x1
 4738 0135 03       		.uleb128 0x3
 4739 0136 0E       		.uleb128 0xe
 4740 0137 3A       		.uleb128 0x3a
 4741 0138 0B       		.uleb128 0xb
 4742 0139 3B       		.uleb128 0x3b
 4743 013a 0B       		.uleb128 0xb
 4744 013b 27       		.uleb128 0x27
 4745 013c 0C       		.uleb128 0xc
 4746 013d 49       		.uleb128 0x49
 4747 013e 13       		.uleb128 0x13
 4748 013f 11       		.uleb128 0x11
 4749 0140 01       		.uleb128 0x1
 4750 0141 12       		.uleb128 0x12
 4751 0142 01       		.uleb128 0x1
 4752 0143 40       		.uleb128 0x40
 4753 0144 06       		.uleb128 0x6
 4754 0145 9742     		.uleb128 0x2117
 4755 0147 0C       		.uleb128 0xc
 4756 0148 01       		.uleb128 0x1
 4757 0149 13       		.uleb128 0x13
 4758 014a 00       		.byte	0
 4759 014b 00       		.byte	0
ARM GAS  C:\Users\SNFU\AppData\Local\Temp\cc2qKFEC.s 			page 102


 4760 014c 17       		.uleb128 0x17
 4761 014d 05       		.uleb128 0x5
 4762 014e 00       		.byte	0
 4763 014f 03       		.uleb128 0x3
 4764 0150 08       		.uleb128 0x8
 4765 0151 3A       		.uleb128 0x3a
 4766 0152 0B       		.uleb128 0xb
 4767 0153 3B       		.uleb128 0x3b
 4768 0154 0B       		.uleb128 0xb
 4769 0155 49       		.uleb128 0x49
 4770 0156 13       		.uleb128 0x13
 4771 0157 02       		.uleb128 0x2
 4772 0158 0A       		.uleb128 0xa
 4773 0159 00       		.byte	0
 4774 015a 00       		.byte	0
 4775 015b 18       		.uleb128 0x18
 4776 015c 2E       		.uleb128 0x2e
 4777 015d 01       		.byte	0x1
 4778 015e 3F       		.uleb128 0x3f
 4779 015f 0C       		.uleb128 0xc
 4780 0160 03       		.uleb128 0x3
 4781 0161 0E       		.uleb128 0xe
 4782 0162 3A       		.uleb128 0x3a
 4783 0163 0B       		.uleb128 0xb
 4784 0164 3B       		.uleb128 0x3b
 4785 0165 0B       		.uleb128 0xb
 4786 0166 27       		.uleb128 0x27
 4787 0167 0C       		.uleb128 0xc
 4788 0168 11       		.uleb128 0x11
 4789 0169 01       		.uleb128 0x1
 4790 016a 12       		.uleb128 0x12
 4791 016b 01       		.uleb128 0x1
 4792 016c 40       		.uleb128 0x40
 4793 016d 06       		.uleb128 0x6
 4794 016e 9642     		.uleb128 0x2116
 4795 0170 0C       		.uleb128 0xc
 4796 0171 01       		.uleb128 0x1
 4797 0172 13       		.uleb128 0x13
 4798 0173 00       		.byte	0
 4799 0174 00       		.byte	0
 4800 0175 19       		.uleb128 0x19
 4801 0176 2E       		.uleb128 0x2e
 4802 0177 01       		.byte	0x1
 4803 0178 3F       		.uleb128 0x3f
 4804 0179 0C       		.uleb128 0xc
 4805 017a 03       		.uleb128 0x3
 4806 017b 0E       		.uleb128 0xe
 4807 017c 3A       		.uleb128 0x3a
 4808 017d 0B       		.uleb128 0xb
 4809 017e 3B       		.uleb128 0x3b
 4810 017f 0B       		.uleb128 0xb
 4811 0180 49       		.uleb128 0x49
 4812 0181 13       		.uleb128 0x13
 4813 0182 11       		.uleb128 0x11
 4814 0183 01       		.uleb128 0x1
 4815 0184 12       		.uleb128 0x12
 4816 0185 01       		.uleb128 0x1
ARM GAS  C:\Users\SNFU\AppData\Local\Temp\cc2qKFEC.s 			page 103


 4817 0186 40       		.uleb128 0x40
 4818 0187 06       		.uleb128 0x6
 4819 0188 9642     		.uleb128 0x2116
 4820 018a 0C       		.uleb128 0xc
 4821 018b 01       		.uleb128 0x1
 4822 018c 13       		.uleb128 0x13
 4823 018d 00       		.byte	0
 4824 018e 00       		.byte	0
 4825 018f 1A       		.uleb128 0x1a
 4826 0190 0B       		.uleb128 0xb
 4827 0191 01       		.byte	0x1
 4828 0192 11       		.uleb128 0x11
 4829 0193 01       		.uleb128 0x1
 4830 0194 12       		.uleb128 0x12
 4831 0195 01       		.uleb128 0x1
 4832 0196 00       		.byte	0
 4833 0197 00       		.byte	0
 4834 0198 1B       		.uleb128 0x1b
 4835 0199 34       		.uleb128 0x34
 4836 019a 00       		.byte	0
 4837 019b 03       		.uleb128 0x3
 4838 019c 0E       		.uleb128 0xe
 4839 019d 3A       		.uleb128 0x3a
 4840 019e 0B       		.uleb128 0xb
 4841 019f 3B       		.uleb128 0x3b
 4842 01a0 05       		.uleb128 0x5
 4843 01a1 49       		.uleb128 0x49
 4844 01a2 13       		.uleb128 0x13
 4845 01a3 02       		.uleb128 0x2
 4846 01a4 0A       		.uleb128 0xa
 4847 01a5 00       		.byte	0
 4848 01a6 00       		.byte	0
 4849 01a7 1C       		.uleb128 0x1c
 4850 01a8 0B       		.uleb128 0xb
 4851 01a9 01       		.byte	0x1
 4852 01aa 11       		.uleb128 0x11
 4853 01ab 01       		.uleb128 0x1
 4854 01ac 12       		.uleb128 0x12
 4855 01ad 01       		.uleb128 0x1
 4856 01ae 01       		.uleb128 0x1
 4857 01af 13       		.uleb128 0x13
 4858 01b0 00       		.byte	0
 4859 01b1 00       		.byte	0
 4860 01b2 1D       		.uleb128 0x1d
 4861 01b3 34       		.uleb128 0x34
 4862 01b4 00       		.byte	0
 4863 01b5 03       		.uleb128 0x3
 4864 01b6 08       		.uleb128 0x8
 4865 01b7 3A       		.uleb128 0x3a
 4866 01b8 0B       		.uleb128 0xb
 4867 01b9 3B       		.uleb128 0x3b
 4868 01ba 05       		.uleb128 0x5
 4869 01bb 49       		.uleb128 0x49
 4870 01bc 13       		.uleb128 0x13
 4871 01bd 02       		.uleb128 0x2
 4872 01be 0A       		.uleb128 0xa
 4873 01bf 00       		.byte	0
ARM GAS  C:\Users\SNFU\AppData\Local\Temp\cc2qKFEC.s 			page 104


 4874 01c0 00       		.byte	0
 4875 01c1 1E       		.uleb128 0x1e
 4876 01c2 34       		.uleb128 0x34
 4877 01c3 00       		.byte	0
 4878 01c4 03       		.uleb128 0x3
 4879 01c5 0E       		.uleb128 0xe
 4880 01c6 3A       		.uleb128 0x3a
 4881 01c7 0B       		.uleb128 0xb
 4882 01c8 3B       		.uleb128 0x3b
 4883 01c9 0B       		.uleb128 0xb
 4884 01ca 49       		.uleb128 0x49
 4885 01cb 13       		.uleb128 0x13
 4886 01cc 3F       		.uleb128 0x3f
 4887 01cd 0C       		.uleb128 0xc
 4888 01ce 02       		.uleb128 0x2
 4889 01cf 0A       		.uleb128 0xa
 4890 01d0 00       		.byte	0
 4891 01d1 00       		.byte	0
 4892 01d2 1F       		.uleb128 0x1f
 4893 01d3 35       		.uleb128 0x35
 4894 01d4 00       		.byte	0
 4895 01d5 49       		.uleb128 0x49
 4896 01d6 13       		.uleb128 0x13
 4897 01d7 00       		.byte	0
 4898 01d8 00       		.byte	0
 4899 01d9 20       		.uleb128 0x20
 4900 01da 34       		.uleb128 0x34
 4901 01db 00       		.byte	0
 4902 01dc 03       		.uleb128 0x3
 4903 01dd 08       		.uleb128 0x8
 4904 01de 3A       		.uleb128 0x3a
 4905 01df 0B       		.uleb128 0xb
 4906 01e0 3B       		.uleb128 0x3b
 4907 01e1 0B       		.uleb128 0xb
 4908 01e2 49       		.uleb128 0x49
 4909 01e3 13       		.uleb128 0x13
 4910 01e4 3F       		.uleb128 0x3f
 4911 01e5 0C       		.uleb128 0xc
 4912 01e6 02       		.uleb128 0x2
 4913 01e7 0A       		.uleb128 0xa
 4914 01e8 00       		.byte	0
 4915 01e9 00       		.byte	0
 4916 01ea 21       		.uleb128 0x21
 4917 01eb 21       		.uleb128 0x21
 4918 01ec 00       		.byte	0
 4919 01ed 49       		.uleb128 0x49
 4920 01ee 13       		.uleb128 0x13
 4921 01ef 2F       		.uleb128 0x2f
 4922 01f0 05       		.uleb128 0x5
 4923 01f1 00       		.byte	0
 4924 01f2 00       		.byte	0
 4925 01f3 00       		.byte	0
 4926              		.section	.debug_loc,"",%progbits
 4927              	.Ldebug_loc0:
 4928              	.LLST0:
 4929 0000 00000000 		.4byte	.LFB33
 4930 0004 02000000 		.4byte	.LCFI0
ARM GAS  C:\Users\SNFU\AppData\Local\Temp\cc2qKFEC.s 			page 105


 4931 0008 0200     		.2byte	0x2
 4932 000a 7D       		.byte	0x7d
 4933 000b 00       		.sleb128 0
 4934 000c 02000000 		.4byte	.LCFI0
 4935 0010 04000000 		.4byte	.LCFI1
 4936 0014 0200     		.2byte	0x2
 4937 0016 7D       		.byte	0x7d
 4938 0017 08       		.sleb128 8
 4939 0018 04000000 		.4byte	.LCFI1
 4940 001c 06000000 		.4byte	.LCFI2
 4941 0020 0200     		.2byte	0x2
 4942 0022 7D       		.byte	0x7d
 4943 0023 18       		.sleb128 24
 4944 0024 06000000 		.4byte	.LCFI2
 4945 0028 7A000000 		.4byte	.LFE33
 4946 002c 0200     		.2byte	0x2
 4947 002e 77       		.byte	0x77
 4948 002f 18       		.sleb128 24
 4949 0030 00000000 		.4byte	0
 4950 0034 00000000 		.4byte	0
 4951              	.LLST1:
 4952 0038 00000000 		.4byte	.LFB34
 4953 003c 02000000 		.4byte	.LCFI3
 4954 0040 0200     		.2byte	0x2
 4955 0042 7D       		.byte	0x7d
 4956 0043 00       		.sleb128 0
 4957 0044 02000000 		.4byte	.LCFI3
 4958 0048 04000000 		.4byte	.LCFI4
 4959 004c 0200     		.2byte	0x2
 4960 004e 7D       		.byte	0x7d
 4961 004f 08       		.sleb128 8
 4962 0050 04000000 		.4byte	.LCFI4
 4963 0054 06000000 		.4byte	.LCFI5
 4964 0058 0200     		.2byte	0x2
 4965 005a 7D       		.byte	0x7d
 4966 005b 10       		.sleb128 16
 4967 005c 06000000 		.4byte	.LCFI5
 4968 0060 16000000 		.4byte	.LFE34
 4969 0064 0200     		.2byte	0x2
 4970 0066 77       		.byte	0x77
 4971 0067 10       		.sleb128 16
 4972 0068 00000000 		.4byte	0
 4973 006c 00000000 		.4byte	0
 4974              	.LLST2:
 4975 0070 00000000 		.4byte	.LFB35
 4976 0074 02000000 		.4byte	.LCFI6
 4977 0078 0200     		.2byte	0x2
 4978 007a 7D       		.byte	0x7d
 4979 007b 00       		.sleb128 0
 4980 007c 02000000 		.4byte	.LCFI6
 4981 0080 04000000 		.4byte	.LCFI7
 4982 0084 0200     		.2byte	0x2
 4983 0086 7D       		.byte	0x7d
 4984 0087 08       		.sleb128 8
 4985 0088 04000000 		.4byte	.LCFI7
 4986 008c 06000000 		.4byte	.LCFI8
 4987 0090 0200     		.2byte	0x2
ARM GAS  C:\Users\SNFU\AppData\Local\Temp\cc2qKFEC.s 			page 106


 4988 0092 7D       		.byte	0x7d
 4989 0093 18       		.sleb128 24
 4990 0094 06000000 		.4byte	.LCFI8
 4991 0098 56000000 		.4byte	.LFE35
 4992 009c 0200     		.2byte	0x2
 4993 009e 77       		.byte	0x77
 4994 009f 18       		.sleb128 24
 4995 00a0 00000000 		.4byte	0
 4996 00a4 00000000 		.4byte	0
 4997              	.LLST3:
 4998 00a8 00000000 		.4byte	.LFB36
 4999 00ac 02000000 		.4byte	.LCFI9
 5000 00b0 0200     		.2byte	0x2
 5001 00b2 7D       		.byte	0x7d
 5002 00b3 00       		.sleb128 0
 5003 00b4 02000000 		.4byte	.LCFI9
 5004 00b8 04000000 		.4byte	.LCFI10
 5005 00bc 0200     		.2byte	0x2
 5006 00be 7D       		.byte	0x7d
 5007 00bf 08       		.sleb128 8
 5008 00c0 04000000 		.4byte	.LCFI10
 5009 00c4 06000000 		.4byte	.LCFI11
 5010 00c8 0200     		.2byte	0x2
 5011 00ca 7D       		.byte	0x7d
 5012 00cb 20       		.sleb128 32
 5013 00cc 06000000 		.4byte	.LCFI11
 5014 00d0 46000000 		.4byte	.LFE36
 5015 00d4 0200     		.2byte	0x2
 5016 00d6 77       		.byte	0x77
 5017 00d7 20       		.sleb128 32
 5018 00d8 00000000 		.4byte	0
 5019 00dc 00000000 		.4byte	0
 5020              	.LLST4:
 5021 00e0 00000000 		.4byte	.LFB43
 5022 00e4 02000000 		.4byte	.LCFI12
 5023 00e8 0200     		.2byte	0x2
 5024 00ea 7D       		.byte	0x7d
 5025 00eb 00       		.sleb128 0
 5026 00ec 02000000 		.4byte	.LCFI12
 5027 00f0 04000000 		.4byte	.LCFI13
 5028 00f4 0200     		.2byte	0x2
 5029 00f6 7D       		.byte	0x7d
 5030 00f7 08       		.sleb128 8
 5031 00f8 04000000 		.4byte	.LCFI13
 5032 00fc 06000000 		.4byte	.LCFI14
 5033 0100 0200     		.2byte	0x2
 5034 0102 7D       		.byte	0x7d
 5035 0103 10       		.sleb128 16
 5036 0104 06000000 		.4byte	.LCFI14
 5037 0108 28000000 		.4byte	.LFE43
 5038 010c 0200     		.2byte	0x2
 5039 010e 77       		.byte	0x77
 5040 010f 10       		.sleb128 16
 5041 0110 00000000 		.4byte	0
 5042 0114 00000000 		.4byte	0
 5043              	.LLST5:
 5044 0118 00000000 		.4byte	.LFB46
ARM GAS  C:\Users\SNFU\AppData\Local\Temp\cc2qKFEC.s 			page 107


 5045 011c 02000000 		.4byte	.LCFI15
 5046 0120 0200     		.2byte	0x2
 5047 0122 7D       		.byte	0x7d
 5048 0123 00       		.sleb128 0
 5049 0124 02000000 		.4byte	.LCFI15
 5050 0128 04000000 		.4byte	.LCFI16
 5051 012c 0200     		.2byte	0x2
 5052 012e 7D       		.byte	0x7d
 5053 012f 0C       		.sleb128 12
 5054 0130 04000000 		.4byte	.LCFI16
 5055 0134 06000000 		.4byte	.LCFI17
 5056 0138 0200     		.2byte	0x2
 5057 013a 7D       		.byte	0x7d
 5058 013b 18       		.sleb128 24
 5059 013c 06000000 		.4byte	.LCFI17
 5060 0140 12010000 		.4byte	.LFE46
 5061 0144 0200     		.2byte	0x2
 5062 0146 77       		.byte	0x77
 5063 0147 18       		.sleb128 24
 5064 0148 00000000 		.4byte	0
 5065 014c 00000000 		.4byte	0
 5066              	.LLST6:
 5067 0150 00000000 		.4byte	.LFB47
 5068 0154 02000000 		.4byte	.LCFI18
 5069 0158 0200     		.2byte	0x2
 5070 015a 7D       		.byte	0x7d
 5071 015b 00       		.sleb128 0
 5072 015c 02000000 		.4byte	.LCFI18
 5073 0160 04000000 		.4byte	.LCFI19
 5074 0164 0200     		.2byte	0x2
 5075 0166 7D       		.byte	0x7d
 5076 0167 08       		.sleb128 8
 5077 0168 04000000 		.4byte	.LCFI19
 5078 016c 06000000 		.4byte	.LCFI20
 5079 0170 0200     		.2byte	0x2
 5080 0172 7D       		.byte	0x7d
 5081 0173 18       		.sleb128 24
 5082 0174 06000000 		.4byte	.LCFI20
 5083 0178 48000000 		.4byte	.LFE47
 5084 017c 0200     		.2byte	0x2
 5085 017e 77       		.byte	0x77
 5086 017f 10       		.sleb128 16
 5087 0180 00000000 		.4byte	0
 5088 0184 00000000 		.4byte	0
 5089              	.LLST7:
 5090 0188 00000000 		.4byte	.LFB48
 5091 018c 02000000 		.4byte	.LCFI21
 5092 0190 0200     		.2byte	0x2
 5093 0192 7D       		.byte	0x7d
 5094 0193 00       		.sleb128 0
 5095 0194 02000000 		.4byte	.LCFI21
 5096 0198 04000000 		.4byte	.LCFI22
 5097 019c 0200     		.2byte	0x2
 5098 019e 7D       		.byte	0x7d
 5099 019f 08       		.sleb128 8
 5100 01a0 04000000 		.4byte	.LCFI22
 5101 01a4 06000000 		.4byte	.LCFI23
ARM GAS  C:\Users\SNFU\AppData\Local\Temp\cc2qKFEC.s 			page 108


 5102 01a8 0200     		.2byte	0x2
 5103 01aa 7D       		.byte	0x7d
 5104 01ab 18       		.sleb128 24
 5105 01ac 06000000 		.4byte	.LCFI23
 5106 01b0 66000000 		.4byte	.LFE48
 5107 01b4 0200     		.2byte	0x2
 5108 01b6 77       		.byte	0x77
 5109 01b7 18       		.sleb128 24
 5110 01b8 00000000 		.4byte	0
 5111 01bc 00000000 		.4byte	0
 5112              	.LLST8:
 5113 01c0 00000000 		.4byte	.LFB85
 5114 01c4 02000000 		.4byte	.LCFI24
 5115 01c8 0200     		.2byte	0x2
 5116 01ca 7D       		.byte	0x7d
 5117 01cb 00       		.sleb128 0
 5118 01cc 02000000 		.4byte	.LCFI24
 5119 01d0 04000000 		.4byte	.LCFI25
 5120 01d4 0200     		.2byte	0x2
 5121 01d6 7D       		.byte	0x7d
 5122 01d7 08       		.sleb128 8
 5123 01d8 04000000 		.4byte	.LCFI25
 5124 01dc 06000000 		.4byte	.LCFI26
 5125 01e0 0200     		.2byte	0x2
 5126 01e2 7D       		.byte	0x7d
 5127 01e3 28       		.sleb128 40
 5128 01e4 06000000 		.4byte	.LCFI26
 5129 01e8 92000000 		.4byte	.LFE85
 5130 01ec 0200     		.2byte	0x2
 5131 01ee 77       		.byte	0x77
 5132 01ef 20       		.sleb128 32
 5133 01f0 00000000 		.4byte	0
 5134 01f4 00000000 		.4byte	0
 5135              	.LLST9:
 5136 01f8 00000000 		.4byte	.LFB272
 5137 01fc 02000000 		.4byte	.LCFI27
 5138 0200 0200     		.2byte	0x2
 5139 0202 7D       		.byte	0x7d
 5140 0203 00       		.sleb128 0
 5141 0204 02000000 		.4byte	.LCFI27
 5142 0208 04000000 		.4byte	.LCFI28
 5143 020c 0200     		.2byte	0x2
 5144 020e 7D       		.byte	0x7d
 5145 020f 08       		.sleb128 8
 5146 0210 04000000 		.4byte	.LCFI28
 5147 0214 06000000 		.4byte	.LCFI29
 5148 0218 0300     		.2byte	0x3
 5149 021a 7D       		.byte	0x7d
 5150 021b C000     		.sleb128 64
 5151 021d 06000000 		.4byte	.LCFI29
 5152 0221 94000000 		.4byte	.LFE272
 5153 0225 0200     		.2byte	0x2
 5154 0227 77       		.byte	0x77
 5155 0228 38       		.sleb128 56
 5156 0229 00000000 		.4byte	0
 5157 022d 00000000 		.4byte	0
 5158              	.LLST10:
ARM GAS  C:\Users\SNFU\AppData\Local\Temp\cc2qKFEC.s 			page 109


 5159 0231 00000000 		.4byte	.LFB1489
 5160 0235 02000000 		.4byte	.LCFI30
 5161 0239 0200     		.2byte	0x2
 5162 023b 7D       		.byte	0x7d
 5163 023c 00       		.sleb128 0
 5164 023d 02000000 		.4byte	.LCFI30
 5165 0241 04000000 		.4byte	.LCFI31
 5166 0245 0200     		.2byte	0x2
 5167 0247 7D       		.byte	0x7d
 5168 0248 08       		.sleb128 8
 5169 0249 04000000 		.4byte	.LCFI31
 5170 024d 06000000 		.4byte	.LCFI32
 5171 0251 0200     		.2byte	0x2
 5172 0253 7D       		.byte	0x7d
 5173 0254 30       		.sleb128 48
 5174 0255 06000000 		.4byte	.LCFI32
 5175 0259 30000000 		.4byte	.LFE1489
 5176 025d 0200     		.2byte	0x2
 5177 025f 77       		.byte	0x77
 5178 0260 30       		.sleb128 48
 5179 0261 00000000 		.4byte	0
 5180 0265 00000000 		.4byte	0
 5181              	.LLST11:
 5182 0269 00000000 		.4byte	.LFB1490
 5183 026d 02000000 		.4byte	.LCFI33
 5184 0271 0200     		.2byte	0x2
 5185 0273 7D       		.byte	0x7d
 5186 0274 00       		.sleb128 0
 5187 0275 02000000 		.4byte	.LCFI33
 5188 0279 04000000 		.4byte	.LCFI34
 5189 027d 0200     		.2byte	0x2
 5190 027f 7D       		.byte	0x7d
 5191 0280 08       		.sleb128 8
 5192 0281 04000000 		.4byte	.LCFI34
 5193 0285 06000000 		.4byte	.LCFI35
 5194 0289 0200     		.2byte	0x2
 5195 028b 7D       		.byte	0x7d
 5196 028c 18       		.sleb128 24
 5197 028d 06000000 		.4byte	.LCFI35
 5198 0291 54000000 		.4byte	.LFE1490
 5199 0295 0200     		.2byte	0x2
 5200 0297 77       		.byte	0x77
 5201 0298 18       		.sleb128 24
 5202 0299 00000000 		.4byte	0
 5203 029d 00000000 		.4byte	0
 5204              	.LLST12:
 5205 02a1 00000000 		.4byte	.LFB1491
 5206 02a5 02000000 		.4byte	.LCFI36
 5207 02a9 0200     		.2byte	0x2
 5208 02ab 7D       		.byte	0x7d
 5209 02ac 00       		.sleb128 0
 5210 02ad 02000000 		.4byte	.LCFI36
 5211 02b1 04000000 		.4byte	.LCFI37
 5212 02b5 0200     		.2byte	0x2
 5213 02b7 7D       		.byte	0x7d
 5214 02b8 14       		.sleb128 20
 5215 02b9 04000000 		.4byte	.LCFI37
ARM GAS  C:\Users\SNFU\AppData\Local\Temp\cc2qKFEC.s 			page 110


 5216 02bd 06000000 		.4byte	.LCFI38
 5217 02c1 0300     		.2byte	0x3
 5218 02c3 7D       		.byte	0x7d
 5219 02c4 C000     		.sleb128 64
 5220 02c6 06000000 		.4byte	.LCFI38
 5221 02ca A8090000 		.4byte	.LFE1491
 5222 02ce 0200     		.2byte	0x2
 5223 02d0 77       		.byte	0x77
 5224 02d1 28       		.sleb128 40
 5225 02d2 00000000 		.4byte	0
 5226 02d6 00000000 		.4byte	0
 5227              		.section	.debug_aranges,"",%progbits
 5228 0000 7C000000 		.4byte	0x7c
 5229 0004 0200     		.2byte	0x2
 5230 0006 00000000 		.4byte	.Ldebug_info0
 5231 000a 04       		.byte	0x4
 5232 000b 00       		.byte	0
 5233 000c 0000     		.2byte	0
 5234 000e 0000     		.2byte	0
 5235 0010 00000000 		.4byte	.LFB33
 5236 0014 7A000000 		.4byte	.LFE33-.LFB33
 5237 0018 00000000 		.4byte	.LFB34
 5238 001c 16000000 		.4byte	.LFE34-.LFB34
 5239 0020 00000000 		.4byte	.LFB35
 5240 0024 56000000 		.4byte	.LFE35-.LFB35
 5241 0028 00000000 		.4byte	.LFB36
 5242 002c 46000000 		.4byte	.LFE36-.LFB36
 5243 0030 00000000 		.4byte	.LFB43
 5244 0034 28000000 		.4byte	.LFE43-.LFB43
 5245 0038 00000000 		.4byte	.LFB46
 5246 003c 12010000 		.4byte	.LFE46-.LFB46
 5247 0040 00000000 		.4byte	.LFB47
 5248 0044 48000000 		.4byte	.LFE47-.LFB47
 5249 0048 00000000 		.4byte	.LFB48
 5250 004c 66000000 		.4byte	.LFE48-.LFB48
 5251 0050 00000000 		.4byte	.LFB85
 5252 0054 92000000 		.4byte	.LFE85-.LFB85
 5253 0058 00000000 		.4byte	.LFB272
 5254 005c 94000000 		.4byte	.LFE272-.LFB272
 5255 0060 00000000 		.4byte	.LFB1489
 5256 0064 30000000 		.4byte	.LFE1489-.LFB1489
 5257 0068 00000000 		.4byte	.LFB1490
 5258 006c 54000000 		.4byte	.LFE1490-.LFB1490
 5259 0070 00000000 		.4byte	.LFB1491
 5260 0074 A8090000 		.4byte	.LFE1491-.LFB1491
 5261 0078 00000000 		.4byte	0
 5262 007c 00000000 		.4byte	0
 5263              		.section	.debug_ranges,"",%progbits
 5264              	.Ldebug_ranges0:
 5265 0000 00000000 		.4byte	.LFB33
 5266 0004 7A000000 		.4byte	.LFE33
 5267 0008 00000000 		.4byte	.LFB34
 5268 000c 16000000 		.4byte	.LFE34
 5269 0010 00000000 		.4byte	.LFB35
 5270 0014 56000000 		.4byte	.LFE35
 5271 0018 00000000 		.4byte	.LFB36
 5272 001c 46000000 		.4byte	.LFE36
ARM GAS  C:\Users\SNFU\AppData\Local\Temp\cc2qKFEC.s 			page 111


 5273 0020 00000000 		.4byte	.LFB43
 5274 0024 28000000 		.4byte	.LFE43
 5275 0028 00000000 		.4byte	.LFB46
 5276 002c 12010000 		.4byte	.LFE46
 5277 0030 00000000 		.4byte	.LFB47
 5278 0034 48000000 		.4byte	.LFE47
 5279 0038 00000000 		.4byte	.LFB48
 5280 003c 66000000 		.4byte	.LFE48
 5281 0040 00000000 		.4byte	.LFB85
 5282 0044 92000000 		.4byte	.LFE85
 5283 0048 00000000 		.4byte	.LFB272
 5284 004c 94000000 		.4byte	.LFE272
 5285 0050 00000000 		.4byte	.LFB1489
 5286 0054 30000000 		.4byte	.LFE1489
 5287 0058 00000000 		.4byte	.LFB1490
 5288 005c 54000000 		.4byte	.LFE1490
 5289 0060 00000000 		.4byte	.LFB1491
 5290 0064 A8090000 		.4byte	.LFE1491
 5291 0068 00000000 		.4byte	0
 5292 006c 00000000 		.4byte	0
 5293              		.section	.debug_line,"",%progbits
 5294              	.Ldebug_line0:
 5295 0000 59030000 		.section	.debug_str,"MS",%progbits,1
 5295      02007C01 
 5295      00000201 
 5295      FB0E0D00 
 5295      01010101 
 5296              	.LASF19:
 5297 0000 73697A65 		.ascii	"sizetype\000"
 5297      74797065 
 5297      00
 5298              	.LASF37:
 5299 0009 4D41564C 		.ascii	"MAVLINK_PARSE_STATE_GOT_STX\000"
 5299      494E4B5F 
 5299      50415253 
 5299      455F5354 
 5299      4154455F 
 5300              	.LASF28:
 5301 0025 6D736769 		.ascii	"msgid\000"
 5301      6400
 5302              	.LASF55:
 5303 002b 7061636B 		.ascii	"packet_rx_drop_count\000"
 5303      65745F72 
 5303      785F6472 
 5303      6F705F63 
 5303      6F756E74 
 5304              	.LASF202:
 5305 0040 666C6167 		.ascii	"flag_NavLightPulse\000"
 5305      5F4E6176 
 5305      4C696768 
 5305      7450756C 
 5305      736500
 5306              	.LASF7:
 5307 0053 696E7433 		.ascii	"int32_t\000"
 5307      325F7400 
 5308              	.LASF241:
 5309 005b 73797374 		.ascii	"system_type\000"
ARM GAS  C:\Users\SNFU\AppData\Local\Temp\cc2qKFEC.s 			page 112


 5309      656D5F74 
 5309      79706500 
 5310              	.LASF238:
 5311 0067 4B5F305F 		.ascii	"K_0_Phi\000"
 5311      50686900 
 5312              	.LASF54:
 5313 006f 7061636B 		.ascii	"packet_rx_success_count\000"
 5313      65745F72 
 5313      785F7375 
 5313      63636573 
 5313      735F636F 
 5314              	.LASF15:
 5315 0087 75696E74 		.ascii	"uint32\000"
 5315      333200
 5316              	.LASF223:
 5317 008e 505F3030 		.ascii	"P_00_Theta\000"
 5317      5F546865 
 5317      746100
 5318              	.LASF179:
 5319 0099 6D5F6D61 		.ascii	"m_mavlink_status\000"
 5319      766C696E 
 5319      6B5F7374 
 5319      61747573 
 5319      00
 5320              	.LASF123:
 5321 00aa 4D41565F 		.ascii	"MAV_STATE_STANDBY\000"
 5321      53544154 
 5321      455F5354 
 5321      414E4442 
 5321      5900
 5322              	.LASF158:
 5323 00bc 6F75745F 		.ascii	"out_ele1\000"
 5323      656C6531 
 5323      00
 5324              	.LASF159:
 5325 00c5 6F75745F 		.ascii	"out_ele2\000"
 5325      656C6532 
 5325      00
 5326              	.LASF122:
 5327 00ce 4D41565F 		.ascii	"MAV_STATE_CALIBRATING\000"
 5327      53544154 
 5327      455F4341 
 5327      4C494252 
 5327      4154494E 
 5328              	.LASF53:
 5329 00e4 63757272 		.ascii	"current_tx_seq\000"
 5329      656E745F 
 5329      74785F73 
 5329      657100
 5330              	.LASF131:
 5331 00f3 74797065 		.ascii	"type\000"
 5331      00
 5332              	.LASF94:
 5333 00f8 4D41565F 		.ascii	"MAV_TYPE_FLAPPING_WING\000"
 5333      54595045 
 5333      5F464C41 
 5333      5050494E 
ARM GAS  C:\Users\SNFU\AppData\Local\Temp\cc2qKFEC.s 			page 113


 5333      475F5749 
 5334              	.LASF243:
 5335 010f 73797374 		.ascii	"system_mode\000"
 5335      656D5F6D 
 5335      6F646500 
 5336              	.LASF77:
 5337 011b 4D41565F 		.ascii	"MAV_TYPE\000"
 5337      54595045 
 5337      00
 5338              	.LASF76:
 5339 0124 4D41565F 		.ascii	"MAV_AUTOPILOT\000"
 5339      4155544F 
 5339      50494C4F 
 5339      5400
 5340              	.LASF224:
 5341 0132 505F3031 		.ascii	"P_01_Theta\000"
 5341      5F546865 
 5341      746100
 5342              	.LASF113:
 5343 013d 4D41565F 		.ascii	"MAV_MODE_MANUAL_ARMED\000"
 5343      4D4F4445 
 5343      5F4D414E 
 5343      55414C5F 
 5343      41524D45 
 5344              	.LASF62:
 5345 0153 4D41565F 		.ascii	"MAV_AUTOPILOT_GENERIC_WAYPOINTS_ONLY\000"
 5345      4155544F 
 5345      50494C4F 
 5345      545F4745 
 5345      4E455249 
 5346              	.LASF120:
 5347 0178 4D41565F 		.ascii	"MAV_STATE_UNINIT\000"
 5347      53544154 
 5347      455F554E 
 5347      494E4954 
 5347      00
 5348              	.LASF127:
 5349 0189 4D41565F 		.ascii	"MAV_STATE_POWEROFF\000"
 5349      53544154 
 5349      455F504F 
 5349      5745524F 
 5349      464600
 5350              	.LASF182:
 5351 019c 636F6D70 		.ascii	"component_id\000"
 5351      6F6E656E 
 5351      745F6964 
 5351      00
 5352              	.LASF220:
 5353 01a9 515F6779 		.ascii	"Q_gyro\000"
 5353      726F00
 5354              	.LASF35:
 5355 01b0 4D41564C 		.ascii	"MAVLINK_PARSE_STATE_UNINIT\000"
 5355      494E4B5F 
 5355      50415253 
 5355      455F5354 
 5355      4154455F 
 5356              	.LASF246:
ARM GAS  C:\Users\SNFU\AppData\Local\Temp\cc2qKFEC.s 			page 114


 5357 01cb 636E745F 		.ascii	"cnt_ML_ATTITUDE_send\000"
 5357      4D4C5F41 
 5357      54544954 
 5357      5544455F 
 5357      73656E64 
 5358              	.LASF117:
 5359 01e0 4D41565F 		.ascii	"MAV_MODE_AUTO_ARMED\000"
 5359      4D4F4445 
 5359      5F415554 
 5359      4F5F4152 
 5359      4D454400 
 5360              	.LASF206:
 5361 01f4 4E61764C 		.ascii	"NavLightCompare\000"
 5361      69676874 
 5361      436F6D70 
 5361      61726500 
 5362              	.LASF231:
 5363 0204 705F6269 		.ascii	"p_bias\000"
 5363      617300
 5364              	.LASF171:
 5365 020b 6372635F 		.ascii	"crc_init\000"
 5365      696E6974 
 5365      00
 5366              	.LASF48:
 5367 0214 62756666 		.ascii	"buffer_overrun\000"
 5367      65725F6F 
 5367      76657272 
 5367      756E00
 5368              	.LASF106:
 5369 0223 4D41565F 		.ascii	"MAV_MODE\000"
 5369      4D4F4445 
 5369      00
 5370              	.LASF8:
 5371 022c 6C6F6E67 		.ascii	"long int\000"
 5371      20696E74 
 5371      00
 5372              	.LASF184:
 5373 0235 6D61766C 		.ascii	"mavlink_finalize_message\000"
 5373      696E6B5F 
 5373      66696E61 
 5373      6C697A65 
 5373      5F6D6573 
 5374              	.LASF142:
 5375 024e 70697463 		.ascii	"pitchspeed\000"
 5375      68737065 
 5375      656400
 5376              	.LASF137:
 5377 0259 5F5F6D61 		.ascii	"__mavlink_attitude_t\000"
 5377      766C696E 
 5377      6B5F6174 
 5377      74697475 
 5377      64655F74 
 5378              	.LASF126:
 5379 026e 4D41565F 		.ascii	"MAV_STATE_EMERGENCY\000"
 5379      53544154 
 5379      455F454D 
 5379      45524745 
ARM GAS  C:\Users\SNFU\AppData\Local\Temp\cc2qKFEC.s 			page 115


 5379      4E435900 
 5380              	.LASF235:
 5381 0282 505F3131 		.ascii	"P_11_Phi\000"
 5381      5F506869 
 5381      00
 5382              	.LASF193:
 5383 028b 74657374 		.ascii	"test\000"
 5383      00
 5384              	.LASF72:
 5385 0290 4D41565F 		.ascii	"MAV_AUTOPILOT_ARMAZILA\000"
 5385      4155544F 
 5385      50494C4F 
 5385      545F4152 
 5385      4D415A49 
 5386              	.LASF42:
 5387 02a7 4D41564C 		.ascii	"MAVLINK_PARSE_STATE_GOT_MSGID\000"
 5387      494E4B5F 
 5387      50415253 
 5387      455F5354 
 5387      4154455F 
 5388              	.LASF192:
 5389 02c5 6D61696E 		.ascii	"main\000"
 5389      00
 5390              	.LASF108:
 5391 02ca 4D41565F 		.ascii	"MAV_MODE_MANUAL_DISARMED\000"
 5391      4D4F4445 
 5391      5F4D414E 
 5391      55414C5F 
 5391      44495341 
 5392              	.LASF196:
 5393 02e3 626C696E 		.ascii	"blink_cnt\000"
 5393      6B5F636E 
 5393      7400
 5394              	.LASF240:
 5395 02ed 6D61766C 		.ascii	"mavlink_system\000"
 5395      696E6B5F 
 5395      73797374 
 5395      656D00
 5396              	.LASF154:
 5397 02fc 655F6F75 		.ascii	"e_out\000"
 5397      7400
 5398              	.LASF232:
 5399 0302 505F3030 		.ascii	"P_00_Phi\000"
 5399      5F506869 
 5399      00
 5400              	.LASF81:
 5401 030b 4D41565F 		.ascii	"MAV_TYPE_COAXIAL\000"
 5401      54595045 
 5401      5F434F41 
 5401      5849414C 
 5401      00
 5402              	.LASF0:
 5403 031c 7369676E 		.ascii	"signed char\000"
 5403      65642063 
 5403      68617200 
 5404              	.LASF133:
 5405 0328 62617365 		.ascii	"base_mode\000"
ARM GAS  C:\Users\SNFU\AppData\Local\Temp\cc2qKFEC.s 			page 116


 5405      5F6D6F64 
 5405      6500
 5406              	.LASF2:
 5407 0332 75696E74 		.ascii	"uint8_t\000"
 5407      385F7400 
 5408              	.LASF46:
 5409 033a 5F5F6D61 		.ascii	"__mavlink_status\000"
 5409      766C696E 
 5409      6B5F7374 
 5409      61747573 
 5409      00
 5410              	.LASF244:
 5411 034b 73797374 		.ascii	"system_state\000"
 5411      656D5F73 
 5411      74617465 
 5411      00
 5412              	.LASF70:
 5413 0358 4D41565F 		.ascii	"MAV_AUTOPILOT_SMACCMPILOT\000"
 5413      4155544F 
 5413      50494C4F 
 5413      545F534D 
 5413      4143434D 
 5414              	.LASF80:
 5415 0372 4D41565F 		.ascii	"MAV_TYPE_QUADROTOR\000"
 5415      54595045 
 5415      5F515541 
 5415      44524F54 
 5415      4F5200
 5416              	.LASF1:
 5417 0385 756E7369 		.ascii	"unsigned char\000"
 5417      676E6564 
 5417      20636861 
 5417      7200
 5418              	.LASF247:
 5419 0393 474E5520 		.ascii	"GNU C 4.7.3 20130312 (release) [ARM/embedded-4_7-br"
 5419      4320342E 
 5419      372E3320 
 5419      32303133 
 5419      30333132 
 5420 03c6 616E6368 		.ascii	"anch revision 196615]\000"
 5420      20726576 
 5420      6973696F 
 5420      6E203139 
 5420      36363135 
 5421              	.LASF155:
 5422 03dc 6F75745F 		.ascii	"out_mot\000"
 5422      6D6F7400 
 5423              	.LASF178:
 5424 03e4 6368616E 		.ascii	"chan\000"
 5424      00
 5425              	.LASF18:
 5426 03e9 63686172 		.ascii	"char\000"
 5426      00
 5427              	.LASF180:
 5428 03ee 6D61766C 		.ascii	"mavlink_finalize_message_chan\000"
 5428      696E6B5F 
 5428      66696E61 
ARM GAS  C:\Users\SNFU\AppData\Local\Temp\cc2qKFEC.s 			page 117


 5428      6C697A65 
 5428      5F6D6573 
 5429              	.LASF118:
 5430 040c 4D41565F 		.ascii	"MAV_MODE_ENUM_END\000"
 5430      4D4F4445 
 5430      5F454E55 
 5430      4D5F454E 
 5430      4400
 5431              	.LASF197:
 5432 041e 73616D70 		.ascii	"sample_time\000"
 5432      6C655F74 
 5432      696D6500 
 5433              	.LASF49:
 5434 042a 70617273 		.ascii	"parse_error\000"
 5434      655F6572 
 5434      726F7200 
 5435              	.LASF84:
 5436 0436 4D41565F 		.ascii	"MAV_TYPE_GCS\000"
 5436      54595045 
 5436      5F474353 
 5436      00
 5437              	.LASF213:
 5438 0443 6D61675F 		.ascii	"mag_x_g\000"
 5438      785F6700 
 5439              	.LASF201:
 5440 044b 666C6167 		.ascii	"flag_LightsEnabled\000"
 5440      5F4C6967 
 5440      68747345 
 5440      6E61626C 
 5440      656400
 5441              	.LASF237:
 5442 045e 535F5068 		.ascii	"S_Phi\000"
 5442      6900
 5443              	.LASF195:
 5444 0464 7461736B 		.ascii	"task_flag\000"
 5444      5F666C61 
 5444      6700
 5445              	.LASF87:
 5446 046e 4D41565F 		.ascii	"MAV_TYPE_ROCKET\000"
 5446      54595045 
 5446      5F524F43 
 5446      4B455400 
 5447              	.LASF242:
 5448 047e 6175746F 		.ascii	"autopilot_type\000"
 5448      70696C6F 
 5448      745F7479 
 5448      706500
 5449              	.LASF216:
 5450 048d 54686574 		.ascii	"Theta\000"
 5450      6100
 5451              	.LASF74:
 5452 0493 4D41565F 		.ascii	"MAV_AUTOPILOT_ASLUAV\000"
 5452      4155544F 
 5452      50494C4F 
 5452      545F4153 
 5452      4C554156 
 5453              	.LASF249:
ARM GAS  C:\Users\SNFU\AppData\Local\Temp\cc2qKFEC.s 			page 118


 5454 04a8 433A5C55 		.ascii	"C:\\Users\\SNFU\\Documents\\T-50_UAV_Project\\Softw"
 5454      73657273 
 5454      5C534E46 
 5454      555C446F 
 5454      63756D65 
 5455 04d6 6172655C 		.ascii	"are\\T-50_Project\\T-50_Project.cydsn\000"
 5455      542D3530 
 5455      5F50726F 
 5455      6A656374 
 5455      5C542D35 
 5456              	.LASF67:
 5457 04fa 4D41565F 		.ascii	"MAV_AUTOPILOT_UDB\000"
 5457      4155544F 
 5457      50494C4F 
 5457      545F5544 
 5457      4200
 5458              	.LASF234:
 5459 050c 505F3130 		.ascii	"P_10_Phi\000"
 5459      5F506869 
 5459      00
 5460              	.LASF75:
 5461 0515 4D41565F 		.ascii	"MAV_AUTOPILOT_ENUM_END\000"
 5461      4155544F 
 5461      50494C4F 
 5461      545F454E 
 5461      554D5F45 
 5462              	.LASF130:
 5463 052c 63757374 		.ascii	"custom_mode\000"
 5463      6F6D5F6D 
 5463      6F646500 
 5464              	.LASF136:
 5465 0538 6D61766C 		.ascii	"mavlink_heartbeat_t\000"
 5465      696E6B5F 
 5465      68656172 
 5465      74626561 
 5465      745F7400 
 5466              	.LASF204:
 5467 054c 4E61764C 		.ascii	"NavLightDim\000"
 5467      69676874 
 5467      44696D00 
 5468              	.LASF186:
 5469 0558 62756666 		.ascii	"buffer\000"
 5469      657200
 5470              	.LASF227:
 5471 055f 54686574 		.ascii	"Theta_temp\000"
 5471      615F7465 
 5471      6D7000
 5472              	.LASF172:
 5473 056a 70427566 		.ascii	"pBuffer\000"
 5473      66657200 
 5474              	.LASF82:
 5475 0572 4D41565F 		.ascii	"MAV_TYPE_HELICOPTER\000"
 5475      54595045 
 5475      5F48454C 
 5475      49434F50 
 5475      54455200 
 5476              	.LASF134:
ARM GAS  C:\Users\SNFU\AppData\Local\Temp\cc2qKFEC.s 			page 119


 5477 0586 73797374 		.ascii	"system_status\000"
 5477      656D5F73 
 5477      74617475 
 5477      7300
 5478              	.LASF198:
 5479 0594 50504D5F 		.ascii	"PPM_channel\000"
 5479      6368616E 
 5479      6E656C00 
 5480              	.LASF177:
 5481 05a0 6D61766C 		.ascii	"mavlink_get_channel_status\000"
 5481      696E6B5F 
 5481      6765745F 
 5481      6368616E 
 5481      6E656C5F 
 5482              	.LASF150:
 5483 05bb 696E5F66 		.ascii	"in_fl\000"
 5483      6C00
 5484              	.LASF10:
 5485 05c1 6C6F6E67 		.ascii	"long unsigned int\000"
 5485      20756E73 
 5485      69676E65 
 5485      6420696E 
 5485      7400
 5486              	.LASF111:
 5487 05d3 4D41565F 		.ascii	"MAV_MODE_GUIDED_DISARMED\000"
 5487      4D4F4445 
 5487      5F475549 
 5487      4445445F 
 5487      44495341 
 5488              	.LASF98:
 5489 05ec 4D41565F 		.ascii	"MAV_TYPE_VTOL_QUADROTOR\000"
 5489      54595045 
 5489      5F56544F 
 5489      4C5F5155 
 5489      4144524F 
 5490              	.LASF64:
 5491 0604 4D41565F 		.ascii	"MAV_AUTOPILOT_GENERIC_MISSION_FULL\000"
 5491      4155544F 
 5491      50494C4F 
 5491      545F4745 
 5491      4E455249 
 5492              	.LASF121:
 5493 0627 4D41565F 		.ascii	"MAV_STATE_BOOT\000"
 5493      53544154 
 5493      455F424F 
 5493      4F5400
 5494              	.LASF151:
 5495 0636 696E5F67 		.ascii	"in_ge\000"
 5495      6500
 5496              	.LASF112:
 5497 063c 4D41565F 		.ascii	"MAV_MODE_AUTO_DISARMED\000"
 5497      4D4F4445 
 5497      5F415554 
 5497      4F5F4449 
 5497      5341524D 
 5498              	.LASF228:
 5499 0653 535F5468 		.ascii	"S_Theta\000"
ARM GAS  C:\Users\SNFU\AppData\Local\Temp\cc2qKFEC.s 			page 120


 5499      65746100 
 5500              	.LASF79:
 5501 065b 4D41565F 		.ascii	"MAV_TYPE_FIXED_WING\000"
 5501      54595045 
 5501      5F464958 
 5501      45445F57 
 5501      494E4700 
 5502              	.LASF160:
 5503 066f 6F75745F 		.ascii	"out_rud\000"
 5503      72756400 
 5504              	.LASF114:
 5505 0677 4D41565F 		.ascii	"MAV_MODE_TEST_ARMED\000"
 5505      4D4F4445 
 5505      5F544553 
 5505      545F4152 
 5505      4D454400 
 5506              	.LASF166:
 5507 068b 6F75745F 		.ascii	"out_sp1\000"
 5507      73703100 
 5508              	.LASF167:
 5509 0693 6F75745F 		.ascii	"out_sp2\000"
 5509      73703200 
 5510              	.LASF217:
 5511 069b 54686574 		.ascii	"Theta_acc\000"
 5511      615F6163 
 5511      6300
 5512              	.LASF214:
 5513 06a5 6D61675F 		.ascii	"mag_y_g\000"
 5513      795F6700 
 5514              	.LASF92:
 5515 06ad 4D41565F 		.ascii	"MAV_TYPE_OCTOROTOR\000"
 5515      54595045 
 5515      5F4F4354 
 5515      4F524F54 
 5515      4F5200
 5516              	.LASF135:
 5517 06c0 6D61766C 		.ascii	"mavlink_version\000"
 5517      696E6B5F 
 5517      76657273 
 5517      696F6E00 
 5518              	.LASF60:
 5519 06d0 4D41565F 		.ascii	"MAV_AUTOPILOT_ARDUPILOTMEGA\000"
 5519      4155544F 
 5519      50494C4F 
 5519      545F4152 
 5519      44555049 
 5520              	.LASF185:
 5521 06ec 6D61766C 		.ascii	"mavlink_msg_to_send_buffer\000"
 5521      696E6B5F 
 5521      6D73675F 
 5521      746F5F73 
 5521      656E645F 
 5522              	.LASF91:
 5523 0707 4D41565F 		.ascii	"MAV_TYPE_HEXAROTOR\000"
 5523      54595045 
 5523      5F484558 
 5523      41524F54 
ARM GAS  C:\Users\SNFU\AppData\Local\Temp\cc2qKFEC.s 			page 121


 5523      4F5200
 5524              	.LASF11:
 5525 071a 6C6F6E67 		.ascii	"long long int\000"
 5525      206C6F6E 
 5525      6720696E 
 5525      7400
 5526              	.LASF109:
 5527 0728 4D41565F 		.ascii	"MAV_MODE_TEST_DISARMED\000"
 5527      4D4F4445 
 5527      5F544553 
 5527      545F4449 
 5527      5341524D 
 5528              	.LASF51:
 5529 073f 7061636B 		.ascii	"packet_idx\000"
 5529      65745F69 
 5529      647800
 5530              	.LASF219:
 5531 074a 515F616E 		.ascii	"Q_angle\000"
 5531      676C6500 
 5532              	.LASF129:
 5533 0752 5F5F6D61 		.ascii	"__mavlink_heartbeat_t\000"
 5533      766C696E 
 5533      6B5F6865 
 5533      61727462 
 5533      6561745F 
 5534              	.LASF17:
 5535 0768 646F7562 		.ascii	"double\000"
 5535      6C6500
 5536              	.LASF183:
 5537 076f 6372635F 		.ascii	"crc_extra\000"
 5537      65787472 
 5537      6100
 5538              	.LASF96:
 5539 0779 4D41565F 		.ascii	"MAV_TYPE_ONBOARD_CONTROLLER\000"
 5539      54595045 
 5539      5F4F4E42 
 5539      4F415244 
 5539      5F434F4E 
 5540              	.LASF38:
 5541 0795 4D41564C 		.ascii	"MAVLINK_PARSE_STATE_GOT_SEQ\000"
 5541      494E4B5F 
 5541      50415253 
 5541      455F5354 
 5541      4154455F 
 5542              	.LASF41:
 5543 07b1 4D41564C 		.ascii	"MAVLINK_PARSE_STATE_GOT_COMPID\000"
 5543      494E4B5F 
 5543      50415253 
 5543      455F5354 
 5543      4154455F 
 5544              	.LASF124:
 5545 07d0 4D41565F 		.ascii	"MAV_STATE_ACTIVE\000"
 5545      53544154 
 5545      455F4143 
 5545      54495645 
 5545      00
 5546              	.LASF189:
ARM GAS  C:\Users\SNFU\AppData\Local\Temp\cc2qKFEC.s 			page 122


 5547 07e1 6D61766C 		.ascii	"mavlink_msg_attitude_pack\000"
 5547      696E6B5F 
 5547      6D73675F 
 5547      61747469 
 5547      74756465 
 5548              	.LASF52:
 5549 07fb 63757272 		.ascii	"current_rx_seq\000"
 5549      656E745F 
 5549      72785F73 
 5549      657100
 5550              	.LASF88:
 5551 080a 4D41565F 		.ascii	"MAV_TYPE_GROUND_ROVER\000"
 5551      54595045 
 5551      5F47524F 
 5551      554E445F 
 5551      524F5645 
 5552              	.LASF210:
 5553 0820 6163635F 		.ascii	"acc_x_g\000"
 5553      785F6700 
 5554              	.LASF61:
 5555 0828 4D41565F 		.ascii	"MAV_AUTOPILOT_OPENPILOT\000"
 5555      4155544F 
 5555      50494C4F 
 5555      545F4F50 
 5555      454E5049 
 5556              	.LASF16:
 5557 0840 666C6F61 		.ascii	"float\000"
 5557      7400
 5558              	.LASF233:
 5559 0846 505F3031 		.ascii	"P_01_Phi\000"
 5559      5F506869 
 5559      00
 5560              	.LASF229:
 5561 084f 4B5F305F 		.ascii	"K_0_Theta\000"
 5561      54686574 
 5561      6100
 5562              	.LASF174:
 5563 0859 63726354 		.ascii	"crcTmp\000"
 5563      6D7000
 5564              	.LASF14:
 5565 0860 756E7369 		.ascii	"unsigned int\000"
 5565      676E6564 
 5565      20696E74 
 5565      00
 5566              	.LASF221:
 5567 086d 525F616E 		.ascii	"R_angle\000"
 5567      676C6500 
 5568              	.LASF199:
 5569 0875 6374726C 		.ascii	"ctrl_in\000"
 5569      5F696E00 
 5570              	.LASF104:
 5571 087d 4D41565F 		.ascii	"MAV_TYPE_GIMBAL\000"
 5571      54595045 
 5571      5F47494D 
 5571      42414C00 
 5572              	.LASF22:
 5573 088d 636F6D70 		.ascii	"compid\000"
ARM GAS  C:\Users\SNFU\AppData\Local\Temp\cc2qKFEC.s 			page 123


 5573      696400
 5574              	.LASF29:
 5575 0894 7061796C 		.ascii	"payload64\000"
 5575      6F616436 
 5575      3400
 5576              	.LASF90:
 5577 089e 4D41565F 		.ascii	"MAV_TYPE_SUBMARINE\000"
 5577      54595045 
 5577      5F535542 
 5577      4D415249 
 5577      4E4500
 5578              	.LASF107:
 5579 08b1 4D41565F 		.ascii	"MAV_MODE_PREFLIGHT\000"
 5579      4D4F4445 
 5579      5F505245 
 5579      464C4947 
 5579      485400
 5580              	.LASF190:
 5581 08c4 55415254 		.ascii	"UART_1_UartPutNum\000"
 5581      5F315F55 
 5581      61727450 
 5581      75744E75 
 5581      6D00
 5582              	.LASF230:
 5583 08d6 4B5F315F 		.ascii	"K_1_Theta\000"
 5583      54686574 
 5583      6100
 5584              	.LASF146:
 5585 08e0 696E5F6D 		.ascii	"in_mot\000"
 5585      6F7400
 5586              	.LASF205:
 5587 08e7 4E61764C 		.ascii	"NavLightStep\000"
 5587      69676874 
 5587      53746570 
 5587      00
 5588              	.LASF71:
 5589 08f4 4D41565F 		.ascii	"MAV_AUTOPILOT_AUTOQUAD\000"
 5589      4155544F 
 5589      50494C4F 
 5589      545F4155 
 5589      544F5155 
 5590              	.LASF191:
 5591 090b 55415254 		.ascii	"UART_1_UartSendMavlink\000"
 5591      5F315F55 
 5591      61727453 
 5591      656E644D 
 5591      61766C69 
 5592              	.LASF73:
 5593 0922 4D41565F 		.ascii	"MAV_AUTOPILOT_AEROB\000"
 5593      4155544F 
 5593      50494C4F 
 5593      545F4145 
 5593      524F4200 
 5594              	.LASF200:
 5595 0936 6374726C 		.ascii	"ctrl_out\000"
 5595      5F6F7574 
 5595      00
ARM GAS  C:\Users\SNFU\AppData\Local\Temp\cc2qKFEC.s 			page 124


 5596              	.LASF39:
 5597 093f 4D41564C 		.ascii	"MAVLINK_PARSE_STATE_GOT_LENGTH\000"
 5597      494E4B5F 
 5597      50415253 
 5597      455F5354 
 5597      4154455F 
 5598              	.LASF20:
 5599 095e 6C6F6E67 		.ascii	"long double\000"
 5599      20646F75 
 5599      626C6500 
 5600              	.LASF85:
 5601 096a 4D41565F 		.ascii	"MAV_TYPE_AIRSHIP\000"
 5601      54595045 
 5601      5F414952 
 5601      53484950 
 5601      00
 5602              	.LASF218:
 5603 097b 5068695F 		.ascii	"Phi_acc\000"
 5603      61636300 
 5604              	.LASF25:
 5605 0983 5F5F6D61 		.ascii	"__mavlink_message\000"
 5605      766C696E 
 5605      6B5F6D65 
 5605      73736167 
 5605      6500
 5606              	.LASF26:
 5607 0995 63686563 		.ascii	"checksum\000"
 5607      6B73756D 
 5607      00
 5608              	.LASF156:
 5609 099e 6F75745F 		.ascii	"out_ail1\000"
 5609      61696C31 
 5609      00
 5610              	.LASF157:
 5611 09a7 6F75745F 		.ascii	"out_ail2\000"
 5611      61696C32 
 5611      00
 5612              	.LASF57:
 5613 09b0 4D41565F 		.ascii	"MAV_AUTOPILOT_GENERIC\000"
 5613      4155544F 
 5613      50494C4F 
 5613      545F4745 
 5613      4E455249 
 5614              	.LASF203:
 5615 09c6 4E61764C 		.ascii	"NavLightBright\000"
 5615      69676874 
 5615      42726967 
 5615      687400
 5616              	.LASF215:
 5617 09d5 6D61675F 		.ascii	"mag_z_g\000"
 5617      7A5F6700 
 5618              	.LASF225:
 5619 09dd 505F3130 		.ascii	"P_10_Theta\000"
 5619      5F546865 
 5619      746100
 5620              	.LASF211:
 5621 09e8 6163635F 		.ascii	"acc_y_g\000"
ARM GAS  C:\Users\SNFU\AppData\Local\Temp\cc2qKFEC.s 			page 125


 5621      795F6700 
 5622              	.LASF40:
 5623 09f0 4D41564C 		.ascii	"MAVLINK_PARSE_STATE_GOT_SYSID\000"
 5623      494E4B5F 
 5623      50415253 
 5623      455F5354 
 5623      4154455F 
 5624              	.LASF164:
 5625 0a0e 6F75745F 		.ascii	"out_ge2\000"
 5625      67653200 
 5626              	.LASF165:
 5627 0a16 6F75745F 		.ascii	"out_ge3\000"
 5627      67653300 
 5628              	.LASF13:
 5629 0a1e 6C6F6E67 		.ascii	"long long unsigned int\000"
 5629      206C6F6E 
 5629      6720756E 
 5629      7369676E 
 5629      65642069 
 5630              	.LASF173:
 5631 0a35 6C656E67 		.ascii	"length\000"
 5631      746800
 5632              	.LASF5:
 5633 0a3c 75696E74 		.ascii	"uint16_t\000"
 5633      31365F74 
 5633      00
 5634              	.LASF66:
 5635 0a45 4D41565F 		.ascii	"MAV_AUTOPILOT_PPZ\000"
 5635      4155544F 
 5635      50494C4F 
 5635      545F5050 
 5635      5A00
 5636              	.LASF78:
 5637 0a57 4D41565F 		.ascii	"MAV_TYPE_GENERIC\000"
 5637      54595045 
 5637      5F47454E 
 5637      45524943 
 5637      00
 5638              	.LASF162:
 5639 0a68 6F75745F 		.ascii	"out_fl2\000"
 5639      666C3200 
 5640              	.LASF59:
 5641 0a70 4D41565F 		.ascii	"MAV_AUTOPILOT_SLUGS\000"
 5641      4155544F 
 5641      50494C4F 
 5641      545F534C 
 5641      55475300 
 5642              	.LASF145:
 5643 0a84 655F696E 		.ascii	"e_in\000"
 5643      00
 5644              	.LASF194:
 5645 0a89 64656275 		.ascii	"debug\000"
 5645      6700
 5646              	.LASF226:
 5647 0a8f 505F3131 		.ascii	"P_11_Theta\000"
 5647      5F546865 
 5647      746100
ARM GAS  C:\Users\SNFU\AppData\Local\Temp\cc2qKFEC.s 			page 126


 5648              	.LASF181:
 5649 0a9a 73797374 		.ascii	"system_id\000"
 5649      656D5F69 
 5649      6400
 5650              	.LASF187:
 5651 0aa4 6D61766C 		.ascii	"mavlink_msg_heartbeat_pack\000"
 5651      696E6B5F 
 5651      6D73675F 
 5651      68656172 
 5651      74626561 
 5652              	.LASF115:
 5653 0abf 4D41565F 		.ascii	"MAV_MODE_STABILIZE_ARMED\000"
 5653      4D4F4445 
 5653      5F535441 
 5653      42494C49 
 5653      5A455F41 
 5654              	.LASF222:
 5655 0ad8 715F6269 		.ascii	"q_bias\000"
 5655      617300
 5656              	.LASF95:
 5657 0adf 4D41565F 		.ascii	"MAV_TYPE_KITE\000"
 5657      54595045 
 5657      5F4B4954 
 5657      4500
 5658              	.LASF128:
 5659 0aed 4D41565F 		.ascii	"MAV_STATE_ENUM_END\000"
 5659      53544154 
 5659      455F454E 
 5659      554D5F45 
 5659      4E4400
 5660              	.LASF63:
 5661 0b00 4D41565F 		.ascii	"MAV_AUTOPILOT_GENERIC_WAYPOINTS_AND_SIMPLE_NAVIGATI"
 5661      4155544F 
 5661      50494C4F 
 5661      545F4745 
 5661      4E455249 
 5662 0b33 4F4E5F4F 		.ascii	"ON_ONLY\000"
 5662      4E4C5900 
 5663              	.LASF245:
 5664 0b3b 636E745F 		.ascii	"cnt_ML_HEARTBEAT_send\000"
 5664      4D4C5F48 
 5664      45415254 
 5664      42454154 
 5664      5F73656E 
 5665              	.LASF89:
 5666 0b51 4D41565F 		.ascii	"MAV_TYPE_SURFACE_BOAT\000"
 5666      54595045 
 5666      5F535552 
 5666      46414345 
 5666      5F424F41 
 5667              	.LASF43:
 5668 0b67 4D41564C 		.ascii	"MAVLINK_PARSE_STATE_GOT_PAYLOAD\000"
 5668      494E4B5F 
 5668      50415253 
 5668      455F5354 
 5668      4154455F 
 5669              	.LASF236:
ARM GAS  C:\Users\SNFU\AppData\Local\Temp\cc2qKFEC.s 			page 127


 5670 0b87 5068695F 		.ascii	"Phi_temp\000"
 5670      74656D70 
 5670      00
 5671              	.LASF99:
 5672 0b90 4D41565F 		.ascii	"MAV_TYPE_VTOL_RESERVED1\000"
 5672      54595045 
 5672      5F56544F 
 5672      4C5F5245 
 5672      53455256 
 5673              	.LASF100:
 5674 0ba8 4D41565F 		.ascii	"MAV_TYPE_VTOL_RESERVED2\000"
 5674      54595045 
 5674      5F56544F 
 5674      4C5F5245 
 5674      53455256 
 5675              	.LASF101:
 5676 0bc0 4D41565F 		.ascii	"MAV_TYPE_VTOL_RESERVED3\000"
 5676      54595045 
 5676      5F56544F 
 5676      4C5F5245 
 5676      53455256 
 5677              	.LASF102:
 5678 0bd8 4D41565F 		.ascii	"MAV_TYPE_VTOL_RESERVED4\000"
 5678      54595045 
 5678      5F56544F 
 5678      4C5F5245 
 5678      53455256 
 5679              	.LASF103:
 5680 0bf0 4D41565F 		.ascii	"MAV_TYPE_VTOL_RESERVED5\000"
 5680      54595045 
 5680      5F56544F 
 5680      4C5F5245 
 5680      53455256 
 5681              	.LASF45:
 5682 0c08 6D61766C 		.ascii	"mavlink_parse_state_t\000"
 5682      696E6B5F 
 5682      70617273 
 5682      655F7374 
 5682      6174655F 
 5683              	.LASF149:
 5684 0c1e 696E5F72 		.ascii	"in_rud\000"
 5684      756400
 5685              	.LASF152:
 5686 0c25 696E5F73 		.ascii	"in_sp1\000"
 5686      703100
 5687              	.LASF153:
 5688 0c2c 696E5F73 		.ascii	"in_sp2\000"
 5688      703200
 5689              	.LASF4:
 5690 0c33 73686F72 		.ascii	"short int\000"
 5690      7420696E 
 5690      7400
 5691              	.LASF65:
 5692 0c3d 4D41565F 		.ascii	"MAV_AUTOPILOT_INVALID\000"
 5692      4155544F 
 5692      50494C4F 
 5692      545F494E 
ARM GAS  C:\Users\SNFU\AppData\Local\Temp\cc2qKFEC.s 			page 128


 5692      56414C49 
 5693              	.LASF12:
 5694 0c53 75696E74 		.ascii	"uint64_t\000"
 5694      36345F74 
 5694      00
 5695              	.LASF23:
 5696 0c5c 6D61766C 		.ascii	"mavlink_system_t\000"
 5696      696E6B5F 
 5696      73797374 
 5696      656D5F74 
 5696      00
 5697              	.LASF31:
 5698 0c6d 4D41564C 		.ascii	"MAVLINK_COMM_0\000"
 5698      494E4B5F 
 5698      434F4D4D 
 5698      5F3000
 5699              	.LASF32:
 5700 0c7c 4D41564C 		.ascii	"MAVLINK_COMM_1\000"
 5700      494E4B5F 
 5700      434F4D4D 
 5700      5F3100
 5701              	.LASF33:
 5702 0c8b 4D41564C 		.ascii	"MAVLINK_COMM_2\000"
 5702      494E4B5F 
 5702      434F4D4D 
 5702      5F3200
 5703              	.LASF34:
 5704 0c9a 4D41564C 		.ascii	"MAVLINK_COMM_3\000"
 5704      494E4B5F 
 5704      434F4D4D 
 5704      5F3300
 5705              	.LASF3:
 5706 0ca9 696E7431 		.ascii	"int16_t\000"
 5706      365F7400 
 5707              	.LASF176:
 5708 0cb1 6372635F 		.ascii	"crc_calculate\000"
 5708      63616C63 
 5708      756C6174 
 5708      6500
 5709              	.LASF56:
 5710 0cbf 6D61766C 		.ascii	"mavlink_status_t\000"
 5710      696E6B5F 
 5710      73746174 
 5710      75735F74 
 5710      00
 5711              	.LASF50:
 5712 0cd0 70617273 		.ascii	"parse_state\000"
 5712      655F7374 
 5712      61746500 
 5713              	.LASF36:
 5714 0cdc 4D41564C 		.ascii	"MAVLINK_PARSE_STATE_IDLE\000"
 5714      494E4B5F 
 5714      50415253 
 5714      455F5354 
 5714      4154455F 
 5715              	.LASF169:
 5716 0cf5 63726341 		.ascii	"crcAccum\000"
ARM GAS  C:\Users\SNFU\AppData\Local\Temp\cc2qKFEC.s 			page 129


 5716      6363756D 
 5716      00
 5717              	.LASF83:
 5718 0cfe 4D41565F 		.ascii	"MAV_TYPE_ANTENNA_TRACKER\000"
 5718      54595045 
 5718      5F414E54 
 5718      454E4E41 
 5718      5F545241 
 5719              	.LASF21:
 5720 0d17 73797369 		.ascii	"sysid\000"
 5720      6400
 5721              	.LASF68:
 5722 0d1d 4D41565F 		.ascii	"MAV_AUTOPILOT_FP\000"
 5722      4155544F 
 5722      50494C4F 
 5722      545F4650 
 5722      00
 5723              	.LASF188:
 5724 0d2e 7061636B 		.ascii	"packet\000"
 5724      657400
 5725              	.LASF93:
 5726 0d35 4D41565F 		.ascii	"MAV_TYPE_TRICOPTER\000"
 5726      54595045 
 5726      5F545249 
 5726      434F5054 
 5726      455200
 5727              	.LASF97:
 5728 0d48 4D41565F 		.ascii	"MAV_TYPE_VTOL_DUOROTOR\000"
 5728      54595045 
 5728      5F56544F 
 5728      4C5F4455 
 5728      4F524F54 
 5729              	.LASF141:
 5730 0d5f 726F6C6C 		.ascii	"rollspeed\000"
 5730      73706565 
 5730      6400
 5731              	.LASF119:
 5732 0d69 4D41565F 		.ascii	"MAV_STATE\000"
 5732      53544154 
 5732      4500
 5733              	.LASF148:
 5734 0d73 696E5F65 		.ascii	"in_ele\000"
 5734      6C6500
 5735              	.LASF105:
 5736 0d7a 4D41565F 		.ascii	"MAV_TYPE_ENUM_END\000"
 5736      54595045 
 5736      5F454E55 
 5736      4D5F454E 
 5736      4400
 5737              	.LASF163:
 5738 0d8c 6F75745F 		.ascii	"out_ge1\000"
 5738      67653100 
 5739              	.LASF138:
 5740 0d94 74696D65 		.ascii	"time_boot_ms\000"
 5740      5F626F6F 
 5740      745F6D73 
 5740      00
ARM GAS  C:\Users\SNFU\AppData\Local\Temp\cc2qKFEC.s 			page 130


 5741              	.LASF44:
 5742 0da1 4D41564C 		.ascii	"MAVLINK_PARSE_STATE_GOT_CRC1\000"
 5742      494E4B5F 
 5742      50415253 
 5742      455F5354 
 5742      4154455F 
 5743              	.LASF144:
 5744 0dbe 6D61766C 		.ascii	"mavlink_attitude_t\000"
 5744      696E6B5F 
 5744      61747469 
 5744      74756465 
 5744      5F7400
 5745              	.LASF30:
 5746 0dd1 6D61766C 		.ascii	"mavlink_message_t\000"
 5746      696E6B5F 
 5746      6D657373 
 5746      6167655F 
 5746      7400
 5747              	.LASF9:
 5748 0de3 75696E74 		.ascii	"uint32_t\000"
 5748      33325F74 
 5748      00
 5749              	.LASF143:
 5750 0dec 79617773 		.ascii	"yawspeed\000"
 5750      70656564 
 5750      00
 5751              	.LASF207:
 5752 0df5 7475726E 		.ascii	"turn_rate_p\000"
 5752      5F726174 
 5752      655F7000 
 5753              	.LASF208:
 5754 0e01 7475726E 		.ascii	"turn_rate_q\000"
 5754      5F726174 
 5754      655F7100 
 5755              	.LASF209:
 5756 0e0d 7475726E 		.ascii	"turn_rate_r\000"
 5756      5F726174 
 5756      655F7200 
 5757              	.LASF175:
 5758 0e19 6372635F 		.ascii	"crc_accumulate_buffer\000"
 5758      61636375 
 5758      6D756C61 
 5758      74655F62 
 5758      75666665 
 5759              	.LASF58:
 5760 0e2f 4D41565F 		.ascii	"MAV_AUTOPILOT_PIXHAWK\000"
 5760      4155544F 
 5760      50494C4F 
 5760      545F5049 
 5760      58484157 
 5761              	.LASF110:
 5762 0e45 4D41565F 		.ascii	"MAV_MODE_STABILIZE_DISARMED\000"
 5762      4D4F4445 
 5762      5F535441 
 5762      42494C49 
 5762      5A455F44 
 5763              	.LASF248:
ARM GAS  C:\Users\SNFU\AppData\Local\Temp\cc2qKFEC.s 			page 131


 5764 0e61 2E5C6D61 		.ascii	".\\main.c\000"
 5764      696E2E63 
 5764      00
 5765              	.LASF47:
 5766 0e6a 6D73675F 		.ascii	"msg_received\000"
 5766      72656365 
 5766      69766564 
 5766      00
 5767              	.LASF6:
 5768 0e77 73686F72 		.ascii	"short unsigned int\000"
 5768      7420756E 
 5768      7369676E 
 5768      65642069 
 5768      6E7400
 5769              	.LASF27:
 5770 0e8a 6D616769 		.ascii	"magic\000"
 5770      6300
 5771              	.LASF140:
 5772 0e90 70697463 		.ascii	"pitch\000"
 5772      6800
 5773              	.LASF139:
 5774 0e96 726F6C6C 		.ascii	"roll\000"
 5774      00
 5775              	.LASF212:
 5776 0e9b 6163635F 		.ascii	"acc_z_g\000"
 5776      7A5F6700 
 5777              	.LASF170:
 5778 0ea3 6372635F 		.ascii	"crc_accumulate\000"
 5778      61636375 
 5778      6D756C61 
 5778      746500
 5779              	.LASF161:
 5780 0eb2 6F75745F 		.ascii	"out_fl1\000"
 5780      666C3100 
 5781              	.LASF69:
 5782 0eba 4D41565F 		.ascii	"MAV_AUTOPILOT_PX4\000"
 5782      4155544F 
 5782      50494C4F 
 5782      545F5058 
 5782      3400
 5783              	.LASF132:
 5784 0ecc 6175746F 		.ascii	"autopilot\000"
 5784      70696C6F 
 5784      7400
 5785              	.LASF116:
 5786 0ed6 4D41565F 		.ascii	"MAV_MODE_GUIDED_ARMED\000"
 5786      4D4F4445 
 5786      5F475549 
 5786      4445445F 
 5786      41524D45 
 5787              	.LASF168:
 5788 0eec 64617461 		.ascii	"data\000"
 5788      00
 5789              	.LASF125:
 5790 0ef1 4D41565F 		.ascii	"MAV_STATE_CRITICAL\000"
 5790      53544154 
 5790      455F4352 
ARM GAS  C:\Users\SNFU\AppData\Local\Temp\cc2qKFEC.s 			page 132


 5790      49544943 
 5790      414C00
 5791              	.LASF239:
 5792 0f04 4B5F315F 		.ascii	"K_1_Phi\000"
 5792      50686900 
 5793              	.LASF147:
 5794 0f0c 696E5F61 		.ascii	"in_ail\000"
 5794      696C00
 5795              	.LASF24:
 5796 0f13 5F5F6D61 		.ascii	"__mavlink_system\000"
 5796      766C696E 
 5796      6B5F7379 
 5796      7374656D 
 5796      00
 5797              	.LASF86:
 5798 0f24 4D41565F 		.ascii	"MAV_TYPE_FREE_BALLOON\000"
 5798      54595045 
 5798      5F465245 
 5798      455F4241 
 5798      4C4C4F4F 
 5799              		.ident	"GCC: (GNU Tools for ARM Embedded Processors) 4.7.3 20130312 (release) [ARM/embedded-4_7-br
