ARM GAS  C:\Users\SNFU\AppData\Local\Temp\ccksGmqv.s 			page 1


   1              		.cpu cortex-m0
   2              		.fpu softvfp
   3              		.eabi_attribute 20, 1
   4              		.eabi_attribute 21, 1
   5              		.eabi_attribute 23, 3
   6              		.eabi_attribute 24, 1
   7              		.eabi_attribute 25, 1
   8              		.eabi_attribute 26, 1
   9              		.eabi_attribute 30, 6
  10              		.eabi_attribute 34, 0
  11              		.eabi_attribute 18, 4
  12              		.code	16
  13              		.file	"main.c"
  14              		.text
  15              	.Ltext0:
  16              		.cfi_sections	.debug_frame
  17              		.global	task_flag
  18              		.bss
  19              		.type	task_flag, %object
  20              		.size	task_flag, 1
  21              	task_flag:
  22 0000 00       		.space	1
  23              		.global	blink_cnt
  24              		.type	blink_cnt, %object
  25              		.size	blink_cnt, 1
  26              	blink_cnt:
  27 0001 00       		.space	1
  28              		.global	PPM_channel
  29              		.type	PPM_channel, %object
  30              		.size	PPM_channel, 1
  31              	PPM_channel:
  32 0002 00       		.space	1
  33              		.global	ctrl_in
  34 0003 00       		.align	2
  35              		.type	ctrl_in, %object
  36              		.size	ctrl_in, 16
  37              	ctrl_in:
  38 0004 00000000 		.space	16
  38      00000000 
  38      00000000 
  38      00000000 
  39              		.global	ctrl_out
  40              		.align	2
  41              		.type	ctrl_out, %object
  42              		.size	ctrl_out, 26
  43              	ctrl_out:
  44 0014 00000000 		.space	26
  44      00000000 
  44      00000000 
  44      00000000 
  44      00000000 
  45              		.global	flag_LightsEnabled
  46              		.data
  47              		.type	flag_LightsEnabled, %object
  48              		.size	flag_LightsEnabled, 1
  49              	flag_LightsEnabled:
  50 0000 01       		.byte	1
ARM GAS  C:\Users\SNFU\AppData\Local\Temp\ccksGmqv.s 			page 2


  51              		.global	flag_NavLightPulse
  52              		.bss
  53              		.type	flag_NavLightPulse, %object
  54              		.size	flag_NavLightPulse, 1
  55              	flag_NavLightPulse:
  56 002e 00       		.space	1
  57              		.global	NavLightBright
  58              		.data
  59 0001 00       		.align	1
  60              		.type	NavLightBright, %object
  61              		.size	NavLightBright, 2
  62              	NavLightBright:
  63 0002 6400     		.short	100
  64              		.global	NavLightDim
  65              		.bss
  66 002f 00       		.align	1
  67              		.type	NavLightDim, %object
  68              		.size	NavLightDim, 2
  69              	NavLightDim:
  70 0030 0000     		.space	2
  71              		.global	NavLightStep
  72              		.data
  73              		.align	1
  74              		.type	NavLightStep, %object
  75              		.size	NavLightStep, 2
  76              	NavLightStep:
  77 0004 0100     		.short	1
  78              		.global	NavLightCompare
  79              		.bss
  80              		.align	1
  81              		.type	NavLightCompare, %object
  82              		.size	NavLightCompare, 2
  83              	NavLightCompare:
  84 0032 0000     		.space	2
  85              		.global	turn_rate_p
  86              		.align	1
  87              		.type	turn_rate_p, %object
  88              		.size	turn_rate_p, 2
  89              	turn_rate_p:
  90 0034 0000     		.space	2
  91              		.global	turn_rate_q
  92              		.align	1
  93              		.type	turn_rate_q, %object
  94              		.size	turn_rate_q, 2
  95              	turn_rate_q:
  96 0036 0000     		.space	2
  97              		.global	turn_rate_r
  98              		.align	1
  99              		.type	turn_rate_r, %object
 100              		.size	turn_rate_r, 2
 101              	turn_rate_r:
 102 0038 0000     		.space	2
 103 003a 0000     		.section	.rodata
 104              		.align	2
 105              	.LC0:
 106 0000 256400   		.ascii	"%d\000"
 107              		.section	.text.UART_1_UartPutNum,"ax",%progbits
ARM GAS  C:\Users\SNFU\AppData\Local\Temp\ccksGmqv.s 			page 3


 108              		.align	2
 109              		.global	UART_1_UartPutNum
 110              		.code	16
 111              		.thumb_func
 112              		.type	UART_1_UartPutNum, %function
 113              	UART_1_UartPutNum:
 114              	.LFB33:
 115              		.file 1 ".\\main.c"
   1:.\main.c      **** /* ========================================
   2:.\main.c      ****  *
   3:.\main.c      ****  * Copyright SNFU
   4:.\main.c      ****  * All Rights Reserved
   5:.\main.c      ****  * UNPUBLISHED, LICENSED SOFTWARE.
   6:.\main.c      ****  *
   7:.\main.c      ****  * CONFIDENTIAL AND PROPRIETARY INFORMATION
   8:.\main.c      ****  * WHICH IS THE PROPERTY OF your company.
   9:.\main.c      ****  *
  10:.\main.c      ****  * T-50_Project
  11:.\main.c      ****  *
  12:.\main.c      ****  * ========================================
  13:.\main.c      **** */
  14:.\main.c      **** #include <project.h>
  15:.\main.c      **** #include <stdio.h>
  16:.\main.c      **** #include <stdlib.h>
  17:.\main.c      **** #include <IMU.h>
  18:.\main.c      **** 
  19:.\main.c      **** #define FALSE   0
  20:.\main.c      **** #define TRUE    1
  21:.\main.c      **** 
  22:.\main.c      **** volatile uint8_t task_flag = FALSE;     // The Task Flag is set in TaskISR Interrupt Routine
  23:.\main.c      **** volatile uint8_t blink_cnt = 0;
  24:.\main.c      **** 
  25:.\main.c      **** /*=============================*/
  26:.\main.c      **** /*Remote Input variables*/
  27:.\main.c      **** /*=============================*/
  28:.\main.c      **** uint8_t PPM_channel = 0;                    // input channel variable
  29:.\main.c      **** uint16_t ctrl_in[8] = {0};                  // input control vector
  30:.\main.c      **** uint16_t ctrl_out[13] = {0};                // output control vector
  31:.\main.c      **** 
  32:.\main.c      **** enum e_in{   // Input Control Enum - 8 Channels
  33:.\main.c      ****     in_mot = 0,
  34:.\main.c      ****     in_ail,
  35:.\main.c      ****     in_ele,
  36:.\main.c      ****     in_rud,
  37:.\main.c      ****     in_fl,
  38:.\main.c      ****     in_ge,
  39:.\main.c      ****     in_sp1,
  40:.\main.c      ****     in_sp2
  41:.\main.c      **** };
  42:.\main.c      **** 
  43:.\main.c      **** enum e_out{   // Output Control Enum - 13 Signals
  44:.\main.c      ****     out_mot = 0,
  45:.\main.c      ****     out_ail1,
  46:.\main.c      ****     out_ail2,
  47:.\main.c      ****     out_ele1,
  48:.\main.c      ****     out_ele2,
  49:.\main.c      ****     out_rud,
ARM GAS  C:\Users\SNFU\AppData\Local\Temp\ccksGmqv.s 			page 4


  50:.\main.c      ****     out_fl1,
  51:.\main.c      ****     out_fl2,
  52:.\main.c      ****     out_ge1,
  53:.\main.c      ****     out_ge2,
  54:.\main.c      ****     out_ge3,
  55:.\main.c      ****     out_sp1,
  56:.\main.c      ****     out_sp2
  57:.\main.c      **** };
  58:.\main.c      **** 
  59:.\main.c      **** /*=============================*/
  60:.\main.c      **** /*Light control variables*/
  61:.\main.c      **** /*=============================*/
  62:.\main.c      **** uint8_t flag_LightsEnabled = TRUE;
  63:.\main.c      **** 
  64:.\main.c      **** /*Nav Light Control START -> Pulsing of the Navigation Lights*/
  65:.\main.c      **** uint8_t flag_NavLightPulse  = FALSE;    // Nav Light Pulse flag (to count up or down)
  66:.\main.c      **** uint16_t NavLightBright     = 100;  // Upper value for the brightness 100 = 100%
  67:.\main.c      **** uint16_t NavLightDim        = 0;    // Lower value for the brightness 0 = 0%
  68:.\main.c      **** uint16_t NavLightStep       = 1;    // Nav Light Pulse Stepwidth => brightness change per 10ms
  69:.\main.c      **** uint16_t NavLightCompare    = 0;    // Nav Light PWM Compare Value
  70:.\main.c      **** /*Nav Light Control END*/
  71:.\main.c      **** 
  72:.\main.c      **** /*=============================*/
  73:.\main.c      **** /*IMU variables*/
  74:.\main.c      **** /*=============================*/
  75:.\main.c      **** volatile struct turn_rates_obj
  76:.\main.c      **** {
  77:.\main.c      **** 	long p,q,r;
  78:.\main.c      **** };  // used for getting the turnrates within one struct out of IMU.c
  79:.\main.c      **** 
  80:.\main.c      **** extern struct turn_rates_s turn_rate;
  81:.\main.c      **** 
  82:.\main.c      **** int16_t turn_rate_p = 0;
  83:.\main.c      **** int16_t turn_rate_q = 0;
  84:.\main.c      **** int16_t turn_rate_r = 0;
  85:.\main.c      **** 
  86:.\main.c      **** void UART_1_UartPutNum(int32_t num)
  87:.\main.c      **** {
 116              		.loc 1 87 0
 117              		.cfi_startproc
 118 0000 80B5     		push	{r7, lr}
 119              	.LCFI0:
 120              		.cfi_def_cfa_offset 8
 121              		.cfi_offset 7, -8
 122              		.cfi_offset 14, -4
 123 0002 8AB0     		sub	sp, sp, #40
 124              	.LCFI1:
 125              		.cfi_def_cfa_offset 48
 126 0004 00AF     		add	r7, sp, #0
 127              	.LCFI2:
 128              		.cfi_def_cfa_register 7
 129 0006 7860     		str	r0, [r7, #4]
  88:.\main.c      ****     char k[31];
  89:.\main.c      ****     sprintf(k,"%d",num);
 130              		.loc 1 89 0
 131 0008 391C     		mov	r1, r7
 132 000a 0831     		add	r1, r1, #8
ARM GAS  C:\Users\SNFU\AppData\Local\Temp\ccksGmqv.s 			page 5


 133 000c 074A     		ldr	r2, .L2
 134 000e 7B68     		ldr	r3, [r7, #4]
 135 0010 081C     		mov	r0, r1
 136 0012 111C     		mov	r1, r2
 137 0014 1A1C     		mov	r2, r3
 138 0016 FFF7FEFF 		bl	sprintf
  90:.\main.c      ****     UART_1_UartPutString(k);   
 139              		.loc 1 90 0
 140 001a 3B1C     		mov	r3, r7
 141 001c 0833     		add	r3, r3, #8
 142 001e 181C     		mov	r0, r3
 143 0020 FFF7FEFF 		bl	UART_1_UartPutString
  91:.\main.c      **** }
 144              		.loc 1 91 0
 145 0024 BD46     		mov	sp, r7
 146 0026 0AB0     		add	sp, sp, #40
 147              		@ sp needed for prologue
 148 0028 80BD     		pop	{r7, pc}
 149              	.L3:
 150 002a C046     		.align	2
 151              	.L2:
 152 002c 00000000 		.word	.LC0
 153              		.cfi_endproc
 154              	.LFE33:
 155              		.size	UART_1_UartPutNum, .-UART_1_UartPutNum
 156              		.section	.rodata
 157 0003 00       		.align	2
 158              	.LC2:
 159 0004 55415254 		.ascii	"UART OK\015\012\000"
 159      204F4B0D 
 159      0A00
 160 000e 0000     		.align	2
 161              	.LC14:
 162 0010 3B0D0A00 		.ascii	";\015\012\000"
 163              		.section	.text.main,"ax",%progbits
 164              		.align	2
 165              		.global	main
 166              		.code	16
 167              		.thumb_func
 168              		.type	main, %function
 169              	main:
 170              	.LFB34:
  92:.\main.c      **** 
  93:.\main.c      **** 
  94:.\main.c      **** int main()
  95:.\main.c      **** {
 171              		.loc 1 95 0
 172              		.cfi_startproc
 173 0000 90B5     		push	{r4, r7, lr}
 174              	.LCFI3:
 175              		.cfi_def_cfa_offset 12
 176              		.cfi_offset 4, -12
 177              		.cfi_offset 7, -8
 178              		.cfi_offset 14, -4
 179 0002 87B0     		sub	sp, sp, #28
 180              	.LCFI4:
 181              		.cfi_def_cfa_offset 40
ARM GAS  C:\Users\SNFU\AppData\Local\Temp\ccksGmqv.s 			page 6


 182 0004 00AF     		add	r7, sp, #0
 183              	.LCFI5:
 184              		.cfi_def_cfa_register 7
  96:.\main.c      ****     /* Place your initialization/startup code here (e.g. MyInst_Start()) */
  97:.\main.c      ****     CyGlobalIntEnable; 
 185              		.loc 1 97 0
 186              	@ 97 ".\main.c" 1
 187 0006 62B6     		CPSIE   i
 188              	@ 0 "" 2
  98:.\main.c      **** 
  99:.\main.c      ****     UART_1_Start();     /* Enabling the UART */
 189              		.loc 1 99 0
 190              		.code	16
 191 0008 FFF7FEFF 		bl	UART_1_Start
 100:.\main.c      ****     I2CM_Start();
 192              		.loc 1 100 0
 193 000c FFF7FEFF 		bl	I2CM_Start
 101:.\main.c      ****     CyDelay(500);
 194              		.loc 1 101 0
 195 0010 FA23     		mov	r3, #250
 196 0012 5B00     		lsl	r3, r3, #1
 197 0014 181C     		mov	r0, r3
 198 0016 FFF7FEFF 		bl	CyDelay
 102:.\main.c      ****     TaskTimer_Start();
 199              		.loc 1 102 0
 200 001a FFF7FEFF 		bl	TaskTimer_Start
 103:.\main.c      ****     NavLightPWM_Start();
 201              		.loc 1 103 0
 202 001e FFF7FEFF 		bl	NavLightPWM_Start
 104:.\main.c      ****     PPMCounter_Start();
 203              		.loc 1 104 0
 204 0022 FFF7FEFF 		bl	PPMCounter_Start
 105:.\main.c      ****     ServoTimer_Start();
 205              		.loc 1 105 0
 206 0026 FFF7FEFF 		bl	ServoTimer_Start
 106:.\main.c      ****     PPMISR_Start();
 207              		.loc 1 106 0
 208 002a FFF7FEFF 		bl	PPMISR_Start
 107:.\main.c      ****     PPMRstISR_Start();
 209              		.loc 1 107 0
 210 002e FFF7FEFF 		bl	PPMRstISR_Start
 108:.\main.c      ****     ServoISR_Start();
 211              		.loc 1 108 0
 212 0032 FFF7FEFF 		bl	ServoISR_Start
 109:.\main.c      ****     TaskISR_Start();
 213              		.loc 1 109 0
 214 0036 FFF7FEFF 		bl	TaskISR_Start
 110:.\main.c      ****     BootISR_Start();
 215              		.loc 1 110 0
 216 003a FFF7FEFF 		bl	BootISR_Start
 111:.\main.c      ****     
 112:.\main.c      ****     UART_1_UartPutString("UART OK\r\n");
 217              		.loc 1 112 0
 218 003e 744B     		ldr	r3, .L15
 219 0040 181C     		mov	r0, r3
 220 0042 FFF7FEFF 		bl	UART_1_UartPutString
 113:.\main.c      ****     
ARM GAS  C:\Users\SNFU\AppData\Local\Temp\ccksGmqv.s 			page 7


 114:.\main.c      ****     gyro_start();
 221              		.loc 1 114 0
 222 0046 FFF7FEFF 		bl	gyro_start
 223 004a 00E0     		b	.L13
 224              	.L14:
 115:.\main.c      ****     
 116:.\main.c      ****     /* CyGlobalIntEnable; */ /* Uncomment this line to enable global interrupts. */
 117:.\main.c      ****     for(;;)
 118:.\main.c      ****     {
 119:.\main.c      ****         
 120:.\main.c      ****         if(task_flag == TRUE)
 121:.\main.c      ****         {
 122:.\main.c      ****             /*=======================================
 123:.\main.c      ****                 Main Task that is executed every 10ms
 124:.\main.c      ****               =======================================*/
 125:.\main.c      ****             task_flag = FALSE;
 126:.\main.c      ****             
 127:.\main.c      ****             blink_cnt++;
 128:.\main.c      ****             if(blink_cnt == 10)
 129:.\main.c      ****             {
 130:.\main.c      ****                 blink_cnt = 0;   
 131:.\main.c      ****        
 132:.\main.c      ****             }
 133:.\main.c      ****             if(blink_cnt == 100)
 134:.\main.c      ****             {
 135:.\main.c      ****                 //Pin_2_Write(0xFF);
 136:.\main.c      ****                 
 137:.\main.c      ****             }
 138:.\main.c      ****             if(blink_cnt == 110)
 139:.\main.c      ****             {
 140:.\main.c      ****                 blink_cnt = 0;
 141:.\main.c      ****                 //Pin_2_Write(0x00);    
 142:.\main.c      ****             }
 143:.\main.c      ****             //NavLightCompare++;
 144:.\main.c      ****             //NavLightPWM_WriteCompare(NavLightCompare);      
 145:.\main.c      ****             
 146:.\main.c      ****             /*=======================================
 147:.\main.c      ****                 Light Control
 148:.\main.c      ****               =======================================*/
 149:.\main.c      ****             
 150:.\main.c      ****             if(flag_LightsEnabled == TRUE)
 151:.\main.c      ****             {
 152:.\main.c      ****                 /* Lights enabled */
 153:.\main.c      ****                 // START PWM FOR NAV LIGHTS HERE??
 154:.\main.c      ****                 if(NavLightCompare == NavLightBright)
 155:.\main.c      ****                 {
 156:.\main.c      ****                     flag_NavLightPulse = TRUE;
 157:.\main.c      ****                 }
 158:.\main.c      ****                 else if (NavLightCompare == NavLightDim)
 159:.\main.c      ****                 {
 160:.\main.c      ****                     flag_NavLightPulse = FALSE;
 161:.\main.c      ****                 }
 162:.\main.c      ****                 if(flag_NavLightPulse == 0)
 163:.\main.c      ****                 {
 164:.\main.c      ****                     NavLightCompare+=NavLightStep;
 165:.\main.c      ****                     NavLightPWM_WriteCompare(NavLightCompare);
 166:.\main.c      ****                 }
ARM GAS  C:\Users\SNFU\AppData\Local\Temp\ccksGmqv.s 			page 8


 167:.\main.c      ****                 else
 168:.\main.c      ****                 {
 169:.\main.c      ****                     NavLightCompare-=NavLightStep;
 170:.\main.c      ****                     NavLightPWM_WriteCompare(NavLightCompare);
 171:.\main.c      ****                 }
 172:.\main.c      ****             }
 173:.\main.c      ****             else
 174:.\main.c      ****             {
 175:.\main.c      ****                 /* Lights disabled*/
 176:.\main.c      ****             }
 177:.\main.c      ****             
 178:.\main.c      ****             /*=======================================
 179:.\main.c      ****                 Sensor Reading
 180:.\main.c      ****               =======================================*/
 181:.\main.c      ****             turn_rate = gyro_read();
 182:.\main.c      ****             UART_1_UartPutNum(turn_rate_p);
 183:.\main.c      ****             UART_1_UartPutString(";\r\n");
 184:.\main.c      ****             /*=======================================
 185:.\main.c      ****                 Output Control
 186:.\main.c      ****               =======================================*/
 187:.\main.c      ****         uint8_t debug = 1;
 188:.\main.c      ****             if(debug == 0)
 189:.\main.c      ****             {
 190:.\main.c      ****                 ctrl_out[out_mot] = ctrl_in[in_mot];    
 191:.\main.c      ****                 ctrl_out[out_ail1] = ctrl_in[in_ail];    
 192:.\main.c      ****                 ctrl_out[out_ail2] = ctrl_in[in_ail];
 193:.\main.c      ****                 ctrl_out[out_ele1] = ctrl_in[in_ele];
 194:.\main.c      ****                 ctrl_out[out_ele2] = ctrl_in[in_ele];
 195:.\main.c      ****                 ctrl_out[out_rud] = ctrl_in[in_rud];
 196:.\main.c      ****                 ctrl_out[out_fl1] = ctrl_in[in_fl];
 197:.\main.c      ****                 ctrl_out[out_fl2] = ctrl_in[in_fl];
 198:.\main.c      ****                 ctrl_out[out_ge1] = ctrl_in[in_ge];
 199:.\main.c      ****                 ctrl_out[out_ge2] = ctrl_in[in_ge];
 200:.\main.c      ****                 ctrl_out[out_ge3] = ctrl_in[in_ge];
 201:.\main.c      ****                 ctrl_out[out_sp1] = ctrl_in[in_sp1];
 202:.\main.c      ****                 ctrl_out[out_sp2] = ctrl_in[in_sp2];
 203:.\main.c      ****             }
 204:.\main.c      ****             else
 205:.\main.c      ****             {
 206:.\main.c      ****                 ctrl_in[in_mot] = 1000;
 207:.\main.c      ****                 ctrl_out[out_mot] = ctrl_in[in_mot];    
 208:.\main.c      ****                 ctrl_out[out_ail1] = ctrl_in[in_mot];    
 209:.\main.c      ****                 ctrl_out[out_ail2] = ctrl_in[in_mot];
 210:.\main.c      ****                 ctrl_out[out_ele1] = ctrl_in[in_mot];
 211:.\main.c      ****                 ctrl_out[out_ele2] = ctrl_in[in_mot];
 212:.\main.c      ****                 ctrl_out[out_rud] = ctrl_in[in_mot];
 213:.\main.c      ****                 ctrl_out[out_fl1] = ctrl_in[in_mot];
 214:.\main.c      ****                 ctrl_out[out_fl2] = ctrl_in[in_mot];
 215:.\main.c      ****                 ctrl_out[out_ge1] = ctrl_in[in_mot];
 216:.\main.c      ****                 ctrl_out[out_ge2] = ctrl_in[in_mot];
 217:.\main.c      ****                 ctrl_out[out_ge3] = ctrl_in[in_mot];
 218:.\main.c      ****                 ctrl_out[out_sp1] = ctrl_in[in_mot];
 219:.\main.c      ****                 ctrl_out[out_sp2] = ctrl_in[in_mot];
 220:.\main.c      ****             }
 221:.\main.c      ****             
 222:.\main.c      ****             /*=======================================
 223:.\main.c      ****                 Data Logging
ARM GAS  C:\Users\SNFU\AppData\Local\Temp\ccksGmqv.s 			page 9


 224:.\main.c      ****               =======================================*/
 225:.\main.c      ****             /*    
 226:.\main.c      ****             UART_1_UartPutNum(ctrl_out[out_mot]);
 227:.\main.c      ****                 UART_1_UartPutString(";");
 228:.\main.c      ****                 UART_1_UartPutNum(ctrl_out[out_ail1]);
 229:.\main.c      ****                 UART_1_UartPutString(";");
 230:.\main.c      ****                 UART_1_UartPutNum(ctrl_in[2]);
 231:.\main.c      ****                 UART_1_UartPutString(";");
 232:.\main.c      ****                 UART_1_UartPutNum(ctrl_in[3]);
 233:.\main.c      ****                 UART_1_UartPutString(";");
 234:.\main.c      ****                 UART_1_UartPutNum(ctrl_in[4]);
 235:.\main.c      ****                 UART_1_UartPutString(";");
 236:.\main.c      ****                 UART_1_UartPutNum(ctrl_in[5]);
 237:.\main.c      ****                 UART_1_UartPutString(";");
 238:.\main.c      ****                 UART_1_UartPutNum(ctrl_in[6]);
 239:.\main.c      ****                 UART_1_UartPutString(";");
 240:.\main.c      ****                 UART_1_UartPutNum(ctrl_in[7]);
 241:.\main.c      ****                 UART_1_UartPutString("\r\n");
 242:.\main.c      ****             */
 243:.\main.c      ****         }
 244:.\main.c      **** 
 245:.\main.c      ****     }
 225              		.loc 1 245 0
 226 004c C046     		mov	r8, r8
 227              	.L13:
 120:.\main.c      ****         if(task_flag == TRUE)
 228              		.loc 1 120 0
 229 004e 714B     		ldr	r3, .L15+4
 230 0050 1B78     		ldrb	r3, [r3]
 231 0052 DBB2     		uxtb	r3, r3
 232 0054 012B     		cmp	r3, #1
 233 0056 F9D1     		bne	.L14
 234              	.LBB2:
 125:.\main.c      ****             task_flag = FALSE;
 235              		.loc 1 125 0
 236 0058 6E4B     		ldr	r3, .L15+4
 237 005a 0022     		mov	r2, #0
 238 005c 1A70     		strb	r2, [r3]
 127:.\main.c      ****             blink_cnt++;
 239              		.loc 1 127 0
 240 005e 6E4B     		ldr	r3, .L15+8
 241 0060 1B78     		ldrb	r3, [r3]
 242 0062 DBB2     		uxtb	r3, r3
 243 0064 0133     		add	r3, r3, #1
 244 0066 DAB2     		uxtb	r2, r3
 245 0068 6B4B     		ldr	r3, .L15+8
 246 006a 1A70     		strb	r2, [r3]
 128:.\main.c      ****             if(blink_cnt == 10)
 247              		.loc 1 128 0
 248 006c 6A4B     		ldr	r3, .L15+8
 249 006e 1B78     		ldrb	r3, [r3]
 250 0070 DBB2     		uxtb	r3, r3
 251 0072 0A2B     		cmp	r3, #10
 252 0074 02D1     		bne	.L6
 130:.\main.c      ****                 blink_cnt = 0;   
 253              		.loc 1 130 0
 254 0076 684B     		ldr	r3, .L15+8
ARM GAS  C:\Users\SNFU\AppData\Local\Temp\ccksGmqv.s 			page 10


 255 0078 0022     		mov	r2, #0
 256 007a 1A70     		strb	r2, [r3]
 257              	.L6:
 133:.\main.c      ****             if(blink_cnt == 100)
 258              		.loc 1 133 0
 259 007c 664B     		ldr	r3, .L15+8
 260 007e 1B78     		ldrb	r3, [r3]
 138:.\main.c      ****             if(blink_cnt == 110)
 261              		.loc 1 138 0
 262 0080 654B     		ldr	r3, .L15+8
 263 0082 1B78     		ldrb	r3, [r3]
 264 0084 DBB2     		uxtb	r3, r3
 265 0086 6E2B     		cmp	r3, #110
 266 0088 02D1     		bne	.L7
 140:.\main.c      ****                 blink_cnt = 0;
 267              		.loc 1 140 0
 268 008a 634B     		ldr	r3, .L15+8
 269 008c 0022     		mov	r2, #0
 270 008e 1A70     		strb	r2, [r3]
 271              	.L7:
 150:.\main.c      ****             if(flag_LightsEnabled == TRUE)
 272              		.loc 1 150 0
 273 0090 624B     		ldr	r3, .L15+12
 274 0092 1B78     		ldrb	r3, [r3]
 275 0094 012B     		cmp	r3, #1
 276 0096 31D1     		bne	.L8
 154:.\main.c      ****                 if(NavLightCompare == NavLightBright)
 277              		.loc 1 154 0
 278 0098 614B     		ldr	r3, .L15+16
 279 009a 1A88     		ldrh	r2, [r3]
 280 009c 614B     		ldr	r3, .L15+20
 281 009e 1B88     		ldrh	r3, [r3]
 282 00a0 9A42     		cmp	r2, r3
 283 00a2 03D1     		bne	.L9
 156:.\main.c      ****                     flag_NavLightPulse = TRUE;
 284              		.loc 1 156 0
 285 00a4 604B     		ldr	r3, .L15+24
 286 00a6 0122     		mov	r2, #1
 287 00a8 1A70     		strb	r2, [r3]
 288 00aa 08E0     		b	.L10
 289              	.L9:
 158:.\main.c      ****                 else if (NavLightCompare == NavLightDim)
 290              		.loc 1 158 0
 291 00ac 5C4B     		ldr	r3, .L15+16
 292 00ae 1A88     		ldrh	r2, [r3]
 293 00b0 5E4B     		ldr	r3, .L15+28
 294 00b2 1B88     		ldrh	r3, [r3]
 295 00b4 9A42     		cmp	r2, r3
 296 00b6 02D1     		bne	.L10
 160:.\main.c      ****                     flag_NavLightPulse = FALSE;
 297              		.loc 1 160 0
 298 00b8 5B4B     		ldr	r3, .L15+24
 299 00ba 0022     		mov	r2, #0
 300 00bc 1A70     		strb	r2, [r3]
 301              	.L10:
 162:.\main.c      ****                 if(flag_NavLightPulse == 0)
 302              		.loc 1 162 0
ARM GAS  C:\Users\SNFU\AppData\Local\Temp\ccksGmqv.s 			page 11


 303 00be 5A4B     		ldr	r3, .L15+24
 304 00c0 1B78     		ldrb	r3, [r3]
 305 00c2 002B     		cmp	r3, #0
 306 00c4 0DD1     		bne	.L11
 164:.\main.c      ****                     NavLightCompare+=NavLightStep;
 307              		.loc 1 164 0
 308 00c6 564B     		ldr	r3, .L15+16
 309 00c8 1A88     		ldrh	r2, [r3]
 310 00ca 594B     		ldr	r3, .L15+32
 311 00cc 1B88     		ldrh	r3, [r3]
 312 00ce D318     		add	r3, r2, r3
 313 00d0 9AB2     		uxth	r2, r3
 314 00d2 534B     		ldr	r3, .L15+16
 315 00d4 1A80     		strh	r2, [r3]
 165:.\main.c      ****                     NavLightPWM_WriteCompare(NavLightCompare);
 316              		.loc 1 165 0
 317 00d6 524B     		ldr	r3, .L15+16
 318 00d8 1B88     		ldrh	r3, [r3]
 319 00da 181C     		mov	r0, r3
 320 00dc FFF7FEFF 		bl	NavLightPWM_WriteCompare
 321 00e0 0CE0     		b	.L8
 322              	.L11:
 169:.\main.c      ****                     NavLightCompare-=NavLightStep;
 323              		.loc 1 169 0
 324 00e2 4F4B     		ldr	r3, .L15+16
 325 00e4 1A88     		ldrh	r2, [r3]
 326 00e6 524B     		ldr	r3, .L15+32
 327 00e8 1B88     		ldrh	r3, [r3]
 328 00ea D31A     		sub	r3, r2, r3
 329 00ec 9AB2     		uxth	r2, r3
 330 00ee 4C4B     		ldr	r3, .L15+16
 331 00f0 1A80     		strh	r2, [r3]
 170:.\main.c      ****                     NavLightPWM_WriteCompare(NavLightCompare);
 332              		.loc 1 170 0
 333 00f2 4B4B     		ldr	r3, .L15+16
 334 00f4 1B88     		ldrh	r3, [r3]
 335 00f6 181C     		mov	r0, r3
 336 00f8 FFF7FEFF 		bl	NavLightPWM_WriteCompare
 337              	.L8:
 181:.\main.c      ****             turn_rate = gyro_read();
 338              		.loc 1 181 0
 339 00fc 4D4C     		ldr	r4, .L15+36
 340 00fe 3B1C     		mov	r3, r7
 341 0100 181C     		mov	r0, r3
 342 0102 FFF7FEFF 		bl	gyro_read
 343 0106 3A1C     		mov	r2, r7
 344 0108 231C     		mov	r3, r4
 345 010a 13CA     		ldmia	r2!, {r0, r1, r4}
 346 010c 13C3     		stmia	r3!, {r0, r1, r4}
 182:.\main.c      ****             UART_1_UartPutNum(turn_rate_p);
 347              		.loc 1 182 0
 348 010e 4A4B     		ldr	r3, .L15+40
 349 0110 1B88     		ldrh	r3, [r3]
 350 0112 1BB2     		sxth	r3, r3
 351 0114 181C     		mov	r0, r3
 352 0116 FFF7FEFF 		bl	UART_1_UartPutNum
 183:.\main.c      ****             UART_1_UartPutString(";\r\n");
ARM GAS  C:\Users\SNFU\AppData\Local\Temp\ccksGmqv.s 			page 12


 353              		.loc 1 183 0
 354 011a 484B     		ldr	r3, .L15+44
 355 011c 181C     		mov	r0, r3
 356 011e FFF7FEFF 		bl	UART_1_UartPutString
 187:.\main.c      ****         uint8_t debug = 1;
 357              		.loc 1 187 0
 358 0122 3B1C     		mov	r3, r7
 359 0124 1733     		add	r3, r3, #23
 360 0126 0122     		mov	r2, #1
 361 0128 1A70     		strb	r2, [r3]
 188:.\main.c      ****             if(debug == 0)
 362              		.loc 1 188 0
 363 012a 3B1C     		mov	r3, r7
 364 012c 1733     		add	r3, r3, #23
 365 012e 1B78     		ldrb	r3, [r3]
 366 0130 002B     		cmp	r3, #0
 367 0132 34D1     		bne	.L12
 190:.\main.c      ****                 ctrl_out[out_mot] = ctrl_in[in_mot];    
 368              		.loc 1 190 0
 369 0134 424B     		ldr	r3, .L15+48
 370 0136 1A88     		ldrh	r2, [r3]
 371 0138 424B     		ldr	r3, .L15+52
 372 013a 1A80     		strh	r2, [r3]
 191:.\main.c      ****                 ctrl_out[out_ail1] = ctrl_in[in_ail];    
 373              		.loc 1 191 0
 374 013c 404B     		ldr	r3, .L15+48
 375 013e 5A88     		ldrh	r2, [r3, #2]
 376 0140 404B     		ldr	r3, .L15+52
 377 0142 5A80     		strh	r2, [r3, #2]
 192:.\main.c      ****                 ctrl_out[out_ail2] = ctrl_in[in_ail];
 378              		.loc 1 192 0
 379 0144 3E4B     		ldr	r3, .L15+48
 380 0146 5A88     		ldrh	r2, [r3, #2]
 381 0148 3E4B     		ldr	r3, .L15+52
 382 014a 9A80     		strh	r2, [r3, #4]
 193:.\main.c      ****                 ctrl_out[out_ele1] = ctrl_in[in_ele];
 383              		.loc 1 193 0
 384 014c 3C4B     		ldr	r3, .L15+48
 385 014e 9A88     		ldrh	r2, [r3, #4]
 386 0150 3C4B     		ldr	r3, .L15+52
 387 0152 DA80     		strh	r2, [r3, #6]
 194:.\main.c      ****                 ctrl_out[out_ele2] = ctrl_in[in_ele];
 388              		.loc 1 194 0
 389 0154 3A4B     		ldr	r3, .L15+48
 390 0156 9A88     		ldrh	r2, [r3, #4]
 391 0158 3A4B     		ldr	r3, .L15+52
 392 015a 1A81     		strh	r2, [r3, #8]
 195:.\main.c      ****                 ctrl_out[out_rud] = ctrl_in[in_rud];
 393              		.loc 1 195 0
 394 015c 384B     		ldr	r3, .L15+48
 395 015e DA88     		ldrh	r2, [r3, #6]
 396 0160 384B     		ldr	r3, .L15+52
 397 0162 5A81     		strh	r2, [r3, #10]
 196:.\main.c      ****                 ctrl_out[out_fl1] = ctrl_in[in_fl];
 398              		.loc 1 196 0
 399 0164 364B     		ldr	r3, .L15+48
 400 0166 1A89     		ldrh	r2, [r3, #8]
ARM GAS  C:\Users\SNFU\AppData\Local\Temp\ccksGmqv.s 			page 13


 401 0168 364B     		ldr	r3, .L15+52
 402 016a 9A81     		strh	r2, [r3, #12]
 197:.\main.c      ****                 ctrl_out[out_fl2] = ctrl_in[in_fl];
 403              		.loc 1 197 0
 404 016c 344B     		ldr	r3, .L15+48
 405 016e 1A89     		ldrh	r2, [r3, #8]
 406 0170 344B     		ldr	r3, .L15+52
 407 0172 DA81     		strh	r2, [r3, #14]
 198:.\main.c      ****                 ctrl_out[out_ge1] = ctrl_in[in_ge];
 408              		.loc 1 198 0
 409 0174 324B     		ldr	r3, .L15+48
 410 0176 5A89     		ldrh	r2, [r3, #10]
 411 0178 324B     		ldr	r3, .L15+52
 412 017a 1A82     		strh	r2, [r3, #16]
 199:.\main.c      ****                 ctrl_out[out_ge2] = ctrl_in[in_ge];
 413              		.loc 1 199 0
 414 017c 304B     		ldr	r3, .L15+48
 415 017e 5A89     		ldrh	r2, [r3, #10]
 416 0180 304B     		ldr	r3, .L15+52
 417 0182 5A82     		strh	r2, [r3, #18]
 200:.\main.c      ****                 ctrl_out[out_ge3] = ctrl_in[in_ge];
 418              		.loc 1 200 0
 419 0184 2E4B     		ldr	r3, .L15+48
 420 0186 5A89     		ldrh	r2, [r3, #10]
 421 0188 2E4B     		ldr	r3, .L15+52
 422 018a 9A82     		strh	r2, [r3, #20]
 201:.\main.c      ****                 ctrl_out[out_sp1] = ctrl_in[in_sp1];
 423              		.loc 1 201 0
 424 018c 2C4B     		ldr	r3, .L15+48
 425 018e 9A89     		ldrh	r2, [r3, #12]
 426 0190 2C4B     		ldr	r3, .L15+52
 427 0192 DA82     		strh	r2, [r3, #22]
 202:.\main.c      ****                 ctrl_out[out_sp2] = ctrl_in[in_sp2];
 428              		.loc 1 202 0
 429 0194 2A4B     		ldr	r3, .L15+48
 430 0196 DA89     		ldrh	r2, [r3, #14]
 431 0198 2A4B     		ldr	r3, .L15+52
 432 019a 1A83     		strh	r2, [r3, #24]
 433              	.LBE2:
 434              		.loc 1 245 0
 435 019c 56E7     		b	.L14
 436              	.L12:
 437              	.LBB3:
 206:.\main.c      ****                 ctrl_in[in_mot] = 1000;
 438              		.loc 1 206 0
 439 019e 284B     		ldr	r3, .L15+48
 440 01a0 FA22     		mov	r2, #250
 441 01a2 9200     		lsl	r2, r2, #2
 442 01a4 1A80     		strh	r2, [r3]
 207:.\main.c      ****                 ctrl_out[out_mot] = ctrl_in[in_mot];    
 443              		.loc 1 207 0
 444 01a6 264B     		ldr	r3, .L15+48
 445 01a8 1A88     		ldrh	r2, [r3]
 446 01aa 264B     		ldr	r3, .L15+52
 447 01ac 1A80     		strh	r2, [r3]
 208:.\main.c      ****                 ctrl_out[out_ail1] = ctrl_in[in_mot];    
 448              		.loc 1 208 0
ARM GAS  C:\Users\SNFU\AppData\Local\Temp\ccksGmqv.s 			page 14


 449 01ae 244B     		ldr	r3, .L15+48
 450 01b0 1A88     		ldrh	r2, [r3]
 451 01b2 244B     		ldr	r3, .L15+52
 452 01b4 5A80     		strh	r2, [r3, #2]
 209:.\main.c      ****                 ctrl_out[out_ail2] = ctrl_in[in_mot];
 453              		.loc 1 209 0
 454 01b6 224B     		ldr	r3, .L15+48
 455 01b8 1A88     		ldrh	r2, [r3]
 456 01ba 224B     		ldr	r3, .L15+52
 457 01bc 9A80     		strh	r2, [r3, #4]
 210:.\main.c      ****                 ctrl_out[out_ele1] = ctrl_in[in_mot];
 458              		.loc 1 210 0
 459 01be 204B     		ldr	r3, .L15+48
 460 01c0 1A88     		ldrh	r2, [r3]
 461 01c2 204B     		ldr	r3, .L15+52
 462 01c4 DA80     		strh	r2, [r3, #6]
 211:.\main.c      ****                 ctrl_out[out_ele2] = ctrl_in[in_mot];
 463              		.loc 1 211 0
 464 01c6 1E4B     		ldr	r3, .L15+48
 465 01c8 1A88     		ldrh	r2, [r3]
 466 01ca 1E4B     		ldr	r3, .L15+52
 467 01cc 1A81     		strh	r2, [r3, #8]
 212:.\main.c      ****                 ctrl_out[out_rud] = ctrl_in[in_mot];
 468              		.loc 1 212 0
 469 01ce 1C4B     		ldr	r3, .L15+48
 470 01d0 1A88     		ldrh	r2, [r3]
 471 01d2 1C4B     		ldr	r3, .L15+52
 472 01d4 5A81     		strh	r2, [r3, #10]
 213:.\main.c      ****                 ctrl_out[out_fl1] = ctrl_in[in_mot];
 473              		.loc 1 213 0
 474 01d6 1A4B     		ldr	r3, .L15+48
 475 01d8 1A88     		ldrh	r2, [r3]
 476 01da 1A4B     		ldr	r3, .L15+52
 477 01dc 9A81     		strh	r2, [r3, #12]
 214:.\main.c      ****                 ctrl_out[out_fl2] = ctrl_in[in_mot];
 478              		.loc 1 214 0
 479 01de 184B     		ldr	r3, .L15+48
 480 01e0 1A88     		ldrh	r2, [r3]
 481 01e2 184B     		ldr	r3, .L15+52
 482 01e4 DA81     		strh	r2, [r3, #14]
 215:.\main.c      ****                 ctrl_out[out_ge1] = ctrl_in[in_mot];
 483              		.loc 1 215 0
 484 01e6 164B     		ldr	r3, .L15+48
 485 01e8 1A88     		ldrh	r2, [r3]
 486 01ea 164B     		ldr	r3, .L15+52
 487 01ec 1A82     		strh	r2, [r3, #16]
 216:.\main.c      ****                 ctrl_out[out_ge2] = ctrl_in[in_mot];
 488              		.loc 1 216 0
 489 01ee 144B     		ldr	r3, .L15+48
 490 01f0 1A88     		ldrh	r2, [r3]
 491 01f2 144B     		ldr	r3, .L15+52
 492 01f4 5A82     		strh	r2, [r3, #18]
 217:.\main.c      ****                 ctrl_out[out_ge3] = ctrl_in[in_mot];
 493              		.loc 1 217 0
 494 01f6 124B     		ldr	r3, .L15+48
 495 01f8 1A88     		ldrh	r2, [r3]
 496 01fa 124B     		ldr	r3, .L15+52
ARM GAS  C:\Users\SNFU\AppData\Local\Temp\ccksGmqv.s 			page 15


 497 01fc 9A82     		strh	r2, [r3, #20]
 218:.\main.c      ****                 ctrl_out[out_sp1] = ctrl_in[in_mot];
 498              		.loc 1 218 0
 499 01fe 104B     		ldr	r3, .L15+48
 500 0200 1A88     		ldrh	r2, [r3]
 501 0202 104B     		ldr	r3, .L15+52
 502 0204 DA82     		strh	r2, [r3, #22]
 219:.\main.c      ****                 ctrl_out[out_sp2] = ctrl_in[in_mot];
 503              		.loc 1 219 0
 504 0206 0E4B     		ldr	r3, .L15+48
 505 0208 1A88     		ldrh	r2, [r3]
 506 020a 0E4B     		ldr	r3, .L15+52
 507 020c 1A83     		strh	r2, [r3, #24]
 508              	.LBE3:
 509              		.loc 1 245 0
 510 020e 1DE7     		b	.L14
 511              	.L16:
 512              		.align	2
 513              	.L15:
 514 0210 04000000 		.word	.LC2
 515 0214 00000000 		.word	task_flag
 516 0218 00000000 		.word	blink_cnt
 517 021c 00000000 		.word	flag_LightsEnabled
 518 0220 00000000 		.word	NavLightCompare
 519 0224 00000000 		.word	NavLightBright
 520 0228 00000000 		.word	flag_NavLightPulse
 521 022c 00000000 		.word	NavLightDim
 522 0230 00000000 		.word	NavLightStep
 523 0234 00000000 		.word	turn_rate
 524 0238 00000000 		.word	turn_rate_p
 525 023c 10000000 		.word	.LC14
 526 0240 00000000 		.word	ctrl_in
 527 0244 00000000 		.word	ctrl_out
 528              		.cfi_endproc
 529              	.LFE34:
 530              		.size	main, .-main
 531              		.text
 532              	.Letext0:
 533              		.file 2 "c:\\program files\\cypress\\psoc creator\\3.0\\psoc creator\\import\\gnu_cs\\arm\\4.7.3\\
 534              		.file 3 "./IMU.h"