ARM GAS  C:\Users\SNFU\AppData\Local\Temp\ccpcIp9g.s 			page 1


   1              		.cpu cortex-m0
   2              		.fpu softvfp
   3              		.eabi_attribute 20, 1
   4              		.eabi_attribute 21, 1
   5              		.eabi_attribute 23, 3
   6              		.eabi_attribute 24, 1
   7              		.eabi_attribute 25, 1
   8              		.eabi_attribute 26, 1
   9              		.eabi_attribute 30, 6
  10              		.eabi_attribute 34, 0
  11              		.eabi_attribute 18, 4
  12              		.code	16
  13              		.file	"PPMCounter.c"
  14              		.text
  15              	.Ltext0:
  16              		.cfi_sections	.debug_frame
  17              		.global	PPMCounter_initVar
  18              		.bss
  19              		.type	PPMCounter_initVar, %object
  20              		.size	PPMCounter_initVar, 1
  21              	PPMCounter_initVar:
  22 0000 00       		.space	1
  23              		.section	.text.PPMCounter_Init,"ax",%progbits
  24              		.align	2
  25              		.global	PPMCounter_Init
  26              		.code	16
  27              		.thumb_func
  28              		.type	PPMCounter_Init, %function
  29              	PPMCounter_Init:
  30              	.LFB0:
  31              		.file 1 ".\\Generated_Source\\PSoC4\\PPMCounter.c"
   1:.\Generated_Source\PSoC4/PPMCounter.c **** /*******************************************************************************
   2:.\Generated_Source\PSoC4/PPMCounter.c **** * File Name: PPMCounter.c
   3:.\Generated_Source\PSoC4/PPMCounter.c **** * Version 1.10
   4:.\Generated_Source\PSoC4/PPMCounter.c **** *
   5:.\Generated_Source\PSoC4/PPMCounter.c **** * Description:
   6:.\Generated_Source\PSoC4/PPMCounter.c **** *  This file provides the source code to the API for the PPMCounter
   7:.\Generated_Source\PSoC4/PPMCounter.c **** *  component
   8:.\Generated_Source\PSoC4/PPMCounter.c **** *
   9:.\Generated_Source\PSoC4/PPMCounter.c **** * Note:
  10:.\Generated_Source\PSoC4/PPMCounter.c **** *  None
  11:.\Generated_Source\PSoC4/PPMCounter.c **** *
  12:.\Generated_Source\PSoC4/PPMCounter.c **** ********************************************************************************
  13:.\Generated_Source\PSoC4/PPMCounter.c **** * Copyright 2013-2014, Cypress Semiconductor Corporation.  All rights reserved.
  14:.\Generated_Source\PSoC4/PPMCounter.c **** * You may use this file only in accordance with the license, terms, conditions,
  15:.\Generated_Source\PSoC4/PPMCounter.c **** * disclaimers, and limitations in the end user license agreement accompanying
  16:.\Generated_Source\PSoC4/PPMCounter.c **** * the software package with which this file was provided.
  17:.\Generated_Source\PSoC4/PPMCounter.c **** *******************************************************************************/
  18:.\Generated_Source\PSoC4/PPMCounter.c **** 
  19:.\Generated_Source\PSoC4/PPMCounter.c **** #include "PPMCounter.h"
  20:.\Generated_Source\PSoC4/PPMCounter.c **** #include "CyLib.h"
  21:.\Generated_Source\PSoC4/PPMCounter.c **** 
  22:.\Generated_Source\PSoC4/PPMCounter.c **** uint8 PPMCounter_initVar = 0u;
  23:.\Generated_Source\PSoC4/PPMCounter.c **** 
  24:.\Generated_Source\PSoC4/PPMCounter.c **** 
  25:.\Generated_Source\PSoC4/PPMCounter.c **** /*******************************************************************************
  26:.\Generated_Source\PSoC4/PPMCounter.c **** * Function Name: PPMCounter_Init
ARM GAS  C:\Users\SNFU\AppData\Local\Temp\ccpcIp9g.s 			page 2


  27:.\Generated_Source\PSoC4/PPMCounter.c **** ********************************************************************************
  28:.\Generated_Source\PSoC4/PPMCounter.c **** *
  29:.\Generated_Source\PSoC4/PPMCounter.c **** * Summary:
  30:.\Generated_Source\PSoC4/PPMCounter.c **** *  Initialize/Restore default PPMCounter configuration.
  31:.\Generated_Source\PSoC4/PPMCounter.c **** *
  32:.\Generated_Source\PSoC4/PPMCounter.c **** * Parameters:
  33:.\Generated_Source\PSoC4/PPMCounter.c **** *  None
  34:.\Generated_Source\PSoC4/PPMCounter.c **** *
  35:.\Generated_Source\PSoC4/PPMCounter.c **** * Return:
  36:.\Generated_Source\PSoC4/PPMCounter.c **** *  None
  37:.\Generated_Source\PSoC4/PPMCounter.c **** *
  38:.\Generated_Source\PSoC4/PPMCounter.c **** *******************************************************************************/
  39:.\Generated_Source\PSoC4/PPMCounter.c **** void PPMCounter_Init(void)
  40:.\Generated_Source\PSoC4/PPMCounter.c **** {
  32              		.loc 1 40 0
  33              		.cfi_startproc
  34 0000 80B5     		push	{r7, lr}
  35              	.LCFI0:
  36              		.cfi_def_cfa_offset 8
  37              		.cfi_offset 7, -8
  38              		.cfi_offset 14, -4
  39 0002 00AF     		add	r7, sp, #0
  40              	.LCFI1:
  41              		.cfi_def_cfa_register 7
  41:.\Generated_Source\PSoC4/PPMCounter.c **** 
  42:.\Generated_Source\PSoC4/PPMCounter.c ****     /* Set values from customizer to CTRL */
  43:.\Generated_Source\PSoC4/PPMCounter.c ****     #if (PPMCounter__QUAD == PPMCounter_CONFIG)
  44:.\Generated_Source\PSoC4/PPMCounter.c ****         PPMCounter_CONTROL_REG =
  45:.\Generated_Source\PSoC4/PPMCounter.c ****         (((uint32)(PPMCounter_QUAD_ENCODING_MODES     << PPMCounter_QUAD_MODE_SHIFT))       |
  46:.\Generated_Source\PSoC4/PPMCounter.c ****          ((uint32)(PPMCounter_CONFIG                  << PPMCounter_MODE_SHIFT)));
  47:.\Generated_Source\PSoC4/PPMCounter.c ****     #endif  /* (PPMCounter__QUAD == PPMCounter_CONFIG) */
  48:.\Generated_Source\PSoC4/PPMCounter.c **** 
  49:.\Generated_Source\PSoC4/PPMCounter.c ****     #if (PPMCounter__PWM_SEL == PPMCounter_CONFIG)
  50:.\Generated_Source\PSoC4/PPMCounter.c ****         PPMCounter_CONTROL_REG =
  51:.\Generated_Source\PSoC4/PPMCounter.c ****         (((uint32)(PPMCounter_PWM_STOP_EVENT          << PPMCounter_PWM_STOP_KILL_SHIFT))    |
  52:.\Generated_Source\PSoC4/PPMCounter.c ****          ((uint32)(PPMCounter_PWM_OUT_INVERT          << PPMCounter_INV_OUT_SHIFT))         |
  53:.\Generated_Source\PSoC4/PPMCounter.c ****          ((uint32)(PPMCounter_PWM_OUT_N_INVERT        << PPMCounter_INV_COMPL_OUT_SHIFT))     |
  54:.\Generated_Source\PSoC4/PPMCounter.c ****          ((uint32)(PPMCounter_PWM_MODE                << PPMCounter_MODE_SHIFT)));
  55:.\Generated_Source\PSoC4/PPMCounter.c **** 
  56:.\Generated_Source\PSoC4/PPMCounter.c ****         #if (PPMCounter__PWM_PR == PPMCounter_PWM_MODE)
  57:.\Generated_Source\PSoC4/PPMCounter.c ****             PPMCounter_CONTROL_REG |=
  58:.\Generated_Source\PSoC4/PPMCounter.c ****             ((uint32)(PPMCounter_PWM_RUN_MODE         << PPMCounter_ONESHOT_SHIFT));
  59:.\Generated_Source\PSoC4/PPMCounter.c **** 
  60:.\Generated_Source\PSoC4/PPMCounter.c ****             PPMCounter_WriteCounter(PPMCounter_PWM_PR_INIT_VALUE);
  61:.\Generated_Source\PSoC4/PPMCounter.c ****         #else
  62:.\Generated_Source\PSoC4/PPMCounter.c ****             PPMCounter_CONTROL_REG |=
  63:.\Generated_Source\PSoC4/PPMCounter.c ****             (((uint32)(PPMCounter_PWM_ALIGN           << PPMCounter_UPDOWN_SHIFT))          |
  64:.\Generated_Source\PSoC4/PPMCounter.c ****              ((uint32)(PPMCounter_PWM_KILL_EVENT      << PPMCounter_PWM_SYNC_KILL_SHIFT)));
  65:.\Generated_Source\PSoC4/PPMCounter.c ****         #endif  /* (PPMCounter__PWM_PR == PPMCounter_PWM_MODE) */
  66:.\Generated_Source\PSoC4/PPMCounter.c **** 
  67:.\Generated_Source\PSoC4/PPMCounter.c ****         #if (PPMCounter__PWM_DT == PPMCounter_PWM_MODE)
  68:.\Generated_Source\PSoC4/PPMCounter.c ****             PPMCounter_CONTROL_REG |=
  69:.\Generated_Source\PSoC4/PPMCounter.c ****             ((uint32)(PPMCounter_PWM_DEAD_TIME_CYCLE  << PPMCounter_PRESCALER_SHIFT));
  70:.\Generated_Source\PSoC4/PPMCounter.c ****         #endif  /* (PPMCounter__PWM_DT == PPMCounter_PWM_MODE) */
  71:.\Generated_Source\PSoC4/PPMCounter.c **** 
  72:.\Generated_Source\PSoC4/PPMCounter.c ****         #if (PPMCounter__PWM == PPMCounter_PWM_MODE)
  73:.\Generated_Source\PSoC4/PPMCounter.c ****             PPMCounter_CONTROL_REG |=
ARM GAS  C:\Users\SNFU\AppData\Local\Temp\ccpcIp9g.s 			page 3


  74:.\Generated_Source\PSoC4/PPMCounter.c ****             ((uint32)PPMCounter_PWM_PRESCALER         << PPMCounter_PRESCALER_SHIFT);
  75:.\Generated_Source\PSoC4/PPMCounter.c ****         #endif  /* (PPMCounter__PWM == PPMCounter_PWM_MODE) */
  76:.\Generated_Source\PSoC4/PPMCounter.c ****     #endif  /* (PPMCounter__PWM_SEL == PPMCounter_CONFIG) */
  77:.\Generated_Source\PSoC4/PPMCounter.c **** 
  78:.\Generated_Source\PSoC4/PPMCounter.c ****     #if (PPMCounter__TIMER == PPMCounter_CONFIG)
  79:.\Generated_Source\PSoC4/PPMCounter.c ****         PPMCounter_CONTROL_REG =
  42              		.loc 1 79 0
  43 0004 084B     		ldr	r3, .L2
  44 0006 8022     		mov	r2, #128
  45 0008 9204     		lsl	r2, r2, #18
  46 000a 1A60     		str	r2, [r3]
  80:.\Generated_Source\PSoC4/PPMCounter.c ****         (((uint32)(PPMCounter_TC_PRESCALER            << PPMCounter_PRESCALER_SHIFT))   |
  81:.\Generated_Source\PSoC4/PPMCounter.c ****          ((uint32)(PPMCounter_TC_COUNTER_MODE         << PPMCounter_UPDOWN_SHIFT))      |
  82:.\Generated_Source\PSoC4/PPMCounter.c ****          ((uint32)(PPMCounter_TC_RUN_MODE             << PPMCounter_ONESHOT_SHIFT))     |
  83:.\Generated_Source\PSoC4/PPMCounter.c ****          ((uint32)(PPMCounter_TC_COMP_CAP_MODE        << PPMCounter_MODE_SHIFT)));
  84:.\Generated_Source\PSoC4/PPMCounter.c ****     #endif  /* (PPMCounter__TIMER == PPMCounter_CONFIG) */
  85:.\Generated_Source\PSoC4/PPMCounter.c **** 
  86:.\Generated_Source\PSoC4/PPMCounter.c ****     /* Set values from customizer to CTRL1 */
  87:.\Generated_Source\PSoC4/PPMCounter.c ****     #if (PPMCounter__QUAD == PPMCounter_CONFIG)
  88:.\Generated_Source\PSoC4/PPMCounter.c ****         PPMCounter_TRIG_CONTROL1_REG  =
  89:.\Generated_Source\PSoC4/PPMCounter.c ****         (((uint32)(PPMCounter_QUAD_PHIA_SIGNAL_MODE   << PPMCounter_COUNT_SHIFT))       |
  90:.\Generated_Source\PSoC4/PPMCounter.c ****          ((uint32)(PPMCounter_QUAD_INDEX_SIGNAL_MODE  << PPMCounter_RELOAD_SHIFT))      |
  91:.\Generated_Source\PSoC4/PPMCounter.c ****          ((uint32)(PPMCounter_QUAD_STOP_SIGNAL_MODE   << PPMCounter_STOP_SHIFT))        |
  92:.\Generated_Source\PSoC4/PPMCounter.c ****          ((uint32)(PPMCounter_QUAD_PHIB_SIGNAL_MODE   << PPMCounter_START_SHIFT)));
  93:.\Generated_Source\PSoC4/PPMCounter.c ****     #endif  /* (PPMCounter__QUAD == PPMCounter_CONFIG) */
  94:.\Generated_Source\PSoC4/PPMCounter.c **** 
  95:.\Generated_Source\PSoC4/PPMCounter.c ****     #if (PPMCounter__PWM_SEL == PPMCounter_CONFIG)
  96:.\Generated_Source\PSoC4/PPMCounter.c ****         PPMCounter_TRIG_CONTROL1_REG  =
  97:.\Generated_Source\PSoC4/PPMCounter.c ****         (((uint32)(PPMCounter_PWM_SWITCH_SIGNAL_MODE  << PPMCounter_CAPTURE_SHIFT))     |
  98:.\Generated_Source\PSoC4/PPMCounter.c ****          ((uint32)(PPMCounter_PWM_COUNT_SIGNAL_MODE   << PPMCounter_COUNT_SHIFT))       |
  99:.\Generated_Source\PSoC4/PPMCounter.c ****          ((uint32)(PPMCounter_PWM_RELOAD_SIGNAL_MODE  << PPMCounter_RELOAD_SHIFT))      |
 100:.\Generated_Source\PSoC4/PPMCounter.c ****          ((uint32)(PPMCounter_PWM_STOP_SIGNAL_MODE    << PPMCounter_STOP_SHIFT))        |
 101:.\Generated_Source\PSoC4/PPMCounter.c ****          ((uint32)(PPMCounter_PWM_START_SIGNAL_MODE   << PPMCounter_START_SHIFT)));
 102:.\Generated_Source\PSoC4/PPMCounter.c ****     #endif  /* (PPMCounter__PWM_SEL == PPMCounter_CONFIG) */
 103:.\Generated_Source\PSoC4/PPMCounter.c **** 
 104:.\Generated_Source\PSoC4/PPMCounter.c ****     #if (PPMCounter__TIMER == PPMCounter_CONFIG)
 105:.\Generated_Source\PSoC4/PPMCounter.c ****         PPMCounter_TRIG_CONTROL1_REG  =
  47              		.loc 1 105 0
  48 000c 074B     		ldr	r3, .L2+4
  49 000e 0C22     		mov	r2, #12
  50 0010 1A60     		str	r2, [r3]
 106:.\Generated_Source\PSoC4/PPMCounter.c ****         (((uint32)(PPMCounter_TC_CAPTURE_SIGNAL_MODE  << PPMCounter_CAPTURE_SHIFT))     |
 107:.\Generated_Source\PSoC4/PPMCounter.c ****          ((uint32)(PPMCounter_TC_COUNT_SIGNAL_MODE    << PPMCounter_COUNT_SHIFT))       |
 108:.\Generated_Source\PSoC4/PPMCounter.c ****          ((uint32)(PPMCounter_TC_RELOAD_SIGNAL_MODE   << PPMCounter_RELOAD_SHIFT))      |
 109:.\Generated_Source\PSoC4/PPMCounter.c ****          ((uint32)(PPMCounter_TC_STOP_SIGNAL_MODE     << PPMCounter_STOP_SHIFT))        |
 110:.\Generated_Source\PSoC4/PPMCounter.c ****          ((uint32)(PPMCounter_TC_START_SIGNAL_MODE    << PPMCounter_START_SHIFT)));
 111:.\Generated_Source\PSoC4/PPMCounter.c ****     #endif  /* (PPMCounter__TIMER == PPMCounter_CONFIG) */
 112:.\Generated_Source\PSoC4/PPMCounter.c **** 
 113:.\Generated_Source\PSoC4/PPMCounter.c ****     /* Set values from customizer to INTR */
 114:.\Generated_Source\PSoC4/PPMCounter.c ****     #if (PPMCounter__QUAD == PPMCounter_CONFIG)
 115:.\Generated_Source\PSoC4/PPMCounter.c ****         PPMCounter_SetInterruptMode(PPMCounter_QUAD_INTERRUPT_MASK);
 116:.\Generated_Source\PSoC4/PPMCounter.c ****     #endif  /* (PPMCounter__QUAD == PPMCounter_CONFIG) */
 117:.\Generated_Source\PSoC4/PPMCounter.c **** 
 118:.\Generated_Source\PSoC4/PPMCounter.c ****     #if (PPMCounter__PWM_SEL == PPMCounter_CONFIG)
 119:.\Generated_Source\PSoC4/PPMCounter.c ****         PPMCounter_SetInterruptMode(PPMCounter_PWM_INTERRUPT_MASK);
 120:.\Generated_Source\PSoC4/PPMCounter.c ****     #endif  /* (PPMCounter__PWM_SEL == PPMCounter_CONFIG) */
 121:.\Generated_Source\PSoC4/PPMCounter.c **** 
ARM GAS  C:\Users\SNFU\AppData\Local\Temp\ccpcIp9g.s 			page 4


 122:.\Generated_Source\PSoC4/PPMCounter.c ****     #if (PPMCounter__TIMER == PPMCounter_CONFIG)
 123:.\Generated_Source\PSoC4/PPMCounter.c ****         PPMCounter_SetInterruptMode(PPMCounter_TC_INTERRUPT_MASK);
  51              		.loc 1 123 0
  52 0012 0220     		mov	r0, #2
  53 0014 FFF7FEFF 		bl	PPMCounter_SetInterruptMode
 124:.\Generated_Source\PSoC4/PPMCounter.c ****     #endif  /* (PPMCounter__TIMER == PPMCounter_CONFIG) */
 125:.\Generated_Source\PSoC4/PPMCounter.c **** 
 126:.\Generated_Source\PSoC4/PPMCounter.c ****     /* Set other values from customizer */
 127:.\Generated_Source\PSoC4/PPMCounter.c ****     #if (PPMCounter__TIMER == PPMCounter_CONFIG)
 128:.\Generated_Source\PSoC4/PPMCounter.c ****         PPMCounter_WritePeriod(PPMCounter_TC_PERIOD_VALUE );
  54              		.loc 1 128 0
  55 0018 E123     		mov	r3, #225
  56 001a 1B01     		lsl	r3, r3, #4
  57 001c 181C     		mov	r0, r3
  58 001e FFF7FEFF 		bl	PPMCounter_WritePeriod
 129:.\Generated_Source\PSoC4/PPMCounter.c **** 
 130:.\Generated_Source\PSoC4/PPMCounter.c ****         #if (PPMCounter__COUNT_DOWN == PPMCounter_TC_COUNTER_MODE)
 131:.\Generated_Source\PSoC4/PPMCounter.c ****             PPMCounter_WriteCounter(PPMCounter_TC_PERIOD_VALUE );
 132:.\Generated_Source\PSoC4/PPMCounter.c ****         #endif  /* (PPMCounter__COUNT_DOWN == PPMCounter_TC_COUNTER_MODE) */
 133:.\Generated_Source\PSoC4/PPMCounter.c **** 
 134:.\Generated_Source\PSoC4/PPMCounter.c ****         #if (PPMCounter__COMPARE == PPMCounter_TC_COMP_CAP_MODE)
 135:.\Generated_Source\PSoC4/PPMCounter.c ****             PPMCounter_WriteCompare(PPMCounter_TC_COMPARE_VALUE);
 136:.\Generated_Source\PSoC4/PPMCounter.c **** 
 137:.\Generated_Source\PSoC4/PPMCounter.c ****             #if (1u == PPMCounter_TC_COMPARE_SWAP)
 138:.\Generated_Source\PSoC4/PPMCounter.c ****                 PPMCounter_SetCompareSwap(1u);
 139:.\Generated_Source\PSoC4/PPMCounter.c ****                 PPMCounter_WriteCompareBuf(PPMCounter_TC_COMPARE_BUF_VALUE);
 140:.\Generated_Source\PSoC4/PPMCounter.c ****             #endif  /* (1u == PPMCounter_TC_COMPARE_SWAP) */
 141:.\Generated_Source\PSoC4/PPMCounter.c ****         #endif  /* (PPMCounter__COMPARE == PPMCounter_TC_COMP_CAP_MODE) */
 142:.\Generated_Source\PSoC4/PPMCounter.c ****     #endif  /* (PPMCounter__TIMER == PPMCounter_CONFIG) */
 143:.\Generated_Source\PSoC4/PPMCounter.c **** 
 144:.\Generated_Source\PSoC4/PPMCounter.c ****     #if (PPMCounter__PWM_SEL == PPMCounter_CONFIG)
 145:.\Generated_Source\PSoC4/PPMCounter.c ****         PPMCounter_WritePeriod(PPMCounter_PWM_PERIOD_VALUE );
 146:.\Generated_Source\PSoC4/PPMCounter.c ****         PPMCounter_WriteCompare(PPMCounter_PWM_COMPARE_VALUE);
 147:.\Generated_Source\PSoC4/PPMCounter.c **** 
 148:.\Generated_Source\PSoC4/PPMCounter.c ****         #if (1u == PPMCounter_PWM_COMPARE_SWAP)
 149:.\Generated_Source\PSoC4/PPMCounter.c ****             PPMCounter_SetCompareSwap(1u);
 150:.\Generated_Source\PSoC4/PPMCounter.c ****             PPMCounter_WriteCompareBuf(PPMCounter_PWM_COMPARE_BUF_VALUE);
 151:.\Generated_Source\PSoC4/PPMCounter.c ****         #endif  /* (1u == PPMCounter_PWM_COMPARE_SWAP) */
 152:.\Generated_Source\PSoC4/PPMCounter.c **** 
 153:.\Generated_Source\PSoC4/PPMCounter.c ****         #if (1u == PPMCounter_PWM_PERIOD_SWAP)
 154:.\Generated_Source\PSoC4/PPMCounter.c ****             PPMCounter_SetPeriodSwap(1u);
 155:.\Generated_Source\PSoC4/PPMCounter.c ****             PPMCounter_WritePeriodBuf(PPMCounter_PWM_PERIOD_BUF_VALUE);
 156:.\Generated_Source\PSoC4/PPMCounter.c ****         #endif  /* (1u == PPMCounter_PWM_PERIOD_SWAP) */
 157:.\Generated_Source\PSoC4/PPMCounter.c **** 
 158:.\Generated_Source\PSoC4/PPMCounter.c ****         /* Set values from customizer to CTRL2 */
 159:.\Generated_Source\PSoC4/PPMCounter.c ****         #if (PPMCounter__PWM_PR == PPMCounter_PWM_MODE)
 160:.\Generated_Source\PSoC4/PPMCounter.c ****             PPMCounter_TRIG_CONTROL2_REG =
 161:.\Generated_Source\PSoC4/PPMCounter.c ****                     (PPMCounter_CC_MATCH_NO_CHANGE    |
 162:.\Generated_Source\PSoC4/PPMCounter.c ****                     PPMCounter_OVERLOW_NO_CHANGE      |
 163:.\Generated_Source\PSoC4/PPMCounter.c ****                     PPMCounter_UNDERFLOW_NO_CHANGE);
 164:.\Generated_Source\PSoC4/PPMCounter.c ****         #else
 165:.\Generated_Source\PSoC4/PPMCounter.c ****             #if (PPMCounter__LEFT == PPMCounter_PWM_ALIGN)
 166:.\Generated_Source\PSoC4/PPMCounter.c ****                 PPMCounter_TRIG_CONTROL2_REG = PPMCounter_PWM_MODE_LEFT;
 167:.\Generated_Source\PSoC4/PPMCounter.c ****             #endif  /* ( PPMCounter_PWM_LEFT == PPMCounter_PWM_ALIGN) */
 168:.\Generated_Source\PSoC4/PPMCounter.c **** 
 169:.\Generated_Source\PSoC4/PPMCounter.c ****             #if (PPMCounter__RIGHT == PPMCounter_PWM_ALIGN)
 170:.\Generated_Source\PSoC4/PPMCounter.c ****                 PPMCounter_WriteCounter(PPMCounter_PWM_PERIOD_VALUE);
ARM GAS  C:\Users\SNFU\AppData\Local\Temp\ccpcIp9g.s 			page 5


 171:.\Generated_Source\PSoC4/PPMCounter.c ****                 PPMCounter_TRIG_CONTROL2_REG = PPMCounter_PWM_MODE_RIGHT;
 172:.\Generated_Source\PSoC4/PPMCounter.c ****             #endif  /* ( PPMCounter_PWM_RIGHT == PPMCounter_PWM_ALIGN) */
 173:.\Generated_Source\PSoC4/PPMCounter.c **** 
 174:.\Generated_Source\PSoC4/PPMCounter.c ****             #if (PPMCounter__CENTER == PPMCounter_PWM_ALIGN)
 175:.\Generated_Source\PSoC4/PPMCounter.c ****                 PPMCounter_TRIG_CONTROL2_REG = PPMCounter_PWM_MODE_CENTER;
 176:.\Generated_Source\PSoC4/PPMCounter.c ****             #endif  /* ( PPMCounter_PWM_CENTER == PPMCounter_PWM_ALIGN) */
 177:.\Generated_Source\PSoC4/PPMCounter.c **** 
 178:.\Generated_Source\PSoC4/PPMCounter.c ****             #if (PPMCounter__ASYMMETRIC == PPMCounter_PWM_ALIGN)
 179:.\Generated_Source\PSoC4/PPMCounter.c ****                 PPMCounter_TRIG_CONTROL2_REG = PPMCounter_PWM_MODE_ASYM;
 180:.\Generated_Source\PSoC4/PPMCounter.c ****             #endif  /* (PPMCounter__ASYMMETRIC == PPMCounter_PWM_ALIGN) */
 181:.\Generated_Source\PSoC4/PPMCounter.c ****         #endif  /* (PPMCounter__PWM_PR == PPMCounter_PWM_MODE) */
 182:.\Generated_Source\PSoC4/PPMCounter.c ****     #endif  /* (PPMCounter__PWM_SEL == PPMCounter_CONFIG) */
 183:.\Generated_Source\PSoC4/PPMCounter.c **** }
  59              		.loc 1 183 0
  60 0022 BD46     		mov	sp, r7
  61              		@ sp needed for prologue
  62 0024 80BD     		pop	{r7, pc}
  63              	.L3:
  64 0026 C046     		.align	2
  65              	.L2:
  66 0028 C0010540 		.word	1074069952
  67 002c E4010540 		.word	1074069988
  68              		.cfi_endproc
  69              	.LFE0:
  70              		.size	PPMCounter_Init, .-PPMCounter_Init
  71              		.section	.text.PPMCounter_Enable,"ax",%progbits
  72              		.align	2
  73              		.global	PPMCounter_Enable
  74              		.code	16
  75              		.thumb_func
  76              		.type	PPMCounter_Enable, %function
  77              	PPMCounter_Enable:
  78              	.LFB1:
 184:.\Generated_Source\PSoC4/PPMCounter.c **** 
 185:.\Generated_Source\PSoC4/PPMCounter.c **** 
 186:.\Generated_Source\PSoC4/PPMCounter.c **** /*******************************************************************************
 187:.\Generated_Source\PSoC4/PPMCounter.c **** * Function Name: PPMCounter_Enable
 188:.\Generated_Source\PSoC4/PPMCounter.c **** ********************************************************************************
 189:.\Generated_Source\PSoC4/PPMCounter.c **** *
 190:.\Generated_Source\PSoC4/PPMCounter.c **** * Summary:
 191:.\Generated_Source\PSoC4/PPMCounter.c **** *  Enables the PPMCounter.
 192:.\Generated_Source\PSoC4/PPMCounter.c **** *
 193:.\Generated_Source\PSoC4/PPMCounter.c **** * Parameters:
 194:.\Generated_Source\PSoC4/PPMCounter.c **** *  None
 195:.\Generated_Source\PSoC4/PPMCounter.c **** *
 196:.\Generated_Source\PSoC4/PPMCounter.c **** * Return:
 197:.\Generated_Source\PSoC4/PPMCounter.c **** *  None
 198:.\Generated_Source\PSoC4/PPMCounter.c **** *
 199:.\Generated_Source\PSoC4/PPMCounter.c **** *******************************************************************************/
 200:.\Generated_Source\PSoC4/PPMCounter.c **** void PPMCounter_Enable(void)
 201:.\Generated_Source\PSoC4/PPMCounter.c **** {
  79              		.loc 1 201 0
  80              		.cfi_startproc
  81 0000 90B5     		push	{r4, r7, lr}
  82              	.LCFI2:
  83              		.cfi_def_cfa_offset 12
  84              		.cfi_offset 4, -12
ARM GAS  C:\Users\SNFU\AppData\Local\Temp\ccpcIp9g.s 			page 6


  85              		.cfi_offset 7, -8
  86              		.cfi_offset 14, -4
  87 0002 83B0     		sub	sp, sp, #12
  88              	.LCFI3:
  89              		.cfi_def_cfa_offset 24
  90 0004 00AF     		add	r7, sp, #0
  91              	.LCFI4:
  92              		.cfi_def_cfa_register 7
 202:.\Generated_Source\PSoC4/PPMCounter.c ****     uint8 enableInterrupts;
 203:.\Generated_Source\PSoC4/PPMCounter.c **** 
 204:.\Generated_Source\PSoC4/PPMCounter.c ****     enableInterrupts = CyEnterCriticalSection();
  93              		.loc 1 204 0
  94 0006 FC1D     		add	r4, r7, #7
  95 0008 FFF7FEFF 		bl	CyEnterCriticalSection
  96 000c 031C     		mov	r3, r0
  97 000e 2370     		strb	r3, [r4]
 205:.\Generated_Source\PSoC4/PPMCounter.c ****     PPMCounter_BLOCK_CONTROL_REG |= PPMCounter_MASK;
  98              		.loc 1 205 0
  99 0010 084B     		ldr	r3, .L5
 100 0012 084A     		ldr	r2, .L5
 101 0014 1268     		ldr	r2, [r2]
 102 0016 0821     		mov	r1, #8
 103 0018 0A43     		orr	r2, r1
 104 001a 1A60     		str	r2, [r3]
 206:.\Generated_Source\PSoC4/PPMCounter.c ****     CyExitCriticalSection(enableInterrupts);
 105              		.loc 1 206 0
 106 001c FB1D     		add	r3, r7, #7
 107 001e 1B78     		ldrb	r3, [r3]
 108 0020 181C     		mov	r0, r3
 109 0022 FFF7FEFF 		bl	CyExitCriticalSection
 207:.\Generated_Source\PSoC4/PPMCounter.c **** 
 208:.\Generated_Source\PSoC4/PPMCounter.c ****     /* Start Timer or PWM if start input is absent */
 209:.\Generated_Source\PSoC4/PPMCounter.c ****     #if (PPMCounter__PWM_SEL == PPMCounter_CONFIG)
 210:.\Generated_Source\PSoC4/PPMCounter.c ****         #if (0u == PPMCounter_PWM_START_SIGNAL_PRESENT)
 211:.\Generated_Source\PSoC4/PPMCounter.c ****             PPMCounter_TriggerCommand(PPMCounter_MASK, PPMCounter_CMD_START);
 212:.\Generated_Source\PSoC4/PPMCounter.c ****         #endif /* (0u == PPMCounter_PWM_START_SIGNAL_PRESENT) */
 213:.\Generated_Source\PSoC4/PPMCounter.c ****     #endif /* (PPMCounter__PWM_SEL == PPMCounter_CONFIG) */
 214:.\Generated_Source\PSoC4/PPMCounter.c **** 
 215:.\Generated_Source\PSoC4/PPMCounter.c ****     #if (PPMCounter__TIMER == PPMCounter_CONFIG)
 216:.\Generated_Source\PSoC4/PPMCounter.c ****         #if (0u == PPMCounter_TC_START_SIGNAL_PRESENT)
 217:.\Generated_Source\PSoC4/PPMCounter.c ****             PPMCounter_TriggerCommand(PPMCounter_MASK, PPMCounter_CMD_START);
 110              		.loc 1 217 0
 111 0026 0820     		mov	r0, #8
 112 0028 1821     		mov	r1, #24
 113 002a FFF7FEFF 		bl	PPMCounter_TriggerCommand
 218:.\Generated_Source\PSoC4/PPMCounter.c ****         #endif /* (0u == PPMCounter_TC_START_SIGNAL_PRESENT) */
 219:.\Generated_Source\PSoC4/PPMCounter.c ****     #endif /* (PPMCounter__TIMER == PPMCounter_CONFIG) */
 220:.\Generated_Source\PSoC4/PPMCounter.c **** }
 114              		.loc 1 220 0
 115 002e BD46     		mov	sp, r7
 116 0030 03B0     		add	sp, sp, #12
 117              		@ sp needed for prologue
 118 0032 90BD     		pop	{r4, r7, pc}
 119              	.L6:
 120              		.align	2
 121              	.L5:
 122 0034 00000540 		.word	1074069504
ARM GAS  C:\Users\SNFU\AppData\Local\Temp\ccpcIp9g.s 			page 7


 123              		.cfi_endproc
 124              	.LFE1:
 125              		.size	PPMCounter_Enable, .-PPMCounter_Enable
 126              		.section	.text.PPMCounter_Start,"ax",%progbits
 127              		.align	2
 128              		.global	PPMCounter_Start
 129              		.code	16
 130              		.thumb_func
 131              		.type	PPMCounter_Start, %function
 132              	PPMCounter_Start:
 133              	.LFB2:
 221:.\Generated_Source\PSoC4/PPMCounter.c **** 
 222:.\Generated_Source\PSoC4/PPMCounter.c **** 
 223:.\Generated_Source\PSoC4/PPMCounter.c **** /*******************************************************************************
 224:.\Generated_Source\PSoC4/PPMCounter.c **** * Function Name: PPMCounter_Start
 225:.\Generated_Source\PSoC4/PPMCounter.c **** ********************************************************************************
 226:.\Generated_Source\PSoC4/PPMCounter.c **** *
 227:.\Generated_Source\PSoC4/PPMCounter.c **** * Summary:
 228:.\Generated_Source\PSoC4/PPMCounter.c **** *  Initializes the PPMCounter with default customizer
 229:.\Generated_Source\PSoC4/PPMCounter.c **** *  values when called the first time and enables the PPMCounter.
 230:.\Generated_Source\PSoC4/PPMCounter.c **** *  For subsequent calls the configuration is left unchanged and the component is
 231:.\Generated_Source\PSoC4/PPMCounter.c **** *  just enabled.
 232:.\Generated_Source\PSoC4/PPMCounter.c **** *
 233:.\Generated_Source\PSoC4/PPMCounter.c **** * Parameters:
 234:.\Generated_Source\PSoC4/PPMCounter.c **** *  None
 235:.\Generated_Source\PSoC4/PPMCounter.c **** *
 236:.\Generated_Source\PSoC4/PPMCounter.c **** * Return:
 237:.\Generated_Source\PSoC4/PPMCounter.c **** *  None
 238:.\Generated_Source\PSoC4/PPMCounter.c **** *
 239:.\Generated_Source\PSoC4/PPMCounter.c **** * Global variables:
 240:.\Generated_Source\PSoC4/PPMCounter.c **** *  PPMCounter_initVar: global variable is used to indicate initial
 241:.\Generated_Source\PSoC4/PPMCounter.c **** *  configuration of this component.  The variable is initialized to zero and set
 242:.\Generated_Source\PSoC4/PPMCounter.c **** *  to 1 the first time PPMCounter_Start() is called. This allows
 243:.\Generated_Source\PSoC4/PPMCounter.c **** *  enabling/disabling a component without re-initialization in all subsequent
 244:.\Generated_Source\PSoC4/PPMCounter.c **** *  calls to the PPMCounter_Start() routine.
 245:.\Generated_Source\PSoC4/PPMCounter.c **** *
 246:.\Generated_Source\PSoC4/PPMCounter.c **** *******************************************************************************/
 247:.\Generated_Source\PSoC4/PPMCounter.c **** void PPMCounter_Start(void)
 248:.\Generated_Source\PSoC4/PPMCounter.c **** {
 134              		.loc 1 248 0
 135              		.cfi_startproc
 136 0000 80B5     		push	{r7, lr}
 137              	.LCFI5:
 138              		.cfi_def_cfa_offset 8
 139              		.cfi_offset 7, -8
 140              		.cfi_offset 14, -4
 141 0002 00AF     		add	r7, sp, #0
 142              	.LCFI6:
 143              		.cfi_def_cfa_register 7
 249:.\Generated_Source\PSoC4/PPMCounter.c ****     if (0u == PPMCounter_initVar)
 144              		.loc 1 249 0
 145 0004 064B     		ldr	r3, .L9
 146 0006 1B78     		ldrb	r3, [r3]
 147 0008 002B     		cmp	r3, #0
 148 000a 04D1     		bne	.L8
 250:.\Generated_Source\PSoC4/PPMCounter.c ****     {
 251:.\Generated_Source\PSoC4/PPMCounter.c ****         PPMCounter_Init();
ARM GAS  C:\Users\SNFU\AppData\Local\Temp\ccpcIp9g.s 			page 8


 149              		.loc 1 251 0
 150 000c FFF7FEFF 		bl	PPMCounter_Init
 252:.\Generated_Source\PSoC4/PPMCounter.c ****         PPMCounter_initVar = 1u;
 151              		.loc 1 252 0
 152 0010 034B     		ldr	r3, .L9
 153 0012 0122     		mov	r2, #1
 154 0014 1A70     		strb	r2, [r3]
 155              	.L8:
 253:.\Generated_Source\PSoC4/PPMCounter.c ****     }
 254:.\Generated_Source\PSoC4/PPMCounter.c **** 
 255:.\Generated_Source\PSoC4/PPMCounter.c ****     PPMCounter_Enable();
 156              		.loc 1 255 0
 157 0016 FFF7FEFF 		bl	PPMCounter_Enable
 256:.\Generated_Source\PSoC4/PPMCounter.c **** }
 158              		.loc 1 256 0
 159 001a BD46     		mov	sp, r7
 160              		@ sp needed for prologue
 161 001c 80BD     		pop	{r7, pc}
 162              	.L10:
 163 001e C046     		.align	2
 164              	.L9:
 165 0020 00000000 		.word	PPMCounter_initVar
 166              		.cfi_endproc
 167              	.LFE2:
 168              		.size	PPMCounter_Start, .-PPMCounter_Start
 169              		.section	.text.PPMCounter_Stop,"ax",%progbits
 170              		.align	2
 171              		.global	PPMCounter_Stop
 172              		.code	16
 173              		.thumb_func
 174              		.type	PPMCounter_Stop, %function
 175              	PPMCounter_Stop:
 176              	.LFB3:
 257:.\Generated_Source\PSoC4/PPMCounter.c **** 
 258:.\Generated_Source\PSoC4/PPMCounter.c **** 
 259:.\Generated_Source\PSoC4/PPMCounter.c **** /*******************************************************************************
 260:.\Generated_Source\PSoC4/PPMCounter.c **** * Function Name: PPMCounter_Stop
 261:.\Generated_Source\PSoC4/PPMCounter.c **** ********************************************************************************
 262:.\Generated_Source\PSoC4/PPMCounter.c **** *
 263:.\Generated_Source\PSoC4/PPMCounter.c **** * Summary:
 264:.\Generated_Source\PSoC4/PPMCounter.c **** *  Disables the PPMCounter.
 265:.\Generated_Source\PSoC4/PPMCounter.c **** *
 266:.\Generated_Source\PSoC4/PPMCounter.c **** * Parameters:
 267:.\Generated_Source\PSoC4/PPMCounter.c **** *  None
 268:.\Generated_Source\PSoC4/PPMCounter.c **** *
 269:.\Generated_Source\PSoC4/PPMCounter.c **** * Return:
 270:.\Generated_Source\PSoC4/PPMCounter.c **** *  None
 271:.\Generated_Source\PSoC4/PPMCounter.c **** *
 272:.\Generated_Source\PSoC4/PPMCounter.c **** *******************************************************************************/
 273:.\Generated_Source\PSoC4/PPMCounter.c **** void PPMCounter_Stop(void)
 274:.\Generated_Source\PSoC4/PPMCounter.c **** {
 177              		.loc 1 274 0
 178              		.cfi_startproc
 179 0000 90B5     		push	{r4, r7, lr}
 180              	.LCFI7:
 181              		.cfi_def_cfa_offset 12
 182              		.cfi_offset 4, -12
ARM GAS  C:\Users\SNFU\AppData\Local\Temp\ccpcIp9g.s 			page 9


 183              		.cfi_offset 7, -8
 184              		.cfi_offset 14, -4
 185 0002 83B0     		sub	sp, sp, #12
 186              	.LCFI8:
 187              		.cfi_def_cfa_offset 24
 188 0004 00AF     		add	r7, sp, #0
 189              	.LCFI9:
 190              		.cfi_def_cfa_register 7
 275:.\Generated_Source\PSoC4/PPMCounter.c ****     uint8 enableInterrupts;
 276:.\Generated_Source\PSoC4/PPMCounter.c **** 
 277:.\Generated_Source\PSoC4/PPMCounter.c ****     enableInterrupts = CyEnterCriticalSection();
 191              		.loc 1 277 0
 192 0006 FC1D     		add	r4, r7, #7
 193 0008 FFF7FEFF 		bl	CyEnterCriticalSection
 194 000c 031C     		mov	r3, r0
 195 000e 2370     		strb	r3, [r4]
 278:.\Generated_Source\PSoC4/PPMCounter.c **** 
 279:.\Generated_Source\PSoC4/PPMCounter.c ****     PPMCounter_BLOCK_CONTROL_REG &= (uint32)~PPMCounter_MASK;
 196              		.loc 1 279 0
 197 0010 064B     		ldr	r3, .L12
 198 0012 064A     		ldr	r2, .L12
 199 0014 1268     		ldr	r2, [r2]
 200 0016 0821     		mov	r1, #8
 201 0018 8A43     		bic	r2, r1
 202 001a 1A60     		str	r2, [r3]
 280:.\Generated_Source\PSoC4/PPMCounter.c **** 
 281:.\Generated_Source\PSoC4/PPMCounter.c ****     CyExitCriticalSection(enableInterrupts);
 203              		.loc 1 281 0
 204 001c FB1D     		add	r3, r7, #7
 205 001e 1B78     		ldrb	r3, [r3]
 206 0020 181C     		mov	r0, r3
 207 0022 FFF7FEFF 		bl	CyExitCriticalSection
 282:.\Generated_Source\PSoC4/PPMCounter.c **** }
 208              		.loc 1 282 0
 209 0026 BD46     		mov	sp, r7
 210 0028 03B0     		add	sp, sp, #12
 211              		@ sp needed for prologue
 212 002a 90BD     		pop	{r4, r7, pc}
 213              	.L13:
 214              		.align	2
 215              	.L12:
 216 002c 00000540 		.word	1074069504
 217              		.cfi_endproc
 218              	.LFE3:
 219              		.size	PPMCounter_Stop, .-PPMCounter_Stop
 220              		.section	.text.PPMCounter_SetMode,"ax",%progbits
 221              		.align	2
 222              		.global	PPMCounter_SetMode
 223              		.code	16
 224              		.thumb_func
 225              		.type	PPMCounter_SetMode, %function
 226              	PPMCounter_SetMode:
 227              	.LFB4:
 283:.\Generated_Source\PSoC4/PPMCounter.c **** 
 284:.\Generated_Source\PSoC4/PPMCounter.c **** 
 285:.\Generated_Source\PSoC4/PPMCounter.c **** /*******************************************************************************
 286:.\Generated_Source\PSoC4/PPMCounter.c **** * Function Name: PPMCounter_SetMode
ARM GAS  C:\Users\SNFU\AppData\Local\Temp\ccpcIp9g.s 			page 10


 287:.\Generated_Source\PSoC4/PPMCounter.c **** ********************************************************************************
 288:.\Generated_Source\PSoC4/PPMCounter.c **** *
 289:.\Generated_Source\PSoC4/PPMCounter.c **** * Summary:
 290:.\Generated_Source\PSoC4/PPMCounter.c **** *  Sets the operation mode of the PPMCounter. This function is used when
 291:.\Generated_Source\PSoC4/PPMCounter.c **** *  configured as a generic PPMCounter and the actual mode of operation is
 292:.\Generated_Source\PSoC4/PPMCounter.c **** *  set at runtime. The mode must be set while the component is disabled.
 293:.\Generated_Source\PSoC4/PPMCounter.c **** *
 294:.\Generated_Source\PSoC4/PPMCounter.c **** * Parameters:
 295:.\Generated_Source\PSoC4/PPMCounter.c **** *  mode: Mode for the PPMCounter to operate in
 296:.\Generated_Source\PSoC4/PPMCounter.c **** *   Values:
 297:.\Generated_Source\PSoC4/PPMCounter.c **** *   - PPMCounter_MODE_TIMER_COMPARE - Timer / Counter with
 298:.\Generated_Source\PSoC4/PPMCounter.c **** *                                                 compare capability
 299:.\Generated_Source\PSoC4/PPMCounter.c **** *         - PPMCounter_MODE_TIMER_CAPTURE - Timer / Counter with
 300:.\Generated_Source\PSoC4/PPMCounter.c **** *                                                 capture capability
 301:.\Generated_Source\PSoC4/PPMCounter.c **** *         - PPMCounter_MODE_QUAD - Quadrature decoder
 302:.\Generated_Source\PSoC4/PPMCounter.c **** *         - PPMCounter_MODE_PWM - PWM
 303:.\Generated_Source\PSoC4/PPMCounter.c **** *         - PPMCounter_MODE_PWM_DT - PWM with dead time
 304:.\Generated_Source\PSoC4/PPMCounter.c **** *         - PPMCounter_MODE_PWM_PR - PWM with pseudo random capability
 305:.\Generated_Source\PSoC4/PPMCounter.c **** *
 306:.\Generated_Source\PSoC4/PPMCounter.c **** * Return:
 307:.\Generated_Source\PSoC4/PPMCounter.c **** *  None
 308:.\Generated_Source\PSoC4/PPMCounter.c **** *
 309:.\Generated_Source\PSoC4/PPMCounter.c **** *******************************************************************************/
 310:.\Generated_Source\PSoC4/PPMCounter.c **** void PPMCounter_SetMode(uint32 mode)
 311:.\Generated_Source\PSoC4/PPMCounter.c **** {
 228              		.loc 1 311 0
 229              		.cfi_startproc
 230 0000 90B5     		push	{r4, r7, lr}
 231              	.LCFI10:
 232              		.cfi_def_cfa_offset 12
 233              		.cfi_offset 4, -12
 234              		.cfi_offset 7, -8
 235              		.cfi_offset 14, -4
 236 0002 85B0     		sub	sp, sp, #20
 237              	.LCFI11:
 238              		.cfi_def_cfa_offset 32
 239 0004 00AF     		add	r7, sp, #0
 240              	.LCFI12:
 241              		.cfi_def_cfa_register 7
 242 0006 7860     		str	r0, [r7, #4]
 312:.\Generated_Source\PSoC4/PPMCounter.c ****     uint8 enableInterrupts;
 313:.\Generated_Source\PSoC4/PPMCounter.c **** 
 314:.\Generated_Source\PSoC4/PPMCounter.c ****     enableInterrupts = CyEnterCriticalSection();
 243              		.loc 1 314 0
 244 0008 3C1C     		mov	r4, r7
 245 000a 0F34     		add	r4, r4, #15
 246 000c FFF7FEFF 		bl	CyEnterCriticalSection
 247 0010 031C     		mov	r3, r0
 248 0012 2370     		strb	r3, [r4]
 315:.\Generated_Source\PSoC4/PPMCounter.c **** 
 316:.\Generated_Source\PSoC4/PPMCounter.c ****     PPMCounter_CONTROL_REG &= (uint32)~PPMCounter_MODE_MASK;
 249              		.loc 1 316 0
 250 0014 0A4B     		ldr	r3, .L15
 251 0016 0A4A     		ldr	r2, .L15
 252 0018 1168     		ldr	r1, [r2]
 253 001a 0A4A     		ldr	r2, .L15+4
 254 001c 0A40     		and	r2, r1
ARM GAS  C:\Users\SNFU\AppData\Local\Temp\ccpcIp9g.s 			page 11


 255 001e 1A60     		str	r2, [r3]
 317:.\Generated_Source\PSoC4/PPMCounter.c ****     PPMCounter_CONTROL_REG |= mode;
 256              		.loc 1 317 0
 257 0020 074B     		ldr	r3, .L15
 258 0022 074A     		ldr	r2, .L15
 259 0024 1168     		ldr	r1, [r2]
 260 0026 7A68     		ldr	r2, [r7, #4]
 261 0028 0A43     		orr	r2, r1
 262 002a 1A60     		str	r2, [r3]
 318:.\Generated_Source\PSoC4/PPMCounter.c **** 
 319:.\Generated_Source\PSoC4/PPMCounter.c ****     CyExitCriticalSection(enableInterrupts);
 263              		.loc 1 319 0
 264 002c 3B1C     		mov	r3, r7
 265 002e 0F33     		add	r3, r3, #15
 266 0030 1B78     		ldrb	r3, [r3]
 267 0032 181C     		mov	r0, r3
 268 0034 FFF7FEFF 		bl	CyExitCriticalSection
 320:.\Generated_Source\PSoC4/PPMCounter.c **** }
 269              		.loc 1 320 0
 270 0038 BD46     		mov	sp, r7
 271 003a 05B0     		add	sp, sp, #20
 272              		@ sp needed for prologue
 273 003c 90BD     		pop	{r4, r7, pc}
 274              	.L16:
 275 003e C046     		.align	2
 276              	.L15:
 277 0040 C0010540 		.word	1074069952
 278 0044 FFFFFFF8 		.word	-117440513
 279              		.cfi_endproc
 280              	.LFE4:
 281              		.size	PPMCounter_SetMode, .-PPMCounter_SetMode
 282              		.section	.text.PPMCounter_SetQDMode,"ax",%progbits
 283              		.align	2
 284              		.global	PPMCounter_SetQDMode
 285              		.code	16
 286              		.thumb_func
 287              		.type	PPMCounter_SetQDMode, %function
 288              	PPMCounter_SetQDMode:
 289              	.LFB5:
 321:.\Generated_Source\PSoC4/PPMCounter.c **** 
 322:.\Generated_Source\PSoC4/PPMCounter.c **** 
 323:.\Generated_Source\PSoC4/PPMCounter.c **** /*******************************************************************************
 324:.\Generated_Source\PSoC4/PPMCounter.c **** * Function Name: PPMCounter_SetQDMode
 325:.\Generated_Source\PSoC4/PPMCounter.c **** ********************************************************************************
 326:.\Generated_Source\PSoC4/PPMCounter.c **** *
 327:.\Generated_Source\PSoC4/PPMCounter.c **** * Summary:
 328:.\Generated_Source\PSoC4/PPMCounter.c **** *  Sets the the Quadrature Decoder to one of the 3 supported modes.
 329:.\Generated_Source\PSoC4/PPMCounter.c **** *  Its functionality is only applicable to Quadrature Decoder operation.
 330:.\Generated_Source\PSoC4/PPMCounter.c **** *
 331:.\Generated_Source\PSoC4/PPMCounter.c **** * Parameters:
 332:.\Generated_Source\PSoC4/PPMCounter.c **** *  qdMode: Quadrature Decoder mode
 333:.\Generated_Source\PSoC4/PPMCounter.c **** *   Values:
 334:.\Generated_Source\PSoC4/PPMCounter.c **** *         - PPMCounter_MODE_X1 - Counts on phi 1 rising
 335:.\Generated_Source\PSoC4/PPMCounter.c **** *         - PPMCounter_MODE_X2 - Counts on both edges of phi1 (2x faster)
 336:.\Generated_Source\PSoC4/PPMCounter.c **** *         - PPMCounter_MODE_X4 - Counts on both edges of phi1 and phi2
 337:.\Generated_Source\PSoC4/PPMCounter.c **** *                                        (4x faster)
 338:.\Generated_Source\PSoC4/PPMCounter.c **** *
ARM GAS  C:\Users\SNFU\AppData\Local\Temp\ccpcIp9g.s 			page 12


 339:.\Generated_Source\PSoC4/PPMCounter.c **** * Return:
 340:.\Generated_Source\PSoC4/PPMCounter.c **** *  None
 341:.\Generated_Source\PSoC4/PPMCounter.c **** *
 342:.\Generated_Source\PSoC4/PPMCounter.c **** *******************************************************************************/
 343:.\Generated_Source\PSoC4/PPMCounter.c **** void PPMCounter_SetQDMode(uint32 qdMode)
 344:.\Generated_Source\PSoC4/PPMCounter.c **** {
 290              		.loc 1 344 0
 291              		.cfi_startproc
 292 0000 90B5     		push	{r4, r7, lr}
 293              	.LCFI13:
 294              		.cfi_def_cfa_offset 12
 295              		.cfi_offset 4, -12
 296              		.cfi_offset 7, -8
 297              		.cfi_offset 14, -4
 298 0002 85B0     		sub	sp, sp, #20
 299              	.LCFI14:
 300              		.cfi_def_cfa_offset 32
 301 0004 00AF     		add	r7, sp, #0
 302              	.LCFI15:
 303              		.cfi_def_cfa_register 7
 304 0006 7860     		str	r0, [r7, #4]
 345:.\Generated_Source\PSoC4/PPMCounter.c ****     uint8 enableInterrupts;
 346:.\Generated_Source\PSoC4/PPMCounter.c **** 
 347:.\Generated_Source\PSoC4/PPMCounter.c ****     enableInterrupts = CyEnterCriticalSection();
 305              		.loc 1 347 0
 306 0008 3C1C     		mov	r4, r7
 307 000a 0F34     		add	r4, r4, #15
 308 000c FFF7FEFF 		bl	CyEnterCriticalSection
 309 0010 031C     		mov	r3, r0
 310 0012 2370     		strb	r3, [r4]
 348:.\Generated_Source\PSoC4/PPMCounter.c **** 
 349:.\Generated_Source\PSoC4/PPMCounter.c ****     PPMCounter_CONTROL_REG &= (uint32)~PPMCounter_QUAD_MODE_MASK;
 311              		.loc 1 349 0
 312 0014 0A4B     		ldr	r3, .L18
 313 0016 0A4A     		ldr	r2, .L18
 314 0018 1168     		ldr	r1, [r2]
 315 001a 0A4A     		ldr	r2, .L18+4
 316 001c 0A40     		and	r2, r1
 317 001e 1A60     		str	r2, [r3]
 350:.\Generated_Source\PSoC4/PPMCounter.c ****     PPMCounter_CONTROL_REG |= qdMode;
 318              		.loc 1 350 0
 319 0020 074B     		ldr	r3, .L18
 320 0022 074A     		ldr	r2, .L18
 321 0024 1168     		ldr	r1, [r2]
 322 0026 7A68     		ldr	r2, [r7, #4]
 323 0028 0A43     		orr	r2, r1
 324 002a 1A60     		str	r2, [r3]
 351:.\Generated_Source\PSoC4/PPMCounter.c **** 
 352:.\Generated_Source\PSoC4/PPMCounter.c ****     CyExitCriticalSection(enableInterrupts);
 325              		.loc 1 352 0
 326 002c 3B1C     		mov	r3, r7
 327 002e 0F33     		add	r3, r3, #15
 328 0030 1B78     		ldrb	r3, [r3]
 329 0032 181C     		mov	r0, r3
 330 0034 FFF7FEFF 		bl	CyExitCriticalSection
 353:.\Generated_Source\PSoC4/PPMCounter.c **** }
 331              		.loc 1 353 0
ARM GAS  C:\Users\SNFU\AppData\Local\Temp\ccpcIp9g.s 			page 13


 332 0038 BD46     		mov	sp, r7
 333 003a 05B0     		add	sp, sp, #20
 334              		@ sp needed for prologue
 335 003c 90BD     		pop	{r4, r7, pc}
 336              	.L19:
 337 003e C046     		.align	2
 338              	.L18:
 339 0040 C0010540 		.word	1074069952
 340 0044 FFFF8FFF 		.word	-7340033
 341              		.cfi_endproc
 342              	.LFE5:
 343              		.size	PPMCounter_SetQDMode, .-PPMCounter_SetQDMode
 344              		.section	.text.PPMCounter_SetPrescaler,"ax",%progbits
 345              		.align	2
 346              		.global	PPMCounter_SetPrescaler
 347              		.code	16
 348              		.thumb_func
 349              		.type	PPMCounter_SetPrescaler, %function
 350              	PPMCounter_SetPrescaler:
 351              	.LFB6:
 354:.\Generated_Source\PSoC4/PPMCounter.c **** 
 355:.\Generated_Source\PSoC4/PPMCounter.c **** 
 356:.\Generated_Source\PSoC4/PPMCounter.c **** /*******************************************************************************
 357:.\Generated_Source\PSoC4/PPMCounter.c **** * Function Name: PPMCounter_SetPrescaler
 358:.\Generated_Source\PSoC4/PPMCounter.c **** ********************************************************************************
 359:.\Generated_Source\PSoC4/PPMCounter.c **** *
 360:.\Generated_Source\PSoC4/PPMCounter.c **** * Summary:
 361:.\Generated_Source\PSoC4/PPMCounter.c **** *  Sets the prescaler value that is applied to the clock input.  Not applicable
 362:.\Generated_Source\PSoC4/PPMCounter.c **** *  to a PWM with the dead time mode or Quadrature Decoder mode.
 363:.\Generated_Source\PSoC4/PPMCounter.c **** *
 364:.\Generated_Source\PSoC4/PPMCounter.c **** * Parameters:
 365:.\Generated_Source\PSoC4/PPMCounter.c **** *  prescaler: Prescaler divider value
 366:.\Generated_Source\PSoC4/PPMCounter.c **** *   Values:
 367:.\Generated_Source\PSoC4/PPMCounter.c **** *         - PPMCounter_PRESCALE_DIVBY1    - Divide by 1 (no prescaling)
 368:.\Generated_Source\PSoC4/PPMCounter.c **** *         - PPMCounter_PRESCALE_DIVBY2    - Divide by 2
 369:.\Generated_Source\PSoC4/PPMCounter.c **** *         - PPMCounter_PRESCALE_DIVBY4    - Divide by 4
 370:.\Generated_Source\PSoC4/PPMCounter.c **** *         - PPMCounter_PRESCALE_DIVBY8    - Divide by 8
 371:.\Generated_Source\PSoC4/PPMCounter.c **** *         - PPMCounter_PRESCALE_DIVBY16   - Divide by 16
 372:.\Generated_Source\PSoC4/PPMCounter.c **** *         - PPMCounter_PRESCALE_DIVBY32   - Divide by 32
 373:.\Generated_Source\PSoC4/PPMCounter.c **** *         - PPMCounter_PRESCALE_DIVBY64   - Divide by 64
 374:.\Generated_Source\PSoC4/PPMCounter.c **** *         - PPMCounter_PRESCALE_DIVBY128  - Divide by 128
 375:.\Generated_Source\PSoC4/PPMCounter.c **** *
 376:.\Generated_Source\PSoC4/PPMCounter.c **** * Return:
 377:.\Generated_Source\PSoC4/PPMCounter.c **** *  None
 378:.\Generated_Source\PSoC4/PPMCounter.c **** *
 379:.\Generated_Source\PSoC4/PPMCounter.c **** *******************************************************************************/
 380:.\Generated_Source\PSoC4/PPMCounter.c **** void PPMCounter_SetPrescaler(uint32 prescaler)
 381:.\Generated_Source\PSoC4/PPMCounter.c **** {
 352              		.loc 1 381 0
 353              		.cfi_startproc
 354 0000 90B5     		push	{r4, r7, lr}
 355              	.LCFI16:
 356              		.cfi_def_cfa_offset 12
 357              		.cfi_offset 4, -12
 358              		.cfi_offset 7, -8
 359              		.cfi_offset 14, -4
 360 0002 85B0     		sub	sp, sp, #20
ARM GAS  C:\Users\SNFU\AppData\Local\Temp\ccpcIp9g.s 			page 14


 361              	.LCFI17:
 362              		.cfi_def_cfa_offset 32
 363 0004 00AF     		add	r7, sp, #0
 364              	.LCFI18:
 365              		.cfi_def_cfa_register 7
 366 0006 7860     		str	r0, [r7, #4]
 382:.\Generated_Source\PSoC4/PPMCounter.c ****     uint8 enableInterrupts;
 383:.\Generated_Source\PSoC4/PPMCounter.c **** 
 384:.\Generated_Source\PSoC4/PPMCounter.c ****     enableInterrupts = CyEnterCriticalSection();
 367              		.loc 1 384 0
 368 0008 3C1C     		mov	r4, r7
 369 000a 0F34     		add	r4, r4, #15
 370 000c FFF7FEFF 		bl	CyEnterCriticalSection
 371 0010 031C     		mov	r3, r0
 372 0012 2370     		strb	r3, [r4]
 385:.\Generated_Source\PSoC4/PPMCounter.c **** 
 386:.\Generated_Source\PSoC4/PPMCounter.c ****     PPMCounter_CONTROL_REG &= (uint32)~PPMCounter_PRESCALER_MASK;
 373              		.loc 1 386 0
 374 0014 0A4B     		ldr	r3, .L21
 375 0016 0A4A     		ldr	r2, .L21
 376 0018 1168     		ldr	r1, [r2]
 377 001a 0A4A     		ldr	r2, .L21+4
 378 001c 0A40     		and	r2, r1
 379 001e 1A60     		str	r2, [r3]
 387:.\Generated_Source\PSoC4/PPMCounter.c ****     PPMCounter_CONTROL_REG |= prescaler;
 380              		.loc 1 387 0
 381 0020 074B     		ldr	r3, .L21
 382 0022 074A     		ldr	r2, .L21
 383 0024 1168     		ldr	r1, [r2]
 384 0026 7A68     		ldr	r2, [r7, #4]
 385 0028 0A43     		orr	r2, r1
 386 002a 1A60     		str	r2, [r3]
 388:.\Generated_Source\PSoC4/PPMCounter.c **** 
 389:.\Generated_Source\PSoC4/PPMCounter.c ****     CyExitCriticalSection(enableInterrupts);
 387              		.loc 1 389 0
 388 002c 3B1C     		mov	r3, r7
 389 002e 0F33     		add	r3, r3, #15
 390 0030 1B78     		ldrb	r3, [r3]
 391 0032 181C     		mov	r0, r3
 392 0034 FFF7FEFF 		bl	CyExitCriticalSection
 390:.\Generated_Source\PSoC4/PPMCounter.c **** }
 393              		.loc 1 390 0
 394 0038 BD46     		mov	sp, r7
 395 003a 05B0     		add	sp, sp, #20
 396              		@ sp needed for prologue
 397 003c 90BD     		pop	{r4, r7, pc}
 398              	.L22:
 399 003e C046     		.align	2
 400              	.L21:
 401 0040 C0010540 		.word	1074069952
 402 0044 FF00FFFF 		.word	-65281
 403              		.cfi_endproc
 404              	.LFE6:
 405              		.size	PPMCounter_SetPrescaler, .-PPMCounter_SetPrescaler
 406              		.section	.text.PPMCounter_SetOneShot,"ax",%progbits
 407              		.align	2
 408              		.global	PPMCounter_SetOneShot
ARM GAS  C:\Users\SNFU\AppData\Local\Temp\ccpcIp9g.s 			page 15


 409              		.code	16
 410              		.thumb_func
 411              		.type	PPMCounter_SetOneShot, %function
 412              	PPMCounter_SetOneShot:
 413              	.LFB7:
 391:.\Generated_Source\PSoC4/PPMCounter.c **** 
 392:.\Generated_Source\PSoC4/PPMCounter.c **** 
 393:.\Generated_Source\PSoC4/PPMCounter.c **** /*******************************************************************************
 394:.\Generated_Source\PSoC4/PPMCounter.c **** * Function Name: PPMCounter_SetOneShot
 395:.\Generated_Source\PSoC4/PPMCounter.c **** ********************************************************************************
 396:.\Generated_Source\PSoC4/PPMCounter.c **** *
 397:.\Generated_Source\PSoC4/PPMCounter.c **** * Summary:
 398:.\Generated_Source\PSoC4/PPMCounter.c **** *  Writes the register that controls whether the PPMCounter runs
 399:.\Generated_Source\PSoC4/PPMCounter.c **** *  continuously or stops when terminal count is reached.  By default the
 400:.\Generated_Source\PSoC4/PPMCounter.c **** *  PPMCounter operates in the continuous mode.
 401:.\Generated_Source\PSoC4/PPMCounter.c **** *
 402:.\Generated_Source\PSoC4/PPMCounter.c **** * Parameters:
 403:.\Generated_Source\PSoC4/PPMCounter.c **** *  oneShotEnable
 404:.\Generated_Source\PSoC4/PPMCounter.c **** *   Values:
 405:.\Generated_Source\PSoC4/PPMCounter.c **** *     - 0 - Continuous
 406:.\Generated_Source\PSoC4/PPMCounter.c **** *     - 1 - Enable One Shot
 407:.\Generated_Source\PSoC4/PPMCounter.c **** *
 408:.\Generated_Source\PSoC4/PPMCounter.c **** * Return:
 409:.\Generated_Source\PSoC4/PPMCounter.c **** *  None
 410:.\Generated_Source\PSoC4/PPMCounter.c **** *
 411:.\Generated_Source\PSoC4/PPMCounter.c **** *******************************************************************************/
 412:.\Generated_Source\PSoC4/PPMCounter.c **** void PPMCounter_SetOneShot(uint32 oneShotEnable)
 413:.\Generated_Source\PSoC4/PPMCounter.c **** {
 414              		.loc 1 413 0
 415              		.cfi_startproc
 416 0000 90B5     		push	{r4, r7, lr}
 417              	.LCFI19:
 418              		.cfi_def_cfa_offset 12
 419              		.cfi_offset 4, -12
 420              		.cfi_offset 7, -8
 421              		.cfi_offset 14, -4
 422 0002 85B0     		sub	sp, sp, #20
 423              	.LCFI20:
 424              		.cfi_def_cfa_offset 32
 425 0004 00AF     		add	r7, sp, #0
 426              	.LCFI21:
 427              		.cfi_def_cfa_register 7
 428 0006 7860     		str	r0, [r7, #4]
 414:.\Generated_Source\PSoC4/PPMCounter.c ****     uint8 enableInterrupts;
 415:.\Generated_Source\PSoC4/PPMCounter.c **** 
 416:.\Generated_Source\PSoC4/PPMCounter.c ****     enableInterrupts = CyEnterCriticalSection();
 429              		.loc 1 416 0
 430 0008 3C1C     		mov	r4, r7
 431 000a 0F34     		add	r4, r4, #15
 432 000c FFF7FEFF 		bl	CyEnterCriticalSection
 433 0010 031C     		mov	r3, r0
 434 0012 2370     		strb	r3, [r4]
 417:.\Generated_Source\PSoC4/PPMCounter.c **** 
 418:.\Generated_Source\PSoC4/PPMCounter.c ****     PPMCounter_CONTROL_REG &= (uint32)~PPMCounter_ONESHOT_MASK;
 435              		.loc 1 418 0
 436 0014 0B4B     		ldr	r3, .L24
 437 0016 0B4A     		ldr	r2, .L24
ARM GAS  C:\Users\SNFU\AppData\Local\Temp\ccpcIp9g.s 			page 16


 438 0018 1168     		ldr	r1, [r2]
 439 001a 0B4A     		ldr	r2, .L24+4
 440 001c 0A40     		and	r2, r1
 441 001e 1A60     		str	r2, [r3]
 419:.\Generated_Source\PSoC4/PPMCounter.c ****     PPMCounter_CONTROL_REG |= ((uint32)((oneShotEnable & PPMCounter_1BIT_MASK) <<
 442              		.loc 1 419 0
 443 0020 084B     		ldr	r3, .L24
 444 0022 084A     		ldr	r2, .L24
 445 0024 1168     		ldr	r1, [r2]
 446 0026 7868     		ldr	r0, [r7, #4]
 447 0028 0122     		mov	r2, #1
 448 002a 0240     		and	r2, r0
 449 002c 9204     		lsl	r2, r2, #18
 450 002e 0A43     		orr	r2, r1
 451 0030 1A60     		str	r2, [r3]
 420:.\Generated_Source\PSoC4/PPMCounter.c ****                                                                PPMCounter_ONESHOT_SHIFT));
 421:.\Generated_Source\PSoC4/PPMCounter.c **** 
 422:.\Generated_Source\PSoC4/PPMCounter.c ****     CyExitCriticalSection(enableInterrupts);
 452              		.loc 1 422 0
 453 0032 3B1C     		mov	r3, r7
 454 0034 0F33     		add	r3, r3, #15
 455 0036 1B78     		ldrb	r3, [r3]
 456 0038 181C     		mov	r0, r3
 457 003a FFF7FEFF 		bl	CyExitCriticalSection
 423:.\Generated_Source\PSoC4/PPMCounter.c **** }
 458              		.loc 1 423 0
 459 003e BD46     		mov	sp, r7
 460 0040 05B0     		add	sp, sp, #20
 461              		@ sp needed for prologue
 462 0042 90BD     		pop	{r4, r7, pc}
 463              	.L25:
 464              		.align	2
 465              	.L24:
 466 0044 C0010540 		.word	1074069952
 467 0048 FFFFFBFF 		.word	-262145
 468              		.cfi_endproc
 469              	.LFE7:
 470              		.size	PPMCounter_SetOneShot, .-PPMCounter_SetOneShot
 471              		.section	.text.PPMCounter_SetPWMMode,"ax",%progbits
 472              		.align	2
 473              		.global	PPMCounter_SetPWMMode
 474              		.code	16
 475              		.thumb_func
 476              		.type	PPMCounter_SetPWMMode, %function
 477              	PPMCounter_SetPWMMode:
 478              	.LFB8:
 424:.\Generated_Source\PSoC4/PPMCounter.c **** 
 425:.\Generated_Source\PSoC4/PPMCounter.c **** 
 426:.\Generated_Source\PSoC4/PPMCounter.c **** /*******************************************************************************
 427:.\Generated_Source\PSoC4/PPMCounter.c **** * Function Name: PPMCounter_SetPWMMode
 428:.\Generated_Source\PSoC4/PPMCounter.c **** ********************************************************************************
 429:.\Generated_Source\PSoC4/PPMCounter.c **** *
 430:.\Generated_Source\PSoC4/PPMCounter.c **** * Summary:
 431:.\Generated_Source\PSoC4/PPMCounter.c **** *  Writes the control register that determines what mode of operation the PWM
 432:.\Generated_Source\PSoC4/PPMCounter.c **** *  output lines are driven in.  There is a setting for what to do on a
 433:.\Generated_Source\PSoC4/PPMCounter.c **** *  comparison match (CC_MATCH), on an overflow (OVERFLOW) and on an underflow
 434:.\Generated_Source\PSoC4/PPMCounter.c **** *  (UNDERFLOW).  The value for each of the three must be ORed together to form
ARM GAS  C:\Users\SNFU\AppData\Local\Temp\ccpcIp9g.s 			page 17


 435:.\Generated_Source\PSoC4/PPMCounter.c **** *  the mode.
 436:.\Generated_Source\PSoC4/PPMCounter.c **** *
 437:.\Generated_Source\PSoC4/PPMCounter.c **** * Parameters:
 438:.\Generated_Source\PSoC4/PPMCounter.c **** *  modeMask: A combination of three mode settings.  Mask must include a value
 439:.\Generated_Source\PSoC4/PPMCounter.c **** *  for each of the three or use one of the preconfigured PWM settings.
 440:.\Generated_Source\PSoC4/PPMCounter.c **** *   Values:
 441:.\Generated_Source\PSoC4/PPMCounter.c **** *     - CC_MATCH_SET        - Set on comparison match
 442:.\Generated_Source\PSoC4/PPMCounter.c **** *     - CC_MATCH_CLEAR      - Clear on comparison match
 443:.\Generated_Source\PSoC4/PPMCounter.c **** *     - CC_MATCH_INVERT     - Invert on comparison match
 444:.\Generated_Source\PSoC4/PPMCounter.c **** *     - CC_MATCH_NO_CHANGE  - No change on comparison match
 445:.\Generated_Source\PSoC4/PPMCounter.c **** *     - OVERLOW_SET         - Set on overflow
 446:.\Generated_Source\PSoC4/PPMCounter.c **** *     - OVERLOW_CLEAR       - Clear on  overflow
 447:.\Generated_Source\PSoC4/PPMCounter.c **** *     - OVERLOW_INVERT      - Invert on overflow
 448:.\Generated_Source\PSoC4/PPMCounter.c **** *     - OVERLOW_NO_CHANGE   - No change on overflow
 449:.\Generated_Source\PSoC4/PPMCounter.c **** *     - UNDERFLOW_SET       - Set on underflow
 450:.\Generated_Source\PSoC4/PPMCounter.c **** *     - UNDERFLOW_CLEAR     - Clear on underflow
 451:.\Generated_Source\PSoC4/PPMCounter.c **** *     - UNDERFLOW_INVERT    - Invert on underflow
 452:.\Generated_Source\PSoC4/PPMCounter.c **** *     - UNDERFLOW_NO_CHANGE - No change on underflow
 453:.\Generated_Source\PSoC4/PPMCounter.c **** *     - PWM_MODE_LEFT       - Setting for left aligned PWM.  Should be combined
 454:.\Generated_Source\PSoC4/PPMCounter.c **** *                             with up counting mode
 455:.\Generated_Source\PSoC4/PPMCounter.c **** *     - PWM_MODE_RIGHT      - Setting for right aligned PWM.  Should be combined
 456:.\Generated_Source\PSoC4/PPMCounter.c **** *                             with down counting mode
 457:.\Generated_Source\PSoC4/PPMCounter.c **** *     - PWM_MODE_CENTER     - Setting for center aligned PWM.  Should be
 458:.\Generated_Source\PSoC4/PPMCounter.c **** *                             combined with up/down 0 mode
 459:.\Generated_Source\PSoC4/PPMCounter.c **** *     - PWM_MODE_ASYM       - Setting for asymmetric PWM.  Should be combined
 460:.\Generated_Source\PSoC4/PPMCounter.c **** *                             with up/down 1 mode
 461:.\Generated_Source\PSoC4/PPMCounter.c **** *
 462:.\Generated_Source\PSoC4/PPMCounter.c **** * Return:
 463:.\Generated_Source\PSoC4/PPMCounter.c **** *  None
 464:.\Generated_Source\PSoC4/PPMCounter.c **** *
 465:.\Generated_Source\PSoC4/PPMCounter.c **** *******************************************************************************/
 466:.\Generated_Source\PSoC4/PPMCounter.c **** void PPMCounter_SetPWMMode(uint32 modeMask)
 467:.\Generated_Source\PSoC4/PPMCounter.c **** {
 479              		.loc 1 467 0
 480              		.cfi_startproc
 481 0000 80B5     		push	{r7, lr}
 482              	.LCFI22:
 483              		.cfi_def_cfa_offset 8
 484              		.cfi_offset 7, -8
 485              		.cfi_offset 14, -4
 486 0002 82B0     		sub	sp, sp, #8
 487              	.LCFI23:
 488              		.cfi_def_cfa_offset 16
 489 0004 00AF     		add	r7, sp, #0
 490              	.LCFI24:
 491              		.cfi_def_cfa_register 7
 492 0006 7860     		str	r0, [r7, #4]
 468:.\Generated_Source\PSoC4/PPMCounter.c ****     PPMCounter_TRIG_CONTROL2_REG = (modeMask & PPMCounter_6BIT_MASK);
 493              		.loc 1 468 0
 494 0008 034B     		ldr	r3, .L27
 495 000a 7968     		ldr	r1, [r7, #4]
 496 000c 3F22     		mov	r2, #63
 497 000e 0A40     		and	r2, r1
 498 0010 1A60     		str	r2, [r3]
 469:.\Generated_Source\PSoC4/PPMCounter.c **** }
 499              		.loc 1 469 0
 500 0012 BD46     		mov	sp, r7
ARM GAS  C:\Users\SNFU\AppData\Local\Temp\ccpcIp9g.s 			page 18


 501 0014 02B0     		add	sp, sp, #8
 502              		@ sp needed for prologue
 503 0016 80BD     		pop	{r7, pc}
 504              	.L28:
 505              		.align	2
 506              	.L27:
 507 0018 E8010540 		.word	1074069992
 508              		.cfi_endproc
 509              	.LFE8:
 510              		.size	PPMCounter_SetPWMMode, .-PPMCounter_SetPWMMode
 511              		.section	.text.PPMCounter_SetPWMSyncKill,"ax",%progbits
 512              		.align	2
 513              		.global	PPMCounter_SetPWMSyncKill
 514              		.code	16
 515              		.thumb_func
 516              		.type	PPMCounter_SetPWMSyncKill, %function
 517              	PPMCounter_SetPWMSyncKill:
 518              	.LFB9:
 470:.\Generated_Source\PSoC4/PPMCounter.c **** 
 471:.\Generated_Source\PSoC4/PPMCounter.c **** 
 472:.\Generated_Source\PSoC4/PPMCounter.c **** 
 473:.\Generated_Source\PSoC4/PPMCounter.c **** /*******************************************************************************
 474:.\Generated_Source\PSoC4/PPMCounter.c **** * Function Name: PPMCounter_SetPWMSyncKill
 475:.\Generated_Source\PSoC4/PPMCounter.c **** ********************************************************************************
 476:.\Generated_Source\PSoC4/PPMCounter.c **** *
 477:.\Generated_Source\PSoC4/PPMCounter.c **** * Summary:
 478:.\Generated_Source\PSoC4/PPMCounter.c **** *  Writes the register that controls whether the PWM kill signal (stop input)
 479:.\Generated_Source\PSoC4/PPMCounter.c **** *  causes asynchronous or synchronous kill operation.  By default the kill
 480:.\Generated_Source\PSoC4/PPMCounter.c **** *  operation is asynchronous.  This functionality is only applicable to the PWM
 481:.\Generated_Source\PSoC4/PPMCounter.c **** *  and PWM with dead time modes.
 482:.\Generated_Source\PSoC4/PPMCounter.c **** *
 483:.\Generated_Source\PSoC4/PPMCounter.c **** *  For Synchronous mode the kill signal disables both the line and line_n
 484:.\Generated_Source\PSoC4/PPMCounter.c **** *  signals until the next terminal count.
 485:.\Generated_Source\PSoC4/PPMCounter.c **** *
 486:.\Generated_Source\PSoC4/PPMCounter.c **** *  For Asynchronous mode the kill signal disables both the line and line_n
 487:.\Generated_Source\PSoC4/PPMCounter.c **** *  signals when the kill signal is present.  This mode should only be used
 488:.\Generated_Source\PSoC4/PPMCounter.c **** *  when the kill signal (stop input) is configured in the pass through mode
 489:.\Generated_Source\PSoC4/PPMCounter.c **** *  (Level sensitive signal).
 490:.\Generated_Source\PSoC4/PPMCounter.c **** 
 491:.\Generated_Source\PSoC4/PPMCounter.c **** *
 492:.\Generated_Source\PSoC4/PPMCounter.c **** * Parameters:
 493:.\Generated_Source\PSoC4/PPMCounter.c **** *  syncKillEnable
 494:.\Generated_Source\PSoC4/PPMCounter.c **** *   Values:
 495:.\Generated_Source\PSoC4/PPMCounter.c **** *     - 0 - Asynchronous
 496:.\Generated_Source\PSoC4/PPMCounter.c **** *     - 1 - Synchronous
 497:.\Generated_Source\PSoC4/PPMCounter.c **** *
 498:.\Generated_Source\PSoC4/PPMCounter.c **** * Return:
 499:.\Generated_Source\PSoC4/PPMCounter.c **** *  None
 500:.\Generated_Source\PSoC4/PPMCounter.c **** *
 501:.\Generated_Source\PSoC4/PPMCounter.c **** *******************************************************************************/
 502:.\Generated_Source\PSoC4/PPMCounter.c **** void PPMCounter_SetPWMSyncKill(uint32 syncKillEnable)
 503:.\Generated_Source\PSoC4/PPMCounter.c **** {
 519              		.loc 1 503 0
 520              		.cfi_startproc
 521 0000 90B5     		push	{r4, r7, lr}
 522              	.LCFI25:
 523              		.cfi_def_cfa_offset 12
ARM GAS  C:\Users\SNFU\AppData\Local\Temp\ccpcIp9g.s 			page 19


 524              		.cfi_offset 4, -12
 525              		.cfi_offset 7, -8
 526              		.cfi_offset 14, -4
 527 0002 85B0     		sub	sp, sp, #20
 528              	.LCFI26:
 529              		.cfi_def_cfa_offset 32
 530 0004 00AF     		add	r7, sp, #0
 531              	.LCFI27:
 532              		.cfi_def_cfa_register 7
 533 0006 7860     		str	r0, [r7, #4]
 504:.\Generated_Source\PSoC4/PPMCounter.c ****     uint8 enableInterrupts;
 505:.\Generated_Source\PSoC4/PPMCounter.c **** 
 506:.\Generated_Source\PSoC4/PPMCounter.c ****     enableInterrupts = CyEnterCriticalSection();
 534              		.loc 1 506 0
 535 0008 3C1C     		mov	r4, r7
 536 000a 0F34     		add	r4, r4, #15
 537 000c FFF7FEFF 		bl	CyEnterCriticalSection
 538 0010 031C     		mov	r3, r0
 539 0012 2370     		strb	r3, [r4]
 507:.\Generated_Source\PSoC4/PPMCounter.c **** 
 508:.\Generated_Source\PSoC4/PPMCounter.c ****     PPMCounter_CONTROL_REG &= (uint32)~PPMCounter_PWM_SYNC_KILL_MASK;
 540              		.loc 1 508 0
 541 0014 0B4B     		ldr	r3, .L30
 542 0016 0B4A     		ldr	r2, .L30
 543 0018 1268     		ldr	r2, [r2]
 544 001a 0421     		mov	r1, #4
 545 001c 8A43     		bic	r2, r1
 546 001e 1A60     		str	r2, [r3]
 509:.\Generated_Source\PSoC4/PPMCounter.c ****     PPMCounter_CONTROL_REG |= ((uint32)((syncKillEnable & PPMCounter_1BIT_MASK)  <<
 547              		.loc 1 509 0
 548 0020 084B     		ldr	r3, .L30
 549 0022 084A     		ldr	r2, .L30
 550 0024 1168     		ldr	r1, [r2]
 551 0026 7868     		ldr	r0, [r7, #4]
 552 0028 0122     		mov	r2, #1
 553 002a 0240     		and	r2, r0
 554 002c 9200     		lsl	r2, r2, #2
 555 002e 0A43     		orr	r2, r1
 556 0030 1A60     		str	r2, [r3]
 510:.\Generated_Source\PSoC4/PPMCounter.c ****                                                PPMCounter_PWM_SYNC_KILL_SHIFT));
 511:.\Generated_Source\PSoC4/PPMCounter.c **** 
 512:.\Generated_Source\PSoC4/PPMCounter.c ****     CyExitCriticalSection(enableInterrupts);
 557              		.loc 1 512 0
 558 0032 3B1C     		mov	r3, r7
 559 0034 0F33     		add	r3, r3, #15
 560 0036 1B78     		ldrb	r3, [r3]
 561 0038 181C     		mov	r0, r3
 562 003a FFF7FEFF 		bl	CyExitCriticalSection
 513:.\Generated_Source\PSoC4/PPMCounter.c **** }
 563              		.loc 1 513 0
 564 003e BD46     		mov	sp, r7
 565 0040 05B0     		add	sp, sp, #20
 566              		@ sp needed for prologue
 567 0042 90BD     		pop	{r4, r7, pc}
 568              	.L31:
 569              		.align	2
 570              	.L30:
ARM GAS  C:\Users\SNFU\AppData\Local\Temp\ccpcIp9g.s 			page 20


 571 0044 C0010540 		.word	1074069952
 572              		.cfi_endproc
 573              	.LFE9:
 574              		.size	PPMCounter_SetPWMSyncKill, .-PPMCounter_SetPWMSyncKill
 575              		.section	.text.PPMCounter_SetPWMStopOnKill,"ax",%progbits
 576              		.align	2
 577              		.global	PPMCounter_SetPWMStopOnKill
 578              		.code	16
 579              		.thumb_func
 580              		.type	PPMCounter_SetPWMStopOnKill, %function
 581              	PPMCounter_SetPWMStopOnKill:
 582              	.LFB10:
 514:.\Generated_Source\PSoC4/PPMCounter.c **** 
 515:.\Generated_Source\PSoC4/PPMCounter.c **** 
 516:.\Generated_Source\PSoC4/PPMCounter.c **** /*******************************************************************************
 517:.\Generated_Source\PSoC4/PPMCounter.c **** * Function Name: PPMCounter_SetPWMStopOnKill
 518:.\Generated_Source\PSoC4/PPMCounter.c **** ********************************************************************************
 519:.\Generated_Source\PSoC4/PPMCounter.c **** *
 520:.\Generated_Source\PSoC4/PPMCounter.c **** * Summary:
 521:.\Generated_Source\PSoC4/PPMCounter.c **** *  Writes the register that controls whether the PWM kill signal (stop input)
 522:.\Generated_Source\PSoC4/PPMCounter.c **** *  causes the PWM counter to stop.  By default the kill operation does not stop
 523:.\Generated_Source\PSoC4/PPMCounter.c **** *  the counter.  This functionality is only applicable to the three PWM modes.
 524:.\Generated_Source\PSoC4/PPMCounter.c **** *
 525:.\Generated_Source\PSoC4/PPMCounter.c **** *
 526:.\Generated_Source\PSoC4/PPMCounter.c **** * Parameters:
 527:.\Generated_Source\PSoC4/PPMCounter.c **** *  stopOnKillEnable
 528:.\Generated_Source\PSoC4/PPMCounter.c **** *   Values:
 529:.\Generated_Source\PSoC4/PPMCounter.c **** *     - 0 - Don't stop
 530:.\Generated_Source\PSoC4/PPMCounter.c **** *     - 1 - Stop
 531:.\Generated_Source\PSoC4/PPMCounter.c **** *
 532:.\Generated_Source\PSoC4/PPMCounter.c **** * Return:
 533:.\Generated_Source\PSoC4/PPMCounter.c **** *  None
 534:.\Generated_Source\PSoC4/PPMCounter.c **** *
 535:.\Generated_Source\PSoC4/PPMCounter.c **** *******************************************************************************/
 536:.\Generated_Source\PSoC4/PPMCounter.c **** void PPMCounter_SetPWMStopOnKill(uint32 stopOnKillEnable)
 537:.\Generated_Source\PSoC4/PPMCounter.c **** {
 583              		.loc 1 537 0
 584              		.cfi_startproc
 585 0000 90B5     		push	{r4, r7, lr}
 586              	.LCFI28:
 587              		.cfi_def_cfa_offset 12
 588              		.cfi_offset 4, -12
 589              		.cfi_offset 7, -8
 590              		.cfi_offset 14, -4
 591 0002 85B0     		sub	sp, sp, #20
 592              	.LCFI29:
 593              		.cfi_def_cfa_offset 32
 594 0004 00AF     		add	r7, sp, #0
 595              	.LCFI30:
 596              		.cfi_def_cfa_register 7
 597 0006 7860     		str	r0, [r7, #4]
 538:.\Generated_Source\PSoC4/PPMCounter.c ****     uint8 enableInterrupts;
 539:.\Generated_Source\PSoC4/PPMCounter.c **** 
 540:.\Generated_Source\PSoC4/PPMCounter.c ****     enableInterrupts = CyEnterCriticalSection();
 598              		.loc 1 540 0
 599 0008 3C1C     		mov	r4, r7
 600 000a 0F34     		add	r4, r4, #15
ARM GAS  C:\Users\SNFU\AppData\Local\Temp\ccpcIp9g.s 			page 21


 601 000c FFF7FEFF 		bl	CyEnterCriticalSection
 602 0010 031C     		mov	r3, r0
 603 0012 2370     		strb	r3, [r4]
 541:.\Generated_Source\PSoC4/PPMCounter.c **** 
 542:.\Generated_Source\PSoC4/PPMCounter.c ****     PPMCounter_CONTROL_REG &= (uint32)~PPMCounter_PWM_STOP_KILL_MASK;
 604              		.loc 1 542 0
 605 0014 0B4B     		ldr	r3, .L33
 606 0016 0B4A     		ldr	r2, .L33
 607 0018 1268     		ldr	r2, [r2]
 608 001a 0821     		mov	r1, #8
 609 001c 8A43     		bic	r2, r1
 610 001e 1A60     		str	r2, [r3]
 543:.\Generated_Source\PSoC4/PPMCounter.c ****     PPMCounter_CONTROL_REG |= ((uint32)((stopOnKillEnable & PPMCounter_1BIT_MASK)  <<
 611              		.loc 1 543 0
 612 0020 084B     		ldr	r3, .L33
 613 0022 084A     		ldr	r2, .L33
 614 0024 1168     		ldr	r1, [r2]
 615 0026 7868     		ldr	r0, [r7, #4]
 616 0028 0122     		mov	r2, #1
 617 002a 0240     		and	r2, r0
 618 002c D200     		lsl	r2, r2, #3
 619 002e 0A43     		orr	r2, r1
 620 0030 1A60     		str	r2, [r3]
 544:.\Generated_Source\PSoC4/PPMCounter.c ****                                                          PPMCounter_PWM_STOP_KILL_SHIFT));
 545:.\Generated_Source\PSoC4/PPMCounter.c **** 
 546:.\Generated_Source\PSoC4/PPMCounter.c ****     CyExitCriticalSection(enableInterrupts);
 621              		.loc 1 546 0
 622 0032 3B1C     		mov	r3, r7
 623 0034 0F33     		add	r3, r3, #15
 624 0036 1B78     		ldrb	r3, [r3]
 625 0038 181C     		mov	r0, r3
 626 003a FFF7FEFF 		bl	CyExitCriticalSection
 547:.\Generated_Source\PSoC4/PPMCounter.c **** }
 627              		.loc 1 547 0
 628 003e BD46     		mov	sp, r7
 629 0040 05B0     		add	sp, sp, #20
 630              		@ sp needed for prologue
 631 0042 90BD     		pop	{r4, r7, pc}
 632              	.L34:
 633              		.align	2
 634              	.L33:
 635 0044 C0010540 		.word	1074069952
 636              		.cfi_endproc
 637              	.LFE10:
 638              		.size	PPMCounter_SetPWMStopOnKill, .-PPMCounter_SetPWMStopOnKill
 639              		.section	.text.PPMCounter_SetPWMDeadTime,"ax",%progbits
 640              		.align	2
 641              		.global	PPMCounter_SetPWMDeadTime
 642              		.code	16
 643              		.thumb_func
 644              		.type	PPMCounter_SetPWMDeadTime, %function
 645              	PPMCounter_SetPWMDeadTime:
 646              	.LFB11:
 548:.\Generated_Source\PSoC4/PPMCounter.c **** 
 549:.\Generated_Source\PSoC4/PPMCounter.c **** 
 550:.\Generated_Source\PSoC4/PPMCounter.c **** /*******************************************************************************
 551:.\Generated_Source\PSoC4/PPMCounter.c **** * Function Name: PPMCounter_SetPWMDeadTime
ARM GAS  C:\Users\SNFU\AppData\Local\Temp\ccpcIp9g.s 			page 22


 552:.\Generated_Source\PSoC4/PPMCounter.c **** ********************************************************************************
 553:.\Generated_Source\PSoC4/PPMCounter.c **** *
 554:.\Generated_Source\PSoC4/PPMCounter.c **** * Summary:
 555:.\Generated_Source\PSoC4/PPMCounter.c **** *  Writes the dead time control value.  This value delays the rising edge of
 556:.\Generated_Source\PSoC4/PPMCounter.c **** *  both the line and line_n signals the designated number of cycles resulting
 557:.\Generated_Source\PSoC4/PPMCounter.c **** *  in both signals being inactive for that many cycles.  This functionality is
 558:.\Generated_Source\PSoC4/PPMCounter.c **** *  only applicable to the PWM in the dead time mode.
 559:.\Generated_Source\PSoC4/PPMCounter.c **** 
 560:.\Generated_Source\PSoC4/PPMCounter.c **** *
 561:.\Generated_Source\PSoC4/PPMCounter.c **** * Parameters:
 562:.\Generated_Source\PSoC4/PPMCounter.c **** *  Dead time to insert
 563:.\Generated_Source\PSoC4/PPMCounter.c **** *   Values: 0 to 255
 564:.\Generated_Source\PSoC4/PPMCounter.c **** *
 565:.\Generated_Source\PSoC4/PPMCounter.c **** * Return:
 566:.\Generated_Source\PSoC4/PPMCounter.c **** *  None
 567:.\Generated_Source\PSoC4/PPMCounter.c **** *
 568:.\Generated_Source\PSoC4/PPMCounter.c **** *******************************************************************************/
 569:.\Generated_Source\PSoC4/PPMCounter.c **** void PPMCounter_SetPWMDeadTime(uint32 deadTime)
 570:.\Generated_Source\PSoC4/PPMCounter.c **** {
 647              		.loc 1 570 0
 648              		.cfi_startproc
 649 0000 90B5     		push	{r4, r7, lr}
 650              	.LCFI31:
 651              		.cfi_def_cfa_offset 12
 652              		.cfi_offset 4, -12
 653              		.cfi_offset 7, -8
 654              		.cfi_offset 14, -4
 655 0002 85B0     		sub	sp, sp, #20
 656              	.LCFI32:
 657              		.cfi_def_cfa_offset 32
 658 0004 00AF     		add	r7, sp, #0
 659              	.LCFI33:
 660              		.cfi_def_cfa_register 7
 661 0006 7860     		str	r0, [r7, #4]
 571:.\Generated_Source\PSoC4/PPMCounter.c ****     uint8 enableInterrupts;
 572:.\Generated_Source\PSoC4/PPMCounter.c **** 
 573:.\Generated_Source\PSoC4/PPMCounter.c ****     enableInterrupts = CyEnterCriticalSection();
 662              		.loc 1 573 0
 663 0008 3C1C     		mov	r4, r7
 664 000a 0F34     		add	r4, r4, #15
 665 000c FFF7FEFF 		bl	CyEnterCriticalSection
 666 0010 031C     		mov	r3, r0
 667 0012 2370     		strb	r3, [r4]
 574:.\Generated_Source\PSoC4/PPMCounter.c **** 
 575:.\Generated_Source\PSoC4/PPMCounter.c ****     PPMCounter_CONTROL_REG &= (uint32)~PPMCounter_PRESCALER_MASK;
 668              		.loc 1 575 0
 669 0014 0B4B     		ldr	r3, .L36
 670 0016 0B4A     		ldr	r2, .L36
 671 0018 1168     		ldr	r1, [r2]
 672 001a 0B4A     		ldr	r2, .L36+4
 673 001c 0A40     		and	r2, r1
 674 001e 1A60     		str	r2, [r3]
 576:.\Generated_Source\PSoC4/PPMCounter.c ****     PPMCounter_CONTROL_REG |= ((uint32)((deadTime & PPMCounter_8BIT_MASK) <<
 675              		.loc 1 576 0
 676 0020 084B     		ldr	r3, .L36
 677 0022 084A     		ldr	r2, .L36
 678 0024 1168     		ldr	r1, [r2]
ARM GAS  C:\Users\SNFU\AppData\Local\Temp\ccpcIp9g.s 			page 23


 679 0026 7A68     		ldr	r2, [r7, #4]
 680 0028 1202     		lsl	r2, r2, #8
 681 002a 1204     		lsl	r2, r2, #16
 682 002c 120C     		lsr	r2, r2, #16
 683 002e 0A43     		orr	r2, r1
 684 0030 1A60     		str	r2, [r3]
 577:.\Generated_Source\PSoC4/PPMCounter.c ****                                                           PPMCounter_PRESCALER_SHIFT));
 578:.\Generated_Source\PSoC4/PPMCounter.c **** 
 579:.\Generated_Source\PSoC4/PPMCounter.c ****     CyExitCriticalSection(enableInterrupts);
 685              		.loc 1 579 0
 686 0032 3B1C     		mov	r3, r7
 687 0034 0F33     		add	r3, r3, #15
 688 0036 1B78     		ldrb	r3, [r3]
 689 0038 181C     		mov	r0, r3
 690 003a FFF7FEFF 		bl	CyExitCriticalSection
 580:.\Generated_Source\PSoC4/PPMCounter.c **** }
 691              		.loc 1 580 0
 692 003e BD46     		mov	sp, r7
 693 0040 05B0     		add	sp, sp, #20
 694              		@ sp needed for prologue
 695 0042 90BD     		pop	{r4, r7, pc}
 696              	.L37:
 697              		.align	2
 698              	.L36:
 699 0044 C0010540 		.word	1074069952
 700 0048 FF00FFFF 		.word	-65281
 701              		.cfi_endproc
 702              	.LFE11:
 703              		.size	PPMCounter_SetPWMDeadTime, .-PPMCounter_SetPWMDeadTime
 704              		.section	.text.PPMCounter_SetPWMInvert,"ax",%progbits
 705              		.align	2
 706              		.global	PPMCounter_SetPWMInvert
 707              		.code	16
 708              		.thumb_func
 709              		.type	PPMCounter_SetPWMInvert, %function
 710              	PPMCounter_SetPWMInvert:
 711              	.LFB12:
 581:.\Generated_Source\PSoC4/PPMCounter.c **** 
 582:.\Generated_Source\PSoC4/PPMCounter.c **** 
 583:.\Generated_Source\PSoC4/PPMCounter.c **** /*******************************************************************************
 584:.\Generated_Source\PSoC4/PPMCounter.c **** * Function Name: PPMCounter_SetPWMInvert
 585:.\Generated_Source\PSoC4/PPMCounter.c **** ********************************************************************************
 586:.\Generated_Source\PSoC4/PPMCounter.c **** *
 587:.\Generated_Source\PSoC4/PPMCounter.c **** * Summary:
 588:.\Generated_Source\PSoC4/PPMCounter.c **** *  Writes the bits that control whether the line and line_n outputs are
 589:.\Generated_Source\PSoC4/PPMCounter.c **** *  inverted from their normal output values.  This functionality is only
 590:.\Generated_Source\PSoC4/PPMCounter.c **** *  applicable to the three PWM modes.
 591:.\Generated_Source\PSoC4/PPMCounter.c **** *
 592:.\Generated_Source\PSoC4/PPMCounter.c **** * Parameters:
 593:.\Generated_Source\PSoC4/PPMCounter.c **** *  mask: Mask of outputs to invert.
 594:.\Generated_Source\PSoC4/PPMCounter.c **** *   Values:
 595:.\Generated_Source\PSoC4/PPMCounter.c **** *         - PPMCounter_INVERT_LINE   - Inverts the line output
 596:.\Generated_Source\PSoC4/PPMCounter.c **** *         - PPMCounter_INVERT_LINE_N - Inverts the line_n output
 597:.\Generated_Source\PSoC4/PPMCounter.c **** *
 598:.\Generated_Source\PSoC4/PPMCounter.c **** * Return:
 599:.\Generated_Source\PSoC4/PPMCounter.c **** *  None
 600:.\Generated_Source\PSoC4/PPMCounter.c **** *
ARM GAS  C:\Users\SNFU\AppData\Local\Temp\ccpcIp9g.s 			page 24


 601:.\Generated_Source\PSoC4/PPMCounter.c **** *******************************************************************************/
 602:.\Generated_Source\PSoC4/PPMCounter.c **** void PPMCounter_SetPWMInvert(uint32 mask)
 603:.\Generated_Source\PSoC4/PPMCounter.c **** {
 712              		.loc 1 603 0
 713              		.cfi_startproc
 714 0000 90B5     		push	{r4, r7, lr}
 715              	.LCFI34:
 716              		.cfi_def_cfa_offset 12
 717              		.cfi_offset 4, -12
 718              		.cfi_offset 7, -8
 719              		.cfi_offset 14, -4
 720 0002 85B0     		sub	sp, sp, #20
 721              	.LCFI35:
 722              		.cfi_def_cfa_offset 32
 723 0004 00AF     		add	r7, sp, #0
 724              	.LCFI36:
 725              		.cfi_def_cfa_register 7
 726 0006 7860     		str	r0, [r7, #4]
 604:.\Generated_Source\PSoC4/PPMCounter.c ****     uint8 enableInterrupts;
 605:.\Generated_Source\PSoC4/PPMCounter.c **** 
 606:.\Generated_Source\PSoC4/PPMCounter.c ****     enableInterrupts = CyEnterCriticalSection();
 727              		.loc 1 606 0
 728 0008 3C1C     		mov	r4, r7
 729 000a 0F34     		add	r4, r4, #15
 730 000c FFF7FEFF 		bl	CyEnterCriticalSection
 731 0010 031C     		mov	r3, r0
 732 0012 2370     		strb	r3, [r4]
 607:.\Generated_Source\PSoC4/PPMCounter.c **** 
 608:.\Generated_Source\PSoC4/PPMCounter.c ****     PPMCounter_CONTROL_REG &= (uint32)~PPMCounter_INV_OUT_MASK;
 733              		.loc 1 608 0
 734 0014 0A4B     		ldr	r3, .L39
 735 0016 0A4A     		ldr	r2, .L39
 736 0018 1168     		ldr	r1, [r2]
 737 001a 0A4A     		ldr	r2, .L39+4
 738 001c 0A40     		and	r2, r1
 739 001e 1A60     		str	r2, [r3]
 609:.\Generated_Source\PSoC4/PPMCounter.c ****     PPMCounter_CONTROL_REG |= mask;
 740              		.loc 1 609 0
 741 0020 074B     		ldr	r3, .L39
 742 0022 074A     		ldr	r2, .L39
 743 0024 1168     		ldr	r1, [r2]
 744 0026 7A68     		ldr	r2, [r7, #4]
 745 0028 0A43     		orr	r2, r1
 746 002a 1A60     		str	r2, [r3]
 610:.\Generated_Source\PSoC4/PPMCounter.c **** 
 611:.\Generated_Source\PSoC4/PPMCounter.c ****     CyExitCriticalSection(enableInterrupts);
 747              		.loc 1 611 0
 748 002c 3B1C     		mov	r3, r7
 749 002e 0F33     		add	r3, r3, #15
 750 0030 1B78     		ldrb	r3, [r3]
 751 0032 181C     		mov	r0, r3
 752 0034 FFF7FEFF 		bl	CyExitCriticalSection
 612:.\Generated_Source\PSoC4/PPMCounter.c **** }
 753              		.loc 1 612 0
 754 0038 BD46     		mov	sp, r7
 755 003a 05B0     		add	sp, sp, #20
 756              		@ sp needed for prologue
ARM GAS  C:\Users\SNFU\AppData\Local\Temp\ccpcIp9g.s 			page 25


 757 003c 90BD     		pop	{r4, r7, pc}
 758              	.L40:
 759 003e C046     		.align	2
 760              	.L39:
 761 0040 C0010540 		.word	1074069952
 762 0044 FFFFCFFF 		.word	-3145729
 763              		.cfi_endproc
 764              	.LFE12:
 765              		.size	PPMCounter_SetPWMInvert, .-PPMCounter_SetPWMInvert
 766              		.section	.text.PPMCounter_WriteCounter,"ax",%progbits
 767              		.align	2
 768              		.global	PPMCounter_WriteCounter
 769              		.code	16
 770              		.thumb_func
 771              		.type	PPMCounter_WriteCounter, %function
 772              	PPMCounter_WriteCounter:
 773              	.LFB13:
 613:.\Generated_Source\PSoC4/PPMCounter.c **** 
 614:.\Generated_Source\PSoC4/PPMCounter.c **** 
 615:.\Generated_Source\PSoC4/PPMCounter.c **** 
 616:.\Generated_Source\PSoC4/PPMCounter.c **** /*******************************************************************************
 617:.\Generated_Source\PSoC4/PPMCounter.c **** * Function Name: PPMCounter_WriteCounter
 618:.\Generated_Source\PSoC4/PPMCounter.c **** ********************************************************************************
 619:.\Generated_Source\PSoC4/PPMCounter.c **** *
 620:.\Generated_Source\PSoC4/PPMCounter.c **** * Summary:
 621:.\Generated_Source\PSoC4/PPMCounter.c **** *  Writes a new 16bit counter value directly into the counter register, thus
 622:.\Generated_Source\PSoC4/PPMCounter.c **** *  setting the counter (not the period) to the value written. It is not
 623:.\Generated_Source\PSoC4/PPMCounter.c **** *  advised to write to this field when the counter is running.
 624:.\Generated_Source\PSoC4/PPMCounter.c **** *
 625:.\Generated_Source\PSoC4/PPMCounter.c **** * Parameters:
 626:.\Generated_Source\PSoC4/PPMCounter.c **** *  count: value to write
 627:.\Generated_Source\PSoC4/PPMCounter.c **** *
 628:.\Generated_Source\PSoC4/PPMCounter.c **** * Return:
 629:.\Generated_Source\PSoC4/PPMCounter.c **** *  None
 630:.\Generated_Source\PSoC4/PPMCounter.c **** *
 631:.\Generated_Source\PSoC4/PPMCounter.c **** *******************************************************************************/
 632:.\Generated_Source\PSoC4/PPMCounter.c **** void PPMCounter_WriteCounter(uint32 count)
 633:.\Generated_Source\PSoC4/PPMCounter.c **** {
 774              		.loc 1 633 0
 775              		.cfi_startproc
 776 0000 80B5     		push	{r7, lr}
 777              	.LCFI37:
 778              		.cfi_def_cfa_offset 8
 779              		.cfi_offset 7, -8
 780              		.cfi_offset 14, -4
 781 0002 82B0     		sub	sp, sp, #8
 782              	.LCFI38:
 783              		.cfi_def_cfa_offset 16
 784 0004 00AF     		add	r7, sp, #0
 785              	.LCFI39:
 786              		.cfi_def_cfa_register 7
 787 0006 7860     		str	r0, [r7, #4]
 634:.\Generated_Source\PSoC4/PPMCounter.c ****     PPMCounter_COUNTER_REG = (count & PPMCounter_16BIT_MASK);
 788              		.loc 1 634 0
 789 0008 034B     		ldr	r3, .L42
 790 000a 7A68     		ldr	r2, [r7, #4]
 791 000c 1204     		lsl	r2, r2, #16
ARM GAS  C:\Users\SNFU\AppData\Local\Temp\ccpcIp9g.s 			page 26


 792 000e 120C     		lsr	r2, r2, #16
 793 0010 1A60     		str	r2, [r3]
 635:.\Generated_Source\PSoC4/PPMCounter.c **** }
 794              		.loc 1 635 0
 795 0012 BD46     		mov	sp, r7
 796 0014 02B0     		add	sp, sp, #8
 797              		@ sp needed for prologue
 798 0016 80BD     		pop	{r7, pc}
 799              	.L43:
 800              		.align	2
 801              	.L42:
 802 0018 C8010540 		.word	1074069960
 803              		.cfi_endproc
 804              	.LFE13:
 805              		.size	PPMCounter_WriteCounter, .-PPMCounter_WriteCounter
 806              		.section	.text.PPMCounter_ReadCounter,"ax",%progbits
 807              		.align	2
 808              		.global	PPMCounter_ReadCounter
 809              		.code	16
 810              		.thumb_func
 811              		.type	PPMCounter_ReadCounter, %function
 812              	PPMCounter_ReadCounter:
 813              	.LFB14:
 636:.\Generated_Source\PSoC4/PPMCounter.c **** 
 637:.\Generated_Source\PSoC4/PPMCounter.c **** 
 638:.\Generated_Source\PSoC4/PPMCounter.c **** /*******************************************************************************
 639:.\Generated_Source\PSoC4/PPMCounter.c **** * Function Name: PPMCounter_ReadCounter
 640:.\Generated_Source\PSoC4/PPMCounter.c **** ********************************************************************************
 641:.\Generated_Source\PSoC4/PPMCounter.c **** *
 642:.\Generated_Source\PSoC4/PPMCounter.c **** * Summary:
 643:.\Generated_Source\PSoC4/PPMCounter.c **** *  Reads the current counter value.
 644:.\Generated_Source\PSoC4/PPMCounter.c **** *
 645:.\Generated_Source\PSoC4/PPMCounter.c **** * Parameters:
 646:.\Generated_Source\PSoC4/PPMCounter.c **** *  None
 647:.\Generated_Source\PSoC4/PPMCounter.c **** *
 648:.\Generated_Source\PSoC4/PPMCounter.c **** * Return:
 649:.\Generated_Source\PSoC4/PPMCounter.c **** *  Current counter value
 650:.\Generated_Source\PSoC4/PPMCounter.c **** *
 651:.\Generated_Source\PSoC4/PPMCounter.c **** *******************************************************************************/
 652:.\Generated_Source\PSoC4/PPMCounter.c **** uint32 PPMCounter_ReadCounter(void)
 653:.\Generated_Source\PSoC4/PPMCounter.c **** {
 814              		.loc 1 653 0
 815              		.cfi_startproc
 816 0000 80B5     		push	{r7, lr}
 817              	.LCFI40:
 818              		.cfi_def_cfa_offset 8
 819              		.cfi_offset 7, -8
 820              		.cfi_offset 14, -4
 821 0002 00AF     		add	r7, sp, #0
 822              	.LCFI41:
 823              		.cfi_def_cfa_register 7
 654:.\Generated_Source\PSoC4/PPMCounter.c ****     return (PPMCounter_COUNTER_REG & PPMCounter_16BIT_MASK);
 824              		.loc 1 654 0
 825 0004 034B     		ldr	r3, .L46
 826 0006 1B68     		ldr	r3, [r3]
 827 0008 1B04     		lsl	r3, r3, #16
 828 000a 1B0C     		lsr	r3, r3, #16
ARM GAS  C:\Users\SNFU\AppData\Local\Temp\ccpcIp9g.s 			page 27


 655:.\Generated_Source\PSoC4/PPMCounter.c **** }
 829              		.loc 1 655 0
 830 000c 181C     		mov	r0, r3
 831 000e BD46     		mov	sp, r7
 832              		@ sp needed for prologue
 833 0010 80BD     		pop	{r7, pc}
 834              	.L47:
 835 0012 C046     		.align	2
 836              	.L46:
 837 0014 C8010540 		.word	1074069960
 838              		.cfi_endproc
 839              	.LFE14:
 840              		.size	PPMCounter_ReadCounter, .-PPMCounter_ReadCounter
 841              		.section	.text.PPMCounter_SetCounterMode,"ax",%progbits
 842              		.align	2
 843              		.global	PPMCounter_SetCounterMode
 844              		.code	16
 845              		.thumb_func
 846              		.type	PPMCounter_SetCounterMode, %function
 847              	PPMCounter_SetCounterMode:
 848              	.LFB15:
 656:.\Generated_Source\PSoC4/PPMCounter.c **** 
 657:.\Generated_Source\PSoC4/PPMCounter.c **** 
 658:.\Generated_Source\PSoC4/PPMCounter.c **** /*******************************************************************************
 659:.\Generated_Source\PSoC4/PPMCounter.c **** * Function Name: PPMCounter_SetCounterMode
 660:.\Generated_Source\PSoC4/PPMCounter.c **** ********************************************************************************
 661:.\Generated_Source\PSoC4/PPMCounter.c **** *
 662:.\Generated_Source\PSoC4/PPMCounter.c **** * Summary:
 663:.\Generated_Source\PSoC4/PPMCounter.c **** *  Sets the counter mode.  Applicable to all modes except Quadrature Decoder
 664:.\Generated_Source\PSoC4/PPMCounter.c **** *  and the PWM with a pseudo random output.
 665:.\Generated_Source\PSoC4/PPMCounter.c **** *
 666:.\Generated_Source\PSoC4/PPMCounter.c **** * Parameters:
 667:.\Generated_Source\PSoC4/PPMCounter.c **** *  counterMode: Enumerated counter type values
 668:.\Generated_Source\PSoC4/PPMCounter.c **** *   Values:
 669:.\Generated_Source\PSoC4/PPMCounter.c **** *     - PPMCounter_COUNT_UP       - Counts up
 670:.\Generated_Source\PSoC4/PPMCounter.c **** *     - PPMCounter_COUNT_DOWN     - Counts down
 671:.\Generated_Source\PSoC4/PPMCounter.c **** *     - PPMCounter_COUNT_UPDOWN0  - Counts up and down. Terminal count
 672:.\Generated_Source\PSoC4/PPMCounter.c **** *                                         generated when counter reaches 0
 673:.\Generated_Source\PSoC4/PPMCounter.c **** *     - PPMCounter_COUNT_UPDOWN1  - Counts up and down. Terminal count
 674:.\Generated_Source\PSoC4/PPMCounter.c **** *                                         generated both when counter reaches 0
 675:.\Generated_Source\PSoC4/PPMCounter.c **** *                                         and period
 676:.\Generated_Source\PSoC4/PPMCounter.c **** *
 677:.\Generated_Source\PSoC4/PPMCounter.c **** * Return:
 678:.\Generated_Source\PSoC4/PPMCounter.c **** *  None
 679:.\Generated_Source\PSoC4/PPMCounter.c **** *
 680:.\Generated_Source\PSoC4/PPMCounter.c **** *******************************************************************************/
 681:.\Generated_Source\PSoC4/PPMCounter.c **** void PPMCounter_SetCounterMode(uint32 counterMode)
 682:.\Generated_Source\PSoC4/PPMCounter.c **** {
 849              		.loc 1 682 0
 850              		.cfi_startproc
 851 0000 90B5     		push	{r4, r7, lr}
 852              	.LCFI42:
 853              		.cfi_def_cfa_offset 12
 854              		.cfi_offset 4, -12
 855              		.cfi_offset 7, -8
 856              		.cfi_offset 14, -4
 857 0002 85B0     		sub	sp, sp, #20
ARM GAS  C:\Users\SNFU\AppData\Local\Temp\ccpcIp9g.s 			page 28


 858              	.LCFI43:
 859              		.cfi_def_cfa_offset 32
 860 0004 00AF     		add	r7, sp, #0
 861              	.LCFI44:
 862              		.cfi_def_cfa_register 7
 863 0006 7860     		str	r0, [r7, #4]
 683:.\Generated_Source\PSoC4/PPMCounter.c ****     uint8 enableInterrupts;
 684:.\Generated_Source\PSoC4/PPMCounter.c **** 
 685:.\Generated_Source\PSoC4/PPMCounter.c ****     enableInterrupts = CyEnterCriticalSection();
 864              		.loc 1 685 0
 865 0008 3C1C     		mov	r4, r7
 866 000a 0F34     		add	r4, r4, #15
 867 000c FFF7FEFF 		bl	CyEnterCriticalSection
 868 0010 031C     		mov	r3, r0
 869 0012 2370     		strb	r3, [r4]
 686:.\Generated_Source\PSoC4/PPMCounter.c **** 
 687:.\Generated_Source\PSoC4/PPMCounter.c ****     PPMCounter_CONTROL_REG &= (uint32)~PPMCounter_UPDOWN_MASK;
 870              		.loc 1 687 0
 871 0014 0A4B     		ldr	r3, .L49
 872 0016 0A4A     		ldr	r2, .L49
 873 0018 1168     		ldr	r1, [r2]
 874 001a 0A4A     		ldr	r2, .L49+4
 875 001c 0A40     		and	r2, r1
 876 001e 1A60     		str	r2, [r3]
 688:.\Generated_Source\PSoC4/PPMCounter.c ****     PPMCounter_CONTROL_REG |= counterMode;
 877              		.loc 1 688 0
 878 0020 074B     		ldr	r3, .L49
 879 0022 074A     		ldr	r2, .L49
 880 0024 1168     		ldr	r1, [r2]
 881 0026 7A68     		ldr	r2, [r7, #4]
 882 0028 0A43     		orr	r2, r1
 883 002a 1A60     		str	r2, [r3]
 689:.\Generated_Source\PSoC4/PPMCounter.c **** 
 690:.\Generated_Source\PSoC4/PPMCounter.c ****     CyExitCriticalSection(enableInterrupts);
 884              		.loc 1 690 0
 885 002c 3B1C     		mov	r3, r7
 886 002e 0F33     		add	r3, r3, #15
 887 0030 1B78     		ldrb	r3, [r3]
 888 0032 181C     		mov	r0, r3
 889 0034 FFF7FEFF 		bl	CyExitCriticalSection
 691:.\Generated_Source\PSoC4/PPMCounter.c **** }
 890              		.loc 1 691 0
 891 0038 BD46     		mov	sp, r7
 892 003a 05B0     		add	sp, sp, #20
 893              		@ sp needed for prologue
 894 003c 90BD     		pop	{r4, r7, pc}
 895              	.L50:
 896 003e C046     		.align	2
 897              	.L49:
 898 0040 C0010540 		.word	1074069952
 899 0044 FFFFFCFF 		.word	-196609
 900              		.cfi_endproc
 901              	.LFE15:
 902              		.size	PPMCounter_SetCounterMode, .-PPMCounter_SetCounterMode
 903              		.section	.text.PPMCounter_WritePeriod,"ax",%progbits
 904              		.align	2
 905              		.global	PPMCounter_WritePeriod
ARM GAS  C:\Users\SNFU\AppData\Local\Temp\ccpcIp9g.s 			page 29


 906              		.code	16
 907              		.thumb_func
 908              		.type	PPMCounter_WritePeriod, %function
 909              	PPMCounter_WritePeriod:
 910              	.LFB16:
 692:.\Generated_Source\PSoC4/PPMCounter.c **** 
 693:.\Generated_Source\PSoC4/PPMCounter.c **** 
 694:.\Generated_Source\PSoC4/PPMCounter.c **** /*******************************************************************************
 695:.\Generated_Source\PSoC4/PPMCounter.c **** * Function Name: PPMCounter_WritePeriod
 696:.\Generated_Source\PSoC4/PPMCounter.c **** ********************************************************************************
 697:.\Generated_Source\PSoC4/PPMCounter.c **** *
 698:.\Generated_Source\PSoC4/PPMCounter.c **** * Summary:
 699:.\Generated_Source\PSoC4/PPMCounter.c **** *  Writes the 16 bit period register with the new period value.
 700:.\Generated_Source\PSoC4/PPMCounter.c **** *  To cause the counter to count for N cycles this register should be written
 701:.\Generated_Source\PSoC4/PPMCounter.c **** *  with N-1 (counts from 0 to period inclusive).
 702:.\Generated_Source\PSoC4/PPMCounter.c **** *
 703:.\Generated_Source\PSoC4/PPMCounter.c **** * Parameters:
 704:.\Generated_Source\PSoC4/PPMCounter.c **** *  period: Period value
 705:.\Generated_Source\PSoC4/PPMCounter.c **** *
 706:.\Generated_Source\PSoC4/PPMCounter.c **** * Return:
 707:.\Generated_Source\PSoC4/PPMCounter.c **** *  None
 708:.\Generated_Source\PSoC4/PPMCounter.c **** *
 709:.\Generated_Source\PSoC4/PPMCounter.c **** *******************************************************************************/
 710:.\Generated_Source\PSoC4/PPMCounter.c **** void PPMCounter_WritePeriod(uint32 period)
 711:.\Generated_Source\PSoC4/PPMCounter.c **** {
 911              		.loc 1 711 0
 912              		.cfi_startproc
 913 0000 80B5     		push	{r7, lr}
 914              	.LCFI45:
 915              		.cfi_def_cfa_offset 8
 916              		.cfi_offset 7, -8
 917              		.cfi_offset 14, -4
 918 0002 82B0     		sub	sp, sp, #8
 919              	.LCFI46:
 920              		.cfi_def_cfa_offset 16
 921 0004 00AF     		add	r7, sp, #0
 922              	.LCFI47:
 923              		.cfi_def_cfa_register 7
 924 0006 7860     		str	r0, [r7, #4]
 712:.\Generated_Source\PSoC4/PPMCounter.c ****     PPMCounter_PERIOD_REG = (period & PPMCounter_16BIT_MASK);
 925              		.loc 1 712 0
 926 0008 034B     		ldr	r3, .L52
 927 000a 7A68     		ldr	r2, [r7, #4]
 928 000c 1204     		lsl	r2, r2, #16
 929 000e 120C     		lsr	r2, r2, #16
 930 0010 1A60     		str	r2, [r3]
 713:.\Generated_Source\PSoC4/PPMCounter.c **** }
 931              		.loc 1 713 0
 932 0012 BD46     		mov	sp, r7
 933 0014 02B0     		add	sp, sp, #8
 934              		@ sp needed for prologue
 935 0016 80BD     		pop	{r7, pc}
 936              	.L53:
 937              		.align	2
 938              	.L52:
 939 0018 D4010540 		.word	1074069972
 940              		.cfi_endproc
ARM GAS  C:\Users\SNFU\AppData\Local\Temp\ccpcIp9g.s 			page 30


 941              	.LFE16:
 942              		.size	PPMCounter_WritePeriod, .-PPMCounter_WritePeriod
 943              		.section	.text.PPMCounter_ReadPeriod,"ax",%progbits
 944              		.align	2
 945              		.global	PPMCounter_ReadPeriod
 946              		.code	16
 947              		.thumb_func
 948              		.type	PPMCounter_ReadPeriod, %function
 949              	PPMCounter_ReadPeriod:
 950              	.LFB17:
 714:.\Generated_Source\PSoC4/PPMCounter.c **** 
 715:.\Generated_Source\PSoC4/PPMCounter.c **** 
 716:.\Generated_Source\PSoC4/PPMCounter.c **** /*******************************************************************************
 717:.\Generated_Source\PSoC4/PPMCounter.c **** * Function Name: PPMCounter_ReadPeriod
 718:.\Generated_Source\PSoC4/PPMCounter.c **** ********************************************************************************
 719:.\Generated_Source\PSoC4/PPMCounter.c **** *
 720:.\Generated_Source\PSoC4/PPMCounter.c **** * Summary:
 721:.\Generated_Source\PSoC4/PPMCounter.c **** *  Reads the 16 bit period register.
 722:.\Generated_Source\PSoC4/PPMCounter.c **** *
 723:.\Generated_Source\PSoC4/PPMCounter.c **** * Parameters:
 724:.\Generated_Source\PSoC4/PPMCounter.c **** *  None
 725:.\Generated_Source\PSoC4/PPMCounter.c **** *
 726:.\Generated_Source\PSoC4/PPMCounter.c **** * Return:
 727:.\Generated_Source\PSoC4/PPMCounter.c **** *  Period value
 728:.\Generated_Source\PSoC4/PPMCounter.c **** *
 729:.\Generated_Source\PSoC4/PPMCounter.c **** *******************************************************************************/
 730:.\Generated_Source\PSoC4/PPMCounter.c **** uint32 PPMCounter_ReadPeriod(void)
 731:.\Generated_Source\PSoC4/PPMCounter.c **** {
 951              		.loc 1 731 0
 952              		.cfi_startproc
 953 0000 80B5     		push	{r7, lr}
 954              	.LCFI48:
 955              		.cfi_def_cfa_offset 8
 956              		.cfi_offset 7, -8
 957              		.cfi_offset 14, -4
 958 0002 00AF     		add	r7, sp, #0
 959              	.LCFI49:
 960              		.cfi_def_cfa_register 7
 732:.\Generated_Source\PSoC4/PPMCounter.c ****     return (PPMCounter_PERIOD_REG & PPMCounter_16BIT_MASK);
 961              		.loc 1 732 0
 962 0004 034B     		ldr	r3, .L56
 963 0006 1B68     		ldr	r3, [r3]
 964 0008 1B04     		lsl	r3, r3, #16
 965 000a 1B0C     		lsr	r3, r3, #16
 733:.\Generated_Source\PSoC4/PPMCounter.c **** }
 966              		.loc 1 733 0
 967 000c 181C     		mov	r0, r3
 968 000e BD46     		mov	sp, r7
 969              		@ sp needed for prologue
 970 0010 80BD     		pop	{r7, pc}
 971              	.L57:
 972 0012 C046     		.align	2
 973              	.L56:
 974 0014 D4010540 		.word	1074069972
 975              		.cfi_endproc
 976              	.LFE17:
 977              		.size	PPMCounter_ReadPeriod, .-PPMCounter_ReadPeriod
ARM GAS  C:\Users\SNFU\AppData\Local\Temp\ccpcIp9g.s 			page 31


 978              		.section	.text.PPMCounter_SetCompareSwap,"ax",%progbits
 979              		.align	2
 980              		.global	PPMCounter_SetCompareSwap
 981              		.code	16
 982              		.thumb_func
 983              		.type	PPMCounter_SetCompareSwap, %function
 984              	PPMCounter_SetCompareSwap:
 985              	.LFB18:
 734:.\Generated_Source\PSoC4/PPMCounter.c **** 
 735:.\Generated_Source\PSoC4/PPMCounter.c **** 
 736:.\Generated_Source\PSoC4/PPMCounter.c **** /*******************************************************************************
 737:.\Generated_Source\PSoC4/PPMCounter.c **** * Function Name: PPMCounter_SetCompareSwap
 738:.\Generated_Source\PSoC4/PPMCounter.c **** ********************************************************************************
 739:.\Generated_Source\PSoC4/PPMCounter.c **** *
 740:.\Generated_Source\PSoC4/PPMCounter.c **** * Summary:
 741:.\Generated_Source\PSoC4/PPMCounter.c **** *  Writes the register that controls whether the compare registers are
 742:.\Generated_Source\PSoC4/PPMCounter.c **** *  swapped. When enabled in the Timer/Counter mode(without capture) the swap
 743:.\Generated_Source\PSoC4/PPMCounter.c **** *  occurs at a TC event. In the PWM mode the swap occurs at the next TC event
 744:.\Generated_Source\PSoC4/PPMCounter.c **** *  following a hardware switch event.
 745:.\Generated_Source\PSoC4/PPMCounter.c **** *
 746:.\Generated_Source\PSoC4/PPMCounter.c **** * Parameters:
 747:.\Generated_Source\PSoC4/PPMCounter.c **** *  swapEnable
 748:.\Generated_Source\PSoC4/PPMCounter.c **** *   Values:
 749:.\Generated_Source\PSoC4/PPMCounter.c **** *     - 0 - Disable swap
 750:.\Generated_Source\PSoC4/PPMCounter.c **** *     - 1 - Enable swap
 751:.\Generated_Source\PSoC4/PPMCounter.c **** *
 752:.\Generated_Source\PSoC4/PPMCounter.c **** * Return:
 753:.\Generated_Source\PSoC4/PPMCounter.c **** *  None
 754:.\Generated_Source\PSoC4/PPMCounter.c **** *
 755:.\Generated_Source\PSoC4/PPMCounter.c **** *******************************************************************************/
 756:.\Generated_Source\PSoC4/PPMCounter.c **** void PPMCounter_SetCompareSwap(uint32 swapEnable)
 757:.\Generated_Source\PSoC4/PPMCounter.c **** {
 986              		.loc 1 757 0
 987              		.cfi_startproc
 988 0000 90B5     		push	{r4, r7, lr}
 989              	.LCFI50:
 990              		.cfi_def_cfa_offset 12
 991              		.cfi_offset 4, -12
 992              		.cfi_offset 7, -8
 993              		.cfi_offset 14, -4
 994 0002 85B0     		sub	sp, sp, #20
 995              	.LCFI51:
 996              		.cfi_def_cfa_offset 32
 997 0004 00AF     		add	r7, sp, #0
 998              	.LCFI52:
 999              		.cfi_def_cfa_register 7
 1000 0006 7860     		str	r0, [r7, #4]
 758:.\Generated_Source\PSoC4/PPMCounter.c ****     uint8 enableInterrupts;
 759:.\Generated_Source\PSoC4/PPMCounter.c **** 
 760:.\Generated_Source\PSoC4/PPMCounter.c ****     enableInterrupts = CyEnterCriticalSection();
 1001              		.loc 1 760 0
 1002 0008 3C1C     		mov	r4, r7
 1003 000a 0F34     		add	r4, r4, #15
 1004 000c FFF7FEFF 		bl	CyEnterCriticalSection
 1005 0010 031C     		mov	r3, r0
 1006 0012 2370     		strb	r3, [r4]
 761:.\Generated_Source\PSoC4/PPMCounter.c **** 
ARM GAS  C:\Users\SNFU\AppData\Local\Temp\ccpcIp9g.s 			page 32


 762:.\Generated_Source\PSoC4/PPMCounter.c ****     PPMCounter_CONTROL_REG &= (uint32)~PPMCounter_RELOAD_CC_MASK;
 1007              		.loc 1 762 0
 1008 0014 0B4B     		ldr	r3, .L59
 1009 0016 0B4A     		ldr	r2, .L59
 1010 0018 1268     		ldr	r2, [r2]
 1011 001a 0121     		mov	r1, #1
 1012 001c 8A43     		bic	r2, r1
 1013 001e 1A60     		str	r2, [r3]
 763:.\Generated_Source\PSoC4/PPMCounter.c ****     PPMCounter_CONTROL_REG |= (swapEnable & PPMCounter_1BIT_MASK);
 1014              		.loc 1 763 0
 1015 0020 084B     		ldr	r3, .L59
 1016 0022 084A     		ldr	r2, .L59
 1017 0024 1168     		ldr	r1, [r2]
 1018 0026 7868     		ldr	r0, [r7, #4]
 1019 0028 0122     		mov	r2, #1
 1020 002a 0240     		and	r2, r0
 1021 002c 0A43     		orr	r2, r1
 1022 002e 1A60     		str	r2, [r3]
 764:.\Generated_Source\PSoC4/PPMCounter.c **** 
 765:.\Generated_Source\PSoC4/PPMCounter.c ****     CyExitCriticalSection(enableInterrupts);
 1023              		.loc 1 765 0
 1024 0030 3B1C     		mov	r3, r7
 1025 0032 0F33     		add	r3, r3, #15
 1026 0034 1B78     		ldrb	r3, [r3]
 1027 0036 181C     		mov	r0, r3
 1028 0038 FFF7FEFF 		bl	CyExitCriticalSection
 766:.\Generated_Source\PSoC4/PPMCounter.c **** }
 1029              		.loc 1 766 0
 1030 003c BD46     		mov	sp, r7
 1031 003e 05B0     		add	sp, sp, #20
 1032              		@ sp needed for prologue
 1033 0040 90BD     		pop	{r4, r7, pc}
 1034              	.L60:
 1035 0042 C046     		.align	2
 1036              	.L59:
 1037 0044 C0010540 		.word	1074069952
 1038              		.cfi_endproc
 1039              	.LFE18:
 1040              		.size	PPMCounter_SetCompareSwap, .-PPMCounter_SetCompareSwap
 1041              		.section	.text.PPMCounter_WritePeriodBuf,"ax",%progbits
 1042              		.align	2
 1043              		.global	PPMCounter_WritePeriodBuf
 1044              		.code	16
 1045              		.thumb_func
 1046              		.type	PPMCounter_WritePeriodBuf, %function
 1047              	PPMCounter_WritePeriodBuf:
 1048              	.LFB19:
 767:.\Generated_Source\PSoC4/PPMCounter.c **** 
 768:.\Generated_Source\PSoC4/PPMCounter.c **** 
 769:.\Generated_Source\PSoC4/PPMCounter.c **** /*******************************************************************************
 770:.\Generated_Source\PSoC4/PPMCounter.c **** * Function Name: PPMCounter_WritePeriodBuf
 771:.\Generated_Source\PSoC4/PPMCounter.c **** ********************************************************************************
 772:.\Generated_Source\PSoC4/PPMCounter.c **** *
 773:.\Generated_Source\PSoC4/PPMCounter.c **** * Summary:
 774:.\Generated_Source\PSoC4/PPMCounter.c **** *  Writes the 16 bit period buf register with the new period value.
 775:.\Generated_Source\PSoC4/PPMCounter.c **** *
 776:.\Generated_Source\PSoC4/PPMCounter.c **** * Parameters:
ARM GAS  C:\Users\SNFU\AppData\Local\Temp\ccpcIp9g.s 			page 33


 777:.\Generated_Source\PSoC4/PPMCounter.c **** *  periodBuf: Period value
 778:.\Generated_Source\PSoC4/PPMCounter.c **** *
 779:.\Generated_Source\PSoC4/PPMCounter.c **** * Return:
 780:.\Generated_Source\PSoC4/PPMCounter.c **** *  None
 781:.\Generated_Source\PSoC4/PPMCounter.c **** *
 782:.\Generated_Source\PSoC4/PPMCounter.c **** *******************************************************************************/
 783:.\Generated_Source\PSoC4/PPMCounter.c **** void PPMCounter_WritePeriodBuf(uint32 periodBuf)
 784:.\Generated_Source\PSoC4/PPMCounter.c **** {
 1049              		.loc 1 784 0
 1050              		.cfi_startproc
 1051 0000 80B5     		push	{r7, lr}
 1052              	.LCFI53:
 1053              		.cfi_def_cfa_offset 8
 1054              		.cfi_offset 7, -8
 1055              		.cfi_offset 14, -4
 1056 0002 82B0     		sub	sp, sp, #8
 1057              	.LCFI54:
 1058              		.cfi_def_cfa_offset 16
 1059 0004 00AF     		add	r7, sp, #0
 1060              	.LCFI55:
 1061              		.cfi_def_cfa_register 7
 1062 0006 7860     		str	r0, [r7, #4]
 785:.\Generated_Source\PSoC4/PPMCounter.c ****     PPMCounter_PERIOD_BUF_REG = (periodBuf & PPMCounter_16BIT_MASK);
 1063              		.loc 1 785 0
 1064 0008 034B     		ldr	r3, .L62
 1065 000a 7A68     		ldr	r2, [r7, #4]
 1066 000c 1204     		lsl	r2, r2, #16
 1067 000e 120C     		lsr	r2, r2, #16
 1068 0010 1A60     		str	r2, [r3]
 786:.\Generated_Source\PSoC4/PPMCounter.c **** }
 1069              		.loc 1 786 0
 1070 0012 BD46     		mov	sp, r7
 1071 0014 02B0     		add	sp, sp, #8
 1072              		@ sp needed for prologue
 1073 0016 80BD     		pop	{r7, pc}
 1074              	.L63:
 1075              		.align	2
 1076              	.L62:
 1077 0018 D8010540 		.word	1074069976
 1078              		.cfi_endproc
 1079              	.LFE19:
 1080              		.size	PPMCounter_WritePeriodBuf, .-PPMCounter_WritePeriodBuf
 1081              		.section	.text.PPMCounter_ReadPeriodBuf,"ax",%progbits
 1082              		.align	2
 1083              		.global	PPMCounter_ReadPeriodBuf
 1084              		.code	16
 1085              		.thumb_func
 1086              		.type	PPMCounter_ReadPeriodBuf, %function
 1087              	PPMCounter_ReadPeriodBuf:
 1088              	.LFB20:
 787:.\Generated_Source\PSoC4/PPMCounter.c **** 
 788:.\Generated_Source\PSoC4/PPMCounter.c **** 
 789:.\Generated_Source\PSoC4/PPMCounter.c **** /*******************************************************************************
 790:.\Generated_Source\PSoC4/PPMCounter.c **** * Function Name: PPMCounter_ReadPeriodBuf
 791:.\Generated_Source\PSoC4/PPMCounter.c **** ********************************************************************************
 792:.\Generated_Source\PSoC4/PPMCounter.c **** *
 793:.\Generated_Source\PSoC4/PPMCounter.c **** * Summary:
ARM GAS  C:\Users\SNFU\AppData\Local\Temp\ccpcIp9g.s 			page 34


 794:.\Generated_Source\PSoC4/PPMCounter.c **** *  Reads the 16 bit period buf register.
 795:.\Generated_Source\PSoC4/PPMCounter.c **** *
 796:.\Generated_Source\PSoC4/PPMCounter.c **** * Parameters:
 797:.\Generated_Source\PSoC4/PPMCounter.c **** *  None
 798:.\Generated_Source\PSoC4/PPMCounter.c **** *
 799:.\Generated_Source\PSoC4/PPMCounter.c **** * Return:
 800:.\Generated_Source\PSoC4/PPMCounter.c **** *  Period value
 801:.\Generated_Source\PSoC4/PPMCounter.c **** *
 802:.\Generated_Source\PSoC4/PPMCounter.c **** *******************************************************************************/
 803:.\Generated_Source\PSoC4/PPMCounter.c **** uint32 PPMCounter_ReadPeriodBuf(void)
 804:.\Generated_Source\PSoC4/PPMCounter.c **** {
 1089              		.loc 1 804 0
 1090              		.cfi_startproc
 1091 0000 80B5     		push	{r7, lr}
 1092              	.LCFI56:
 1093              		.cfi_def_cfa_offset 8
 1094              		.cfi_offset 7, -8
 1095              		.cfi_offset 14, -4
 1096 0002 00AF     		add	r7, sp, #0
 1097              	.LCFI57:
 1098              		.cfi_def_cfa_register 7
 805:.\Generated_Source\PSoC4/PPMCounter.c ****     return (PPMCounter_PERIOD_BUF_REG & PPMCounter_16BIT_MASK);
 1099              		.loc 1 805 0
 1100 0004 034B     		ldr	r3, .L66
 1101 0006 1B68     		ldr	r3, [r3]
 1102 0008 1B04     		lsl	r3, r3, #16
 1103 000a 1B0C     		lsr	r3, r3, #16
 806:.\Generated_Source\PSoC4/PPMCounter.c **** }
 1104              		.loc 1 806 0
 1105 000c 181C     		mov	r0, r3
 1106 000e BD46     		mov	sp, r7
 1107              		@ sp needed for prologue
 1108 0010 80BD     		pop	{r7, pc}
 1109              	.L67:
 1110 0012 C046     		.align	2
 1111              	.L66:
 1112 0014 D8010540 		.word	1074069976
 1113              		.cfi_endproc
 1114              	.LFE20:
 1115              		.size	PPMCounter_ReadPeriodBuf, .-PPMCounter_ReadPeriodBuf
 1116              		.section	.text.PPMCounter_SetPeriodSwap,"ax",%progbits
 1117              		.align	2
 1118              		.global	PPMCounter_SetPeriodSwap
 1119              		.code	16
 1120              		.thumb_func
 1121              		.type	PPMCounter_SetPeriodSwap, %function
 1122              	PPMCounter_SetPeriodSwap:
 1123              	.LFB21:
 807:.\Generated_Source\PSoC4/PPMCounter.c **** 
 808:.\Generated_Source\PSoC4/PPMCounter.c **** 
 809:.\Generated_Source\PSoC4/PPMCounter.c **** /*******************************************************************************
 810:.\Generated_Source\PSoC4/PPMCounter.c **** * Function Name: PPMCounter_SetPeriodSwap
 811:.\Generated_Source\PSoC4/PPMCounter.c **** ********************************************************************************
 812:.\Generated_Source\PSoC4/PPMCounter.c **** *
 813:.\Generated_Source\PSoC4/PPMCounter.c **** * Summary:
 814:.\Generated_Source\PSoC4/PPMCounter.c **** *  Writes the register that controls whether the period registers are
 815:.\Generated_Source\PSoC4/PPMCounter.c **** *  swapped. When enabled in Timer/Counter mode the swap occurs at a TC event.
ARM GAS  C:\Users\SNFU\AppData\Local\Temp\ccpcIp9g.s 			page 35


 816:.\Generated_Source\PSoC4/PPMCounter.c **** *  In the PWM mode the swap occurs at the next TC event following a hardware
 817:.\Generated_Source\PSoC4/PPMCounter.c **** *  switch event.
 818:.\Generated_Source\PSoC4/PPMCounter.c **** *
 819:.\Generated_Source\PSoC4/PPMCounter.c **** * Parameters:
 820:.\Generated_Source\PSoC4/PPMCounter.c **** *  swapEnable
 821:.\Generated_Source\PSoC4/PPMCounter.c **** *   Values:
 822:.\Generated_Source\PSoC4/PPMCounter.c **** *     - 0 - Disable swap
 823:.\Generated_Source\PSoC4/PPMCounter.c **** *     - 1 - Enable swap
 824:.\Generated_Source\PSoC4/PPMCounter.c **** *
 825:.\Generated_Source\PSoC4/PPMCounter.c **** * Return:
 826:.\Generated_Source\PSoC4/PPMCounter.c **** *  None
 827:.\Generated_Source\PSoC4/PPMCounter.c **** *
 828:.\Generated_Source\PSoC4/PPMCounter.c **** *******************************************************************************/
 829:.\Generated_Source\PSoC4/PPMCounter.c **** void PPMCounter_SetPeriodSwap(uint32 swapEnable)
 830:.\Generated_Source\PSoC4/PPMCounter.c **** {
 1124              		.loc 1 830 0
 1125              		.cfi_startproc
 1126 0000 90B5     		push	{r4, r7, lr}
 1127              	.LCFI58:
 1128              		.cfi_def_cfa_offset 12
 1129              		.cfi_offset 4, -12
 1130              		.cfi_offset 7, -8
 1131              		.cfi_offset 14, -4
 1132 0002 85B0     		sub	sp, sp, #20
 1133              	.LCFI59:
 1134              		.cfi_def_cfa_offset 32
 1135 0004 00AF     		add	r7, sp, #0
 1136              	.LCFI60:
 1137              		.cfi_def_cfa_register 7
 1138 0006 7860     		str	r0, [r7, #4]
 831:.\Generated_Source\PSoC4/PPMCounter.c ****     uint8 enableInterrupts;
 832:.\Generated_Source\PSoC4/PPMCounter.c **** 
 833:.\Generated_Source\PSoC4/PPMCounter.c ****     enableInterrupts = CyEnterCriticalSection();
 1139              		.loc 1 833 0
 1140 0008 3C1C     		mov	r4, r7
 1141 000a 0F34     		add	r4, r4, #15
 1142 000c FFF7FEFF 		bl	CyEnterCriticalSection
 1143 0010 031C     		mov	r3, r0
 1144 0012 2370     		strb	r3, [r4]
 834:.\Generated_Source\PSoC4/PPMCounter.c **** 
 835:.\Generated_Source\PSoC4/PPMCounter.c ****     PPMCounter_CONTROL_REG &= (uint32)~PPMCounter_RELOAD_PERIOD_MASK;
 1145              		.loc 1 835 0
 1146 0014 0B4B     		ldr	r3, .L69
 1147 0016 0B4A     		ldr	r2, .L69
 1148 0018 1268     		ldr	r2, [r2]
 1149 001a 0221     		mov	r1, #2
 1150 001c 8A43     		bic	r2, r1
 1151 001e 1A60     		str	r2, [r3]
 836:.\Generated_Source\PSoC4/PPMCounter.c ****     PPMCounter_CONTROL_REG |= ((uint32)((swapEnable & PPMCounter_1BIT_MASK) <<
 1152              		.loc 1 836 0
 1153 0020 084B     		ldr	r3, .L69
 1154 0022 084A     		ldr	r2, .L69
 1155 0024 1168     		ldr	r1, [r2]
 1156 0026 7868     		ldr	r0, [r7, #4]
 1157 0028 0122     		mov	r2, #1
 1158 002a 0240     		and	r2, r0
 1159 002c 5200     		lsl	r2, r2, #1
ARM GAS  C:\Users\SNFU\AppData\Local\Temp\ccpcIp9g.s 			page 36


 1160 002e 0A43     		orr	r2, r1
 1161 0030 1A60     		str	r2, [r3]
 837:.\Generated_Source\PSoC4/PPMCounter.c ****                                                             PPMCounter_RELOAD_PERIOD_SHIFT));
 838:.\Generated_Source\PSoC4/PPMCounter.c **** 
 839:.\Generated_Source\PSoC4/PPMCounter.c ****     CyExitCriticalSection(enableInterrupts);
 1162              		.loc 1 839 0
 1163 0032 3B1C     		mov	r3, r7
 1164 0034 0F33     		add	r3, r3, #15
 1165 0036 1B78     		ldrb	r3, [r3]
 1166 0038 181C     		mov	r0, r3
 1167 003a FFF7FEFF 		bl	CyExitCriticalSection
 840:.\Generated_Source\PSoC4/PPMCounter.c **** }
 1168              		.loc 1 840 0
 1169 003e BD46     		mov	sp, r7
 1170 0040 05B0     		add	sp, sp, #20
 1171              		@ sp needed for prologue
 1172 0042 90BD     		pop	{r4, r7, pc}
 1173              	.L70:
 1174              		.align	2
 1175              	.L69:
 1176 0044 C0010540 		.word	1074069952
 1177              		.cfi_endproc
 1178              	.LFE21:
 1179              		.size	PPMCounter_SetPeriodSwap, .-PPMCounter_SetPeriodSwap
 1180              		.section	.text.PPMCounter_WriteCompare,"ax",%progbits
 1181              		.align	2
 1182              		.global	PPMCounter_WriteCompare
 1183              		.code	16
 1184              		.thumb_func
 1185              		.type	PPMCounter_WriteCompare, %function
 1186              	PPMCounter_WriteCompare:
 1187              	.LFB22:
 841:.\Generated_Source\PSoC4/PPMCounter.c **** 
 842:.\Generated_Source\PSoC4/PPMCounter.c **** 
 843:.\Generated_Source\PSoC4/PPMCounter.c **** /*******************************************************************************
 844:.\Generated_Source\PSoC4/PPMCounter.c **** * Function Name: PPMCounter_WriteCompare
 845:.\Generated_Source\PSoC4/PPMCounter.c **** ********************************************************************************
 846:.\Generated_Source\PSoC4/PPMCounter.c **** *
 847:.\Generated_Source\PSoC4/PPMCounter.c **** * Summary:
 848:.\Generated_Source\PSoC4/PPMCounter.c **** *  Writes the 16 bit compare register with the new compare value. Not
 849:.\Generated_Source\PSoC4/PPMCounter.c **** *  applicable for Timer/Counter with Capture or in Quadrature Decoder modes.
 850:.\Generated_Source\PSoC4/PPMCounter.c **** *
 851:.\Generated_Source\PSoC4/PPMCounter.c **** * Parameters:
 852:.\Generated_Source\PSoC4/PPMCounter.c **** *  compare: Compare value
 853:.\Generated_Source\PSoC4/PPMCounter.c **** *
 854:.\Generated_Source\PSoC4/PPMCounter.c **** * Return:
 855:.\Generated_Source\PSoC4/PPMCounter.c **** *  None
 856:.\Generated_Source\PSoC4/PPMCounter.c **** *
 857:.\Generated_Source\PSoC4/PPMCounter.c **** *******************************************************************************/
 858:.\Generated_Source\PSoC4/PPMCounter.c **** void PPMCounter_WriteCompare(uint32 compare)
 859:.\Generated_Source\PSoC4/PPMCounter.c **** {
 1188              		.loc 1 859 0
 1189              		.cfi_startproc
 1190 0000 80B5     		push	{r7, lr}
 1191              	.LCFI61:
 1192              		.cfi_def_cfa_offset 8
 1193              		.cfi_offset 7, -8
ARM GAS  C:\Users\SNFU\AppData\Local\Temp\ccpcIp9g.s 			page 37


 1194              		.cfi_offset 14, -4
 1195 0002 82B0     		sub	sp, sp, #8
 1196              	.LCFI62:
 1197              		.cfi_def_cfa_offset 16
 1198 0004 00AF     		add	r7, sp, #0
 1199              	.LCFI63:
 1200              		.cfi_def_cfa_register 7
 1201 0006 7860     		str	r0, [r7, #4]
 860:.\Generated_Source\PSoC4/PPMCounter.c ****     #if (PPMCounter_CY_TCPWM_V2)
 861:.\Generated_Source\PSoC4/PPMCounter.c ****         uint32 currentMode;
 862:.\Generated_Source\PSoC4/PPMCounter.c ****     #endif /* (PPMCounter_CY_TCPWM_V2) */
 863:.\Generated_Source\PSoC4/PPMCounter.c **** 
 864:.\Generated_Source\PSoC4/PPMCounter.c ****     #if (PPMCounter_CY_TCPWM_V2)
 865:.\Generated_Source\PSoC4/PPMCounter.c ****         currentMode = ((PPMCounter_CONTROL_REG & PPMCounter_UPDOWN_MASK) >> PPMCounter_UPDOWN_SHIFT
 866:.\Generated_Source\PSoC4/PPMCounter.c **** 
 867:.\Generated_Source\PSoC4/PPMCounter.c ****         if (PPMCounter__COUNT_DOWN == currentMode)
 868:.\Generated_Source\PSoC4/PPMCounter.c ****         {
 869:.\Generated_Source\PSoC4/PPMCounter.c ****             PPMCounter_COMP_CAP_REG = ((compare + 1u) & PPMCounter_16BIT_MASK);
 870:.\Generated_Source\PSoC4/PPMCounter.c ****         }
 871:.\Generated_Source\PSoC4/PPMCounter.c ****         else if (PPMCounter__COUNT_UP == currentMode)
 872:.\Generated_Source\PSoC4/PPMCounter.c ****         {
 873:.\Generated_Source\PSoC4/PPMCounter.c ****             PPMCounter_COMP_CAP_REG = ((compare - 1u) & PPMCounter_16BIT_MASK);
 874:.\Generated_Source\PSoC4/PPMCounter.c ****         }
 875:.\Generated_Source\PSoC4/PPMCounter.c ****         else
 876:.\Generated_Source\PSoC4/PPMCounter.c ****         {
 877:.\Generated_Source\PSoC4/PPMCounter.c ****             PPMCounter_COMP_CAP_REG = (compare & PPMCounter_16BIT_MASK);
 878:.\Generated_Source\PSoC4/PPMCounter.c ****         }
 879:.\Generated_Source\PSoC4/PPMCounter.c ****     #else
 880:.\Generated_Source\PSoC4/PPMCounter.c ****         PPMCounter_COMP_CAP_REG = (compare & PPMCounter_16BIT_MASK);
 1202              		.loc 1 880 0
 1203 0008 034B     		ldr	r3, .L72
 1204 000a 7A68     		ldr	r2, [r7, #4]
 1205 000c 1204     		lsl	r2, r2, #16
 1206 000e 120C     		lsr	r2, r2, #16
 1207 0010 1A60     		str	r2, [r3]
 881:.\Generated_Source\PSoC4/PPMCounter.c ****     #endif /* (PPMCounter_CY_TCPWM_V2) */
 882:.\Generated_Source\PSoC4/PPMCounter.c **** }
 1208              		.loc 1 882 0
 1209 0012 BD46     		mov	sp, r7
 1210 0014 02B0     		add	sp, sp, #8
 1211              		@ sp needed for prologue
 1212 0016 80BD     		pop	{r7, pc}
 1213              	.L73:
 1214              		.align	2
 1215              	.L72:
 1216 0018 CC010540 		.word	1074069964
 1217              		.cfi_endproc
 1218              	.LFE22:
 1219              		.size	PPMCounter_WriteCompare, .-PPMCounter_WriteCompare
 1220              		.section	.text.PPMCounter_ReadCompare,"ax",%progbits
 1221              		.align	2
 1222              		.global	PPMCounter_ReadCompare
 1223              		.code	16
 1224              		.thumb_func
 1225              		.type	PPMCounter_ReadCompare, %function
 1226              	PPMCounter_ReadCompare:
 1227              	.LFB23:
ARM GAS  C:\Users\SNFU\AppData\Local\Temp\ccpcIp9g.s 			page 38


 883:.\Generated_Source\PSoC4/PPMCounter.c **** 
 884:.\Generated_Source\PSoC4/PPMCounter.c **** 
 885:.\Generated_Source\PSoC4/PPMCounter.c **** /*******************************************************************************
 886:.\Generated_Source\PSoC4/PPMCounter.c **** * Function Name: PPMCounter_ReadCompare
 887:.\Generated_Source\PSoC4/PPMCounter.c **** ********************************************************************************
 888:.\Generated_Source\PSoC4/PPMCounter.c **** *
 889:.\Generated_Source\PSoC4/PPMCounter.c **** * Summary:
 890:.\Generated_Source\PSoC4/PPMCounter.c **** *  Reads the compare register. Not applicable for Timer/Counter with Capture
 891:.\Generated_Source\PSoC4/PPMCounter.c **** *  or in Quadrature Decoder modes.
 892:.\Generated_Source\PSoC4/PPMCounter.c **** *
 893:.\Generated_Source\PSoC4/PPMCounter.c **** * Parameters:
 894:.\Generated_Source\PSoC4/PPMCounter.c **** *  None
 895:.\Generated_Source\PSoC4/PPMCounter.c **** *
 896:.\Generated_Source\PSoC4/PPMCounter.c **** * Return:
 897:.\Generated_Source\PSoC4/PPMCounter.c **** *  Compare value
 898:.\Generated_Source\PSoC4/PPMCounter.c **** *
 899:.\Generated_Source\PSoC4/PPMCounter.c **** *******************************************************************************/
 900:.\Generated_Source\PSoC4/PPMCounter.c **** uint32 PPMCounter_ReadCompare(void)
 901:.\Generated_Source\PSoC4/PPMCounter.c **** {
 1228              		.loc 1 901 0
 1229              		.cfi_startproc
 1230 0000 80B5     		push	{r7, lr}
 1231              	.LCFI64:
 1232              		.cfi_def_cfa_offset 8
 1233              		.cfi_offset 7, -8
 1234              		.cfi_offset 14, -4
 1235 0002 00AF     		add	r7, sp, #0
 1236              	.LCFI65:
 1237              		.cfi_def_cfa_register 7
 902:.\Generated_Source\PSoC4/PPMCounter.c ****     #if (PPMCounter_CY_TCPWM_V2)
 903:.\Generated_Source\PSoC4/PPMCounter.c ****         uint32 currentMode;
 904:.\Generated_Source\PSoC4/PPMCounter.c ****         uint32 regVal;
 905:.\Generated_Source\PSoC4/PPMCounter.c ****     #endif /* (PPMCounter_CY_TCPWM_V2) */
 906:.\Generated_Source\PSoC4/PPMCounter.c **** 
 907:.\Generated_Source\PSoC4/PPMCounter.c ****     #if (PPMCounter_CY_TCPWM_V2)
 908:.\Generated_Source\PSoC4/PPMCounter.c ****         currentMode = ((PPMCounter_CONTROL_REG & PPMCounter_UPDOWN_MASK) >> PPMCounter_UPDOWN_SHIFT
 909:.\Generated_Source\PSoC4/PPMCounter.c **** 
 910:.\Generated_Source\PSoC4/PPMCounter.c ****         if (PPMCounter__COUNT_DOWN == currentMode)
 911:.\Generated_Source\PSoC4/PPMCounter.c ****         {
 912:.\Generated_Source\PSoC4/PPMCounter.c ****             regVal = ((PPMCounter_COMP_CAP_REG - 1u) & PPMCounter_16BIT_MASK);
 913:.\Generated_Source\PSoC4/PPMCounter.c ****         }
 914:.\Generated_Source\PSoC4/PPMCounter.c ****         else if (PPMCounter__COUNT_UP == currentMode)
 915:.\Generated_Source\PSoC4/PPMCounter.c ****         {
 916:.\Generated_Source\PSoC4/PPMCounter.c ****             regVal = ((PPMCounter_COMP_CAP_REG + 1u) & PPMCounter_16BIT_MASK);
 917:.\Generated_Source\PSoC4/PPMCounter.c ****         }
 918:.\Generated_Source\PSoC4/PPMCounter.c ****         else
 919:.\Generated_Source\PSoC4/PPMCounter.c ****         {
 920:.\Generated_Source\PSoC4/PPMCounter.c ****             regVal = (PPMCounter_COMP_CAP_REG & PPMCounter_16BIT_MASK);
 921:.\Generated_Source\PSoC4/PPMCounter.c ****         }
 922:.\Generated_Source\PSoC4/PPMCounter.c ****         return (regVal);
 923:.\Generated_Source\PSoC4/PPMCounter.c ****     #else
 924:.\Generated_Source\PSoC4/PPMCounter.c ****         return (PPMCounter_COMP_CAP_REG & PPMCounter_16BIT_MASK);
 1238              		.loc 1 924 0
 1239 0004 034B     		ldr	r3, .L76
 1240 0006 1B68     		ldr	r3, [r3]
 1241 0008 1B04     		lsl	r3, r3, #16
 1242 000a 1B0C     		lsr	r3, r3, #16
ARM GAS  C:\Users\SNFU\AppData\Local\Temp\ccpcIp9g.s 			page 39


 925:.\Generated_Source\PSoC4/PPMCounter.c ****     #endif /* (PPMCounter_CY_TCPWM_V2) */
 926:.\Generated_Source\PSoC4/PPMCounter.c **** }
 1243              		.loc 1 926 0
 1244 000c 181C     		mov	r0, r3
 1245 000e BD46     		mov	sp, r7
 1246              		@ sp needed for prologue
 1247 0010 80BD     		pop	{r7, pc}
 1248              	.L77:
 1249 0012 C046     		.align	2
 1250              	.L76:
 1251 0014 CC010540 		.word	1074069964
 1252              		.cfi_endproc
 1253              	.LFE23:
 1254              		.size	PPMCounter_ReadCompare, .-PPMCounter_ReadCompare
 1255              		.section	.text.PPMCounter_WriteCompareBuf,"ax",%progbits
 1256              		.align	2
 1257              		.global	PPMCounter_WriteCompareBuf
 1258              		.code	16
 1259              		.thumb_func
 1260              		.type	PPMCounter_WriteCompareBuf, %function
 1261              	PPMCounter_WriteCompareBuf:
 1262              	.LFB24:
 927:.\Generated_Source\PSoC4/PPMCounter.c **** 
 928:.\Generated_Source\PSoC4/PPMCounter.c **** 
 929:.\Generated_Source\PSoC4/PPMCounter.c **** /*******************************************************************************
 930:.\Generated_Source\PSoC4/PPMCounter.c **** * Function Name: PPMCounter_WriteCompareBuf
 931:.\Generated_Source\PSoC4/PPMCounter.c **** ********************************************************************************
 932:.\Generated_Source\PSoC4/PPMCounter.c **** *
 933:.\Generated_Source\PSoC4/PPMCounter.c **** * Summary:
 934:.\Generated_Source\PSoC4/PPMCounter.c **** *  Writes the 16 bit compare buffer register with the new compare value. Not
 935:.\Generated_Source\PSoC4/PPMCounter.c **** *  applicable for Timer/Counter with Capture or in Quadrature Decoder modes.
 936:.\Generated_Source\PSoC4/PPMCounter.c **** *
 937:.\Generated_Source\PSoC4/PPMCounter.c **** * Parameters:
 938:.\Generated_Source\PSoC4/PPMCounter.c **** *  compareBuf: Compare value
 939:.\Generated_Source\PSoC4/PPMCounter.c **** *
 940:.\Generated_Source\PSoC4/PPMCounter.c **** * Return:
 941:.\Generated_Source\PSoC4/PPMCounter.c **** *  None
 942:.\Generated_Source\PSoC4/PPMCounter.c **** *
 943:.\Generated_Source\PSoC4/PPMCounter.c **** *******************************************************************************/
 944:.\Generated_Source\PSoC4/PPMCounter.c **** void PPMCounter_WriteCompareBuf(uint32 compareBuf)
 945:.\Generated_Source\PSoC4/PPMCounter.c **** {
 1263              		.loc 1 945 0
 1264              		.cfi_startproc
 1265 0000 80B5     		push	{r7, lr}
 1266              	.LCFI66:
 1267              		.cfi_def_cfa_offset 8
 1268              		.cfi_offset 7, -8
 1269              		.cfi_offset 14, -4
 1270 0002 82B0     		sub	sp, sp, #8
 1271              	.LCFI67:
 1272              		.cfi_def_cfa_offset 16
 1273 0004 00AF     		add	r7, sp, #0
 1274              	.LCFI68:
 1275              		.cfi_def_cfa_register 7
 1276 0006 7860     		str	r0, [r7, #4]
 946:.\Generated_Source\PSoC4/PPMCounter.c ****     #if (PPMCounter_CY_TCPWM_V2)
 947:.\Generated_Source\PSoC4/PPMCounter.c ****         uint32 currentMode;
ARM GAS  C:\Users\SNFU\AppData\Local\Temp\ccpcIp9g.s 			page 40


 948:.\Generated_Source\PSoC4/PPMCounter.c ****     #endif /* (PPMCounter_CY_TCPWM_V2) */
 949:.\Generated_Source\PSoC4/PPMCounter.c **** 
 950:.\Generated_Source\PSoC4/PPMCounter.c ****     #if (PPMCounter_CY_TCPWM_V2)
 951:.\Generated_Source\PSoC4/PPMCounter.c ****         currentMode = ((PPMCounter_CONTROL_REG & PPMCounter_UPDOWN_MASK) >> PPMCounter_UPDOWN_SHIFT
 952:.\Generated_Source\PSoC4/PPMCounter.c **** 
 953:.\Generated_Source\PSoC4/PPMCounter.c ****         if (PPMCounter__COUNT_DOWN == currentMode)
 954:.\Generated_Source\PSoC4/PPMCounter.c ****         {
 955:.\Generated_Source\PSoC4/PPMCounter.c ****             PPMCounter_COMP_CAP_BUF_REG = ((compareBuf + 1u) & PPMCounter_16BIT_MASK);
 956:.\Generated_Source\PSoC4/PPMCounter.c ****         }
 957:.\Generated_Source\PSoC4/PPMCounter.c ****         else if (PPMCounter__COUNT_UP == currentMode)
 958:.\Generated_Source\PSoC4/PPMCounter.c ****         {
 959:.\Generated_Source\PSoC4/PPMCounter.c ****             PPMCounter_COMP_CAP_BUF_REG = ((compareBuf - 1u) & PPMCounter_16BIT_MASK);
 960:.\Generated_Source\PSoC4/PPMCounter.c ****         }
 961:.\Generated_Source\PSoC4/PPMCounter.c ****         else
 962:.\Generated_Source\PSoC4/PPMCounter.c ****         {
 963:.\Generated_Source\PSoC4/PPMCounter.c ****             PPMCounter_COMP_CAP_BUF_REG = (compareBuf & PPMCounter_16BIT_MASK);
 964:.\Generated_Source\PSoC4/PPMCounter.c ****         }
 965:.\Generated_Source\PSoC4/PPMCounter.c ****     #else
 966:.\Generated_Source\PSoC4/PPMCounter.c ****         PPMCounter_COMP_CAP_BUF_REG = (compareBuf & PPMCounter_16BIT_MASK);
 1277              		.loc 1 966 0
 1278 0008 034B     		ldr	r3, .L79
 1279 000a 7A68     		ldr	r2, [r7, #4]
 1280 000c 1204     		lsl	r2, r2, #16
 1281 000e 120C     		lsr	r2, r2, #16
 1282 0010 1A60     		str	r2, [r3]
 967:.\Generated_Source\PSoC4/PPMCounter.c ****     #endif /* (PPMCounter_CY_TCPWM_V2) */
 968:.\Generated_Source\PSoC4/PPMCounter.c **** }
 1283              		.loc 1 968 0
 1284 0012 BD46     		mov	sp, r7
 1285 0014 02B0     		add	sp, sp, #8
 1286              		@ sp needed for prologue
 1287 0016 80BD     		pop	{r7, pc}
 1288              	.L80:
 1289              		.align	2
 1290              	.L79:
 1291 0018 D0010540 		.word	1074069968
 1292              		.cfi_endproc
 1293              	.LFE24:
 1294              		.size	PPMCounter_WriteCompareBuf, .-PPMCounter_WriteCompareBuf
 1295              		.section	.text.PPMCounter_ReadCompareBuf,"ax",%progbits
 1296              		.align	2
 1297              		.global	PPMCounter_ReadCompareBuf
 1298              		.code	16
 1299              		.thumb_func
 1300              		.type	PPMCounter_ReadCompareBuf, %function
 1301              	PPMCounter_ReadCompareBuf:
 1302              	.LFB25:
 969:.\Generated_Source\PSoC4/PPMCounter.c **** 
 970:.\Generated_Source\PSoC4/PPMCounter.c **** 
 971:.\Generated_Source\PSoC4/PPMCounter.c **** /*******************************************************************************
 972:.\Generated_Source\PSoC4/PPMCounter.c **** * Function Name: PPMCounter_ReadCompareBuf
 973:.\Generated_Source\PSoC4/PPMCounter.c **** ********************************************************************************
 974:.\Generated_Source\PSoC4/PPMCounter.c **** *
 975:.\Generated_Source\PSoC4/PPMCounter.c **** * Summary:
 976:.\Generated_Source\PSoC4/PPMCounter.c **** *  Reads the compare buffer register. Not applicable for Timer/Counter with
 977:.\Generated_Source\PSoC4/PPMCounter.c **** *  Capture or in Quadrature Decoder modes.
 978:.\Generated_Source\PSoC4/PPMCounter.c **** *
ARM GAS  C:\Users\SNFU\AppData\Local\Temp\ccpcIp9g.s 			page 41


 979:.\Generated_Source\PSoC4/PPMCounter.c **** * Parameters:
 980:.\Generated_Source\PSoC4/PPMCounter.c **** *  None
 981:.\Generated_Source\PSoC4/PPMCounter.c **** *
 982:.\Generated_Source\PSoC4/PPMCounter.c **** * Return:
 983:.\Generated_Source\PSoC4/PPMCounter.c **** *  Compare buffer value
 984:.\Generated_Source\PSoC4/PPMCounter.c **** *
 985:.\Generated_Source\PSoC4/PPMCounter.c **** *******************************************************************************/
 986:.\Generated_Source\PSoC4/PPMCounter.c **** uint32 PPMCounter_ReadCompareBuf(void)
 987:.\Generated_Source\PSoC4/PPMCounter.c **** {
 1303              		.loc 1 987 0
 1304              		.cfi_startproc
 1305 0000 80B5     		push	{r7, lr}
 1306              	.LCFI69:
 1307              		.cfi_def_cfa_offset 8
 1308              		.cfi_offset 7, -8
 1309              		.cfi_offset 14, -4
 1310 0002 00AF     		add	r7, sp, #0
 1311              	.LCFI70:
 1312              		.cfi_def_cfa_register 7
 988:.\Generated_Source\PSoC4/PPMCounter.c ****     #if (PPMCounter_CY_TCPWM_V2)
 989:.\Generated_Source\PSoC4/PPMCounter.c ****         uint32 currentMode;
 990:.\Generated_Source\PSoC4/PPMCounter.c ****         uint32 regVal;
 991:.\Generated_Source\PSoC4/PPMCounter.c ****     #endif /* (PPMCounter_CY_TCPWM_V2) */
 992:.\Generated_Source\PSoC4/PPMCounter.c **** 
 993:.\Generated_Source\PSoC4/PPMCounter.c ****     #if (PPMCounter_CY_TCPWM_V2)
 994:.\Generated_Source\PSoC4/PPMCounter.c ****         currentMode = ((PPMCounter_CONTROL_REG & PPMCounter_UPDOWN_MASK) >> PPMCounter_UPDOWN_SHIFT
 995:.\Generated_Source\PSoC4/PPMCounter.c **** 
 996:.\Generated_Source\PSoC4/PPMCounter.c ****         if (PPMCounter__COUNT_DOWN == currentMode)
 997:.\Generated_Source\PSoC4/PPMCounter.c ****         {
 998:.\Generated_Source\PSoC4/PPMCounter.c ****             regVal = ((PPMCounter_COMP_CAP_BUF_REG - 1u) & PPMCounter_16BIT_MASK);
 999:.\Generated_Source\PSoC4/PPMCounter.c ****         }
1000:.\Generated_Source\PSoC4/PPMCounter.c ****         else if (PPMCounter__COUNT_UP == currentMode)
1001:.\Generated_Source\PSoC4/PPMCounter.c ****         {
1002:.\Generated_Source\PSoC4/PPMCounter.c ****             regVal = ((PPMCounter_COMP_CAP_BUF_REG + 1u) & PPMCounter_16BIT_MASK);
1003:.\Generated_Source\PSoC4/PPMCounter.c ****         }
1004:.\Generated_Source\PSoC4/PPMCounter.c ****         else
1005:.\Generated_Source\PSoC4/PPMCounter.c ****         {
1006:.\Generated_Source\PSoC4/PPMCounter.c ****             regVal = (PPMCounter_COMP_CAP_BUF_REG & PPMCounter_16BIT_MASK);
1007:.\Generated_Source\PSoC4/PPMCounter.c ****         }
1008:.\Generated_Source\PSoC4/PPMCounter.c ****         return (regVal);
1009:.\Generated_Source\PSoC4/PPMCounter.c ****     #else
1010:.\Generated_Source\PSoC4/PPMCounter.c ****         return (PPMCounter_COMP_CAP_BUF_REG & PPMCounter_16BIT_MASK);
 1313              		.loc 1 1010 0
 1314 0004 034B     		ldr	r3, .L83
 1315 0006 1B68     		ldr	r3, [r3]
 1316 0008 1B04     		lsl	r3, r3, #16
 1317 000a 1B0C     		lsr	r3, r3, #16
1011:.\Generated_Source\PSoC4/PPMCounter.c ****     #endif /* (PPMCounter_CY_TCPWM_V2) */
1012:.\Generated_Source\PSoC4/PPMCounter.c **** }
 1318              		.loc 1 1012 0
 1319 000c 181C     		mov	r0, r3
 1320 000e BD46     		mov	sp, r7
 1321              		@ sp needed for prologue
 1322 0010 80BD     		pop	{r7, pc}
 1323              	.L84:
 1324 0012 C046     		.align	2
 1325              	.L83:
ARM GAS  C:\Users\SNFU\AppData\Local\Temp\ccpcIp9g.s 			page 42


 1326 0014 D0010540 		.word	1074069968
 1327              		.cfi_endproc
 1328              	.LFE25:
 1329              		.size	PPMCounter_ReadCompareBuf, .-PPMCounter_ReadCompareBuf
 1330              		.section	.text.PPMCounter_ReadCapture,"ax",%progbits
 1331              		.align	2
 1332              		.global	PPMCounter_ReadCapture
 1333              		.code	16
 1334              		.thumb_func
 1335              		.type	PPMCounter_ReadCapture, %function
 1336              	PPMCounter_ReadCapture:
 1337              	.LFB26:
1013:.\Generated_Source\PSoC4/PPMCounter.c **** 
1014:.\Generated_Source\PSoC4/PPMCounter.c **** 
1015:.\Generated_Source\PSoC4/PPMCounter.c **** /*******************************************************************************
1016:.\Generated_Source\PSoC4/PPMCounter.c **** * Function Name: PPMCounter_ReadCapture
1017:.\Generated_Source\PSoC4/PPMCounter.c **** ********************************************************************************
1018:.\Generated_Source\PSoC4/PPMCounter.c **** *
1019:.\Generated_Source\PSoC4/PPMCounter.c **** * Summary:
1020:.\Generated_Source\PSoC4/PPMCounter.c **** *  Reads the captured counter value. This API is applicable only for
1021:.\Generated_Source\PSoC4/PPMCounter.c **** *  Timer/Counter with the capture mode and Quadrature Decoder modes.
1022:.\Generated_Source\PSoC4/PPMCounter.c **** *
1023:.\Generated_Source\PSoC4/PPMCounter.c **** * Parameters:
1024:.\Generated_Source\PSoC4/PPMCounter.c **** *  None
1025:.\Generated_Source\PSoC4/PPMCounter.c **** *
1026:.\Generated_Source\PSoC4/PPMCounter.c **** * Return:
1027:.\Generated_Source\PSoC4/PPMCounter.c **** *  Capture value
1028:.\Generated_Source\PSoC4/PPMCounter.c **** *
1029:.\Generated_Source\PSoC4/PPMCounter.c **** *******************************************************************************/
1030:.\Generated_Source\PSoC4/PPMCounter.c **** uint32 PPMCounter_ReadCapture(void)
1031:.\Generated_Source\PSoC4/PPMCounter.c **** {
 1338              		.loc 1 1031 0
 1339              		.cfi_startproc
 1340 0000 80B5     		push	{r7, lr}
 1341              	.LCFI71:
 1342              		.cfi_def_cfa_offset 8
 1343              		.cfi_offset 7, -8
 1344              		.cfi_offset 14, -4
 1345 0002 00AF     		add	r7, sp, #0
 1346              	.LCFI72:
 1347              		.cfi_def_cfa_register 7
1032:.\Generated_Source\PSoC4/PPMCounter.c ****     return (PPMCounter_COMP_CAP_REG & PPMCounter_16BIT_MASK);
 1348              		.loc 1 1032 0
 1349 0004 034B     		ldr	r3, .L87
 1350 0006 1B68     		ldr	r3, [r3]
 1351 0008 1B04     		lsl	r3, r3, #16
 1352 000a 1B0C     		lsr	r3, r3, #16
1033:.\Generated_Source\PSoC4/PPMCounter.c **** }
 1353              		.loc 1 1033 0
 1354 000c 181C     		mov	r0, r3
 1355 000e BD46     		mov	sp, r7
 1356              		@ sp needed for prologue
 1357 0010 80BD     		pop	{r7, pc}
 1358              	.L88:
 1359 0012 C046     		.align	2
 1360              	.L87:
 1361 0014 CC010540 		.word	1074069964
ARM GAS  C:\Users\SNFU\AppData\Local\Temp\ccpcIp9g.s 			page 43


 1362              		.cfi_endproc
 1363              	.LFE26:
 1364              		.size	PPMCounter_ReadCapture, .-PPMCounter_ReadCapture
 1365              		.section	.text.PPMCounter_ReadCaptureBuf,"ax",%progbits
 1366              		.align	2
 1367              		.global	PPMCounter_ReadCaptureBuf
 1368              		.code	16
 1369              		.thumb_func
 1370              		.type	PPMCounter_ReadCaptureBuf, %function
 1371              	PPMCounter_ReadCaptureBuf:
 1372              	.LFB27:
1034:.\Generated_Source\PSoC4/PPMCounter.c **** 
1035:.\Generated_Source\PSoC4/PPMCounter.c **** 
1036:.\Generated_Source\PSoC4/PPMCounter.c **** /*******************************************************************************
1037:.\Generated_Source\PSoC4/PPMCounter.c **** * Function Name: PPMCounter_ReadCaptureBuf
1038:.\Generated_Source\PSoC4/PPMCounter.c **** ********************************************************************************
1039:.\Generated_Source\PSoC4/PPMCounter.c **** *
1040:.\Generated_Source\PSoC4/PPMCounter.c **** * Summary:
1041:.\Generated_Source\PSoC4/PPMCounter.c **** *  Reads the capture buffer register. This API is applicable only for
1042:.\Generated_Source\PSoC4/PPMCounter.c **** *  Timer/Counter with the capture mode and Quadrature Decoder modes.
1043:.\Generated_Source\PSoC4/PPMCounter.c **** *
1044:.\Generated_Source\PSoC4/PPMCounter.c **** * Parameters:
1045:.\Generated_Source\PSoC4/PPMCounter.c **** *  None
1046:.\Generated_Source\PSoC4/PPMCounter.c **** *
1047:.\Generated_Source\PSoC4/PPMCounter.c **** * Return:
1048:.\Generated_Source\PSoC4/PPMCounter.c **** *  Capture buffer value
1049:.\Generated_Source\PSoC4/PPMCounter.c **** *
1050:.\Generated_Source\PSoC4/PPMCounter.c **** *******************************************************************************/
1051:.\Generated_Source\PSoC4/PPMCounter.c **** uint32 PPMCounter_ReadCaptureBuf(void)
1052:.\Generated_Source\PSoC4/PPMCounter.c **** {
 1373              		.loc 1 1052 0
 1374              		.cfi_startproc
 1375 0000 80B5     		push	{r7, lr}
 1376              	.LCFI73:
 1377              		.cfi_def_cfa_offset 8
 1378              		.cfi_offset 7, -8
 1379              		.cfi_offset 14, -4
 1380 0002 00AF     		add	r7, sp, #0
 1381              	.LCFI74:
 1382              		.cfi_def_cfa_register 7
1053:.\Generated_Source\PSoC4/PPMCounter.c ****     return (PPMCounter_COMP_CAP_BUF_REG & PPMCounter_16BIT_MASK);
 1383              		.loc 1 1053 0
 1384 0004 034B     		ldr	r3, .L91
 1385 0006 1B68     		ldr	r3, [r3]
 1386 0008 1B04     		lsl	r3, r3, #16
 1387 000a 1B0C     		lsr	r3, r3, #16
1054:.\Generated_Source\PSoC4/PPMCounter.c **** }
 1388              		.loc 1 1054 0
 1389 000c 181C     		mov	r0, r3
 1390 000e BD46     		mov	sp, r7
 1391              		@ sp needed for prologue
 1392 0010 80BD     		pop	{r7, pc}
 1393              	.L92:
 1394 0012 C046     		.align	2
 1395              	.L91:
 1396 0014 D0010540 		.word	1074069968
 1397              		.cfi_endproc
ARM GAS  C:\Users\SNFU\AppData\Local\Temp\ccpcIp9g.s 			page 44


 1398              	.LFE27:
 1399              		.size	PPMCounter_ReadCaptureBuf, .-PPMCounter_ReadCaptureBuf
 1400              		.section	.text.PPMCounter_SetCaptureMode,"ax",%progbits
 1401              		.align	2
 1402              		.global	PPMCounter_SetCaptureMode
 1403              		.code	16
 1404              		.thumb_func
 1405              		.type	PPMCounter_SetCaptureMode, %function
 1406              	PPMCounter_SetCaptureMode:
 1407              	.LFB28:
1055:.\Generated_Source\PSoC4/PPMCounter.c **** 
1056:.\Generated_Source\PSoC4/PPMCounter.c **** 
1057:.\Generated_Source\PSoC4/PPMCounter.c **** /*******************************************************************************
1058:.\Generated_Source\PSoC4/PPMCounter.c **** * Function Name: PPMCounter_SetCaptureMode
1059:.\Generated_Source\PSoC4/PPMCounter.c **** ********************************************************************************
1060:.\Generated_Source\PSoC4/PPMCounter.c **** *
1061:.\Generated_Source\PSoC4/PPMCounter.c **** * Summary:
1062:.\Generated_Source\PSoC4/PPMCounter.c **** *  Sets the capture trigger mode. For PWM mode this is the switch input.
1063:.\Generated_Source\PSoC4/PPMCounter.c **** *  This input is not applicable to the Timer/Counter without Capture and
1064:.\Generated_Source\PSoC4/PPMCounter.c **** *  Quadrature Decoder modes.
1065:.\Generated_Source\PSoC4/PPMCounter.c **** *
1066:.\Generated_Source\PSoC4/PPMCounter.c **** * Parameters:
1067:.\Generated_Source\PSoC4/PPMCounter.c **** *  triggerMode: Enumerated trigger mode value
1068:.\Generated_Source\PSoC4/PPMCounter.c **** *   Values:
1069:.\Generated_Source\PSoC4/PPMCounter.c **** *     - PPMCounter_TRIG_LEVEL     - Level
1070:.\Generated_Source\PSoC4/PPMCounter.c **** *     - PPMCounter_TRIG_RISING    - Rising edge
1071:.\Generated_Source\PSoC4/PPMCounter.c **** *     - PPMCounter_TRIG_FALLING   - Falling edge
1072:.\Generated_Source\PSoC4/PPMCounter.c **** *     - PPMCounter_TRIG_BOTH      - Both rising and falling edge
1073:.\Generated_Source\PSoC4/PPMCounter.c **** *
1074:.\Generated_Source\PSoC4/PPMCounter.c **** * Return:
1075:.\Generated_Source\PSoC4/PPMCounter.c **** *  None
1076:.\Generated_Source\PSoC4/PPMCounter.c **** *
1077:.\Generated_Source\PSoC4/PPMCounter.c **** *******************************************************************************/
1078:.\Generated_Source\PSoC4/PPMCounter.c **** void PPMCounter_SetCaptureMode(uint32 triggerMode)
1079:.\Generated_Source\PSoC4/PPMCounter.c **** {
 1408              		.loc 1 1079 0
 1409              		.cfi_startproc
 1410 0000 90B5     		push	{r4, r7, lr}
 1411              	.LCFI75:
 1412              		.cfi_def_cfa_offset 12
 1413              		.cfi_offset 4, -12
 1414              		.cfi_offset 7, -8
 1415              		.cfi_offset 14, -4
 1416 0002 85B0     		sub	sp, sp, #20
 1417              	.LCFI76:
 1418              		.cfi_def_cfa_offset 32
 1419 0004 00AF     		add	r7, sp, #0
 1420              	.LCFI77:
 1421              		.cfi_def_cfa_register 7
 1422 0006 7860     		str	r0, [r7, #4]
1080:.\Generated_Source\PSoC4/PPMCounter.c ****     uint8 enableInterrupts;
1081:.\Generated_Source\PSoC4/PPMCounter.c **** 
1082:.\Generated_Source\PSoC4/PPMCounter.c ****     enableInterrupts = CyEnterCriticalSection();
 1423              		.loc 1 1082 0
 1424 0008 3C1C     		mov	r4, r7
 1425 000a 0F34     		add	r4, r4, #15
 1426 000c FFF7FEFF 		bl	CyEnterCriticalSection
ARM GAS  C:\Users\SNFU\AppData\Local\Temp\ccpcIp9g.s 			page 45


 1427 0010 031C     		mov	r3, r0
 1428 0012 2370     		strb	r3, [r4]
1083:.\Generated_Source\PSoC4/PPMCounter.c **** 
1084:.\Generated_Source\PSoC4/PPMCounter.c ****     PPMCounter_TRIG_CONTROL1_REG &= (uint32)~PPMCounter_CAPTURE_MASK;
 1429              		.loc 1 1084 0
 1430 0014 0A4B     		ldr	r3, .L94
 1431 0016 0A4A     		ldr	r2, .L94
 1432 0018 1268     		ldr	r2, [r2]
 1433 001a 0321     		mov	r1, #3
 1434 001c 8A43     		bic	r2, r1
 1435 001e 1A60     		str	r2, [r3]
1085:.\Generated_Source\PSoC4/PPMCounter.c ****     PPMCounter_TRIG_CONTROL1_REG |= triggerMode;
 1436              		.loc 1 1085 0
 1437 0020 074B     		ldr	r3, .L94
 1438 0022 074A     		ldr	r2, .L94
 1439 0024 1168     		ldr	r1, [r2]
 1440 0026 7A68     		ldr	r2, [r7, #4]
 1441 0028 0A43     		orr	r2, r1
 1442 002a 1A60     		str	r2, [r3]
1086:.\Generated_Source\PSoC4/PPMCounter.c **** 
1087:.\Generated_Source\PSoC4/PPMCounter.c ****     CyExitCriticalSection(enableInterrupts);
 1443              		.loc 1 1087 0
 1444 002c 3B1C     		mov	r3, r7
 1445 002e 0F33     		add	r3, r3, #15
 1446 0030 1B78     		ldrb	r3, [r3]
 1447 0032 181C     		mov	r0, r3
 1448 0034 FFF7FEFF 		bl	CyExitCriticalSection
1088:.\Generated_Source\PSoC4/PPMCounter.c **** }
 1449              		.loc 1 1088 0
 1450 0038 BD46     		mov	sp, r7
 1451 003a 05B0     		add	sp, sp, #20
 1452              		@ sp needed for prologue
 1453 003c 90BD     		pop	{r4, r7, pc}
 1454              	.L95:
 1455 003e C046     		.align	2
 1456              	.L94:
 1457 0040 E4010540 		.word	1074069988
 1458              		.cfi_endproc
 1459              	.LFE28:
 1460              		.size	PPMCounter_SetCaptureMode, .-PPMCounter_SetCaptureMode
 1461              		.section	.text.PPMCounter_SetReloadMode,"ax",%progbits
 1462              		.align	2
 1463              		.global	PPMCounter_SetReloadMode
 1464              		.code	16
 1465              		.thumb_func
 1466              		.type	PPMCounter_SetReloadMode, %function
 1467              	PPMCounter_SetReloadMode:
 1468              	.LFB29:
1089:.\Generated_Source\PSoC4/PPMCounter.c **** 
1090:.\Generated_Source\PSoC4/PPMCounter.c **** 
1091:.\Generated_Source\PSoC4/PPMCounter.c **** /*******************************************************************************
1092:.\Generated_Source\PSoC4/PPMCounter.c **** * Function Name: PPMCounter_SetReloadMode
1093:.\Generated_Source\PSoC4/PPMCounter.c **** ********************************************************************************
1094:.\Generated_Source\PSoC4/PPMCounter.c **** *
1095:.\Generated_Source\PSoC4/PPMCounter.c **** * Summary:
1096:.\Generated_Source\PSoC4/PPMCounter.c **** *  Sets the reload trigger mode. For Quadrature Decoder mode this is the index
1097:.\Generated_Source\PSoC4/PPMCounter.c **** *  input.
ARM GAS  C:\Users\SNFU\AppData\Local\Temp\ccpcIp9g.s 			page 46


1098:.\Generated_Source\PSoC4/PPMCounter.c **** *
1099:.\Generated_Source\PSoC4/PPMCounter.c **** * Parameters:
1100:.\Generated_Source\PSoC4/PPMCounter.c **** *  triggerMode: Enumerated trigger mode value
1101:.\Generated_Source\PSoC4/PPMCounter.c **** *   Values:
1102:.\Generated_Source\PSoC4/PPMCounter.c **** *     - PPMCounter_TRIG_LEVEL     - Level
1103:.\Generated_Source\PSoC4/PPMCounter.c **** *     - PPMCounter_TRIG_RISING    - Rising edge
1104:.\Generated_Source\PSoC4/PPMCounter.c **** *     - PPMCounter_TRIG_FALLING   - Falling edge
1105:.\Generated_Source\PSoC4/PPMCounter.c **** *     - PPMCounter_TRIG_BOTH      - Both rising and falling edge
1106:.\Generated_Source\PSoC4/PPMCounter.c **** *
1107:.\Generated_Source\PSoC4/PPMCounter.c **** * Return:
1108:.\Generated_Source\PSoC4/PPMCounter.c **** *  None
1109:.\Generated_Source\PSoC4/PPMCounter.c **** *
1110:.\Generated_Source\PSoC4/PPMCounter.c **** *******************************************************************************/
1111:.\Generated_Source\PSoC4/PPMCounter.c **** void PPMCounter_SetReloadMode(uint32 triggerMode)
1112:.\Generated_Source\PSoC4/PPMCounter.c **** {
 1469              		.loc 1 1112 0
 1470              		.cfi_startproc
 1471 0000 90B5     		push	{r4, r7, lr}
 1472              	.LCFI78:
 1473              		.cfi_def_cfa_offset 12
 1474              		.cfi_offset 4, -12
 1475              		.cfi_offset 7, -8
 1476              		.cfi_offset 14, -4
 1477 0002 85B0     		sub	sp, sp, #20
 1478              	.LCFI79:
 1479              		.cfi_def_cfa_offset 32
 1480 0004 00AF     		add	r7, sp, #0
 1481              	.LCFI80:
 1482              		.cfi_def_cfa_register 7
 1483 0006 7860     		str	r0, [r7, #4]
1113:.\Generated_Source\PSoC4/PPMCounter.c ****     uint8 enableInterrupts;
1114:.\Generated_Source\PSoC4/PPMCounter.c **** 
1115:.\Generated_Source\PSoC4/PPMCounter.c ****     enableInterrupts = CyEnterCriticalSection();
 1484              		.loc 1 1115 0
 1485 0008 3C1C     		mov	r4, r7
 1486 000a 0F34     		add	r4, r4, #15
 1487 000c FFF7FEFF 		bl	CyEnterCriticalSection
 1488 0010 031C     		mov	r3, r0
 1489 0012 2370     		strb	r3, [r4]
1116:.\Generated_Source\PSoC4/PPMCounter.c **** 
1117:.\Generated_Source\PSoC4/PPMCounter.c ****     PPMCounter_TRIG_CONTROL1_REG &= (uint32)~PPMCounter_RELOAD_MASK;
 1490              		.loc 1 1117 0
 1491 0014 0A4B     		ldr	r3, .L97
 1492 0016 0A4A     		ldr	r2, .L97
 1493 0018 1268     		ldr	r2, [r2]
 1494 001a 3021     		mov	r1, #48
 1495 001c 8A43     		bic	r2, r1
 1496 001e 1A60     		str	r2, [r3]
1118:.\Generated_Source\PSoC4/PPMCounter.c ****     PPMCounter_TRIG_CONTROL1_REG |= ((uint32)(triggerMode << PPMCounter_RELOAD_SHIFT));
 1497              		.loc 1 1118 0
 1498 0020 074B     		ldr	r3, .L97
 1499 0022 074A     		ldr	r2, .L97
 1500 0024 1168     		ldr	r1, [r2]
 1501 0026 7A68     		ldr	r2, [r7, #4]
 1502 0028 1201     		lsl	r2, r2, #4
 1503 002a 0A43     		orr	r2, r1
 1504 002c 1A60     		str	r2, [r3]
ARM GAS  C:\Users\SNFU\AppData\Local\Temp\ccpcIp9g.s 			page 47


1119:.\Generated_Source\PSoC4/PPMCounter.c **** 
1120:.\Generated_Source\PSoC4/PPMCounter.c ****     CyExitCriticalSection(enableInterrupts);
 1505              		.loc 1 1120 0
 1506 002e 3B1C     		mov	r3, r7
 1507 0030 0F33     		add	r3, r3, #15
 1508 0032 1B78     		ldrb	r3, [r3]
 1509 0034 181C     		mov	r0, r3
 1510 0036 FFF7FEFF 		bl	CyExitCriticalSection
1121:.\Generated_Source\PSoC4/PPMCounter.c **** }
 1511              		.loc 1 1121 0
 1512 003a BD46     		mov	sp, r7
 1513 003c 05B0     		add	sp, sp, #20
 1514              		@ sp needed for prologue
 1515 003e 90BD     		pop	{r4, r7, pc}
 1516              	.L98:
 1517              		.align	2
 1518              	.L97:
 1519 0040 E4010540 		.word	1074069988
 1520              		.cfi_endproc
 1521              	.LFE29:
 1522              		.size	PPMCounter_SetReloadMode, .-PPMCounter_SetReloadMode
 1523              		.section	.text.PPMCounter_SetStartMode,"ax",%progbits
 1524              		.align	2
 1525              		.global	PPMCounter_SetStartMode
 1526              		.code	16
 1527              		.thumb_func
 1528              		.type	PPMCounter_SetStartMode, %function
 1529              	PPMCounter_SetStartMode:
 1530              	.LFB30:
1122:.\Generated_Source\PSoC4/PPMCounter.c **** 
1123:.\Generated_Source\PSoC4/PPMCounter.c **** 
1124:.\Generated_Source\PSoC4/PPMCounter.c **** /*******************************************************************************
1125:.\Generated_Source\PSoC4/PPMCounter.c **** * Function Name: PPMCounter_SetStartMode
1126:.\Generated_Source\PSoC4/PPMCounter.c **** ********************************************************************************
1127:.\Generated_Source\PSoC4/PPMCounter.c **** *
1128:.\Generated_Source\PSoC4/PPMCounter.c **** * Summary:
1129:.\Generated_Source\PSoC4/PPMCounter.c **** *  Sets the start trigger mode. For Quadrature Decoder mode this is the
1130:.\Generated_Source\PSoC4/PPMCounter.c **** *  phiB input.
1131:.\Generated_Source\PSoC4/PPMCounter.c **** *
1132:.\Generated_Source\PSoC4/PPMCounter.c **** * Parameters:
1133:.\Generated_Source\PSoC4/PPMCounter.c **** *  triggerMode: Enumerated trigger mode value
1134:.\Generated_Source\PSoC4/PPMCounter.c **** *   Values:
1135:.\Generated_Source\PSoC4/PPMCounter.c **** *     - PPMCounter_TRIG_LEVEL     - Level
1136:.\Generated_Source\PSoC4/PPMCounter.c **** *     - PPMCounter_TRIG_RISING    - Rising edge
1137:.\Generated_Source\PSoC4/PPMCounter.c **** *     - PPMCounter_TRIG_FALLING   - Falling edge
1138:.\Generated_Source\PSoC4/PPMCounter.c **** *     - PPMCounter_TRIG_BOTH      - Both rising and falling edge
1139:.\Generated_Source\PSoC4/PPMCounter.c **** *
1140:.\Generated_Source\PSoC4/PPMCounter.c **** * Return:
1141:.\Generated_Source\PSoC4/PPMCounter.c **** *  None
1142:.\Generated_Source\PSoC4/PPMCounter.c **** *
1143:.\Generated_Source\PSoC4/PPMCounter.c **** *******************************************************************************/
1144:.\Generated_Source\PSoC4/PPMCounter.c **** void PPMCounter_SetStartMode(uint32 triggerMode)
1145:.\Generated_Source\PSoC4/PPMCounter.c **** {
 1531              		.loc 1 1145 0
 1532              		.cfi_startproc
 1533 0000 90B5     		push	{r4, r7, lr}
 1534              	.LCFI81:
ARM GAS  C:\Users\SNFU\AppData\Local\Temp\ccpcIp9g.s 			page 48


 1535              		.cfi_def_cfa_offset 12
 1536              		.cfi_offset 4, -12
 1537              		.cfi_offset 7, -8
 1538              		.cfi_offset 14, -4
 1539 0002 85B0     		sub	sp, sp, #20
 1540              	.LCFI82:
 1541              		.cfi_def_cfa_offset 32
 1542 0004 00AF     		add	r7, sp, #0
 1543              	.LCFI83:
 1544              		.cfi_def_cfa_register 7
 1545 0006 7860     		str	r0, [r7, #4]
1146:.\Generated_Source\PSoC4/PPMCounter.c ****     uint8 enableInterrupts;
1147:.\Generated_Source\PSoC4/PPMCounter.c **** 
1148:.\Generated_Source\PSoC4/PPMCounter.c ****     enableInterrupts = CyEnterCriticalSection();
 1546              		.loc 1 1148 0
 1547 0008 3C1C     		mov	r4, r7
 1548 000a 0F34     		add	r4, r4, #15
 1549 000c FFF7FEFF 		bl	CyEnterCriticalSection
 1550 0010 031C     		mov	r3, r0
 1551 0012 2370     		strb	r3, [r4]
1149:.\Generated_Source\PSoC4/PPMCounter.c **** 
1150:.\Generated_Source\PSoC4/PPMCounter.c ****     PPMCounter_TRIG_CONTROL1_REG &= (uint32)~PPMCounter_START_MASK;
 1552              		.loc 1 1150 0
 1553 0014 0A4B     		ldr	r3, .L100
 1554 0016 0A4A     		ldr	r2, .L100
 1555 0018 1168     		ldr	r1, [r2]
 1556 001a 0A4A     		ldr	r2, .L100+4
 1557 001c 0A40     		and	r2, r1
 1558 001e 1A60     		str	r2, [r3]
1151:.\Generated_Source\PSoC4/PPMCounter.c ****     PPMCounter_TRIG_CONTROL1_REG |= ((uint32)(triggerMode << PPMCounter_START_SHIFT));
 1559              		.loc 1 1151 0
 1560 0020 074B     		ldr	r3, .L100
 1561 0022 074A     		ldr	r2, .L100
 1562 0024 1168     		ldr	r1, [r2]
 1563 0026 7A68     		ldr	r2, [r7, #4]
 1564 0028 1202     		lsl	r2, r2, #8
 1565 002a 0A43     		orr	r2, r1
 1566 002c 1A60     		str	r2, [r3]
1152:.\Generated_Source\PSoC4/PPMCounter.c **** 
1153:.\Generated_Source\PSoC4/PPMCounter.c ****     CyExitCriticalSection(enableInterrupts);
 1567              		.loc 1 1153 0
 1568 002e 3B1C     		mov	r3, r7
 1569 0030 0F33     		add	r3, r3, #15
 1570 0032 1B78     		ldrb	r3, [r3]
 1571 0034 181C     		mov	r0, r3
 1572 0036 FFF7FEFF 		bl	CyExitCriticalSection
1154:.\Generated_Source\PSoC4/PPMCounter.c **** }
 1573              		.loc 1 1154 0
 1574 003a BD46     		mov	sp, r7
 1575 003c 05B0     		add	sp, sp, #20
 1576              		@ sp needed for prologue
 1577 003e 90BD     		pop	{r4, r7, pc}
 1578              	.L101:
 1579              		.align	2
 1580              	.L100:
 1581 0040 E4010540 		.word	1074069988
 1582 0044 FFFCFFFF 		.word	-769
ARM GAS  C:\Users\SNFU\AppData\Local\Temp\ccpcIp9g.s 			page 49


 1583              		.cfi_endproc
 1584              	.LFE30:
 1585              		.size	PPMCounter_SetStartMode, .-PPMCounter_SetStartMode
 1586              		.section	.text.PPMCounter_SetStopMode,"ax",%progbits
 1587              		.align	2
 1588              		.global	PPMCounter_SetStopMode
 1589              		.code	16
 1590              		.thumb_func
 1591              		.type	PPMCounter_SetStopMode, %function
 1592              	PPMCounter_SetStopMode:
 1593              	.LFB31:
1155:.\Generated_Source\PSoC4/PPMCounter.c **** 
1156:.\Generated_Source\PSoC4/PPMCounter.c **** 
1157:.\Generated_Source\PSoC4/PPMCounter.c **** /*******************************************************************************
1158:.\Generated_Source\PSoC4/PPMCounter.c **** * Function Name: PPMCounter_SetStopMode
1159:.\Generated_Source\PSoC4/PPMCounter.c **** ********************************************************************************
1160:.\Generated_Source\PSoC4/PPMCounter.c **** *
1161:.\Generated_Source\PSoC4/PPMCounter.c **** * Summary:
1162:.\Generated_Source\PSoC4/PPMCounter.c **** *  Sets the stop trigger mode. For PWM mode this is the kill input.
1163:.\Generated_Source\PSoC4/PPMCounter.c **** *
1164:.\Generated_Source\PSoC4/PPMCounter.c **** * Parameters:
1165:.\Generated_Source\PSoC4/PPMCounter.c **** *  triggerMode: Enumerated trigger mode value
1166:.\Generated_Source\PSoC4/PPMCounter.c **** *   Values:
1167:.\Generated_Source\PSoC4/PPMCounter.c **** *     - PPMCounter_TRIG_LEVEL     - Level
1168:.\Generated_Source\PSoC4/PPMCounter.c **** *     - PPMCounter_TRIG_RISING    - Rising edge
1169:.\Generated_Source\PSoC4/PPMCounter.c **** *     - PPMCounter_TRIG_FALLING   - Falling edge
1170:.\Generated_Source\PSoC4/PPMCounter.c **** *     - PPMCounter_TRIG_BOTH      - Both rising and falling edge
1171:.\Generated_Source\PSoC4/PPMCounter.c **** *
1172:.\Generated_Source\PSoC4/PPMCounter.c **** * Return:
1173:.\Generated_Source\PSoC4/PPMCounter.c **** *  None
1174:.\Generated_Source\PSoC4/PPMCounter.c **** *
1175:.\Generated_Source\PSoC4/PPMCounter.c **** *******************************************************************************/
1176:.\Generated_Source\PSoC4/PPMCounter.c **** void PPMCounter_SetStopMode(uint32 triggerMode)
1177:.\Generated_Source\PSoC4/PPMCounter.c **** {
 1594              		.loc 1 1177 0
 1595              		.cfi_startproc
 1596 0000 90B5     		push	{r4, r7, lr}
 1597              	.LCFI84:
 1598              		.cfi_def_cfa_offset 12
 1599              		.cfi_offset 4, -12
 1600              		.cfi_offset 7, -8
 1601              		.cfi_offset 14, -4
 1602 0002 85B0     		sub	sp, sp, #20
 1603              	.LCFI85:
 1604              		.cfi_def_cfa_offset 32
 1605 0004 00AF     		add	r7, sp, #0
 1606              	.LCFI86:
 1607              		.cfi_def_cfa_register 7
 1608 0006 7860     		str	r0, [r7, #4]
1178:.\Generated_Source\PSoC4/PPMCounter.c ****     uint8 enableInterrupts;
1179:.\Generated_Source\PSoC4/PPMCounter.c **** 
1180:.\Generated_Source\PSoC4/PPMCounter.c ****     enableInterrupts = CyEnterCriticalSection();
 1609              		.loc 1 1180 0
 1610 0008 3C1C     		mov	r4, r7
 1611 000a 0F34     		add	r4, r4, #15
 1612 000c FFF7FEFF 		bl	CyEnterCriticalSection
 1613 0010 031C     		mov	r3, r0
ARM GAS  C:\Users\SNFU\AppData\Local\Temp\ccpcIp9g.s 			page 50


 1614 0012 2370     		strb	r3, [r4]
1181:.\Generated_Source\PSoC4/PPMCounter.c **** 
1182:.\Generated_Source\PSoC4/PPMCounter.c ****     PPMCounter_TRIG_CONTROL1_REG &= (uint32)~PPMCounter_STOP_MASK;
 1615              		.loc 1 1182 0
 1616 0014 0A4B     		ldr	r3, .L103
 1617 0016 0A4A     		ldr	r2, .L103
 1618 0018 1268     		ldr	r2, [r2]
 1619 001a C021     		mov	r1, #192
 1620 001c 8A43     		bic	r2, r1
 1621 001e 1A60     		str	r2, [r3]
1183:.\Generated_Source\PSoC4/PPMCounter.c ****     PPMCounter_TRIG_CONTROL1_REG |= ((uint32)(triggerMode << PPMCounter_STOP_SHIFT));
 1622              		.loc 1 1183 0
 1623 0020 074B     		ldr	r3, .L103
 1624 0022 074A     		ldr	r2, .L103
 1625 0024 1168     		ldr	r1, [r2]
 1626 0026 7A68     		ldr	r2, [r7, #4]
 1627 0028 9201     		lsl	r2, r2, #6
 1628 002a 0A43     		orr	r2, r1
 1629 002c 1A60     		str	r2, [r3]
1184:.\Generated_Source\PSoC4/PPMCounter.c **** 
1185:.\Generated_Source\PSoC4/PPMCounter.c ****     CyExitCriticalSection(enableInterrupts);
 1630              		.loc 1 1185 0
 1631 002e 3B1C     		mov	r3, r7
 1632 0030 0F33     		add	r3, r3, #15
 1633 0032 1B78     		ldrb	r3, [r3]
 1634 0034 181C     		mov	r0, r3
 1635 0036 FFF7FEFF 		bl	CyExitCriticalSection
1186:.\Generated_Source\PSoC4/PPMCounter.c **** }
 1636              		.loc 1 1186 0
 1637 003a BD46     		mov	sp, r7
 1638 003c 05B0     		add	sp, sp, #20
 1639              		@ sp needed for prologue
 1640 003e 90BD     		pop	{r4, r7, pc}
 1641              	.L104:
 1642              		.align	2
 1643              	.L103:
 1644 0040 E4010540 		.word	1074069988
 1645              		.cfi_endproc
 1646              	.LFE31:
 1647              		.size	PPMCounter_SetStopMode, .-PPMCounter_SetStopMode
 1648              		.section	.text.PPMCounter_SetCountMode,"ax",%progbits
 1649              		.align	2
 1650              		.global	PPMCounter_SetCountMode
 1651              		.code	16
 1652              		.thumb_func
 1653              		.type	PPMCounter_SetCountMode, %function
 1654              	PPMCounter_SetCountMode:
 1655              	.LFB32:
1187:.\Generated_Source\PSoC4/PPMCounter.c **** 
1188:.\Generated_Source\PSoC4/PPMCounter.c **** 
1189:.\Generated_Source\PSoC4/PPMCounter.c **** /*******************************************************************************
1190:.\Generated_Source\PSoC4/PPMCounter.c **** * Function Name: PPMCounter_SetCountMode
1191:.\Generated_Source\PSoC4/PPMCounter.c **** ********************************************************************************
1192:.\Generated_Source\PSoC4/PPMCounter.c **** *
1193:.\Generated_Source\PSoC4/PPMCounter.c **** * Summary:
1194:.\Generated_Source\PSoC4/PPMCounter.c **** *  Sets the count trigger mode. For Quadrature Decoder mode this is the phiA
1195:.\Generated_Source\PSoC4/PPMCounter.c **** *  input.
ARM GAS  C:\Users\SNFU\AppData\Local\Temp\ccpcIp9g.s 			page 51


1196:.\Generated_Source\PSoC4/PPMCounter.c **** *
1197:.\Generated_Source\PSoC4/PPMCounter.c **** * Parameters:
1198:.\Generated_Source\PSoC4/PPMCounter.c **** *  triggerMode: Enumerated trigger mode value
1199:.\Generated_Source\PSoC4/PPMCounter.c **** *   Values:
1200:.\Generated_Source\PSoC4/PPMCounter.c **** *     - PPMCounter_TRIG_LEVEL     - Level
1201:.\Generated_Source\PSoC4/PPMCounter.c **** *     - PPMCounter_TRIG_RISING    - Rising edge
1202:.\Generated_Source\PSoC4/PPMCounter.c **** *     - PPMCounter_TRIG_FALLING   - Falling edge
1203:.\Generated_Source\PSoC4/PPMCounter.c **** *     - PPMCounter_TRIG_BOTH      - Both rising and falling edge
1204:.\Generated_Source\PSoC4/PPMCounter.c **** *
1205:.\Generated_Source\PSoC4/PPMCounter.c **** * Return:
1206:.\Generated_Source\PSoC4/PPMCounter.c **** *  None
1207:.\Generated_Source\PSoC4/PPMCounter.c **** *
1208:.\Generated_Source\PSoC4/PPMCounter.c **** *******************************************************************************/
1209:.\Generated_Source\PSoC4/PPMCounter.c **** void PPMCounter_SetCountMode(uint32 triggerMode)
1210:.\Generated_Source\PSoC4/PPMCounter.c **** {
 1656              		.loc 1 1210 0
 1657              		.cfi_startproc
 1658 0000 90B5     		push	{r4, r7, lr}
 1659              	.LCFI87:
 1660              		.cfi_def_cfa_offset 12
 1661              		.cfi_offset 4, -12
 1662              		.cfi_offset 7, -8
 1663              		.cfi_offset 14, -4
 1664 0002 85B0     		sub	sp, sp, #20
 1665              	.LCFI88:
 1666              		.cfi_def_cfa_offset 32
 1667 0004 00AF     		add	r7, sp, #0
 1668              	.LCFI89:
 1669              		.cfi_def_cfa_register 7
 1670 0006 7860     		str	r0, [r7, #4]
1211:.\Generated_Source\PSoC4/PPMCounter.c ****     uint8 enableInterrupts;
1212:.\Generated_Source\PSoC4/PPMCounter.c **** 
1213:.\Generated_Source\PSoC4/PPMCounter.c ****     enableInterrupts = CyEnterCriticalSection();
 1671              		.loc 1 1213 0
 1672 0008 3C1C     		mov	r4, r7
 1673 000a 0F34     		add	r4, r4, #15
 1674 000c FFF7FEFF 		bl	CyEnterCriticalSection
 1675 0010 031C     		mov	r3, r0
 1676 0012 2370     		strb	r3, [r4]
1214:.\Generated_Source\PSoC4/PPMCounter.c **** 
1215:.\Generated_Source\PSoC4/PPMCounter.c ****     PPMCounter_TRIG_CONTROL1_REG &= (uint32)~PPMCounter_COUNT_MASK;
 1677              		.loc 1 1215 0
 1678 0014 0A4B     		ldr	r3, .L106
 1679 0016 0A4A     		ldr	r2, .L106
 1680 0018 1268     		ldr	r2, [r2]
 1681 001a 0C21     		mov	r1, #12
 1682 001c 8A43     		bic	r2, r1
 1683 001e 1A60     		str	r2, [r3]
1216:.\Generated_Source\PSoC4/PPMCounter.c ****     PPMCounter_TRIG_CONTROL1_REG |= ((uint32)(triggerMode << PPMCounter_COUNT_SHIFT));
 1684              		.loc 1 1216 0
 1685 0020 074B     		ldr	r3, .L106
 1686 0022 074A     		ldr	r2, .L106
 1687 0024 1168     		ldr	r1, [r2]
 1688 0026 7A68     		ldr	r2, [r7, #4]
 1689 0028 9200     		lsl	r2, r2, #2
 1690 002a 0A43     		orr	r2, r1
 1691 002c 1A60     		str	r2, [r3]
ARM GAS  C:\Users\SNFU\AppData\Local\Temp\ccpcIp9g.s 			page 52


1217:.\Generated_Source\PSoC4/PPMCounter.c **** 
1218:.\Generated_Source\PSoC4/PPMCounter.c ****     CyExitCriticalSection(enableInterrupts);
 1692              		.loc 1 1218 0
 1693 002e 3B1C     		mov	r3, r7
 1694 0030 0F33     		add	r3, r3, #15
 1695 0032 1B78     		ldrb	r3, [r3]
 1696 0034 181C     		mov	r0, r3
 1697 0036 FFF7FEFF 		bl	CyExitCriticalSection
1219:.\Generated_Source\PSoC4/PPMCounter.c **** }
 1698              		.loc 1 1219 0
 1699 003a BD46     		mov	sp, r7
 1700 003c 05B0     		add	sp, sp, #20
 1701              		@ sp needed for prologue
 1702 003e 90BD     		pop	{r4, r7, pc}
 1703              	.L107:
 1704              		.align	2
 1705              	.L106:
 1706 0040 E4010540 		.word	1074069988
 1707              		.cfi_endproc
 1708              	.LFE32:
 1709              		.size	PPMCounter_SetCountMode, .-PPMCounter_SetCountMode
 1710              		.section	.text.PPMCounter_TriggerCommand,"ax",%progbits
 1711              		.align	2
 1712              		.global	PPMCounter_TriggerCommand
 1713              		.code	16
 1714              		.thumb_func
 1715              		.type	PPMCounter_TriggerCommand, %function
 1716              	PPMCounter_TriggerCommand:
 1717              	.LFB33:
1220:.\Generated_Source\PSoC4/PPMCounter.c **** 
1221:.\Generated_Source\PSoC4/PPMCounter.c **** 
1222:.\Generated_Source\PSoC4/PPMCounter.c **** /*******************************************************************************
1223:.\Generated_Source\PSoC4/PPMCounter.c **** * Function Name: PPMCounter_TriggerCommand
1224:.\Generated_Source\PSoC4/PPMCounter.c **** ********************************************************************************
1225:.\Generated_Source\PSoC4/PPMCounter.c **** *
1226:.\Generated_Source\PSoC4/PPMCounter.c **** * Summary:
1227:.\Generated_Source\PSoC4/PPMCounter.c **** *  Triggers the designated command to occur on the designated TCPWM instances.
1228:.\Generated_Source\PSoC4/PPMCounter.c **** *  The mask can be used to apply this command simultaneously to more than one
1229:.\Generated_Source\PSoC4/PPMCounter.c **** *  instance.  This allows multiple TCPWM instances to be synchronized.
1230:.\Generated_Source\PSoC4/PPMCounter.c **** *
1231:.\Generated_Source\PSoC4/PPMCounter.c **** * Parameters:
1232:.\Generated_Source\PSoC4/PPMCounter.c **** *  mask: A combination of mask bits for each instance of the TCPWM that the
1233:.\Generated_Source\PSoC4/PPMCounter.c **** *        command should apply to.  This function from one instance can be used
1234:.\Generated_Source\PSoC4/PPMCounter.c **** *        to apply the command to any of the instances in the design.
1235:.\Generated_Source\PSoC4/PPMCounter.c **** *        The mask value for a specific instance is available with the MASK
1236:.\Generated_Source\PSoC4/PPMCounter.c **** *        define.
1237:.\Generated_Source\PSoC4/PPMCounter.c **** *  command: Enumerated command values. Capture command only applicable for
1238:.\Generated_Source\PSoC4/PPMCounter.c **** *           Timer/Counter with Capture and PWM modes.
1239:.\Generated_Source\PSoC4/PPMCounter.c **** *   Values:
1240:.\Generated_Source\PSoC4/PPMCounter.c **** *     - PPMCounter_CMD_CAPTURE    - Trigger Capture command
1241:.\Generated_Source\PSoC4/PPMCounter.c **** *     - PPMCounter_CMD_RELOAD     - Trigger Reload command
1242:.\Generated_Source\PSoC4/PPMCounter.c **** *     - PPMCounter_CMD_STOP       - Trigger Stop command
1243:.\Generated_Source\PSoC4/PPMCounter.c **** *     - PPMCounter_CMD_START      - Trigger Start command
1244:.\Generated_Source\PSoC4/PPMCounter.c **** *
1245:.\Generated_Source\PSoC4/PPMCounter.c **** * Return:
1246:.\Generated_Source\PSoC4/PPMCounter.c **** *  None
1247:.\Generated_Source\PSoC4/PPMCounter.c **** *
ARM GAS  C:\Users\SNFU\AppData\Local\Temp\ccpcIp9g.s 			page 53


1248:.\Generated_Source\PSoC4/PPMCounter.c **** *******************************************************************************/
1249:.\Generated_Source\PSoC4/PPMCounter.c **** void PPMCounter_TriggerCommand(uint32 mask, uint32 command)
1250:.\Generated_Source\PSoC4/PPMCounter.c **** {
 1718              		.loc 1 1250 0
 1719              		.cfi_startproc
 1720 0000 90B5     		push	{r4, r7, lr}
 1721              	.LCFI90:
 1722              		.cfi_def_cfa_offset 12
 1723              		.cfi_offset 4, -12
 1724              		.cfi_offset 7, -8
 1725              		.cfi_offset 14, -4
 1726 0002 85B0     		sub	sp, sp, #20
 1727              	.LCFI91:
 1728              		.cfi_def_cfa_offset 32
 1729 0004 00AF     		add	r7, sp, #0
 1730              	.LCFI92:
 1731              		.cfi_def_cfa_register 7
 1732 0006 7860     		str	r0, [r7, #4]
 1733 0008 3960     		str	r1, [r7]
1251:.\Generated_Source\PSoC4/PPMCounter.c ****     uint8 enableInterrupts;
1252:.\Generated_Source\PSoC4/PPMCounter.c **** 
1253:.\Generated_Source\PSoC4/PPMCounter.c ****     enableInterrupts = CyEnterCriticalSection();
 1734              		.loc 1 1253 0
 1735 000a 3C1C     		mov	r4, r7
 1736 000c 0F34     		add	r4, r4, #15
 1737 000e FFF7FEFF 		bl	CyEnterCriticalSection
 1738 0012 031C     		mov	r3, r0
 1739 0014 2370     		strb	r3, [r4]
1254:.\Generated_Source\PSoC4/PPMCounter.c **** 
1255:.\Generated_Source\PSoC4/PPMCounter.c ****     PPMCounter_COMMAND_REG = ((uint32)(mask << command));
 1740              		.loc 1 1255 0
 1741 0016 084B     		ldr	r3, .L109
 1742 0018 3A68     		ldr	r2, [r7]
 1743 001a 7968     		ldr	r1, [r7, #4]
 1744 001c 081C     		mov	r0, r1
 1745 001e 9040     		lsl	r0, r0, r2
 1746 0020 021C     		mov	r2, r0
 1747 0022 1A60     		str	r2, [r3]
1256:.\Generated_Source\PSoC4/PPMCounter.c **** 
1257:.\Generated_Source\PSoC4/PPMCounter.c ****     CyExitCriticalSection(enableInterrupts);
 1748              		.loc 1 1257 0
 1749 0024 3B1C     		mov	r3, r7
 1750 0026 0F33     		add	r3, r3, #15
 1751 0028 1B78     		ldrb	r3, [r3]
 1752 002a 181C     		mov	r0, r3
 1753 002c FFF7FEFF 		bl	CyExitCriticalSection
1258:.\Generated_Source\PSoC4/PPMCounter.c **** }
 1754              		.loc 1 1258 0
 1755 0030 BD46     		mov	sp, r7
 1756 0032 05B0     		add	sp, sp, #20
 1757              		@ sp needed for prologue
 1758 0034 90BD     		pop	{r4, r7, pc}
 1759              	.L110:
 1760 0036 C046     		.align	2
 1761              	.L109:
 1762 0038 08000540 		.word	1074069512
 1763              		.cfi_endproc
ARM GAS  C:\Users\SNFU\AppData\Local\Temp\ccpcIp9g.s 			page 54


 1764              	.LFE33:
 1765              		.size	PPMCounter_TriggerCommand, .-PPMCounter_TriggerCommand
 1766              		.section	.text.PPMCounter_ReadStatus,"ax",%progbits
 1767              		.align	2
 1768              		.global	PPMCounter_ReadStatus
 1769              		.code	16
 1770              		.thumb_func
 1771              		.type	PPMCounter_ReadStatus, %function
 1772              	PPMCounter_ReadStatus:
 1773              	.LFB34:
1259:.\Generated_Source\PSoC4/PPMCounter.c **** 
1260:.\Generated_Source\PSoC4/PPMCounter.c **** 
1261:.\Generated_Source\PSoC4/PPMCounter.c **** /*******************************************************************************
1262:.\Generated_Source\PSoC4/PPMCounter.c **** * Function Name: PPMCounter_ReadStatus
1263:.\Generated_Source\PSoC4/PPMCounter.c **** ********************************************************************************
1264:.\Generated_Source\PSoC4/PPMCounter.c **** *
1265:.\Generated_Source\PSoC4/PPMCounter.c **** * Summary:
1266:.\Generated_Source\PSoC4/PPMCounter.c **** *  Reads the status of the PPMCounter.
1267:.\Generated_Source\PSoC4/PPMCounter.c **** *
1268:.\Generated_Source\PSoC4/PPMCounter.c **** * Parameters:
1269:.\Generated_Source\PSoC4/PPMCounter.c **** *  None
1270:.\Generated_Source\PSoC4/PPMCounter.c **** *
1271:.\Generated_Source\PSoC4/PPMCounter.c **** * Return:
1272:.\Generated_Source\PSoC4/PPMCounter.c **** *  Status
1273:.\Generated_Source\PSoC4/PPMCounter.c **** *   Values:
1274:.\Generated_Source\PSoC4/PPMCounter.c **** *     - PPMCounter_STATUS_DOWN    - Set if counting down
1275:.\Generated_Source\PSoC4/PPMCounter.c **** *     - PPMCounter_STATUS_RUNNING - Set if counter is running
1276:.\Generated_Source\PSoC4/PPMCounter.c **** *
1277:.\Generated_Source\PSoC4/PPMCounter.c **** *******************************************************************************/
1278:.\Generated_Source\PSoC4/PPMCounter.c **** uint32 PPMCounter_ReadStatus(void)
1279:.\Generated_Source\PSoC4/PPMCounter.c **** {
 1774              		.loc 1 1279 0
 1775              		.cfi_startproc
 1776 0000 80B5     		push	{r7, lr}
 1777              	.LCFI93:
 1778              		.cfi_def_cfa_offset 8
 1779              		.cfi_offset 7, -8
 1780              		.cfi_offset 14, -4
 1781 0002 00AF     		add	r7, sp, #0
 1782              	.LCFI94:
 1783              		.cfi_def_cfa_register 7
1280:.\Generated_Source\PSoC4/PPMCounter.c ****     return ((PPMCounter_STATUS_REG >> PPMCounter_RUNNING_STATUS_SHIFT) |
 1784              		.loc 1 1280 0
 1785 0004 054B     		ldr	r3, .L113
 1786 0006 1B68     		ldr	r3, [r3]
 1787 0008 9A0F     		lsr	r2, r3, #30
1281:.\Generated_Source\PSoC4/PPMCounter.c ****             (PPMCounter_STATUS_REG & PPMCounter_STATUS_DOWN));
 1788              		.loc 1 1281 0
 1789 000a 044B     		ldr	r3, .L113
 1790 000c 1968     		ldr	r1, [r3]
 1791 000e 0123     		mov	r3, #1
 1792 0010 0B40     		and	r3, r1
1280:.\Generated_Source\PSoC4/PPMCounter.c ****     return ((PPMCounter_STATUS_REG >> PPMCounter_RUNNING_STATUS_SHIFT) |
 1793              		.loc 1 1280 0
 1794 0012 1343     		orr	r3, r2
1282:.\Generated_Source\PSoC4/PPMCounter.c **** }
 1795              		.loc 1 1282 0
ARM GAS  C:\Users\SNFU\AppData\Local\Temp\ccpcIp9g.s 			page 55


 1796 0014 181C     		mov	r0, r3
 1797 0016 BD46     		mov	sp, r7
 1798              		@ sp needed for prologue
 1799 0018 80BD     		pop	{r7, pc}
 1800              	.L114:
 1801 001a C046     		.align	2
 1802              	.L113:
 1803 001c C4010540 		.word	1074069956
 1804              		.cfi_endproc
 1805              	.LFE34:
 1806              		.size	PPMCounter_ReadStatus, .-PPMCounter_ReadStatus
 1807              		.section	.text.PPMCounter_SetInterruptMode,"ax",%progbits
 1808              		.align	2
 1809              		.global	PPMCounter_SetInterruptMode
 1810              		.code	16
 1811              		.thumb_func
 1812              		.type	PPMCounter_SetInterruptMode, %function
 1813              	PPMCounter_SetInterruptMode:
 1814              	.LFB35:
1283:.\Generated_Source\PSoC4/PPMCounter.c **** 
1284:.\Generated_Source\PSoC4/PPMCounter.c **** 
1285:.\Generated_Source\PSoC4/PPMCounter.c **** /*******************************************************************************
1286:.\Generated_Source\PSoC4/PPMCounter.c **** * Function Name: PPMCounter_SetInterruptMode
1287:.\Generated_Source\PSoC4/PPMCounter.c **** ********************************************************************************
1288:.\Generated_Source\PSoC4/PPMCounter.c **** *
1289:.\Generated_Source\PSoC4/PPMCounter.c **** * Summary:
1290:.\Generated_Source\PSoC4/PPMCounter.c **** *  Sets the interrupt mask to control which interrupt
1291:.\Generated_Source\PSoC4/PPMCounter.c **** *  requests generate the interrupt signal.
1292:.\Generated_Source\PSoC4/PPMCounter.c **** *
1293:.\Generated_Source\PSoC4/PPMCounter.c **** * Parameters:
1294:.\Generated_Source\PSoC4/PPMCounter.c **** *   interruptMask: Mask of bits to be enabled
1295:.\Generated_Source\PSoC4/PPMCounter.c **** *   Values:
1296:.\Generated_Source\PSoC4/PPMCounter.c **** *     - PPMCounter_INTR_MASK_TC       - Terminal count mask
1297:.\Generated_Source\PSoC4/PPMCounter.c **** *     - PPMCounter_INTR_MASK_CC_MATCH - Compare count / capture mask
1298:.\Generated_Source\PSoC4/PPMCounter.c **** *
1299:.\Generated_Source\PSoC4/PPMCounter.c **** * Return:
1300:.\Generated_Source\PSoC4/PPMCounter.c **** *  None
1301:.\Generated_Source\PSoC4/PPMCounter.c **** *
1302:.\Generated_Source\PSoC4/PPMCounter.c **** *******************************************************************************/
1303:.\Generated_Source\PSoC4/PPMCounter.c **** void PPMCounter_SetInterruptMode(uint32 interruptMask)
1304:.\Generated_Source\PSoC4/PPMCounter.c **** {
 1815              		.loc 1 1304 0
 1816              		.cfi_startproc
 1817 0000 80B5     		push	{r7, lr}
 1818              	.LCFI95:
 1819              		.cfi_def_cfa_offset 8
 1820              		.cfi_offset 7, -8
 1821              		.cfi_offset 14, -4
 1822 0002 82B0     		sub	sp, sp, #8
 1823              	.LCFI96:
 1824              		.cfi_def_cfa_offset 16
 1825 0004 00AF     		add	r7, sp, #0
 1826              	.LCFI97:
 1827              		.cfi_def_cfa_register 7
 1828 0006 7860     		str	r0, [r7, #4]
1305:.\Generated_Source\PSoC4/PPMCounter.c ****     PPMCounter_INTERRUPT_MASK_REG =  interruptMask;
 1829              		.loc 1 1305 0
ARM GAS  C:\Users\SNFU\AppData\Local\Temp\ccpcIp9g.s 			page 56


 1830 0008 024B     		ldr	r3, .L116
 1831 000a 7A68     		ldr	r2, [r7, #4]
 1832 000c 1A60     		str	r2, [r3]
1306:.\Generated_Source\PSoC4/PPMCounter.c **** }
 1833              		.loc 1 1306 0
 1834 000e BD46     		mov	sp, r7
 1835 0010 02B0     		add	sp, sp, #8
 1836              		@ sp needed for prologue
 1837 0012 80BD     		pop	{r7, pc}
 1838              	.L117:
 1839              		.align	2
 1840              	.L116:
 1841 0014 F8010540 		.word	1074070008
 1842              		.cfi_endproc
 1843              	.LFE35:
 1844              		.size	PPMCounter_SetInterruptMode, .-PPMCounter_SetInterruptMode
 1845              		.section	.text.PPMCounter_GetInterruptSourceMasked,"ax",%progbits
 1846              		.align	2
 1847              		.global	PPMCounter_GetInterruptSourceMasked
 1848              		.code	16
 1849              		.thumb_func
 1850              		.type	PPMCounter_GetInterruptSourceMasked, %function
 1851              	PPMCounter_GetInterruptSourceMasked:
 1852              	.LFB36:
1307:.\Generated_Source\PSoC4/PPMCounter.c **** 
1308:.\Generated_Source\PSoC4/PPMCounter.c **** 
1309:.\Generated_Source\PSoC4/PPMCounter.c **** /*******************************************************************************
1310:.\Generated_Source\PSoC4/PPMCounter.c **** * Function Name: PPMCounter_GetInterruptSourceMasked
1311:.\Generated_Source\PSoC4/PPMCounter.c **** ********************************************************************************
1312:.\Generated_Source\PSoC4/PPMCounter.c **** *
1313:.\Generated_Source\PSoC4/PPMCounter.c **** * Summary:
1314:.\Generated_Source\PSoC4/PPMCounter.c **** *  Gets the interrupt requests masked by the interrupt mask.
1315:.\Generated_Source\PSoC4/PPMCounter.c **** *
1316:.\Generated_Source\PSoC4/PPMCounter.c **** * Parameters:
1317:.\Generated_Source\PSoC4/PPMCounter.c **** *   None
1318:.\Generated_Source\PSoC4/PPMCounter.c **** *
1319:.\Generated_Source\PSoC4/PPMCounter.c **** * Return:
1320:.\Generated_Source\PSoC4/PPMCounter.c **** *  Masked interrupt source
1321:.\Generated_Source\PSoC4/PPMCounter.c **** *   Values:
1322:.\Generated_Source\PSoC4/PPMCounter.c **** *     - PPMCounter_INTR_MASK_TC       - Terminal count mask
1323:.\Generated_Source\PSoC4/PPMCounter.c **** *     - PPMCounter_INTR_MASK_CC_MATCH - Compare count / capture mask
1324:.\Generated_Source\PSoC4/PPMCounter.c **** *
1325:.\Generated_Source\PSoC4/PPMCounter.c **** *******************************************************************************/
1326:.\Generated_Source\PSoC4/PPMCounter.c **** uint32 PPMCounter_GetInterruptSourceMasked(void)
1327:.\Generated_Source\PSoC4/PPMCounter.c **** {
 1853              		.loc 1 1327 0
 1854              		.cfi_startproc
 1855 0000 80B5     		push	{r7, lr}
 1856              	.LCFI98:
 1857              		.cfi_def_cfa_offset 8
 1858              		.cfi_offset 7, -8
 1859              		.cfi_offset 14, -4
 1860 0002 00AF     		add	r7, sp, #0
 1861              	.LCFI99:
 1862              		.cfi_def_cfa_register 7
1328:.\Generated_Source\PSoC4/PPMCounter.c ****     return (PPMCounter_INTERRUPT_MASKED_REG);
 1863              		.loc 1 1328 0
ARM GAS  C:\Users\SNFU\AppData\Local\Temp\ccpcIp9g.s 			page 57


 1864 0004 024B     		ldr	r3, .L120
 1865 0006 1B68     		ldr	r3, [r3]
1329:.\Generated_Source\PSoC4/PPMCounter.c **** }
 1866              		.loc 1 1329 0
 1867 0008 181C     		mov	r0, r3
 1868 000a BD46     		mov	sp, r7
 1869              		@ sp needed for prologue
 1870 000c 80BD     		pop	{r7, pc}
 1871              	.L121:
 1872 000e C046     		.align	2
 1873              	.L120:
 1874 0010 FC010540 		.word	1074070012
 1875              		.cfi_endproc
 1876              	.LFE36:
 1877              		.size	PPMCounter_GetInterruptSourceMasked, .-PPMCounter_GetInterruptSourceMasked
 1878              		.section	.text.PPMCounter_GetInterruptSource,"ax",%progbits
 1879              		.align	2
 1880              		.global	PPMCounter_GetInterruptSource
 1881              		.code	16
 1882              		.thumb_func
 1883              		.type	PPMCounter_GetInterruptSource, %function
 1884              	PPMCounter_GetInterruptSource:
 1885              	.LFB37:
1330:.\Generated_Source\PSoC4/PPMCounter.c **** 
1331:.\Generated_Source\PSoC4/PPMCounter.c **** 
1332:.\Generated_Source\PSoC4/PPMCounter.c **** /*******************************************************************************
1333:.\Generated_Source\PSoC4/PPMCounter.c **** * Function Name: PPMCounter_GetInterruptSource
1334:.\Generated_Source\PSoC4/PPMCounter.c **** ********************************************************************************
1335:.\Generated_Source\PSoC4/PPMCounter.c **** *
1336:.\Generated_Source\PSoC4/PPMCounter.c **** * Summary:
1337:.\Generated_Source\PSoC4/PPMCounter.c **** *  Gets the interrupt requests (without masking).
1338:.\Generated_Source\PSoC4/PPMCounter.c **** *
1339:.\Generated_Source\PSoC4/PPMCounter.c **** * Parameters:
1340:.\Generated_Source\PSoC4/PPMCounter.c **** *  None
1341:.\Generated_Source\PSoC4/PPMCounter.c **** *
1342:.\Generated_Source\PSoC4/PPMCounter.c **** * Return:
1343:.\Generated_Source\PSoC4/PPMCounter.c **** *  Interrupt request value
1344:.\Generated_Source\PSoC4/PPMCounter.c **** *   Values:
1345:.\Generated_Source\PSoC4/PPMCounter.c **** *     - PPMCounter_INTR_MASK_TC       - Terminal count mask
1346:.\Generated_Source\PSoC4/PPMCounter.c **** *     - PPMCounter_INTR_MASK_CC_MATCH - Compare count / capture mask
1347:.\Generated_Source\PSoC4/PPMCounter.c **** *
1348:.\Generated_Source\PSoC4/PPMCounter.c **** *******************************************************************************/
1349:.\Generated_Source\PSoC4/PPMCounter.c **** uint32 PPMCounter_GetInterruptSource(void)
1350:.\Generated_Source\PSoC4/PPMCounter.c **** {
 1886              		.loc 1 1350 0
 1887              		.cfi_startproc
 1888 0000 80B5     		push	{r7, lr}
 1889              	.LCFI100:
 1890              		.cfi_def_cfa_offset 8
 1891              		.cfi_offset 7, -8
 1892              		.cfi_offset 14, -4
 1893 0002 00AF     		add	r7, sp, #0
 1894              	.LCFI101:
 1895              		.cfi_def_cfa_register 7
1351:.\Generated_Source\PSoC4/PPMCounter.c ****     return (PPMCounter_INTERRUPT_REQ_REG);
 1896              		.loc 1 1351 0
 1897 0004 024B     		ldr	r3, .L124
ARM GAS  C:\Users\SNFU\AppData\Local\Temp\ccpcIp9g.s 			page 58


 1898 0006 1B68     		ldr	r3, [r3]
1352:.\Generated_Source\PSoC4/PPMCounter.c **** }
 1899              		.loc 1 1352 0
 1900 0008 181C     		mov	r0, r3
 1901 000a BD46     		mov	sp, r7
 1902              		@ sp needed for prologue
 1903 000c 80BD     		pop	{r7, pc}
 1904              	.L125:
 1905 000e C046     		.align	2
 1906              	.L124:
 1907 0010 F0010540 		.word	1074070000
 1908              		.cfi_endproc
 1909              	.LFE37:
 1910              		.size	PPMCounter_GetInterruptSource, .-PPMCounter_GetInterruptSource
 1911              		.section	.text.PPMCounter_ClearInterrupt,"ax",%progbits
 1912              		.align	2
 1913              		.global	PPMCounter_ClearInterrupt
 1914              		.code	16
 1915              		.thumb_func
 1916              		.type	PPMCounter_ClearInterrupt, %function
 1917              	PPMCounter_ClearInterrupt:
 1918              	.LFB38:
1353:.\Generated_Source\PSoC4/PPMCounter.c **** 
1354:.\Generated_Source\PSoC4/PPMCounter.c **** 
1355:.\Generated_Source\PSoC4/PPMCounter.c **** /*******************************************************************************
1356:.\Generated_Source\PSoC4/PPMCounter.c **** * Function Name: PPMCounter_ClearInterrupt
1357:.\Generated_Source\PSoC4/PPMCounter.c **** ********************************************************************************
1358:.\Generated_Source\PSoC4/PPMCounter.c **** *
1359:.\Generated_Source\PSoC4/PPMCounter.c **** * Summary:
1360:.\Generated_Source\PSoC4/PPMCounter.c **** *  Clears the interrupt request.
1361:.\Generated_Source\PSoC4/PPMCounter.c **** *
1362:.\Generated_Source\PSoC4/PPMCounter.c **** * Parameters:
1363:.\Generated_Source\PSoC4/PPMCounter.c **** *   interruptMask: Mask of interrupts to clear
1364:.\Generated_Source\PSoC4/PPMCounter.c **** *   Values:
1365:.\Generated_Source\PSoC4/PPMCounter.c **** *     - PPMCounter_INTR_MASK_TC       - Terminal count mask
1366:.\Generated_Source\PSoC4/PPMCounter.c **** *     - PPMCounter_INTR_MASK_CC_MATCH - Compare count / capture mask
1367:.\Generated_Source\PSoC4/PPMCounter.c **** *
1368:.\Generated_Source\PSoC4/PPMCounter.c **** * Return:
1369:.\Generated_Source\PSoC4/PPMCounter.c **** *  None
1370:.\Generated_Source\PSoC4/PPMCounter.c **** *
1371:.\Generated_Source\PSoC4/PPMCounter.c **** *******************************************************************************/
1372:.\Generated_Source\PSoC4/PPMCounter.c **** void PPMCounter_ClearInterrupt(uint32 interruptMask)
1373:.\Generated_Source\PSoC4/PPMCounter.c **** {
 1919              		.loc 1 1373 0
 1920              		.cfi_startproc
 1921 0000 80B5     		push	{r7, lr}
 1922              	.LCFI102:
 1923              		.cfi_def_cfa_offset 8
 1924              		.cfi_offset 7, -8
 1925              		.cfi_offset 14, -4
 1926 0002 82B0     		sub	sp, sp, #8
 1927              	.LCFI103:
 1928              		.cfi_def_cfa_offset 16
 1929 0004 00AF     		add	r7, sp, #0
 1930              	.LCFI104:
 1931              		.cfi_def_cfa_register 7
 1932 0006 7860     		str	r0, [r7, #4]
ARM GAS  C:\Users\SNFU\AppData\Local\Temp\ccpcIp9g.s 			page 59


1374:.\Generated_Source\PSoC4/PPMCounter.c ****     PPMCounter_INTERRUPT_REQ_REG = interruptMask;
 1933              		.loc 1 1374 0
 1934 0008 024B     		ldr	r3, .L127
 1935 000a 7A68     		ldr	r2, [r7, #4]
 1936 000c 1A60     		str	r2, [r3]
1375:.\Generated_Source\PSoC4/PPMCounter.c **** }
 1937              		.loc 1 1375 0
 1938 000e BD46     		mov	sp, r7
 1939 0010 02B0     		add	sp, sp, #8
 1940              		@ sp needed for prologue
 1941 0012 80BD     		pop	{r7, pc}
 1942              	.L128:
 1943              		.align	2
 1944              	.L127:
 1945 0014 F0010540 		.word	1074070000
 1946              		.cfi_endproc
 1947              	.LFE38:
 1948              		.size	PPMCounter_ClearInterrupt, .-PPMCounter_ClearInterrupt
 1949              		.section	.text.PPMCounter_SetInterrupt,"ax",%progbits
 1950              		.align	2
 1951              		.global	PPMCounter_SetInterrupt
 1952              		.code	16
 1953              		.thumb_func
 1954              		.type	PPMCounter_SetInterrupt, %function
 1955              	PPMCounter_SetInterrupt:
 1956              	.LFB39:
1376:.\Generated_Source\PSoC4/PPMCounter.c **** 
1377:.\Generated_Source\PSoC4/PPMCounter.c **** 
1378:.\Generated_Source\PSoC4/PPMCounter.c **** /*******************************************************************************
1379:.\Generated_Source\PSoC4/PPMCounter.c **** * Function Name: PPMCounter_SetInterrupt
1380:.\Generated_Source\PSoC4/PPMCounter.c **** ********************************************************************************
1381:.\Generated_Source\PSoC4/PPMCounter.c **** *
1382:.\Generated_Source\PSoC4/PPMCounter.c **** * Summary:
1383:.\Generated_Source\PSoC4/PPMCounter.c **** *  Sets a software interrupt request.
1384:.\Generated_Source\PSoC4/PPMCounter.c **** *
1385:.\Generated_Source\PSoC4/PPMCounter.c **** * Parameters:
1386:.\Generated_Source\PSoC4/PPMCounter.c **** *   interruptMask: Mask of interrupts to set
1387:.\Generated_Source\PSoC4/PPMCounter.c **** *   Values:
1388:.\Generated_Source\PSoC4/PPMCounter.c **** *     - PPMCounter_INTR_MASK_TC       - Terminal count mask
1389:.\Generated_Source\PSoC4/PPMCounter.c **** *     - PPMCounter_INTR_MASK_CC_MATCH - Compare count / capture mask
1390:.\Generated_Source\PSoC4/PPMCounter.c **** *
1391:.\Generated_Source\PSoC4/PPMCounter.c **** * Return:
1392:.\Generated_Source\PSoC4/PPMCounter.c **** *  None
1393:.\Generated_Source\PSoC4/PPMCounter.c **** *
1394:.\Generated_Source\PSoC4/PPMCounter.c **** *******************************************************************************/
1395:.\Generated_Source\PSoC4/PPMCounter.c **** void PPMCounter_SetInterrupt(uint32 interruptMask)
1396:.\Generated_Source\PSoC4/PPMCounter.c **** {
 1957              		.loc 1 1396 0
 1958              		.cfi_startproc
 1959 0000 80B5     		push	{r7, lr}
 1960              	.LCFI105:
 1961              		.cfi_def_cfa_offset 8
 1962              		.cfi_offset 7, -8
 1963              		.cfi_offset 14, -4
 1964 0002 82B0     		sub	sp, sp, #8
 1965              	.LCFI106:
 1966              		.cfi_def_cfa_offset 16
ARM GAS  C:\Users\SNFU\AppData\Local\Temp\ccpcIp9g.s 			page 60


 1967 0004 00AF     		add	r7, sp, #0
 1968              	.LCFI107:
 1969              		.cfi_def_cfa_register 7
 1970 0006 7860     		str	r0, [r7, #4]
1397:.\Generated_Source\PSoC4/PPMCounter.c ****     PPMCounter_INTERRUPT_SET_REG = interruptMask;
 1971              		.loc 1 1397 0
 1972 0008 024B     		ldr	r3, .L130
 1973 000a 7A68     		ldr	r2, [r7, #4]
 1974 000c 1A60     		str	r2, [r3]
1398:.\Generated_Source\PSoC4/PPMCounter.c **** }
 1975              		.loc 1 1398 0
 1976 000e BD46     		mov	sp, r7
 1977 0010 02B0     		add	sp, sp, #8
 1978              		@ sp needed for prologue
 1979 0012 80BD     		pop	{r7, pc}
 1980              	.L131:
 1981              		.align	2
 1982              	.L130:
 1983 0014 F4010540 		.word	1074070004
 1984              		.cfi_endproc
 1985              	.LFE39:
 1986              		.size	PPMCounter_SetInterrupt, .-PPMCounter_SetInterrupt
 1987              		.text
 1988              	.Letext0:
 1989              		.file 2 ".\\Generated_Source\\PSoC4\\cytypes.h"
 1990              		.section	.debug_info,"",%progbits
 1991              	.Ldebug_info0:
 1992 0000 BA070000 		.4byte	0x7ba
 1993 0004 0200     		.2byte	0x2
 1994 0006 00000000 		.4byte	.Ldebug_abbrev0
 1995 000a 04       		.byte	0x4
 1996 000b 01       		.uleb128 0x1
 1997 000c 23040000 		.4byte	.LASF76
 1998 0010 01       		.byte	0x1
 1999 0011 4C000000 		.4byte	.LASF77
 2000 0015 40020000 		.4byte	.LASF78
 2001 0019 00000000 		.4byte	.Ldebug_ranges0+0
 2002 001d 00000000 		.4byte	0
 2003 0021 00000000 		.4byte	0
 2004 0025 00000000 		.4byte	.Ldebug_line0
 2005 0029 02       		.uleb128 0x2
 2006 002a 01       		.byte	0x1
 2007 002b 06       		.byte	0x6
 2008 002c 10010000 		.4byte	.LASF0
 2009 0030 02       		.uleb128 0x2
 2010 0031 01       		.byte	0x1
 2011 0032 08       		.byte	0x8
 2012 0033 6C040000 		.4byte	.LASF1
 2013 0037 02       		.uleb128 0x2
 2014 0038 02       		.byte	0x2
 2015 0039 05       		.byte	0x5
 2016 003a 8B040000 		.4byte	.LASF2
 2017 003e 02       		.uleb128 0x2
 2018 003f 02       		.byte	0x2
 2019 0040 07       		.byte	0x7
 2020 0041 A9020000 		.4byte	.LASF3
 2021 0045 02       		.uleb128 0x2
ARM GAS  C:\Users\SNFU\AppData\Local\Temp\ccpcIp9g.s 			page 61


 2022 0046 04       		.byte	0x4
 2023 0047 05       		.byte	0x5
 2024 0048 62010000 		.4byte	.LASF4
 2025 004c 02       		.uleb128 0x2
 2026 004d 04       		.byte	0x4
 2027 004e 07       		.byte	0x7
 2028 004f 8E020000 		.4byte	.LASF5
 2029 0053 02       		.uleb128 0x2
 2030 0054 08       		.byte	0x8
 2031 0055 05       		.byte	0x5
 2032 0056 02010000 		.4byte	.LASF6
 2033 005a 02       		.uleb128 0x2
 2034 005b 08       		.byte	0x8
 2035 005c 07       		.byte	0x7
 2036 005d 90000000 		.4byte	.LASF7
 2037 0061 03       		.uleb128 0x3
 2038 0062 04       		.byte	0x4
 2039 0063 05       		.byte	0x5
 2040 0064 696E7400 		.ascii	"int\000"
 2041 0068 02       		.uleb128 0x2
 2042 0069 04       		.byte	0x4
 2043 006a 07       		.byte	0x7
 2044 006b 2B020000 		.4byte	.LASF8
 2045 006f 04       		.uleb128 0x4
 2046 0070 B8010000 		.4byte	.LASF9
 2047 0074 02       		.byte	0x2
 2048 0075 5B       		.byte	0x5b
 2049 0076 30000000 		.4byte	0x30
 2050 007a 04       		.uleb128 0x4
 2051 007b D8010000 		.4byte	.LASF10
 2052 007f 02       		.byte	0x2
 2053 0080 5D       		.byte	0x5d
 2054 0081 4C000000 		.4byte	0x4c
 2055 0085 02       		.uleb128 0x2
 2056 0086 04       		.byte	0x4
 2057 0087 04       		.byte	0x4
 2058 0088 E3030000 		.4byte	.LASF11
 2059 008c 02       		.uleb128 0x2
 2060 008d 08       		.byte	0x8
 2061 008e 04       		.byte	0x4
 2062 008f D1010000 		.4byte	.LASF12
 2063 0093 02       		.uleb128 0x2
 2064 0094 01       		.byte	0x1
 2065 0095 08       		.byte	0x8
 2066 0096 BD040000 		.4byte	.LASF13
 2067 009a 04       		.uleb128 0x4
 2068 009b 24030000 		.4byte	.LASF14
 2069 009f 02       		.byte	0x2
 2070 00a0 F2       		.byte	0xf2
 2071 00a1 A5000000 		.4byte	0xa5
 2072 00a5 05       		.uleb128 0x5
 2073 00a6 7A000000 		.4byte	0x7a
 2074 00aa 02       		.uleb128 0x2
 2075 00ab 04       		.byte	0x4
 2076 00ac 07       		.byte	0x7
 2077 00ad 3F030000 		.4byte	.LASF15
 2078 00b1 06       		.uleb128 0x6
ARM GAS  C:\Users\SNFU\AppData\Local\Temp\ccpcIp9g.s 			page 62


 2079 00b2 01       		.byte	0x1
 2080 00b3 D3030000 		.4byte	.LASF16
 2081 00b7 01       		.byte	0x1
 2082 00b8 27       		.byte	0x27
 2083 00b9 01       		.byte	0x1
 2084 00ba 00000000 		.4byte	.LFB0
 2085 00be 30000000 		.4byte	.LFE0
 2086 00c2 00000000 		.4byte	.LLST0
 2087 00c6 01       		.byte	0x1
 2088 00c7 07       		.uleb128 0x7
 2089 00c8 01       		.byte	0x1
 2090 00c9 87030000 		.4byte	.LASF18
 2091 00cd 01       		.byte	0x1
 2092 00ce C8       		.byte	0xc8
 2093 00cf 01       		.byte	0x1
 2094 00d0 00000000 		.4byte	.LFB1
 2095 00d4 38000000 		.4byte	.LFE1
 2096 00d8 2C000000 		.4byte	.LLST1
 2097 00dc 01       		.byte	0x1
 2098 00dd F0000000 		.4byte	0xf0
 2099 00e1 08       		.uleb128 0x8
 2100 00e2 6B050000 		.4byte	.LASF20
 2101 00e6 01       		.byte	0x1
 2102 00e7 CA       		.byte	0xca
 2103 00e8 6F000000 		.4byte	0x6f
 2104 00ec 02       		.byte	0x2
 2105 00ed 91       		.byte	0x91
 2106 00ee 6F       		.sleb128 -17
 2107 00ef 00       		.byte	0
 2108 00f0 06       		.uleb128 0x6
 2109 00f1 01       		.byte	0x1
 2110 00f2 FB020000 		.4byte	.LASF17
 2111 00f6 01       		.byte	0x1
 2112 00f7 F7       		.byte	0xf7
 2113 00f8 01       		.byte	0x1
 2114 00f9 00000000 		.4byte	.LFB2
 2115 00fd 24000000 		.4byte	.LFE2
 2116 0101 64000000 		.4byte	.LLST2
 2117 0105 01       		.byte	0x1
 2118 0106 09       		.uleb128 0x9
 2119 0107 01       		.byte	0x1
 2120 0108 52010000 		.4byte	.LASF19
 2121 010c 01       		.byte	0x1
 2122 010d 1101     		.2byte	0x111
 2123 010f 01       		.byte	0x1
 2124 0110 00000000 		.4byte	.LFB3
 2125 0114 30000000 		.4byte	.LFE3
 2126 0118 90000000 		.4byte	.LLST3
 2127 011c 01       		.byte	0x1
 2128 011d 31010000 		.4byte	0x131
 2129 0121 0A       		.uleb128 0xa
 2130 0122 6B050000 		.4byte	.LASF20
 2131 0126 01       		.byte	0x1
 2132 0127 1301     		.2byte	0x113
 2133 0129 6F000000 		.4byte	0x6f
 2134 012d 02       		.byte	0x2
 2135 012e 91       		.byte	0x91
ARM GAS  C:\Users\SNFU\AppData\Local\Temp\ccpcIp9g.s 			page 63


 2136 012f 6F       		.sleb128 -17
 2137 0130 00       		.byte	0
 2138 0131 09       		.uleb128 0x9
 2139 0132 01       		.byte	0x1
 2140 0133 BE010000 		.4byte	.LASF21
 2141 0137 01       		.byte	0x1
 2142 0138 3601     		.2byte	0x136
 2143 013a 01       		.byte	0x1
 2144 013b 00000000 		.4byte	.LFB4
 2145 013f 48000000 		.4byte	.LFE4
 2146 0143 C8000000 		.4byte	.LLST4
 2147 0147 01       		.byte	0x1
 2148 0148 6B010000 		.4byte	0x16b
 2149 014c 0B       		.uleb128 0xb
 2150 014d C2040000 		.4byte	.LASF23
 2151 0151 01       		.byte	0x1
 2152 0152 3601     		.2byte	0x136
 2153 0154 7A000000 		.4byte	0x7a
 2154 0158 02       		.byte	0x2
 2155 0159 91       		.byte	0x91
 2156 015a 64       		.sleb128 -28
 2157 015b 0A       		.uleb128 0xa
 2158 015c 6B050000 		.4byte	.LASF20
 2159 0160 01       		.byte	0x1
 2160 0161 3801     		.2byte	0x138
 2161 0163 6F000000 		.4byte	0x6f
 2162 0167 02       		.byte	0x2
 2163 0168 91       		.byte	0x91
 2164 0169 6F       		.sleb128 -17
 2165 016a 00       		.byte	0
 2166 016b 09       		.uleb128 0x9
 2167 016c 01       		.byte	0x1
 2168 016d 2A030000 		.4byte	.LASF22
 2169 0171 01       		.byte	0x1
 2170 0172 5701     		.2byte	0x157
 2171 0174 01       		.byte	0x1
 2172 0175 00000000 		.4byte	.LFB5
 2173 0179 48000000 		.4byte	.LFE5
 2174 017d 00010000 		.4byte	.LLST5
 2175 0181 01       		.byte	0x1
 2176 0182 A5010000 		.4byte	0x1a5
 2177 0186 0B       		.uleb128 0xb
 2178 0187 BD000000 		.4byte	.LASF24
 2179 018b 01       		.byte	0x1
 2180 018c 5701     		.2byte	0x157
 2181 018e 7A000000 		.4byte	0x7a
 2182 0192 02       		.byte	0x2
 2183 0193 91       		.byte	0x91
 2184 0194 64       		.sleb128 -28
 2185 0195 0A       		.uleb128 0xa
 2186 0196 6B050000 		.4byte	.LASF20
 2187 019a 01       		.byte	0x1
 2188 019b 5901     		.2byte	0x159
 2189 019d 6F000000 		.4byte	0x6f
 2190 01a1 02       		.byte	0x2
 2191 01a2 91       		.byte	0x91
 2192 01a3 6F       		.sleb128 -17
ARM GAS  C:\Users\SNFU\AppData\Local\Temp\ccpcIp9g.s 			page 64


 2193 01a4 00       		.byte	0
 2194 01a5 09       		.uleb128 0x9
 2195 01a6 01       		.byte	0x1
 2196 01a7 0C030000 		.4byte	.LASF25
 2197 01ab 01       		.byte	0x1
 2198 01ac 7C01     		.2byte	0x17c
 2199 01ae 01       		.byte	0x1
 2200 01af 00000000 		.4byte	.LFB6
 2201 01b3 48000000 		.4byte	.LFE6
 2202 01b7 38010000 		.4byte	.LLST6
 2203 01bb 01       		.byte	0x1
 2204 01bc DF010000 		.4byte	0x1df
 2205 01c0 0B       		.uleb128 0xb
 2206 01c1 E9030000 		.4byte	.LASF26
 2207 01c5 01       		.byte	0x1
 2208 01c6 7C01     		.2byte	0x17c
 2209 01c8 7A000000 		.4byte	0x7a
 2210 01cc 02       		.byte	0x2
 2211 01cd 91       		.byte	0x91
 2212 01ce 64       		.sleb128 -28
 2213 01cf 0A       		.uleb128 0xa
 2214 01d0 6B050000 		.4byte	.LASF20
 2215 01d4 01       		.byte	0x1
 2216 01d5 7E01     		.2byte	0x17e
 2217 01d7 6F000000 		.4byte	0x6f
 2218 01db 02       		.byte	0x2
 2219 01dc 91       		.byte	0x91
 2220 01dd 6F       		.sleb128 -17
 2221 01de 00       		.byte	0
 2222 01df 09       		.uleb128 0x9
 2223 01e0 01       		.byte	0x1
 2224 01e1 A7000000 		.4byte	.LASF27
 2225 01e5 01       		.byte	0x1
 2226 01e6 9C01     		.2byte	0x19c
 2227 01e8 01       		.byte	0x1
 2228 01e9 00000000 		.4byte	.LFB7
 2229 01ed 4C000000 		.4byte	.LFE7
 2230 01f1 70010000 		.4byte	.LLST7
 2231 01f5 01       		.byte	0x1
 2232 01f6 19020000 		.4byte	0x219
 2233 01fa 0B       		.uleb128 0xb
 2234 01fb D6020000 		.4byte	.LASF28
 2235 01ff 01       		.byte	0x1
 2236 0200 9C01     		.2byte	0x19c
 2237 0202 7A000000 		.4byte	0x7a
 2238 0206 02       		.byte	0x2
 2239 0207 91       		.byte	0x91
 2240 0208 64       		.sleb128 -28
 2241 0209 0A       		.uleb128 0xa
 2242 020a 6B050000 		.4byte	.LASF20
 2243 020e 01       		.byte	0x1
 2244 020f 9E01     		.2byte	0x19e
 2245 0211 6F000000 		.4byte	0x6f
 2246 0215 02       		.byte	0x2
 2247 0216 91       		.byte	0x91
 2248 0217 6F       		.sleb128 -17
 2249 0218 00       		.byte	0
ARM GAS  C:\Users\SNFU\AppData\Local\Temp\ccpcIp9g.s 			page 65


 2250 0219 0C       		.uleb128 0xc
 2251 021a 01       		.byte	0x1
 2252 021b 71030000 		.4byte	.LASF29
 2253 021f 01       		.byte	0x1
 2254 0220 D201     		.2byte	0x1d2
 2255 0222 01       		.byte	0x1
 2256 0223 00000000 		.4byte	.LFB8
 2257 0227 1C000000 		.4byte	.LFE8
 2258 022b A8010000 		.4byte	.LLST8
 2259 022f 01       		.byte	0x1
 2260 0230 44020000 		.4byte	0x244
 2261 0234 0B       		.uleb128 0xb
 2262 0235 A0020000 		.4byte	.LASF30
 2263 0239 01       		.byte	0x1
 2264 023a D201     		.2byte	0x1d2
 2265 023c 7A000000 		.4byte	0x7a
 2266 0240 02       		.byte	0x2
 2267 0241 91       		.byte	0x91
 2268 0242 74       		.sleb128 -12
 2269 0243 00       		.byte	0
 2270 0244 09       		.uleb128 0x9
 2271 0245 01       		.byte	0x1
 2272 0246 F0010000 		.4byte	.LASF31
 2273 024a 01       		.byte	0x1
 2274 024b F601     		.2byte	0x1f6
 2275 024d 01       		.byte	0x1
 2276 024e 00000000 		.4byte	.LFB9
 2277 0252 48000000 		.4byte	.LFE9
 2278 0256 E0010000 		.4byte	.LLST9
 2279 025a 01       		.byte	0x1
 2280 025b 7E020000 		.4byte	0x27e
 2281 025f 0B       		.uleb128 0xb
 2282 0260 62030000 		.4byte	.LASF32
 2283 0264 01       		.byte	0x1
 2284 0265 F601     		.2byte	0x1f6
 2285 0267 7A000000 		.4byte	0x7a
 2286 026b 02       		.byte	0x2
 2287 026c 91       		.byte	0x91
 2288 026d 64       		.sleb128 -28
 2289 026e 0A       		.uleb128 0xa
 2290 026f 6B050000 		.4byte	.LASF20
 2291 0273 01       		.byte	0x1
 2292 0274 F801     		.2byte	0x1f8
 2293 0276 6F000000 		.4byte	0x6f
 2294 027a 02       		.byte	0x2
 2295 027b 91       		.byte	0x91
 2296 027c 6F       		.sleb128 -17
 2297 027d 00       		.byte	0
 2298 027e 09       		.uleb128 0x9
 2299 027f 01       		.byte	0x1
 2300 0280 ED050000 		.4byte	.LASF33
 2301 0284 01       		.byte	0x1
 2302 0285 1802     		.2byte	0x218
 2303 0287 01       		.byte	0x1
 2304 0288 00000000 		.4byte	.LFB10
 2305 028c 48000000 		.4byte	.LFE10
 2306 0290 18020000 		.4byte	.LLST10
ARM GAS  C:\Users\SNFU\AppData\Local\Temp\ccpcIp9g.s 			page 66


 2307 0294 01       		.byte	0x1
 2308 0295 B8020000 		.4byte	0x2b8
 2309 0299 0B       		.uleb128 0xb
 2310 029a 7A040000 		.4byte	.LASF34
 2311 029e 01       		.byte	0x1
 2312 029f 1802     		.2byte	0x218
 2313 02a1 7A000000 		.4byte	0x7a
 2314 02a5 02       		.byte	0x2
 2315 02a6 91       		.byte	0x91
 2316 02a7 64       		.sleb128 -28
 2317 02a8 0A       		.uleb128 0xa
 2318 02a9 6B050000 		.4byte	.LASF20
 2319 02ad 01       		.byte	0x1
 2320 02ae 1A02     		.2byte	0x21a
 2321 02b0 6F000000 		.4byte	0x6f
 2322 02b4 02       		.byte	0x2
 2323 02b5 91       		.byte	0x91
 2324 02b6 6F       		.sleb128 -17
 2325 02b7 00       		.byte	0
 2326 02b8 09       		.uleb128 0x9
 2327 02b9 01       		.byte	0x1
 2328 02ba 96050000 		.4byte	.LASF35
 2329 02be 01       		.byte	0x1
 2330 02bf 3902     		.2byte	0x239
 2331 02c1 01       		.byte	0x1
 2332 02c2 00000000 		.4byte	.LFB11
 2333 02c6 4C000000 		.4byte	.LFE11
 2334 02ca 50020000 		.4byte	.LLST11
 2335 02ce 01       		.byte	0x1
 2336 02cf F2020000 		.4byte	0x2f2
 2337 02d3 0B       		.uleb128 0xb
 2338 02d4 22020000 		.4byte	.LASF36
 2339 02d8 01       		.byte	0x1
 2340 02d9 3902     		.2byte	0x239
 2341 02db 7A000000 		.4byte	0x7a
 2342 02df 02       		.byte	0x2
 2343 02e0 91       		.byte	0x91
 2344 02e1 64       		.sleb128 -28
 2345 02e2 0A       		.uleb128 0xa
 2346 02e3 6B050000 		.4byte	.LASF20
 2347 02e7 01       		.byte	0x1
 2348 02e8 3B02     		.2byte	0x23b
 2349 02ea 6F000000 		.4byte	0x6f
 2350 02ee 02       		.byte	0x2
 2351 02ef 91       		.byte	0x91
 2352 02f0 6F       		.sleb128 -17
 2353 02f1 00       		.byte	0
 2354 02f2 09       		.uleb128 0x9
 2355 02f3 01       		.byte	0x1
 2356 02f4 0A020000 		.4byte	.LASF37
 2357 02f8 01       		.byte	0x1
 2358 02f9 5A02     		.2byte	0x25a
 2359 02fb 01       		.byte	0x1
 2360 02fc 00000000 		.4byte	.LFB12
 2361 0300 48000000 		.4byte	.LFE12
 2362 0304 88020000 		.4byte	.LLST12
 2363 0308 01       		.byte	0x1
ARM GAS  C:\Users\SNFU\AppData\Local\Temp\ccpcIp9g.s 			page 67


 2364 0309 2C030000 		.4byte	0x32c
 2365 030d 0B       		.uleb128 0xb
 2366 030e EB010000 		.4byte	.LASF38
 2367 0312 01       		.byte	0x1
 2368 0313 5A02     		.2byte	0x25a
 2369 0315 7A000000 		.4byte	0x7a
 2370 0319 02       		.byte	0x2
 2371 031a 91       		.byte	0x91
 2372 031b 64       		.sleb128 -28
 2373 031c 0A       		.uleb128 0xa
 2374 031d 6B050000 		.4byte	.LASF20
 2375 0321 01       		.byte	0x1
 2376 0322 5C02     		.2byte	0x25c
 2377 0324 6F000000 		.4byte	0x6f
 2378 0328 02       		.byte	0x2
 2379 0329 91       		.byte	0x91
 2380 032a 6F       		.sleb128 -17
 2381 032b 00       		.byte	0
 2382 032c 0C       		.uleb128 0xc
 2383 032d 01       		.byte	0x1
 2384 032e 1C010000 		.4byte	.LASF39
 2385 0332 01       		.byte	0x1
 2386 0333 7802     		.2byte	0x278
 2387 0335 01       		.byte	0x1
 2388 0336 00000000 		.4byte	.LFB13
 2389 033a 1C000000 		.4byte	.LFE13
 2390 033e C0020000 		.4byte	.LLST13
 2391 0342 01       		.byte	0x1
 2392 0343 57030000 		.4byte	0x357
 2393 0347 0B       		.uleb128 0xb
 2394 0348 00000000 		.4byte	.LASF40
 2395 034c 01       		.byte	0x1
 2396 034d 7802     		.2byte	0x278
 2397 034f 7A000000 		.4byte	0x7a
 2398 0353 02       		.byte	0x2
 2399 0354 91       		.byte	0x91
 2400 0355 74       		.sleb128 -12
 2401 0356 00       		.byte	0
 2402 0357 0D       		.uleb128 0xd
 2403 0358 01       		.byte	0x1
 2404 0359 E4020000 		.4byte	.LASF45
 2405 035d 01       		.byte	0x1
 2406 035e 8C02     		.2byte	0x28c
 2407 0360 01       		.byte	0x1
 2408 0361 7A000000 		.4byte	0x7a
 2409 0365 00000000 		.4byte	.LFB14
 2410 0369 18000000 		.4byte	.LFE14
 2411 036d F8020000 		.4byte	.LLST14
 2412 0371 01       		.byte	0x1
 2413 0372 09       		.uleb128 0x9
 2414 0373 01       		.byte	0x1
 2415 0374 D3050000 		.4byte	.LASF41
 2416 0378 01       		.byte	0x1
 2417 0379 A902     		.2byte	0x2a9
 2418 037b 01       		.byte	0x1
 2419 037c 00000000 		.4byte	.LFB15
 2420 0380 48000000 		.4byte	.LFE15
ARM GAS  C:\Users\SNFU\AppData\Local\Temp\ccpcIp9g.s 			page 68


 2421 0384 24030000 		.4byte	.LLST15
 2422 0388 01       		.byte	0x1
 2423 0389 AC030000 		.4byte	0x3ac
 2424 038d 0B       		.uleb128 0xb
 2425 038e E0040000 		.4byte	.LASF42
 2426 0392 01       		.byte	0x1
 2427 0393 A902     		.2byte	0x2a9
 2428 0395 7A000000 		.4byte	0x7a
 2429 0399 02       		.byte	0x2
 2430 039a 91       		.byte	0x91
 2431 039b 64       		.sleb128 -28
 2432 039c 0A       		.uleb128 0xa
 2433 039d 6B050000 		.4byte	.LASF20
 2434 03a1 01       		.byte	0x1
 2435 03a2 AB02     		.2byte	0x2ab
 2436 03a4 6F000000 		.4byte	0x6f
 2437 03a8 02       		.byte	0x2
 2438 03a9 91       		.byte	0x91
 2439 03aa 6F       		.sleb128 -17
 2440 03ab 00       		.byte	0
 2441 03ac 0C       		.uleb128 0xc
 2442 03ad 01       		.byte	0x1
 2443 03ae 72000000 		.4byte	.LASF43
 2444 03b2 01       		.byte	0x1
 2445 03b3 C602     		.2byte	0x2c6
 2446 03b5 01       		.byte	0x1
 2447 03b6 00000000 		.4byte	.LFB16
 2448 03ba 1C000000 		.4byte	.LFE16
 2449 03be 5C030000 		.4byte	.LLST16
 2450 03c2 01       		.byte	0x1
 2451 03c3 D7030000 		.4byte	0x3d7
 2452 03c7 0B       		.uleb128 0xb
 2453 03c8 89000000 		.4byte	.LASF44
 2454 03cc 01       		.byte	0x1
 2455 03cd C602     		.2byte	0x2c6
 2456 03cf 7A000000 		.4byte	0x7a
 2457 03d3 02       		.byte	0x2
 2458 03d4 91       		.byte	0x91
 2459 03d5 74       		.sleb128 -12
 2460 03d6 00       		.byte	0
 2461 03d7 0D       		.uleb128 0xd
 2462 03d8 01       		.byte	0x1
 2463 03d9 36000000 		.4byte	.LASF46
 2464 03dd 01       		.byte	0x1
 2465 03de DA02     		.2byte	0x2da
 2466 03e0 01       		.byte	0x1
 2467 03e1 7A000000 		.4byte	0x7a
 2468 03e5 00000000 		.4byte	.LFB17
 2469 03e9 18000000 		.4byte	.LFE17
 2470 03ed 94030000 		.4byte	.LLST17
 2471 03f1 01       		.byte	0x1
 2472 03f2 09       		.uleb128 0x9
 2473 03f3 01       		.byte	0x1
 2474 03f4 6B010000 		.4byte	.LASF47
 2475 03f8 01       		.byte	0x1
 2476 03f9 F402     		.2byte	0x2f4
 2477 03fb 01       		.byte	0x1
ARM GAS  C:\Users\SNFU\AppData\Local\Temp\ccpcIp9g.s 			page 69


 2478 03fc 00000000 		.4byte	.LFB18
 2479 0400 48000000 		.4byte	.LFE18
 2480 0404 C0030000 		.4byte	.LLST18
 2481 0408 01       		.byte	0x1
 2482 0409 2C040000 		.4byte	0x42c
 2483 040d 0B       		.uleb128 0xb
 2484 040e B0050000 		.4byte	.LASF48
 2485 0412 01       		.byte	0x1
 2486 0413 F402     		.2byte	0x2f4
 2487 0415 7A000000 		.4byte	0x7a
 2488 0419 02       		.byte	0x2
 2489 041a 91       		.byte	0x91
 2490 041b 64       		.sleb128 -28
 2491 041c 0A       		.uleb128 0xa
 2492 041d 6B050000 		.4byte	.LASF20
 2493 0421 01       		.byte	0x1
 2494 0422 F602     		.2byte	0x2f6
 2495 0424 6F000000 		.4byte	0x6f
 2496 0428 02       		.byte	0x2
 2497 0429 91       		.byte	0x91
 2498 042a 6F       		.sleb128 -17
 2499 042b 00       		.byte	0
 2500 042c 0C       		.uleb128 0xc
 2501 042d 01       		.byte	0x1
 2502 042e A3040000 		.4byte	.LASF49
 2503 0432 01       		.byte	0x1
 2504 0433 0F03     		.2byte	0x30f
 2505 0435 01       		.byte	0x1
 2506 0436 00000000 		.4byte	.LFB19
 2507 043a 1C000000 		.4byte	.LFE19
 2508 043e F8030000 		.4byte	.LLST19
 2509 0442 01       		.byte	0x1
 2510 0443 57040000 		.4byte	0x457
 2511 0447 0B       		.uleb128 0xb
 2512 0448 09060000 		.4byte	.LASF50
 2513 044c 01       		.byte	0x1
 2514 044d 0F03     		.2byte	0x30f
 2515 044f 7A000000 		.4byte	0x7a
 2516 0453 02       		.byte	0x2
 2517 0454 91       		.byte	0x91
 2518 0455 74       		.sleb128 -12
 2519 0456 00       		.byte	0
 2520 0457 0D       		.uleb128 0xd
 2521 0458 01       		.byte	0x1
 2522 0459 52050000 		.4byte	.LASF51
 2523 045d 01       		.byte	0x1
 2524 045e 2303     		.2byte	0x323
 2525 0460 01       		.byte	0x1
 2526 0461 7A000000 		.4byte	0x7a
 2527 0465 00000000 		.4byte	.LFB20
 2528 0469 18000000 		.4byte	.LFE20
 2529 046d 30040000 		.4byte	.LLST20
 2530 0471 01       		.byte	0x1
 2531 0472 09       		.uleb128 0x9
 2532 0473 01       		.byte	0x1
 2533 0474 0A040000 		.4byte	.LASF52
 2534 0478 01       		.byte	0x1
ARM GAS  C:\Users\SNFU\AppData\Local\Temp\ccpcIp9g.s 			page 70


 2535 0479 3D03     		.2byte	0x33d
 2536 047b 01       		.byte	0x1
 2537 047c 00000000 		.4byte	.LFB21
 2538 0480 48000000 		.4byte	.LFE21
 2539 0484 5C040000 		.4byte	.LLST21
 2540 0488 01       		.byte	0x1
 2541 0489 AC040000 		.4byte	0x4ac
 2542 048d 0B       		.uleb128 0xb
 2543 048e B0050000 		.4byte	.LASF48
 2544 0492 01       		.byte	0x1
 2545 0493 3D03     		.2byte	0x33d
 2546 0495 7A000000 		.4byte	0x7a
 2547 0499 02       		.byte	0x2
 2548 049a 91       		.byte	0x91
 2549 049b 64       		.sleb128 -28
 2550 049c 0A       		.uleb128 0xa
 2551 049d 6B050000 		.4byte	.LASF20
 2552 04a1 01       		.byte	0x1
 2553 04a2 3F03     		.2byte	0x33f
 2554 04a4 6F000000 		.4byte	0x6f
 2555 04a8 02       		.byte	0x2
 2556 04a9 91       		.byte	0x91
 2557 04aa 6F       		.sleb128 -17
 2558 04ab 00       		.byte	0
 2559 04ac 0C       		.uleb128 0xc
 2560 04ad 01       		.byte	0x1
 2561 04ae 1E000000 		.4byte	.LASF53
 2562 04b2 01       		.byte	0x1
 2563 04b3 5A03     		.2byte	0x35a
 2564 04b5 01       		.byte	0x1
 2565 04b6 00000000 		.4byte	.LFB22
 2566 04ba 1C000000 		.4byte	.LFE22
 2567 04be 94040000 		.4byte	.LLST22
 2568 04c2 01       		.byte	0x1
 2569 04c3 D7040000 		.4byte	0x4d7
 2570 04c7 0B       		.uleb128 0xb
 2571 04c8 99030000 		.4byte	.LASF54
 2572 04cc 01       		.byte	0x1
 2573 04cd 5A03     		.2byte	0x35a
 2574 04cf 7A000000 		.4byte	0x7a
 2575 04d3 02       		.byte	0x2
 2576 04d4 91       		.byte	0x91
 2577 04d5 74       		.sleb128 -12
 2578 04d6 00       		.byte	0
 2579 04d7 0D       		.uleb128 0xd
 2580 04d8 01       		.byte	0x1
 2581 04d9 BC030000 		.4byte	.LASF55
 2582 04dd 01       		.byte	0x1
 2583 04de 8403     		.2byte	0x384
 2584 04e0 01       		.byte	0x1
 2585 04e1 7A000000 		.4byte	0x7a
 2586 04e5 00000000 		.4byte	.LFB23
 2587 04e9 18000000 		.4byte	.LFE23
 2588 04ed CC040000 		.4byte	.LLST23
 2589 04f1 01       		.byte	0x1
 2590 04f2 0C       		.uleb128 0xc
 2591 04f3 01       		.byte	0x1
ARM GAS  C:\Users\SNFU\AppData\Local\Temp\ccpcIp9g.s 			page 71


 2592 04f4 A1030000 		.4byte	.LASF56
 2593 04f8 01       		.byte	0x1
 2594 04f9 B003     		.2byte	0x3b0
 2595 04fb 01       		.byte	0x1
 2596 04fc 00000000 		.4byte	.LFB24
 2597 0500 1C000000 		.4byte	.LFE24
 2598 0504 F8040000 		.4byte	.LLST24
 2599 0508 01       		.byte	0x1
 2600 0509 1D050000 		.4byte	0x51d
 2601 050d 0B       		.uleb128 0xb
 2602 050e 31050000 		.4byte	.LASF57
 2603 0512 01       		.byte	0x1
 2604 0513 B003     		.2byte	0x3b0
 2605 0515 7A000000 		.4byte	0x7a
 2606 0519 02       		.byte	0x2
 2607 051a 91       		.byte	0x91
 2608 051b 74       		.sleb128 -12
 2609 051c 00       		.byte	0
 2610 051d 0D       		.uleb128 0xd
 2611 051e 01       		.byte	0x1
 2612 051f 7C050000 		.4byte	.LASF58
 2613 0523 01       		.byte	0x1
 2614 0524 DA03     		.2byte	0x3da
 2615 0526 01       		.byte	0x1
 2616 0527 7A000000 		.4byte	0x7a
 2617 052b 00000000 		.4byte	.LFB25
 2618 052f 18000000 		.4byte	.LFE25
 2619 0533 30050000 		.4byte	.LLST25
 2620 0537 01       		.byte	0x1
 2621 0538 0D       		.uleb128 0xd
 2622 0539 01       		.byte	0x1
 2623 053a A1010000 		.4byte	.LASF59
 2624 053e 01       		.byte	0x1
 2625 053f 0604     		.2byte	0x406
 2626 0541 01       		.byte	0x1
 2627 0542 7A000000 		.4byte	0x7a
 2628 0546 00000000 		.4byte	.LFB26
 2629 054a 18000000 		.4byte	.LFE26
 2630 054e 5C050000 		.4byte	.LLST26
 2631 0552 01       		.byte	0x1
 2632 0553 0D       		.uleb128 0xd
 2633 0554 01       		.byte	0x1
 2634 0555 FF040000 		.4byte	.LASF60
 2635 0559 01       		.byte	0x1
 2636 055a 1B04     		.2byte	0x41b
 2637 055c 01       		.byte	0x1
 2638 055d 7A000000 		.4byte	0x7a
 2639 0561 00000000 		.4byte	.LFB27
 2640 0565 18000000 		.4byte	.LFE27
 2641 0569 88050000 		.4byte	.LLST27
 2642 056d 01       		.byte	0x1
 2643 056e 09       		.uleb128 0x9
 2644 056f 01       		.byte	0x1
 2645 0570 E8000000 		.4byte	.LASF61
 2646 0574 01       		.byte	0x1
 2647 0575 3604     		.2byte	0x436
 2648 0577 01       		.byte	0x1
ARM GAS  C:\Users\SNFU\AppData\Local\Temp\ccpcIp9g.s 			page 72


 2649 0578 00000000 		.4byte	.LFB28
 2650 057c 44000000 		.4byte	.LFE28
 2651 0580 B4050000 		.4byte	.LLST28
 2652 0584 01       		.byte	0x1
 2653 0585 A8050000 		.4byte	0x5a8
 2654 0589 0B       		.uleb128 0xb
 2655 058a DF010000 		.4byte	.LASF62
 2656 058e 01       		.byte	0x1
 2657 058f 3604     		.2byte	0x436
 2658 0591 7A000000 		.4byte	0x7a
 2659 0595 02       		.byte	0x2
 2660 0596 91       		.byte	0x91
 2661 0597 64       		.sleb128 -28
 2662 0598 0A       		.uleb128 0xa
 2663 0599 6B050000 		.4byte	.LASF20
 2664 059d 01       		.byte	0x1
 2665 059e 3804     		.2byte	0x438
 2666 05a0 6F000000 		.4byte	0x6f
 2667 05a4 02       		.byte	0x2
 2668 05a5 91       		.byte	0x91
 2669 05a6 6F       		.sleb128 -17
 2670 05a7 00       		.byte	0
 2671 05a8 09       		.uleb128 0x9
 2672 05a9 01       		.byte	0x1
 2673 05aa C7040000 		.4byte	.LASF63
 2674 05ae 01       		.byte	0x1
 2675 05af 5704     		.2byte	0x457
 2676 05b1 01       		.byte	0x1
 2677 05b2 00000000 		.4byte	.LFB29
 2678 05b6 44000000 		.4byte	.LFE29
 2679 05ba EC050000 		.4byte	.LLST29
 2680 05be 01       		.byte	0x1
 2681 05bf E2050000 		.4byte	0x5e2
 2682 05c3 0B       		.uleb128 0xb
 2683 05c4 DF010000 		.4byte	.LASF62
 2684 05c8 01       		.byte	0x1
 2685 05c9 5704     		.2byte	0x457
 2686 05cb 7A000000 		.4byte	0x7a
 2687 05cf 02       		.byte	0x2
 2688 05d0 91       		.byte	0x91
 2689 05d1 64       		.sleb128 -28
 2690 05d2 0A       		.uleb128 0xa
 2691 05d3 6B050000 		.4byte	.LASF20
 2692 05d7 01       		.byte	0x1
 2693 05d8 5904     		.2byte	0x459
 2694 05da 6F000000 		.4byte	0x6f
 2695 05de 02       		.byte	0x2
 2696 05df 91       		.byte	0x91
 2697 05e0 6F       		.sleb128 -17
 2698 05e1 00       		.byte	0
 2699 05e2 09       		.uleb128 0x9
 2700 05e3 01       		.byte	0x1
 2701 05e4 06000000 		.4byte	.LASF64
 2702 05e8 01       		.byte	0x1
 2703 05e9 7804     		.2byte	0x478
 2704 05eb 01       		.byte	0x1
 2705 05ec 00000000 		.4byte	.LFB30
ARM GAS  C:\Users\SNFU\AppData\Local\Temp\ccpcIp9g.s 			page 73


 2706 05f0 48000000 		.4byte	.LFE30
 2707 05f4 24060000 		.4byte	.LLST30
 2708 05f8 01       		.byte	0x1
 2709 05f9 1C060000 		.4byte	0x61c
 2710 05fd 0B       		.uleb128 0xb
 2711 05fe DF010000 		.4byte	.LASF62
 2712 0602 01       		.byte	0x1
 2713 0603 7804     		.2byte	0x478
 2714 0605 7A000000 		.4byte	0x7a
 2715 0609 02       		.byte	0x2
 2716 060a 91       		.byte	0x91
 2717 060b 64       		.sleb128 -28
 2718 060c 0A       		.uleb128 0xa
 2719 060d 6B050000 		.4byte	.LASF20
 2720 0611 01       		.byte	0x1
 2721 0612 7A04     		.2byte	0x47a
 2722 0614 6F000000 		.4byte	0x6f
 2723 0618 02       		.byte	0x2
 2724 0619 91       		.byte	0x91
 2725 061a 6F       		.sleb128 -17
 2726 061b 00       		.byte	0
 2727 061c 09       		.uleb128 0x9
 2728 061d 01       		.byte	0x1
 2729 061e F3030000 		.4byte	.LASF65
 2730 0622 01       		.byte	0x1
 2731 0623 9804     		.2byte	0x498
 2732 0625 01       		.byte	0x1
 2733 0626 00000000 		.4byte	.LFB31
 2734 062a 44000000 		.4byte	.LFE31
 2735 062e 5C060000 		.4byte	.LLST31
 2736 0632 01       		.byte	0x1
 2737 0633 56060000 		.4byte	0x656
 2738 0637 0B       		.uleb128 0xb
 2739 0638 DF010000 		.4byte	.LASF62
 2740 063c 01       		.byte	0x1
 2741 063d 9804     		.2byte	0x498
 2742 063f 7A000000 		.4byte	0x7a
 2743 0643 02       		.byte	0x2
 2744 0644 91       		.byte	0x91
 2745 0645 64       		.sleb128 -28
 2746 0646 0A       		.uleb128 0xa
 2747 0647 6B050000 		.4byte	.LASF20
 2748 064b 01       		.byte	0x1
 2749 064c 9A04     		.2byte	0x49a
 2750 064e 6F000000 		.4byte	0x6f
 2751 0652 02       		.byte	0x2
 2752 0653 91       		.byte	0x91
 2753 0654 6F       		.sleb128 -17
 2754 0655 00       		.byte	0
 2755 0656 09       		.uleb128 0x9
 2756 0657 01       		.byte	0x1
 2757 0658 BB050000 		.4byte	.LASF66
 2758 065c 01       		.byte	0x1
 2759 065d B904     		.2byte	0x4b9
 2760 065f 01       		.byte	0x1
 2761 0660 00000000 		.4byte	.LFB32
 2762 0664 44000000 		.4byte	.LFE32
ARM GAS  C:\Users\SNFU\AppData\Local\Temp\ccpcIp9g.s 			page 74


 2763 0668 94060000 		.4byte	.LLST32
 2764 066c 01       		.byte	0x1
 2765 066d 90060000 		.4byte	0x690
 2766 0671 0B       		.uleb128 0xb
 2767 0672 DF010000 		.4byte	.LASF62
 2768 0676 01       		.byte	0x1
 2769 0677 B904     		.2byte	0x4b9
 2770 0679 7A000000 		.4byte	0x7a
 2771 067d 02       		.byte	0x2
 2772 067e 91       		.byte	0x91
 2773 067f 64       		.sleb128 -28
 2774 0680 0A       		.uleb128 0xa
 2775 0681 6B050000 		.4byte	.LASF20
 2776 0685 01       		.byte	0x1
 2777 0686 BB04     		.2byte	0x4bb
 2778 0688 6F000000 		.4byte	0x6f
 2779 068c 02       		.byte	0x2
 2780 068d 91       		.byte	0x91
 2781 068e 6F       		.sleb128 -17
 2782 068f 00       		.byte	0
 2783 0690 09       		.uleb128 0x9
 2784 0691 01       		.byte	0x1
 2785 0692 BC020000 		.4byte	.LASF67
 2786 0696 01       		.byte	0x1
 2787 0697 E104     		.2byte	0x4e1
 2788 0699 01       		.byte	0x1
 2789 069a 00000000 		.4byte	.LFB33
 2790 069e 3C000000 		.4byte	.LFE33
 2791 06a2 CC060000 		.4byte	.LLST33
 2792 06a6 01       		.byte	0x1
 2793 06a7 D9060000 		.4byte	0x6d9
 2794 06ab 0B       		.uleb128 0xb
 2795 06ac EB010000 		.4byte	.LASF38
 2796 06b0 01       		.byte	0x1
 2797 06b1 E104     		.2byte	0x4e1
 2798 06b3 7A000000 		.4byte	0x7a
 2799 06b7 02       		.byte	0x2
 2800 06b8 91       		.byte	0x91
 2801 06b9 64       		.sleb128 -28
 2802 06ba 0B       		.uleb128 0xb
 2803 06bb 38020000 		.4byte	.LASF68
 2804 06bf 01       		.byte	0x1
 2805 06c0 E104     		.2byte	0x4e1
 2806 06c2 7A000000 		.4byte	0x7a
 2807 06c6 02       		.byte	0x2
 2808 06c7 91       		.byte	0x91
 2809 06c8 60       		.sleb128 -32
 2810 06c9 0A       		.uleb128 0xa
 2811 06ca 6B050000 		.4byte	.LASF20
 2812 06ce 01       		.byte	0x1
 2813 06cf E304     		.2byte	0x4e3
 2814 06d1 6F000000 		.4byte	0x6f
 2815 06d5 02       		.byte	0x2
 2816 06d6 91       		.byte	0x91
 2817 06d7 6F       		.sleb128 -17
 2818 06d8 00       		.byte	0
 2819 06d9 0D       		.uleb128 0xd
ARM GAS  C:\Users\SNFU\AppData\Local\Temp\ccpcIp9g.s 			page 75


 2820 06da 01       		.byte	0x1
 2821 06db 3C050000 		.4byte	.LASF69
 2822 06df 01       		.byte	0x1
 2823 06e0 FE04     		.2byte	0x4fe
 2824 06e2 01       		.byte	0x1
 2825 06e3 7A000000 		.4byte	0x7a
 2826 06e7 00000000 		.4byte	.LFB34
 2827 06eb 20000000 		.4byte	.LFE34
 2828 06ef 04070000 		.4byte	.LLST34
 2829 06f3 01       		.byte	0x1
 2830 06f4 0C       		.uleb128 0xc
 2831 06f5 01       		.byte	0x1
 2832 06f6 85010000 		.4byte	.LASF70
 2833 06fa 01       		.byte	0x1
 2834 06fb 1705     		.2byte	0x517
 2835 06fd 01       		.byte	0x1
 2836 06fe 00000000 		.4byte	.LFB35
 2837 0702 18000000 		.4byte	.LFE35
 2838 0706 30070000 		.4byte	.LLST35
 2839 070a 01       		.byte	0x1
 2840 070b 1F070000 		.4byte	0x71f
 2841 070f 0B       		.uleb128 0xb
 2842 0710 95040000 		.4byte	.LASF71
 2843 0714 01       		.byte	0x1
 2844 0715 1705     		.2byte	0x517
 2845 0717 7A000000 		.4byte	0x7a
 2846 071b 02       		.byte	0x2
 2847 071c 91       		.byte	0x91
 2848 071d 74       		.sleb128 -12
 2849 071e 00       		.byte	0
 2850 071f 0D       		.uleb128 0xd
 2851 0720 01       		.byte	0x1
 2852 0721 C4000000 		.4byte	.LASF72
 2853 0725 01       		.byte	0x1
 2854 0726 2E05     		.2byte	0x52e
 2855 0728 01       		.byte	0x1
 2856 0729 7A000000 		.4byte	0x7a
 2857 072d 00000000 		.4byte	.LFB36
 2858 0731 14000000 		.4byte	.LFE36
 2859 0735 68070000 		.4byte	.LLST36
 2860 0739 01       		.byte	0x1
 2861 073a 0D       		.uleb128 0xd
 2862 073b 01       		.byte	0x1
 2863 073c 34010000 		.4byte	.LASF73
 2864 0740 01       		.byte	0x1
 2865 0741 4505     		.2byte	0x545
 2866 0743 01       		.byte	0x1
 2867 0744 7A000000 		.4byte	0x7a
 2868 0748 00000000 		.4byte	.LFB37
 2869 074c 14000000 		.4byte	.LFE37
 2870 0750 94070000 		.4byte	.LLST37
 2871 0754 01       		.byte	0x1
 2872 0755 0C       		.uleb128 0xc
 2873 0756 01       		.byte	0x1
 2874 0757 48030000 		.4byte	.LASF74
 2875 075b 01       		.byte	0x1
 2876 075c 5C05     		.2byte	0x55c
ARM GAS  C:\Users\SNFU\AppData\Local\Temp\ccpcIp9g.s 			page 76


 2877 075e 01       		.byte	0x1
 2878 075f 00000000 		.4byte	.LFB38
 2879 0763 18000000 		.4byte	.LFE38
 2880 0767 C0070000 		.4byte	.LLST38
 2881 076b 01       		.byte	0x1
 2882 076c 80070000 		.4byte	0x780
 2883 0770 0B       		.uleb128 0xb
 2884 0771 95040000 		.4byte	.LASF71
 2885 0775 01       		.byte	0x1
 2886 0776 5C05     		.2byte	0x55c
 2887 0778 7A000000 		.4byte	0x7a
 2888 077c 02       		.byte	0x2
 2889 077d 91       		.byte	0x91
 2890 077e 74       		.sleb128 -12
 2891 077f 00       		.byte	0
 2892 0780 0C       		.uleb128 0xc
 2893 0781 01       		.byte	0x1
 2894 0782 19050000 		.4byte	.LASF75
 2895 0786 01       		.byte	0x1
 2896 0787 7305     		.2byte	0x573
 2897 0789 01       		.byte	0x1
 2898 078a 00000000 		.4byte	.LFB39
 2899 078e 18000000 		.4byte	.LFE39
 2900 0792 F8070000 		.4byte	.LLST39
 2901 0796 01       		.byte	0x1
 2902 0797 AB070000 		.4byte	0x7ab
 2903 079b 0B       		.uleb128 0xb
 2904 079c 95040000 		.4byte	.LASF71
 2905 07a0 01       		.byte	0x1
 2906 07a1 7305     		.2byte	0x573
 2907 07a3 7A000000 		.4byte	0x7a
 2908 07a7 02       		.byte	0x2
 2909 07a8 91       		.byte	0x91
 2910 07a9 74       		.sleb128 -12
 2911 07aa 00       		.byte	0
 2912 07ab 0E       		.uleb128 0xe
 2913 07ac EC040000 		.4byte	.LASF79
 2914 07b0 01       		.byte	0x1
 2915 07b1 16       		.byte	0x16
 2916 07b2 6F000000 		.4byte	0x6f
 2917 07b6 01       		.byte	0x1
 2918 07b7 05       		.byte	0x5
 2919 07b8 03       		.byte	0x3
 2920 07b9 00000000 		.4byte	PPMCounter_initVar
 2921 07bd 00       		.byte	0
 2922              		.section	.debug_abbrev,"",%progbits
 2923              	.Ldebug_abbrev0:
 2924 0000 01       		.uleb128 0x1
 2925 0001 11       		.uleb128 0x11
 2926 0002 01       		.byte	0x1
 2927 0003 25       		.uleb128 0x25
 2928 0004 0E       		.uleb128 0xe
 2929 0005 13       		.uleb128 0x13
 2930 0006 0B       		.uleb128 0xb
 2931 0007 03       		.uleb128 0x3
 2932 0008 0E       		.uleb128 0xe
 2933 0009 1B       		.uleb128 0x1b
ARM GAS  C:\Users\SNFU\AppData\Local\Temp\ccpcIp9g.s 			page 77


 2934 000a 0E       		.uleb128 0xe
 2935 000b 55       		.uleb128 0x55
 2936 000c 06       		.uleb128 0x6
 2937 000d 11       		.uleb128 0x11
 2938 000e 01       		.uleb128 0x1
 2939 000f 52       		.uleb128 0x52
 2940 0010 01       		.uleb128 0x1
 2941 0011 10       		.uleb128 0x10
 2942 0012 06       		.uleb128 0x6
 2943 0013 00       		.byte	0
 2944 0014 00       		.byte	0
 2945 0015 02       		.uleb128 0x2
 2946 0016 24       		.uleb128 0x24
 2947 0017 00       		.byte	0
 2948 0018 0B       		.uleb128 0xb
 2949 0019 0B       		.uleb128 0xb
 2950 001a 3E       		.uleb128 0x3e
 2951 001b 0B       		.uleb128 0xb
 2952 001c 03       		.uleb128 0x3
 2953 001d 0E       		.uleb128 0xe
 2954 001e 00       		.byte	0
 2955 001f 00       		.byte	0
 2956 0020 03       		.uleb128 0x3
 2957 0021 24       		.uleb128 0x24
 2958 0022 00       		.byte	0
 2959 0023 0B       		.uleb128 0xb
 2960 0024 0B       		.uleb128 0xb
 2961 0025 3E       		.uleb128 0x3e
 2962 0026 0B       		.uleb128 0xb
 2963 0027 03       		.uleb128 0x3
 2964 0028 08       		.uleb128 0x8
 2965 0029 00       		.byte	0
 2966 002a 00       		.byte	0
 2967 002b 04       		.uleb128 0x4
 2968 002c 16       		.uleb128 0x16
 2969 002d 00       		.byte	0
 2970 002e 03       		.uleb128 0x3
 2971 002f 0E       		.uleb128 0xe
 2972 0030 3A       		.uleb128 0x3a
 2973 0031 0B       		.uleb128 0xb
 2974 0032 3B       		.uleb128 0x3b
 2975 0033 0B       		.uleb128 0xb
 2976 0034 49       		.uleb128 0x49
 2977 0035 13       		.uleb128 0x13
 2978 0036 00       		.byte	0
 2979 0037 00       		.byte	0
 2980 0038 05       		.uleb128 0x5
 2981 0039 35       		.uleb128 0x35
 2982 003a 00       		.byte	0
 2983 003b 49       		.uleb128 0x49
 2984 003c 13       		.uleb128 0x13
 2985 003d 00       		.byte	0
 2986 003e 00       		.byte	0
 2987 003f 06       		.uleb128 0x6
 2988 0040 2E       		.uleb128 0x2e
 2989 0041 00       		.byte	0
 2990 0042 3F       		.uleb128 0x3f
ARM GAS  C:\Users\SNFU\AppData\Local\Temp\ccpcIp9g.s 			page 78


 2991 0043 0C       		.uleb128 0xc
 2992 0044 03       		.uleb128 0x3
 2993 0045 0E       		.uleb128 0xe
 2994 0046 3A       		.uleb128 0x3a
 2995 0047 0B       		.uleb128 0xb
 2996 0048 3B       		.uleb128 0x3b
 2997 0049 0B       		.uleb128 0xb
 2998 004a 27       		.uleb128 0x27
 2999 004b 0C       		.uleb128 0xc
 3000 004c 11       		.uleb128 0x11
 3001 004d 01       		.uleb128 0x1
 3002 004e 12       		.uleb128 0x12
 3003 004f 01       		.uleb128 0x1
 3004 0050 40       		.uleb128 0x40
 3005 0051 06       		.uleb128 0x6
 3006 0052 9642     		.uleb128 0x2116
 3007 0054 0C       		.uleb128 0xc
 3008 0055 00       		.byte	0
 3009 0056 00       		.byte	0
 3010 0057 07       		.uleb128 0x7
 3011 0058 2E       		.uleb128 0x2e
 3012 0059 01       		.byte	0x1
 3013 005a 3F       		.uleb128 0x3f
 3014 005b 0C       		.uleb128 0xc
 3015 005c 03       		.uleb128 0x3
 3016 005d 0E       		.uleb128 0xe
 3017 005e 3A       		.uleb128 0x3a
 3018 005f 0B       		.uleb128 0xb
 3019 0060 3B       		.uleb128 0x3b
 3020 0061 0B       		.uleb128 0xb
 3021 0062 27       		.uleb128 0x27
 3022 0063 0C       		.uleb128 0xc
 3023 0064 11       		.uleb128 0x11
 3024 0065 01       		.uleb128 0x1
 3025 0066 12       		.uleb128 0x12
 3026 0067 01       		.uleb128 0x1
 3027 0068 40       		.uleb128 0x40
 3028 0069 06       		.uleb128 0x6
 3029 006a 9642     		.uleb128 0x2116
 3030 006c 0C       		.uleb128 0xc
 3031 006d 01       		.uleb128 0x1
 3032 006e 13       		.uleb128 0x13
 3033 006f 00       		.byte	0
 3034 0070 00       		.byte	0
 3035 0071 08       		.uleb128 0x8
 3036 0072 34       		.uleb128 0x34
 3037 0073 00       		.byte	0
 3038 0074 03       		.uleb128 0x3
 3039 0075 0E       		.uleb128 0xe
 3040 0076 3A       		.uleb128 0x3a
 3041 0077 0B       		.uleb128 0xb
 3042 0078 3B       		.uleb128 0x3b
 3043 0079 0B       		.uleb128 0xb
 3044 007a 49       		.uleb128 0x49
 3045 007b 13       		.uleb128 0x13
 3046 007c 02       		.uleb128 0x2
 3047 007d 0A       		.uleb128 0xa
ARM GAS  C:\Users\SNFU\AppData\Local\Temp\ccpcIp9g.s 			page 79


 3048 007e 00       		.byte	0
 3049 007f 00       		.byte	0
 3050 0080 09       		.uleb128 0x9
 3051 0081 2E       		.uleb128 0x2e
 3052 0082 01       		.byte	0x1
 3053 0083 3F       		.uleb128 0x3f
 3054 0084 0C       		.uleb128 0xc
 3055 0085 03       		.uleb128 0x3
 3056 0086 0E       		.uleb128 0xe
 3057 0087 3A       		.uleb128 0x3a
 3058 0088 0B       		.uleb128 0xb
 3059 0089 3B       		.uleb128 0x3b
 3060 008a 05       		.uleb128 0x5
 3061 008b 27       		.uleb128 0x27
 3062 008c 0C       		.uleb128 0xc
 3063 008d 11       		.uleb128 0x11
 3064 008e 01       		.uleb128 0x1
 3065 008f 12       		.uleb128 0x12
 3066 0090 01       		.uleb128 0x1
 3067 0091 40       		.uleb128 0x40
 3068 0092 06       		.uleb128 0x6
 3069 0093 9642     		.uleb128 0x2116
 3070 0095 0C       		.uleb128 0xc
 3071 0096 01       		.uleb128 0x1
 3072 0097 13       		.uleb128 0x13
 3073 0098 00       		.byte	0
 3074 0099 00       		.byte	0
 3075 009a 0A       		.uleb128 0xa
 3076 009b 34       		.uleb128 0x34
 3077 009c 00       		.byte	0
 3078 009d 03       		.uleb128 0x3
 3079 009e 0E       		.uleb128 0xe
 3080 009f 3A       		.uleb128 0x3a
 3081 00a0 0B       		.uleb128 0xb
 3082 00a1 3B       		.uleb128 0x3b
 3083 00a2 05       		.uleb128 0x5
 3084 00a3 49       		.uleb128 0x49
 3085 00a4 13       		.uleb128 0x13
 3086 00a5 02       		.uleb128 0x2
 3087 00a6 0A       		.uleb128 0xa
 3088 00a7 00       		.byte	0
 3089 00a8 00       		.byte	0
 3090 00a9 0B       		.uleb128 0xb
 3091 00aa 05       		.uleb128 0x5
 3092 00ab 00       		.byte	0
 3093 00ac 03       		.uleb128 0x3
 3094 00ad 0E       		.uleb128 0xe
 3095 00ae 3A       		.uleb128 0x3a
 3096 00af 0B       		.uleb128 0xb
 3097 00b0 3B       		.uleb128 0x3b
 3098 00b1 05       		.uleb128 0x5
 3099 00b2 49       		.uleb128 0x49
 3100 00b3 13       		.uleb128 0x13
 3101 00b4 02       		.uleb128 0x2
 3102 00b5 0A       		.uleb128 0xa
 3103 00b6 00       		.byte	0
 3104 00b7 00       		.byte	0
ARM GAS  C:\Users\SNFU\AppData\Local\Temp\ccpcIp9g.s 			page 80


 3105 00b8 0C       		.uleb128 0xc
 3106 00b9 2E       		.uleb128 0x2e
 3107 00ba 01       		.byte	0x1
 3108 00bb 3F       		.uleb128 0x3f
 3109 00bc 0C       		.uleb128 0xc
 3110 00bd 03       		.uleb128 0x3
 3111 00be 0E       		.uleb128 0xe
 3112 00bf 3A       		.uleb128 0x3a
 3113 00c0 0B       		.uleb128 0xb
 3114 00c1 3B       		.uleb128 0x3b
 3115 00c2 05       		.uleb128 0x5
 3116 00c3 27       		.uleb128 0x27
 3117 00c4 0C       		.uleb128 0xc
 3118 00c5 11       		.uleb128 0x11
 3119 00c6 01       		.uleb128 0x1
 3120 00c7 12       		.uleb128 0x12
 3121 00c8 01       		.uleb128 0x1
 3122 00c9 40       		.uleb128 0x40
 3123 00ca 06       		.uleb128 0x6
 3124 00cb 9742     		.uleb128 0x2117
 3125 00cd 0C       		.uleb128 0xc
 3126 00ce 01       		.uleb128 0x1
 3127 00cf 13       		.uleb128 0x13
 3128 00d0 00       		.byte	0
 3129 00d1 00       		.byte	0
 3130 00d2 0D       		.uleb128 0xd
 3131 00d3 2E       		.uleb128 0x2e
 3132 00d4 00       		.byte	0
 3133 00d5 3F       		.uleb128 0x3f
 3134 00d6 0C       		.uleb128 0xc
 3135 00d7 03       		.uleb128 0x3
 3136 00d8 0E       		.uleb128 0xe
 3137 00d9 3A       		.uleb128 0x3a
 3138 00da 0B       		.uleb128 0xb
 3139 00db 3B       		.uleb128 0x3b
 3140 00dc 05       		.uleb128 0x5
 3141 00dd 27       		.uleb128 0x27
 3142 00de 0C       		.uleb128 0xc
 3143 00df 49       		.uleb128 0x49
 3144 00e0 13       		.uleb128 0x13
 3145 00e1 11       		.uleb128 0x11
 3146 00e2 01       		.uleb128 0x1
 3147 00e3 12       		.uleb128 0x12
 3148 00e4 01       		.uleb128 0x1
 3149 00e5 40       		.uleb128 0x40
 3150 00e6 06       		.uleb128 0x6
 3151 00e7 9742     		.uleb128 0x2117
 3152 00e9 0C       		.uleb128 0xc
 3153 00ea 00       		.byte	0
 3154 00eb 00       		.byte	0
 3155 00ec 0E       		.uleb128 0xe
 3156 00ed 34       		.uleb128 0x34
 3157 00ee 00       		.byte	0
 3158 00ef 03       		.uleb128 0x3
 3159 00f0 0E       		.uleb128 0xe
 3160 00f1 3A       		.uleb128 0x3a
 3161 00f2 0B       		.uleb128 0xb
ARM GAS  C:\Users\SNFU\AppData\Local\Temp\ccpcIp9g.s 			page 81


 3162 00f3 3B       		.uleb128 0x3b
 3163 00f4 0B       		.uleb128 0xb
 3164 00f5 49       		.uleb128 0x49
 3165 00f6 13       		.uleb128 0x13
 3166 00f7 3F       		.uleb128 0x3f
 3167 00f8 0C       		.uleb128 0xc
 3168 00f9 02       		.uleb128 0x2
 3169 00fa 0A       		.uleb128 0xa
 3170 00fb 00       		.byte	0
 3171 00fc 00       		.byte	0
 3172 00fd 00       		.byte	0
 3173              		.section	.debug_loc,"",%progbits
 3174              	.Ldebug_loc0:
 3175              	.LLST0:
 3176 0000 00000000 		.4byte	.LFB0
 3177 0004 02000000 		.4byte	.LCFI0
 3178 0008 0200     		.2byte	0x2
 3179 000a 7D       		.byte	0x7d
 3180 000b 00       		.sleb128 0
 3181 000c 02000000 		.4byte	.LCFI0
 3182 0010 04000000 		.4byte	.LCFI1
 3183 0014 0200     		.2byte	0x2
 3184 0016 7D       		.byte	0x7d
 3185 0017 08       		.sleb128 8
 3186 0018 04000000 		.4byte	.LCFI1
 3187 001c 30000000 		.4byte	.LFE0
 3188 0020 0200     		.2byte	0x2
 3189 0022 77       		.byte	0x77
 3190 0023 08       		.sleb128 8
 3191 0024 00000000 		.4byte	0
 3192 0028 00000000 		.4byte	0
 3193              	.LLST1:
 3194 002c 00000000 		.4byte	.LFB1
 3195 0030 02000000 		.4byte	.LCFI2
 3196 0034 0200     		.2byte	0x2
 3197 0036 7D       		.byte	0x7d
 3198 0037 00       		.sleb128 0
 3199 0038 02000000 		.4byte	.LCFI2
 3200 003c 04000000 		.4byte	.LCFI3
 3201 0040 0200     		.2byte	0x2
 3202 0042 7D       		.byte	0x7d
 3203 0043 0C       		.sleb128 12
 3204 0044 04000000 		.4byte	.LCFI3
 3205 0048 06000000 		.4byte	.LCFI4
 3206 004c 0200     		.2byte	0x2
 3207 004e 7D       		.byte	0x7d
 3208 004f 18       		.sleb128 24
 3209 0050 06000000 		.4byte	.LCFI4
 3210 0054 38000000 		.4byte	.LFE1
 3211 0058 0200     		.2byte	0x2
 3212 005a 77       		.byte	0x77
 3213 005b 18       		.sleb128 24
 3214 005c 00000000 		.4byte	0
 3215 0060 00000000 		.4byte	0
 3216              	.LLST2:
 3217 0064 00000000 		.4byte	.LFB2
 3218 0068 02000000 		.4byte	.LCFI5
ARM GAS  C:\Users\SNFU\AppData\Local\Temp\ccpcIp9g.s 			page 82


 3219 006c 0200     		.2byte	0x2
 3220 006e 7D       		.byte	0x7d
 3221 006f 00       		.sleb128 0
 3222 0070 02000000 		.4byte	.LCFI5
 3223 0074 04000000 		.4byte	.LCFI6
 3224 0078 0200     		.2byte	0x2
 3225 007a 7D       		.byte	0x7d
 3226 007b 08       		.sleb128 8
 3227 007c 04000000 		.4byte	.LCFI6
 3228 0080 24000000 		.4byte	.LFE2
 3229 0084 0200     		.2byte	0x2
 3230 0086 77       		.byte	0x77
 3231 0087 08       		.sleb128 8
 3232 0088 00000000 		.4byte	0
 3233 008c 00000000 		.4byte	0
 3234              	.LLST3:
 3235 0090 00000000 		.4byte	.LFB3
 3236 0094 02000000 		.4byte	.LCFI7
 3237 0098 0200     		.2byte	0x2
 3238 009a 7D       		.byte	0x7d
 3239 009b 00       		.sleb128 0
 3240 009c 02000000 		.4byte	.LCFI7
 3241 00a0 04000000 		.4byte	.LCFI8
 3242 00a4 0200     		.2byte	0x2
 3243 00a6 7D       		.byte	0x7d
 3244 00a7 0C       		.sleb128 12
 3245 00a8 04000000 		.4byte	.LCFI8
 3246 00ac 06000000 		.4byte	.LCFI9
 3247 00b0 0200     		.2byte	0x2
 3248 00b2 7D       		.byte	0x7d
 3249 00b3 18       		.sleb128 24
 3250 00b4 06000000 		.4byte	.LCFI9
 3251 00b8 30000000 		.4byte	.LFE3
 3252 00bc 0200     		.2byte	0x2
 3253 00be 77       		.byte	0x77
 3254 00bf 18       		.sleb128 24
 3255 00c0 00000000 		.4byte	0
 3256 00c4 00000000 		.4byte	0
 3257              	.LLST4:
 3258 00c8 00000000 		.4byte	.LFB4
 3259 00cc 02000000 		.4byte	.LCFI10
 3260 00d0 0200     		.2byte	0x2
 3261 00d2 7D       		.byte	0x7d
 3262 00d3 00       		.sleb128 0
 3263 00d4 02000000 		.4byte	.LCFI10
 3264 00d8 04000000 		.4byte	.LCFI11
 3265 00dc 0200     		.2byte	0x2
 3266 00de 7D       		.byte	0x7d
 3267 00df 0C       		.sleb128 12
 3268 00e0 04000000 		.4byte	.LCFI11
 3269 00e4 06000000 		.4byte	.LCFI12
 3270 00e8 0200     		.2byte	0x2
 3271 00ea 7D       		.byte	0x7d
 3272 00eb 20       		.sleb128 32
 3273 00ec 06000000 		.4byte	.LCFI12
 3274 00f0 48000000 		.4byte	.LFE4
 3275 00f4 0200     		.2byte	0x2
ARM GAS  C:\Users\SNFU\AppData\Local\Temp\ccpcIp9g.s 			page 83


 3276 00f6 77       		.byte	0x77
 3277 00f7 20       		.sleb128 32
 3278 00f8 00000000 		.4byte	0
 3279 00fc 00000000 		.4byte	0
 3280              	.LLST5:
 3281 0100 00000000 		.4byte	.LFB5
 3282 0104 02000000 		.4byte	.LCFI13
 3283 0108 0200     		.2byte	0x2
 3284 010a 7D       		.byte	0x7d
 3285 010b 00       		.sleb128 0
 3286 010c 02000000 		.4byte	.LCFI13
 3287 0110 04000000 		.4byte	.LCFI14
 3288 0114 0200     		.2byte	0x2
 3289 0116 7D       		.byte	0x7d
 3290 0117 0C       		.sleb128 12
 3291 0118 04000000 		.4byte	.LCFI14
 3292 011c 06000000 		.4byte	.LCFI15
 3293 0120 0200     		.2byte	0x2
 3294 0122 7D       		.byte	0x7d
 3295 0123 20       		.sleb128 32
 3296 0124 06000000 		.4byte	.LCFI15
 3297 0128 48000000 		.4byte	.LFE5
 3298 012c 0200     		.2byte	0x2
 3299 012e 77       		.byte	0x77
 3300 012f 20       		.sleb128 32
 3301 0130 00000000 		.4byte	0
 3302 0134 00000000 		.4byte	0
 3303              	.LLST6:
 3304 0138 00000000 		.4byte	.LFB6
 3305 013c 02000000 		.4byte	.LCFI16
 3306 0140 0200     		.2byte	0x2
 3307 0142 7D       		.byte	0x7d
 3308 0143 00       		.sleb128 0
 3309 0144 02000000 		.4byte	.LCFI16
 3310 0148 04000000 		.4byte	.LCFI17
 3311 014c 0200     		.2byte	0x2
 3312 014e 7D       		.byte	0x7d
 3313 014f 0C       		.sleb128 12
 3314 0150 04000000 		.4byte	.LCFI17
 3315 0154 06000000 		.4byte	.LCFI18
 3316 0158 0200     		.2byte	0x2
 3317 015a 7D       		.byte	0x7d
 3318 015b 20       		.sleb128 32
 3319 015c 06000000 		.4byte	.LCFI18
 3320 0160 48000000 		.4byte	.LFE6
 3321 0164 0200     		.2byte	0x2
 3322 0166 77       		.byte	0x77
 3323 0167 20       		.sleb128 32
 3324 0168 00000000 		.4byte	0
 3325 016c 00000000 		.4byte	0
 3326              	.LLST7:
 3327 0170 00000000 		.4byte	.LFB7
 3328 0174 02000000 		.4byte	.LCFI19
 3329 0178 0200     		.2byte	0x2
 3330 017a 7D       		.byte	0x7d
 3331 017b 00       		.sleb128 0
 3332 017c 02000000 		.4byte	.LCFI19
ARM GAS  C:\Users\SNFU\AppData\Local\Temp\ccpcIp9g.s 			page 84


 3333 0180 04000000 		.4byte	.LCFI20
 3334 0184 0200     		.2byte	0x2
 3335 0186 7D       		.byte	0x7d
 3336 0187 0C       		.sleb128 12
 3337 0188 04000000 		.4byte	.LCFI20
 3338 018c 06000000 		.4byte	.LCFI21
 3339 0190 0200     		.2byte	0x2
 3340 0192 7D       		.byte	0x7d
 3341 0193 20       		.sleb128 32
 3342 0194 06000000 		.4byte	.LCFI21
 3343 0198 4C000000 		.4byte	.LFE7
 3344 019c 0200     		.2byte	0x2
 3345 019e 77       		.byte	0x77
 3346 019f 20       		.sleb128 32
 3347 01a0 00000000 		.4byte	0
 3348 01a4 00000000 		.4byte	0
 3349              	.LLST8:
 3350 01a8 00000000 		.4byte	.LFB8
 3351 01ac 02000000 		.4byte	.LCFI22
 3352 01b0 0200     		.2byte	0x2
 3353 01b2 7D       		.byte	0x7d
 3354 01b3 00       		.sleb128 0
 3355 01b4 02000000 		.4byte	.LCFI22
 3356 01b8 04000000 		.4byte	.LCFI23
 3357 01bc 0200     		.2byte	0x2
 3358 01be 7D       		.byte	0x7d
 3359 01bf 08       		.sleb128 8
 3360 01c0 04000000 		.4byte	.LCFI23
 3361 01c4 06000000 		.4byte	.LCFI24
 3362 01c8 0200     		.2byte	0x2
 3363 01ca 7D       		.byte	0x7d
 3364 01cb 10       		.sleb128 16
 3365 01cc 06000000 		.4byte	.LCFI24
 3366 01d0 1C000000 		.4byte	.LFE8
 3367 01d4 0200     		.2byte	0x2
 3368 01d6 77       		.byte	0x77
 3369 01d7 10       		.sleb128 16
 3370 01d8 00000000 		.4byte	0
 3371 01dc 00000000 		.4byte	0
 3372              	.LLST9:
 3373 01e0 00000000 		.4byte	.LFB9
 3374 01e4 02000000 		.4byte	.LCFI25
 3375 01e8 0200     		.2byte	0x2
 3376 01ea 7D       		.byte	0x7d
 3377 01eb 00       		.sleb128 0
 3378 01ec 02000000 		.4byte	.LCFI25
 3379 01f0 04000000 		.4byte	.LCFI26
 3380 01f4 0200     		.2byte	0x2
 3381 01f6 7D       		.byte	0x7d
 3382 01f7 0C       		.sleb128 12
 3383 01f8 04000000 		.4byte	.LCFI26
 3384 01fc 06000000 		.4byte	.LCFI27
 3385 0200 0200     		.2byte	0x2
 3386 0202 7D       		.byte	0x7d
 3387 0203 20       		.sleb128 32
 3388 0204 06000000 		.4byte	.LCFI27
 3389 0208 48000000 		.4byte	.LFE9
ARM GAS  C:\Users\SNFU\AppData\Local\Temp\ccpcIp9g.s 			page 85


 3390 020c 0200     		.2byte	0x2
 3391 020e 77       		.byte	0x77
 3392 020f 20       		.sleb128 32
 3393 0210 00000000 		.4byte	0
 3394 0214 00000000 		.4byte	0
 3395              	.LLST10:
 3396 0218 00000000 		.4byte	.LFB10
 3397 021c 02000000 		.4byte	.LCFI28
 3398 0220 0200     		.2byte	0x2
 3399 0222 7D       		.byte	0x7d
 3400 0223 00       		.sleb128 0
 3401 0224 02000000 		.4byte	.LCFI28
 3402 0228 04000000 		.4byte	.LCFI29
 3403 022c 0200     		.2byte	0x2
 3404 022e 7D       		.byte	0x7d
 3405 022f 0C       		.sleb128 12
 3406 0230 04000000 		.4byte	.LCFI29
 3407 0234 06000000 		.4byte	.LCFI30
 3408 0238 0200     		.2byte	0x2
 3409 023a 7D       		.byte	0x7d
 3410 023b 20       		.sleb128 32
 3411 023c 06000000 		.4byte	.LCFI30
 3412 0240 48000000 		.4byte	.LFE10
 3413 0244 0200     		.2byte	0x2
 3414 0246 77       		.byte	0x77
 3415 0247 20       		.sleb128 32
 3416 0248 00000000 		.4byte	0
 3417 024c 00000000 		.4byte	0
 3418              	.LLST11:
 3419 0250 00000000 		.4byte	.LFB11
 3420 0254 02000000 		.4byte	.LCFI31
 3421 0258 0200     		.2byte	0x2
 3422 025a 7D       		.byte	0x7d
 3423 025b 00       		.sleb128 0
 3424 025c 02000000 		.4byte	.LCFI31
 3425 0260 04000000 		.4byte	.LCFI32
 3426 0264 0200     		.2byte	0x2
 3427 0266 7D       		.byte	0x7d
 3428 0267 0C       		.sleb128 12
 3429 0268 04000000 		.4byte	.LCFI32
 3430 026c 06000000 		.4byte	.LCFI33
 3431 0270 0200     		.2byte	0x2
 3432 0272 7D       		.byte	0x7d
 3433 0273 20       		.sleb128 32
 3434 0274 06000000 		.4byte	.LCFI33
 3435 0278 4C000000 		.4byte	.LFE11
 3436 027c 0200     		.2byte	0x2
 3437 027e 77       		.byte	0x77
 3438 027f 20       		.sleb128 32
 3439 0280 00000000 		.4byte	0
 3440 0284 00000000 		.4byte	0
 3441              	.LLST12:
 3442 0288 00000000 		.4byte	.LFB12
 3443 028c 02000000 		.4byte	.LCFI34
 3444 0290 0200     		.2byte	0x2
 3445 0292 7D       		.byte	0x7d
 3446 0293 00       		.sleb128 0
ARM GAS  C:\Users\SNFU\AppData\Local\Temp\ccpcIp9g.s 			page 86


 3447 0294 02000000 		.4byte	.LCFI34
 3448 0298 04000000 		.4byte	.LCFI35
 3449 029c 0200     		.2byte	0x2
 3450 029e 7D       		.byte	0x7d
 3451 029f 0C       		.sleb128 12
 3452 02a0 04000000 		.4byte	.LCFI35
 3453 02a4 06000000 		.4byte	.LCFI36
 3454 02a8 0200     		.2byte	0x2
 3455 02aa 7D       		.byte	0x7d
 3456 02ab 20       		.sleb128 32
 3457 02ac 06000000 		.4byte	.LCFI36
 3458 02b0 48000000 		.4byte	.LFE12
 3459 02b4 0200     		.2byte	0x2
 3460 02b6 77       		.byte	0x77
 3461 02b7 20       		.sleb128 32
 3462 02b8 00000000 		.4byte	0
 3463 02bc 00000000 		.4byte	0
 3464              	.LLST13:
 3465 02c0 00000000 		.4byte	.LFB13
 3466 02c4 02000000 		.4byte	.LCFI37
 3467 02c8 0200     		.2byte	0x2
 3468 02ca 7D       		.byte	0x7d
 3469 02cb 00       		.sleb128 0
 3470 02cc 02000000 		.4byte	.LCFI37
 3471 02d0 04000000 		.4byte	.LCFI38
 3472 02d4 0200     		.2byte	0x2
 3473 02d6 7D       		.byte	0x7d
 3474 02d7 08       		.sleb128 8
 3475 02d8 04000000 		.4byte	.LCFI38
 3476 02dc 06000000 		.4byte	.LCFI39
 3477 02e0 0200     		.2byte	0x2
 3478 02e2 7D       		.byte	0x7d
 3479 02e3 10       		.sleb128 16
 3480 02e4 06000000 		.4byte	.LCFI39
 3481 02e8 1C000000 		.4byte	.LFE13
 3482 02ec 0200     		.2byte	0x2
 3483 02ee 77       		.byte	0x77
 3484 02ef 10       		.sleb128 16
 3485 02f0 00000000 		.4byte	0
 3486 02f4 00000000 		.4byte	0
 3487              	.LLST14:
 3488 02f8 00000000 		.4byte	.LFB14
 3489 02fc 02000000 		.4byte	.LCFI40
 3490 0300 0200     		.2byte	0x2
 3491 0302 7D       		.byte	0x7d
 3492 0303 00       		.sleb128 0
 3493 0304 02000000 		.4byte	.LCFI40
 3494 0308 04000000 		.4byte	.LCFI41
 3495 030c 0200     		.2byte	0x2
 3496 030e 7D       		.byte	0x7d
 3497 030f 08       		.sleb128 8
 3498 0310 04000000 		.4byte	.LCFI41
 3499 0314 18000000 		.4byte	.LFE14
 3500 0318 0200     		.2byte	0x2
 3501 031a 77       		.byte	0x77
 3502 031b 08       		.sleb128 8
 3503 031c 00000000 		.4byte	0
ARM GAS  C:\Users\SNFU\AppData\Local\Temp\ccpcIp9g.s 			page 87


 3504 0320 00000000 		.4byte	0
 3505              	.LLST15:
 3506 0324 00000000 		.4byte	.LFB15
 3507 0328 02000000 		.4byte	.LCFI42
 3508 032c 0200     		.2byte	0x2
 3509 032e 7D       		.byte	0x7d
 3510 032f 00       		.sleb128 0
 3511 0330 02000000 		.4byte	.LCFI42
 3512 0334 04000000 		.4byte	.LCFI43
 3513 0338 0200     		.2byte	0x2
 3514 033a 7D       		.byte	0x7d
 3515 033b 0C       		.sleb128 12
 3516 033c 04000000 		.4byte	.LCFI43
 3517 0340 06000000 		.4byte	.LCFI44
 3518 0344 0200     		.2byte	0x2
 3519 0346 7D       		.byte	0x7d
 3520 0347 20       		.sleb128 32
 3521 0348 06000000 		.4byte	.LCFI44
 3522 034c 48000000 		.4byte	.LFE15
 3523 0350 0200     		.2byte	0x2
 3524 0352 77       		.byte	0x77
 3525 0353 20       		.sleb128 32
 3526 0354 00000000 		.4byte	0
 3527 0358 00000000 		.4byte	0
 3528              	.LLST16:
 3529 035c 00000000 		.4byte	.LFB16
 3530 0360 02000000 		.4byte	.LCFI45
 3531 0364 0200     		.2byte	0x2
 3532 0366 7D       		.byte	0x7d
 3533 0367 00       		.sleb128 0
 3534 0368 02000000 		.4byte	.LCFI45
 3535 036c 04000000 		.4byte	.LCFI46
 3536 0370 0200     		.2byte	0x2
 3537 0372 7D       		.byte	0x7d
 3538 0373 08       		.sleb128 8
 3539 0374 04000000 		.4byte	.LCFI46
 3540 0378 06000000 		.4byte	.LCFI47
 3541 037c 0200     		.2byte	0x2
 3542 037e 7D       		.byte	0x7d
 3543 037f 10       		.sleb128 16
 3544 0380 06000000 		.4byte	.LCFI47
 3545 0384 1C000000 		.4byte	.LFE16
 3546 0388 0200     		.2byte	0x2
 3547 038a 77       		.byte	0x77
 3548 038b 10       		.sleb128 16
 3549 038c 00000000 		.4byte	0
 3550 0390 00000000 		.4byte	0
 3551              	.LLST17:
 3552 0394 00000000 		.4byte	.LFB17
 3553 0398 02000000 		.4byte	.LCFI48
 3554 039c 0200     		.2byte	0x2
 3555 039e 7D       		.byte	0x7d
 3556 039f 00       		.sleb128 0
 3557 03a0 02000000 		.4byte	.LCFI48
 3558 03a4 04000000 		.4byte	.LCFI49
 3559 03a8 0200     		.2byte	0x2
 3560 03aa 7D       		.byte	0x7d
ARM GAS  C:\Users\SNFU\AppData\Local\Temp\ccpcIp9g.s 			page 88


 3561 03ab 08       		.sleb128 8
 3562 03ac 04000000 		.4byte	.LCFI49
 3563 03b0 18000000 		.4byte	.LFE17
 3564 03b4 0200     		.2byte	0x2
 3565 03b6 77       		.byte	0x77
 3566 03b7 08       		.sleb128 8
 3567 03b8 00000000 		.4byte	0
 3568 03bc 00000000 		.4byte	0
 3569              	.LLST18:
 3570 03c0 00000000 		.4byte	.LFB18
 3571 03c4 02000000 		.4byte	.LCFI50
 3572 03c8 0200     		.2byte	0x2
 3573 03ca 7D       		.byte	0x7d
 3574 03cb 00       		.sleb128 0
 3575 03cc 02000000 		.4byte	.LCFI50
 3576 03d0 04000000 		.4byte	.LCFI51
 3577 03d4 0200     		.2byte	0x2
 3578 03d6 7D       		.byte	0x7d
 3579 03d7 0C       		.sleb128 12
 3580 03d8 04000000 		.4byte	.LCFI51
 3581 03dc 06000000 		.4byte	.LCFI52
 3582 03e0 0200     		.2byte	0x2
 3583 03e2 7D       		.byte	0x7d
 3584 03e3 20       		.sleb128 32
 3585 03e4 06000000 		.4byte	.LCFI52
 3586 03e8 48000000 		.4byte	.LFE18
 3587 03ec 0200     		.2byte	0x2
 3588 03ee 77       		.byte	0x77
 3589 03ef 20       		.sleb128 32
 3590 03f0 00000000 		.4byte	0
 3591 03f4 00000000 		.4byte	0
 3592              	.LLST19:
 3593 03f8 00000000 		.4byte	.LFB19
 3594 03fc 02000000 		.4byte	.LCFI53
 3595 0400 0200     		.2byte	0x2
 3596 0402 7D       		.byte	0x7d
 3597 0403 00       		.sleb128 0
 3598 0404 02000000 		.4byte	.LCFI53
 3599 0408 04000000 		.4byte	.LCFI54
 3600 040c 0200     		.2byte	0x2
 3601 040e 7D       		.byte	0x7d
 3602 040f 08       		.sleb128 8
 3603 0410 04000000 		.4byte	.LCFI54
 3604 0414 06000000 		.4byte	.LCFI55
 3605 0418 0200     		.2byte	0x2
 3606 041a 7D       		.byte	0x7d
 3607 041b 10       		.sleb128 16
 3608 041c 06000000 		.4byte	.LCFI55
 3609 0420 1C000000 		.4byte	.LFE19
 3610 0424 0200     		.2byte	0x2
 3611 0426 77       		.byte	0x77
 3612 0427 10       		.sleb128 16
 3613 0428 00000000 		.4byte	0
 3614 042c 00000000 		.4byte	0
 3615              	.LLST20:
 3616 0430 00000000 		.4byte	.LFB20
 3617 0434 02000000 		.4byte	.LCFI56
ARM GAS  C:\Users\SNFU\AppData\Local\Temp\ccpcIp9g.s 			page 89


 3618 0438 0200     		.2byte	0x2
 3619 043a 7D       		.byte	0x7d
 3620 043b 00       		.sleb128 0
 3621 043c 02000000 		.4byte	.LCFI56
 3622 0440 04000000 		.4byte	.LCFI57
 3623 0444 0200     		.2byte	0x2
 3624 0446 7D       		.byte	0x7d
 3625 0447 08       		.sleb128 8
 3626 0448 04000000 		.4byte	.LCFI57
 3627 044c 18000000 		.4byte	.LFE20
 3628 0450 0200     		.2byte	0x2
 3629 0452 77       		.byte	0x77
 3630 0453 08       		.sleb128 8
 3631 0454 00000000 		.4byte	0
 3632 0458 00000000 		.4byte	0
 3633              	.LLST21:
 3634 045c 00000000 		.4byte	.LFB21
 3635 0460 02000000 		.4byte	.LCFI58
 3636 0464 0200     		.2byte	0x2
 3637 0466 7D       		.byte	0x7d
 3638 0467 00       		.sleb128 0
 3639 0468 02000000 		.4byte	.LCFI58
 3640 046c 04000000 		.4byte	.LCFI59
 3641 0470 0200     		.2byte	0x2
 3642 0472 7D       		.byte	0x7d
 3643 0473 0C       		.sleb128 12
 3644 0474 04000000 		.4byte	.LCFI59
 3645 0478 06000000 		.4byte	.LCFI60
 3646 047c 0200     		.2byte	0x2
 3647 047e 7D       		.byte	0x7d
 3648 047f 20       		.sleb128 32
 3649 0480 06000000 		.4byte	.LCFI60
 3650 0484 48000000 		.4byte	.LFE21
 3651 0488 0200     		.2byte	0x2
 3652 048a 77       		.byte	0x77
 3653 048b 20       		.sleb128 32
 3654 048c 00000000 		.4byte	0
 3655 0490 00000000 		.4byte	0
 3656              	.LLST22:
 3657 0494 00000000 		.4byte	.LFB22
 3658 0498 02000000 		.4byte	.LCFI61
 3659 049c 0200     		.2byte	0x2
 3660 049e 7D       		.byte	0x7d
 3661 049f 00       		.sleb128 0
 3662 04a0 02000000 		.4byte	.LCFI61
 3663 04a4 04000000 		.4byte	.LCFI62
 3664 04a8 0200     		.2byte	0x2
 3665 04aa 7D       		.byte	0x7d
 3666 04ab 08       		.sleb128 8
 3667 04ac 04000000 		.4byte	.LCFI62
 3668 04b0 06000000 		.4byte	.LCFI63
 3669 04b4 0200     		.2byte	0x2
 3670 04b6 7D       		.byte	0x7d
 3671 04b7 10       		.sleb128 16
 3672 04b8 06000000 		.4byte	.LCFI63
 3673 04bc 1C000000 		.4byte	.LFE22
 3674 04c0 0200     		.2byte	0x2
ARM GAS  C:\Users\SNFU\AppData\Local\Temp\ccpcIp9g.s 			page 90


 3675 04c2 77       		.byte	0x77
 3676 04c3 10       		.sleb128 16
 3677 04c4 00000000 		.4byte	0
 3678 04c8 00000000 		.4byte	0
 3679              	.LLST23:
 3680 04cc 00000000 		.4byte	.LFB23
 3681 04d0 02000000 		.4byte	.LCFI64
 3682 04d4 0200     		.2byte	0x2
 3683 04d6 7D       		.byte	0x7d
 3684 04d7 00       		.sleb128 0
 3685 04d8 02000000 		.4byte	.LCFI64
 3686 04dc 04000000 		.4byte	.LCFI65
 3687 04e0 0200     		.2byte	0x2
 3688 04e2 7D       		.byte	0x7d
 3689 04e3 08       		.sleb128 8
 3690 04e4 04000000 		.4byte	.LCFI65
 3691 04e8 18000000 		.4byte	.LFE23
 3692 04ec 0200     		.2byte	0x2
 3693 04ee 77       		.byte	0x77
 3694 04ef 08       		.sleb128 8
 3695 04f0 00000000 		.4byte	0
 3696 04f4 00000000 		.4byte	0
 3697              	.LLST24:
 3698 04f8 00000000 		.4byte	.LFB24
 3699 04fc 02000000 		.4byte	.LCFI66
 3700 0500 0200     		.2byte	0x2
 3701 0502 7D       		.byte	0x7d
 3702 0503 00       		.sleb128 0
 3703 0504 02000000 		.4byte	.LCFI66
 3704 0508 04000000 		.4byte	.LCFI67
 3705 050c 0200     		.2byte	0x2
 3706 050e 7D       		.byte	0x7d
 3707 050f 08       		.sleb128 8
 3708 0510 04000000 		.4byte	.LCFI67
 3709 0514 06000000 		.4byte	.LCFI68
 3710 0518 0200     		.2byte	0x2
 3711 051a 7D       		.byte	0x7d
 3712 051b 10       		.sleb128 16
 3713 051c 06000000 		.4byte	.LCFI68
 3714 0520 1C000000 		.4byte	.LFE24
 3715 0524 0200     		.2byte	0x2
 3716 0526 77       		.byte	0x77
 3717 0527 10       		.sleb128 16
 3718 0528 00000000 		.4byte	0
 3719 052c 00000000 		.4byte	0
 3720              	.LLST25:
 3721 0530 00000000 		.4byte	.LFB25
 3722 0534 02000000 		.4byte	.LCFI69
 3723 0538 0200     		.2byte	0x2
 3724 053a 7D       		.byte	0x7d
 3725 053b 00       		.sleb128 0
 3726 053c 02000000 		.4byte	.LCFI69
 3727 0540 04000000 		.4byte	.LCFI70
 3728 0544 0200     		.2byte	0x2
 3729 0546 7D       		.byte	0x7d
 3730 0547 08       		.sleb128 8
 3731 0548 04000000 		.4byte	.LCFI70
ARM GAS  C:\Users\SNFU\AppData\Local\Temp\ccpcIp9g.s 			page 91


 3732 054c 18000000 		.4byte	.LFE25
 3733 0550 0200     		.2byte	0x2
 3734 0552 77       		.byte	0x77
 3735 0553 08       		.sleb128 8
 3736 0554 00000000 		.4byte	0
 3737 0558 00000000 		.4byte	0
 3738              	.LLST26:
 3739 055c 00000000 		.4byte	.LFB26
 3740 0560 02000000 		.4byte	.LCFI71
 3741 0564 0200     		.2byte	0x2
 3742 0566 7D       		.byte	0x7d
 3743 0567 00       		.sleb128 0
 3744 0568 02000000 		.4byte	.LCFI71
 3745 056c 04000000 		.4byte	.LCFI72
 3746 0570 0200     		.2byte	0x2
 3747 0572 7D       		.byte	0x7d
 3748 0573 08       		.sleb128 8
 3749 0574 04000000 		.4byte	.LCFI72
 3750 0578 18000000 		.4byte	.LFE26
 3751 057c 0200     		.2byte	0x2
 3752 057e 77       		.byte	0x77
 3753 057f 08       		.sleb128 8
 3754 0580 00000000 		.4byte	0
 3755 0584 00000000 		.4byte	0
 3756              	.LLST27:
 3757 0588 00000000 		.4byte	.LFB27
 3758 058c 02000000 		.4byte	.LCFI73
 3759 0590 0200     		.2byte	0x2
 3760 0592 7D       		.byte	0x7d
 3761 0593 00       		.sleb128 0
 3762 0594 02000000 		.4byte	.LCFI73
 3763 0598 04000000 		.4byte	.LCFI74
 3764 059c 0200     		.2byte	0x2
 3765 059e 7D       		.byte	0x7d
 3766 059f 08       		.sleb128 8
 3767 05a0 04000000 		.4byte	.LCFI74
 3768 05a4 18000000 		.4byte	.LFE27
 3769 05a8 0200     		.2byte	0x2
 3770 05aa 77       		.byte	0x77
 3771 05ab 08       		.sleb128 8
 3772 05ac 00000000 		.4byte	0
 3773 05b0 00000000 		.4byte	0
 3774              	.LLST28:
 3775 05b4 00000000 		.4byte	.LFB28
 3776 05b8 02000000 		.4byte	.LCFI75
 3777 05bc 0200     		.2byte	0x2
 3778 05be 7D       		.byte	0x7d
 3779 05bf 00       		.sleb128 0
 3780 05c0 02000000 		.4byte	.LCFI75
 3781 05c4 04000000 		.4byte	.LCFI76
 3782 05c8 0200     		.2byte	0x2
 3783 05ca 7D       		.byte	0x7d
 3784 05cb 0C       		.sleb128 12
 3785 05cc 04000000 		.4byte	.LCFI76
 3786 05d0 06000000 		.4byte	.LCFI77
 3787 05d4 0200     		.2byte	0x2
 3788 05d6 7D       		.byte	0x7d
ARM GAS  C:\Users\SNFU\AppData\Local\Temp\ccpcIp9g.s 			page 92


 3789 05d7 20       		.sleb128 32
 3790 05d8 06000000 		.4byte	.LCFI77
 3791 05dc 44000000 		.4byte	.LFE28
 3792 05e0 0200     		.2byte	0x2
 3793 05e2 77       		.byte	0x77
 3794 05e3 20       		.sleb128 32
 3795 05e4 00000000 		.4byte	0
 3796 05e8 00000000 		.4byte	0
 3797              	.LLST29:
 3798 05ec 00000000 		.4byte	.LFB29
 3799 05f0 02000000 		.4byte	.LCFI78
 3800 05f4 0200     		.2byte	0x2
 3801 05f6 7D       		.byte	0x7d
 3802 05f7 00       		.sleb128 0
 3803 05f8 02000000 		.4byte	.LCFI78
 3804 05fc 04000000 		.4byte	.LCFI79
 3805 0600 0200     		.2byte	0x2
 3806 0602 7D       		.byte	0x7d
 3807 0603 0C       		.sleb128 12
 3808 0604 04000000 		.4byte	.LCFI79
 3809 0608 06000000 		.4byte	.LCFI80
 3810 060c 0200     		.2byte	0x2
 3811 060e 7D       		.byte	0x7d
 3812 060f 20       		.sleb128 32
 3813 0610 06000000 		.4byte	.LCFI80
 3814 0614 44000000 		.4byte	.LFE29
 3815 0618 0200     		.2byte	0x2
 3816 061a 77       		.byte	0x77
 3817 061b 20       		.sleb128 32
 3818 061c 00000000 		.4byte	0
 3819 0620 00000000 		.4byte	0
 3820              	.LLST30:
 3821 0624 00000000 		.4byte	.LFB30
 3822 0628 02000000 		.4byte	.LCFI81
 3823 062c 0200     		.2byte	0x2
 3824 062e 7D       		.byte	0x7d
 3825 062f 00       		.sleb128 0
 3826 0630 02000000 		.4byte	.LCFI81
 3827 0634 04000000 		.4byte	.LCFI82
 3828 0638 0200     		.2byte	0x2
 3829 063a 7D       		.byte	0x7d
 3830 063b 0C       		.sleb128 12
 3831 063c 04000000 		.4byte	.LCFI82
 3832 0640 06000000 		.4byte	.LCFI83
 3833 0644 0200     		.2byte	0x2
 3834 0646 7D       		.byte	0x7d
 3835 0647 20       		.sleb128 32
 3836 0648 06000000 		.4byte	.LCFI83
 3837 064c 48000000 		.4byte	.LFE30
 3838 0650 0200     		.2byte	0x2
 3839 0652 77       		.byte	0x77
 3840 0653 20       		.sleb128 32
 3841 0654 00000000 		.4byte	0
 3842 0658 00000000 		.4byte	0
 3843              	.LLST31:
 3844 065c 00000000 		.4byte	.LFB31
 3845 0660 02000000 		.4byte	.LCFI84
ARM GAS  C:\Users\SNFU\AppData\Local\Temp\ccpcIp9g.s 			page 93


 3846 0664 0200     		.2byte	0x2
 3847 0666 7D       		.byte	0x7d
 3848 0667 00       		.sleb128 0
 3849 0668 02000000 		.4byte	.LCFI84
 3850 066c 04000000 		.4byte	.LCFI85
 3851 0670 0200     		.2byte	0x2
 3852 0672 7D       		.byte	0x7d
 3853 0673 0C       		.sleb128 12
 3854 0674 04000000 		.4byte	.LCFI85
 3855 0678 06000000 		.4byte	.LCFI86
 3856 067c 0200     		.2byte	0x2
 3857 067e 7D       		.byte	0x7d
 3858 067f 20       		.sleb128 32
 3859 0680 06000000 		.4byte	.LCFI86
 3860 0684 44000000 		.4byte	.LFE31
 3861 0688 0200     		.2byte	0x2
 3862 068a 77       		.byte	0x77
 3863 068b 20       		.sleb128 32
 3864 068c 00000000 		.4byte	0
 3865 0690 00000000 		.4byte	0
 3866              	.LLST32:
 3867 0694 00000000 		.4byte	.LFB32
 3868 0698 02000000 		.4byte	.LCFI87
 3869 069c 0200     		.2byte	0x2
 3870 069e 7D       		.byte	0x7d
 3871 069f 00       		.sleb128 0
 3872 06a0 02000000 		.4byte	.LCFI87
 3873 06a4 04000000 		.4byte	.LCFI88
 3874 06a8 0200     		.2byte	0x2
 3875 06aa 7D       		.byte	0x7d
 3876 06ab 0C       		.sleb128 12
 3877 06ac 04000000 		.4byte	.LCFI88
 3878 06b0 06000000 		.4byte	.LCFI89
 3879 06b4 0200     		.2byte	0x2
 3880 06b6 7D       		.byte	0x7d
 3881 06b7 20       		.sleb128 32
 3882 06b8 06000000 		.4byte	.LCFI89
 3883 06bc 44000000 		.4byte	.LFE32
 3884 06c0 0200     		.2byte	0x2
 3885 06c2 77       		.byte	0x77
 3886 06c3 20       		.sleb128 32
 3887 06c4 00000000 		.4byte	0
 3888 06c8 00000000 		.4byte	0
 3889              	.LLST33:
 3890 06cc 00000000 		.4byte	.LFB33
 3891 06d0 02000000 		.4byte	.LCFI90
 3892 06d4 0200     		.2byte	0x2
 3893 06d6 7D       		.byte	0x7d
 3894 06d7 00       		.sleb128 0
 3895 06d8 02000000 		.4byte	.LCFI90
 3896 06dc 04000000 		.4byte	.LCFI91
 3897 06e0 0200     		.2byte	0x2
 3898 06e2 7D       		.byte	0x7d
 3899 06e3 0C       		.sleb128 12
 3900 06e4 04000000 		.4byte	.LCFI91
 3901 06e8 06000000 		.4byte	.LCFI92
 3902 06ec 0200     		.2byte	0x2
ARM GAS  C:\Users\SNFU\AppData\Local\Temp\ccpcIp9g.s 			page 94


 3903 06ee 7D       		.byte	0x7d
 3904 06ef 20       		.sleb128 32
 3905 06f0 06000000 		.4byte	.LCFI92
 3906 06f4 3C000000 		.4byte	.LFE33
 3907 06f8 0200     		.2byte	0x2
 3908 06fa 77       		.byte	0x77
 3909 06fb 20       		.sleb128 32
 3910 06fc 00000000 		.4byte	0
 3911 0700 00000000 		.4byte	0
 3912              	.LLST34:
 3913 0704 00000000 		.4byte	.LFB34
 3914 0708 02000000 		.4byte	.LCFI93
 3915 070c 0200     		.2byte	0x2
 3916 070e 7D       		.byte	0x7d
 3917 070f 00       		.sleb128 0
 3918 0710 02000000 		.4byte	.LCFI93
 3919 0714 04000000 		.4byte	.LCFI94
 3920 0718 0200     		.2byte	0x2
 3921 071a 7D       		.byte	0x7d
 3922 071b 08       		.sleb128 8
 3923 071c 04000000 		.4byte	.LCFI94
 3924 0720 20000000 		.4byte	.LFE34
 3925 0724 0200     		.2byte	0x2
 3926 0726 77       		.byte	0x77
 3927 0727 08       		.sleb128 8
 3928 0728 00000000 		.4byte	0
 3929 072c 00000000 		.4byte	0
 3930              	.LLST35:
 3931 0730 00000000 		.4byte	.LFB35
 3932 0734 02000000 		.4byte	.LCFI95
 3933 0738 0200     		.2byte	0x2
 3934 073a 7D       		.byte	0x7d
 3935 073b 00       		.sleb128 0
 3936 073c 02000000 		.4byte	.LCFI95
 3937 0740 04000000 		.4byte	.LCFI96
 3938 0744 0200     		.2byte	0x2
 3939 0746 7D       		.byte	0x7d
 3940 0747 08       		.sleb128 8
 3941 0748 04000000 		.4byte	.LCFI96
 3942 074c 06000000 		.4byte	.LCFI97
 3943 0750 0200     		.2byte	0x2
 3944 0752 7D       		.byte	0x7d
 3945 0753 10       		.sleb128 16
 3946 0754 06000000 		.4byte	.LCFI97
 3947 0758 18000000 		.4byte	.LFE35
 3948 075c 0200     		.2byte	0x2
 3949 075e 77       		.byte	0x77
 3950 075f 10       		.sleb128 16
 3951 0760 00000000 		.4byte	0
 3952 0764 00000000 		.4byte	0
 3953              	.LLST36:
 3954 0768 00000000 		.4byte	.LFB36
 3955 076c 02000000 		.4byte	.LCFI98
 3956 0770 0200     		.2byte	0x2
 3957 0772 7D       		.byte	0x7d
 3958 0773 00       		.sleb128 0
 3959 0774 02000000 		.4byte	.LCFI98
ARM GAS  C:\Users\SNFU\AppData\Local\Temp\ccpcIp9g.s 			page 95


 3960 0778 04000000 		.4byte	.LCFI99
 3961 077c 0200     		.2byte	0x2
 3962 077e 7D       		.byte	0x7d
 3963 077f 08       		.sleb128 8
 3964 0780 04000000 		.4byte	.LCFI99
 3965 0784 14000000 		.4byte	.LFE36
 3966 0788 0200     		.2byte	0x2
 3967 078a 77       		.byte	0x77
 3968 078b 08       		.sleb128 8
 3969 078c 00000000 		.4byte	0
 3970 0790 00000000 		.4byte	0
 3971              	.LLST37:
 3972 0794 00000000 		.4byte	.LFB37
 3973 0798 02000000 		.4byte	.LCFI100
 3974 079c 0200     		.2byte	0x2
 3975 079e 7D       		.byte	0x7d
 3976 079f 00       		.sleb128 0
 3977 07a0 02000000 		.4byte	.LCFI100
 3978 07a4 04000000 		.4byte	.LCFI101
 3979 07a8 0200     		.2byte	0x2
 3980 07aa 7D       		.byte	0x7d
 3981 07ab 08       		.sleb128 8
 3982 07ac 04000000 		.4byte	.LCFI101
 3983 07b0 14000000 		.4byte	.LFE37
 3984 07b4 0200     		.2byte	0x2
 3985 07b6 77       		.byte	0x77
 3986 07b7 08       		.sleb128 8
 3987 07b8 00000000 		.4byte	0
 3988 07bc 00000000 		.4byte	0
 3989              	.LLST38:
 3990 07c0 00000000 		.4byte	.LFB38
 3991 07c4 02000000 		.4byte	.LCFI102
 3992 07c8 0200     		.2byte	0x2
 3993 07ca 7D       		.byte	0x7d
 3994 07cb 00       		.sleb128 0
 3995 07cc 02000000 		.4byte	.LCFI102
 3996 07d0 04000000 		.4byte	.LCFI103
 3997 07d4 0200     		.2byte	0x2
 3998 07d6 7D       		.byte	0x7d
 3999 07d7 08       		.sleb128 8
 4000 07d8 04000000 		.4byte	.LCFI103
 4001 07dc 06000000 		.4byte	.LCFI104
 4002 07e0 0200     		.2byte	0x2
 4003 07e2 7D       		.byte	0x7d
 4004 07e3 10       		.sleb128 16
 4005 07e4 06000000 		.4byte	.LCFI104
 4006 07e8 18000000 		.4byte	.LFE38
 4007 07ec 0200     		.2byte	0x2
 4008 07ee 77       		.byte	0x77
 4009 07ef 10       		.sleb128 16
 4010 07f0 00000000 		.4byte	0
 4011 07f4 00000000 		.4byte	0
 4012              	.LLST39:
 4013 07f8 00000000 		.4byte	.LFB39
 4014 07fc 02000000 		.4byte	.LCFI105
 4015 0800 0200     		.2byte	0x2
 4016 0802 7D       		.byte	0x7d
ARM GAS  C:\Users\SNFU\AppData\Local\Temp\ccpcIp9g.s 			page 96


 4017 0803 00       		.sleb128 0
 4018 0804 02000000 		.4byte	.LCFI105
 4019 0808 04000000 		.4byte	.LCFI106
 4020 080c 0200     		.2byte	0x2
 4021 080e 7D       		.byte	0x7d
 4022 080f 08       		.sleb128 8
 4023 0810 04000000 		.4byte	.LCFI106
 4024 0814 06000000 		.4byte	.LCFI107
 4025 0818 0200     		.2byte	0x2
 4026 081a 7D       		.byte	0x7d
 4027 081b 10       		.sleb128 16
 4028 081c 06000000 		.4byte	.LCFI107
 4029 0820 18000000 		.4byte	.LFE39
 4030 0824 0200     		.2byte	0x2
 4031 0826 77       		.byte	0x77
 4032 0827 10       		.sleb128 16
 4033 0828 00000000 		.4byte	0
 4034 082c 00000000 		.4byte	0
 4035              		.section	.debug_aranges,"",%progbits
 4036 0000 54010000 		.4byte	0x154
 4037 0004 0200     		.2byte	0x2
 4038 0006 00000000 		.4byte	.Ldebug_info0
 4039 000a 04       		.byte	0x4
 4040 000b 00       		.byte	0
 4041 000c 0000     		.2byte	0
 4042 000e 0000     		.2byte	0
 4043 0010 00000000 		.4byte	.LFB0
 4044 0014 30000000 		.4byte	.LFE0-.LFB0
 4045 0018 00000000 		.4byte	.LFB1
 4046 001c 38000000 		.4byte	.LFE1-.LFB1
 4047 0020 00000000 		.4byte	.LFB2
 4048 0024 24000000 		.4byte	.LFE2-.LFB2
 4049 0028 00000000 		.4byte	.LFB3
 4050 002c 30000000 		.4byte	.LFE3-.LFB3
 4051 0030 00000000 		.4byte	.LFB4
 4052 0034 48000000 		.4byte	.LFE4-.LFB4
 4053 0038 00000000 		.4byte	.LFB5
 4054 003c 48000000 		.4byte	.LFE5-.LFB5
 4055 0040 00000000 		.4byte	.LFB6
 4056 0044 48000000 		.4byte	.LFE6-.LFB6
 4057 0048 00000000 		.4byte	.LFB7
 4058 004c 4C000000 		.4byte	.LFE7-.LFB7
 4059 0050 00000000 		.4byte	.LFB8
 4060 0054 1C000000 		.4byte	.LFE8-.LFB8
 4061 0058 00000000 		.4byte	.LFB9
 4062 005c 48000000 		.4byte	.LFE9-.LFB9
 4063 0060 00000000 		.4byte	.LFB10
 4064 0064 48000000 		.4byte	.LFE10-.LFB10
 4065 0068 00000000 		.4byte	.LFB11
 4066 006c 4C000000 		.4byte	.LFE11-.LFB11
 4067 0070 00000000 		.4byte	.LFB12
 4068 0074 48000000 		.4byte	.LFE12-.LFB12
 4069 0078 00000000 		.4byte	.LFB13
 4070 007c 1C000000 		.4byte	.LFE13-.LFB13
 4071 0080 00000000 		.4byte	.LFB14
 4072 0084 18000000 		.4byte	.LFE14-.LFB14
 4073 0088 00000000 		.4byte	.LFB15
ARM GAS  C:\Users\SNFU\AppData\Local\Temp\ccpcIp9g.s 			page 97


 4074 008c 48000000 		.4byte	.LFE15-.LFB15
 4075 0090 00000000 		.4byte	.LFB16
 4076 0094 1C000000 		.4byte	.LFE16-.LFB16
 4077 0098 00000000 		.4byte	.LFB17
 4078 009c 18000000 		.4byte	.LFE17-.LFB17
 4079 00a0 00000000 		.4byte	.LFB18
 4080 00a4 48000000 		.4byte	.LFE18-.LFB18
 4081 00a8 00000000 		.4byte	.LFB19
 4082 00ac 1C000000 		.4byte	.LFE19-.LFB19
 4083 00b0 00000000 		.4byte	.LFB20
 4084 00b4 18000000 		.4byte	.LFE20-.LFB20
 4085 00b8 00000000 		.4byte	.LFB21
 4086 00bc 48000000 		.4byte	.LFE21-.LFB21
 4087 00c0 00000000 		.4byte	.LFB22
 4088 00c4 1C000000 		.4byte	.LFE22-.LFB22
 4089 00c8 00000000 		.4byte	.LFB23
 4090 00cc 18000000 		.4byte	.LFE23-.LFB23
 4091 00d0 00000000 		.4byte	.LFB24
 4092 00d4 1C000000 		.4byte	.LFE24-.LFB24
 4093 00d8 00000000 		.4byte	.LFB25
 4094 00dc 18000000 		.4byte	.LFE25-.LFB25
 4095 00e0 00000000 		.4byte	.LFB26
 4096 00e4 18000000 		.4byte	.LFE26-.LFB26
 4097 00e8 00000000 		.4byte	.LFB27
 4098 00ec 18000000 		.4byte	.LFE27-.LFB27
 4099 00f0 00000000 		.4byte	.LFB28
 4100 00f4 44000000 		.4byte	.LFE28-.LFB28
 4101 00f8 00000000 		.4byte	.LFB29
 4102 00fc 44000000 		.4byte	.LFE29-.LFB29
 4103 0100 00000000 		.4byte	.LFB30
 4104 0104 48000000 		.4byte	.LFE30-.LFB30
 4105 0108 00000000 		.4byte	.LFB31
 4106 010c 44000000 		.4byte	.LFE31-.LFB31
 4107 0110 00000000 		.4byte	.LFB32
 4108 0114 44000000 		.4byte	.LFE32-.LFB32
 4109 0118 00000000 		.4byte	.LFB33
 4110 011c 3C000000 		.4byte	.LFE33-.LFB33
 4111 0120 00000000 		.4byte	.LFB34
 4112 0124 20000000 		.4byte	.LFE34-.LFB34
 4113 0128 00000000 		.4byte	.LFB35
 4114 012c 18000000 		.4byte	.LFE35-.LFB35
 4115 0130 00000000 		.4byte	.LFB36
 4116 0134 14000000 		.4byte	.LFE36-.LFB36
 4117 0138 00000000 		.4byte	.LFB37
 4118 013c 14000000 		.4byte	.LFE37-.LFB37
 4119 0140 00000000 		.4byte	.LFB38
 4120 0144 18000000 		.4byte	.LFE38-.LFB38
 4121 0148 00000000 		.4byte	.LFB39
 4122 014c 18000000 		.4byte	.LFE39-.LFB39
 4123 0150 00000000 		.4byte	0
 4124 0154 00000000 		.4byte	0
 4125              		.section	.debug_ranges,"",%progbits
 4126              	.Ldebug_ranges0:
 4127 0000 00000000 		.4byte	.LFB0
 4128 0004 30000000 		.4byte	.LFE0
 4129 0008 00000000 		.4byte	.LFB1
 4130 000c 38000000 		.4byte	.LFE1
ARM GAS  C:\Users\SNFU\AppData\Local\Temp\ccpcIp9g.s 			page 98


 4131 0010 00000000 		.4byte	.LFB2
 4132 0014 24000000 		.4byte	.LFE2
 4133 0018 00000000 		.4byte	.LFB3
 4134 001c 30000000 		.4byte	.LFE3
 4135 0020 00000000 		.4byte	.LFB4
 4136 0024 48000000 		.4byte	.LFE4
 4137 0028 00000000 		.4byte	.LFB5
 4138 002c 48000000 		.4byte	.LFE5
 4139 0030 00000000 		.4byte	.LFB6
 4140 0034 48000000 		.4byte	.LFE6
 4141 0038 00000000 		.4byte	.LFB7
 4142 003c 4C000000 		.4byte	.LFE7
 4143 0040 00000000 		.4byte	.LFB8
 4144 0044 1C000000 		.4byte	.LFE8
 4145 0048 00000000 		.4byte	.LFB9
 4146 004c 48000000 		.4byte	.LFE9
 4147 0050 00000000 		.4byte	.LFB10
 4148 0054 48000000 		.4byte	.LFE10
 4149 0058 00000000 		.4byte	.LFB11
 4150 005c 4C000000 		.4byte	.LFE11
 4151 0060 00000000 		.4byte	.LFB12
 4152 0064 48000000 		.4byte	.LFE12
 4153 0068 00000000 		.4byte	.LFB13
 4154 006c 1C000000 		.4byte	.LFE13
 4155 0070 00000000 		.4byte	.LFB14
 4156 0074 18000000 		.4byte	.LFE14
 4157 0078 00000000 		.4byte	.LFB15
 4158 007c 48000000 		.4byte	.LFE15
 4159 0080 00000000 		.4byte	.LFB16
 4160 0084 1C000000 		.4byte	.LFE16
 4161 0088 00000000 		.4byte	.LFB17
 4162 008c 18000000 		.4byte	.LFE17
 4163 0090 00000000 		.4byte	.LFB18
 4164 0094 48000000 		.4byte	.LFE18
 4165 0098 00000000 		.4byte	.LFB19
 4166 009c 1C000000 		.4byte	.LFE19
 4167 00a0 00000000 		.4byte	.LFB20
 4168 00a4 18000000 		.4byte	.LFE20
 4169 00a8 00000000 		.4byte	.LFB21
 4170 00ac 48000000 		.4byte	.LFE21
 4171 00b0 00000000 		.4byte	.LFB22
 4172 00b4 1C000000 		.4byte	.LFE22
 4173 00b8 00000000 		.4byte	.LFB23
 4174 00bc 18000000 		.4byte	.LFE23
 4175 00c0 00000000 		.4byte	.LFB24
 4176 00c4 1C000000 		.4byte	.LFE24
 4177 00c8 00000000 		.4byte	.LFB25
 4178 00cc 18000000 		.4byte	.LFE25
 4179 00d0 00000000 		.4byte	.LFB26
 4180 00d4 18000000 		.4byte	.LFE26
 4181 00d8 00000000 		.4byte	.LFB27
 4182 00dc 18000000 		.4byte	.LFE27
 4183 00e0 00000000 		.4byte	.LFB28
 4184 00e4 44000000 		.4byte	.LFE28
 4185 00e8 00000000 		.4byte	.LFB29
 4186 00ec 44000000 		.4byte	.LFE29
 4187 00f0 00000000 		.4byte	.LFB30
ARM GAS  C:\Users\SNFU\AppData\Local\Temp\ccpcIp9g.s 			page 99


 4188 00f4 48000000 		.4byte	.LFE30
 4189 00f8 00000000 		.4byte	.LFB31
 4190 00fc 44000000 		.4byte	.LFE31
 4191 0100 00000000 		.4byte	.LFB32
 4192 0104 44000000 		.4byte	.LFE32
 4193 0108 00000000 		.4byte	.LFB33
 4194 010c 3C000000 		.4byte	.LFE33
 4195 0110 00000000 		.4byte	.LFB34
 4196 0114 20000000 		.4byte	.LFE34
 4197 0118 00000000 		.4byte	.LFB35
 4198 011c 18000000 		.4byte	.LFE35
 4199 0120 00000000 		.4byte	.LFB36
 4200 0124 14000000 		.4byte	.LFE36
 4201 0128 00000000 		.4byte	.LFB37
 4202 012c 14000000 		.4byte	.LFE37
 4203 0130 00000000 		.4byte	.LFB38
 4204 0134 18000000 		.4byte	.LFE38
 4205 0138 00000000 		.4byte	.LFB39
 4206 013c 18000000 		.4byte	.LFE39
 4207 0140 00000000 		.4byte	0
 4208 0144 00000000 		.4byte	0
 4209              		.section	.debug_line,"",%progbits
 4210              	.Ldebug_line0:
 4211 0000 6F030000 		.section	.debug_str,"MS",%progbits,1
 4211      02004900 
 4211      00000201 
 4211      FB0E0D00 
 4211      01010101 
 4212              	.LASF40:
 4213 0000 636F756E 		.ascii	"count\000"
 4213      7400
 4214              	.LASF64:
 4215 0006 50504D43 		.ascii	"PPMCounter_SetStartMode\000"
 4215      6F756E74 
 4215      65725F53 
 4215      65745374 
 4215      6172744D 
 4216              	.LASF53:
 4217 001e 50504D43 		.ascii	"PPMCounter_WriteCompare\000"
 4217      6F756E74 
 4217      65725F57 
 4217      72697465 
 4217      436F6D70 
 4218              	.LASF46:
 4219 0036 50504D43 		.ascii	"PPMCounter_ReadPeriod\000"
 4219      6F756E74 
 4219      65725F52 
 4219      65616450 
 4219      6572696F 
 4220              	.LASF77:
 4221 004c 2E5C4765 		.ascii	".\\Generated_Source\\PSoC4\\PPMCounter.c\000"
 4221      6E657261 
 4221      7465645F 
 4221      536F7572 
 4221      63655C50 
 4222              	.LASF43:
 4223 0072 50504D43 		.ascii	"PPMCounter_WritePeriod\000"
ARM GAS  C:\Users\SNFU\AppData\Local\Temp\ccpcIp9g.s 			page 100


 4223      6F756E74 
 4223      65725F57 
 4223      72697465 
 4223      50657269 
 4224              	.LASF44:
 4225 0089 70657269 		.ascii	"period\000"
 4225      6F6400
 4226              	.LASF7:
 4227 0090 6C6F6E67 		.ascii	"long long unsigned int\000"
 4227      206C6F6E 
 4227      6720756E 
 4227      7369676E 
 4227      65642069 
 4228              	.LASF27:
 4229 00a7 50504D43 		.ascii	"PPMCounter_SetOneShot\000"
 4229      6F756E74 
 4229      65725F53 
 4229      65744F6E 
 4229      6553686F 
 4230              	.LASF24:
 4231 00bd 71644D6F 		.ascii	"qdMode\000"
 4231      646500
 4232              	.LASF72:
 4233 00c4 50504D43 		.ascii	"PPMCounter_GetInterruptSourceMasked\000"
 4233      6F756E74 
 4233      65725F47 
 4233      6574496E 
 4233      74657272 
 4234              	.LASF61:
 4235 00e8 50504D43 		.ascii	"PPMCounter_SetCaptureMode\000"
 4235      6F756E74 
 4235      65725F53 
 4235      65744361 
 4235      70747572 
 4236              	.LASF6:
 4237 0102 6C6F6E67 		.ascii	"long long int\000"
 4237      206C6F6E 
 4237      6720696E 
 4237      7400
 4238              	.LASF0:
 4239 0110 7369676E 		.ascii	"signed char\000"
 4239      65642063 
 4239      68617200 
 4240              	.LASF39:
 4241 011c 50504D43 		.ascii	"PPMCounter_WriteCounter\000"
 4241      6F756E74 
 4241      65725F57 
 4241      72697465 
 4241      436F756E 
 4242              	.LASF73:
 4243 0134 50504D43 		.ascii	"PPMCounter_GetInterruptSource\000"
 4243      6F756E74 
 4243      65725F47 
 4243      6574496E 
 4243      74657272 
 4244              	.LASF19:
 4245 0152 50504D43 		.ascii	"PPMCounter_Stop\000"
ARM GAS  C:\Users\SNFU\AppData\Local\Temp\ccpcIp9g.s 			page 101


 4245      6F756E74 
 4245      65725F53 
 4245      746F7000 
 4246              	.LASF4:
 4247 0162 6C6F6E67 		.ascii	"long int\000"
 4247      20696E74 
 4247      00
 4248              	.LASF47:
 4249 016b 50504D43 		.ascii	"PPMCounter_SetCompareSwap\000"
 4249      6F756E74 
 4249      65725F53 
 4249      6574436F 
 4249      6D706172 
 4250              	.LASF70:
 4251 0185 50504D43 		.ascii	"PPMCounter_SetInterruptMode\000"
 4251      6F756E74 
 4251      65725F53 
 4251      6574496E 
 4251      74657272 
 4252              	.LASF59:
 4253 01a1 50504D43 		.ascii	"PPMCounter_ReadCapture\000"
 4253      6F756E74 
 4253      65725F52 
 4253      65616443 
 4253      61707475 
 4254              	.LASF9:
 4255 01b8 75696E74 		.ascii	"uint8\000"
 4255      3800
 4256              	.LASF21:
 4257 01be 50504D43 		.ascii	"PPMCounter_SetMode\000"
 4257      6F756E74 
 4257      65725F53 
 4257      65744D6F 
 4257      646500
 4258              	.LASF12:
 4259 01d1 646F7562 		.ascii	"double\000"
 4259      6C6500
 4260              	.LASF10:
 4261 01d8 75696E74 		.ascii	"uint32\000"
 4261      333200
 4262              	.LASF62:
 4263 01df 74726967 		.ascii	"triggerMode\000"
 4263      6765724D 
 4263      6F646500 
 4264              	.LASF38:
 4265 01eb 6D61736B 		.ascii	"mask\000"
 4265      00
 4266              	.LASF31:
 4267 01f0 50504D43 		.ascii	"PPMCounter_SetPWMSyncKill\000"
 4267      6F756E74 
 4267      65725F53 
 4267      65745057 
 4267      4D53796E 
 4268              	.LASF37:
 4269 020a 50504D43 		.ascii	"PPMCounter_SetPWMInvert\000"
 4269      6F756E74 
 4269      65725F53 
ARM GAS  C:\Users\SNFU\AppData\Local\Temp\ccpcIp9g.s 			page 102


 4269      65745057 
 4269      4D496E76 
 4270              	.LASF36:
 4271 0222 64656164 		.ascii	"deadTime\000"
 4271      54696D65 
 4271      00
 4272              	.LASF8:
 4273 022b 756E7369 		.ascii	"unsigned int\000"
 4273      676E6564 
 4273      20696E74 
 4273      00
 4274              	.LASF68:
 4275 0238 636F6D6D 		.ascii	"command\000"
 4275      616E6400 
 4276              	.LASF78:
 4277 0240 433A5C55 		.ascii	"C:\\Users\\SNFU\\Documents\\T-50_Project\\Software\\"
 4277      73657273 
 4277      5C534E46 
 4277      555C446F 
 4277      63756D65 
 4278 026e 542D3530 		.ascii	"T-50_Project\\T-50_Project.cydsn\000"
 4278      5F50726F 
 4278      6A656374 
 4278      5C542D35 
 4278      305F5072 
 4279              	.LASF5:
 4280 028e 6C6F6E67 		.ascii	"long unsigned int\000"
 4280      20756E73 
 4280      69676E65 
 4280      6420696E 
 4280      7400
 4281              	.LASF30:
 4282 02a0 6D6F6465 		.ascii	"modeMask\000"
 4282      4D61736B 
 4282      00
 4283              	.LASF3:
 4284 02a9 73686F72 		.ascii	"short unsigned int\000"
 4284      7420756E 
 4284      7369676E 
 4284      65642069 
 4284      6E7400
 4285              	.LASF67:
 4286 02bc 50504D43 		.ascii	"PPMCounter_TriggerCommand\000"
 4286      6F756E74 
 4286      65725F54 
 4286      72696767 
 4286      6572436F 
 4287              	.LASF28:
 4288 02d6 6F6E6553 		.ascii	"oneShotEnable\000"
 4288      686F7445 
 4288      6E61626C 
 4288      6500
 4289              	.LASF45:
 4290 02e4 50504D43 		.ascii	"PPMCounter_ReadCounter\000"
 4290      6F756E74 
 4290      65725F52 
 4290      65616443 
ARM GAS  C:\Users\SNFU\AppData\Local\Temp\ccpcIp9g.s 			page 103


 4290      6F756E74 
 4291              	.LASF17:
 4292 02fb 50504D43 		.ascii	"PPMCounter_Start\000"
 4292      6F756E74 
 4292      65725F53 
 4292      74617274 
 4292      00
 4293              	.LASF25:
 4294 030c 50504D43 		.ascii	"PPMCounter_SetPrescaler\000"
 4294      6F756E74 
 4294      65725F53 
 4294      65745072 
 4294      65736361 
 4295              	.LASF14:
 4296 0324 72656733 		.ascii	"reg32\000"
 4296      3200
 4297              	.LASF22:
 4298 032a 50504D43 		.ascii	"PPMCounter_SetQDMode\000"
 4298      6F756E74 
 4298      65725F53 
 4298      65745144 
 4298      4D6F6465 
 4299              	.LASF15:
 4300 033f 73697A65 		.ascii	"sizetype\000"
 4300      74797065 
 4300      00
 4301              	.LASF74:
 4302 0348 50504D43 		.ascii	"PPMCounter_ClearInterrupt\000"
 4302      6F756E74 
 4302      65725F43 
 4302      6C656172 
 4302      496E7465 
 4303              	.LASF32:
 4304 0362 73796E63 		.ascii	"syncKillEnable\000"
 4304      4B696C6C 
 4304      456E6162 
 4304      6C6500
 4305              	.LASF29:
 4306 0371 50504D43 		.ascii	"PPMCounter_SetPWMMode\000"
 4306      6F756E74 
 4306      65725F53 
 4306      65745057 
 4306      4D4D6F64 
 4307              	.LASF18:
 4308 0387 50504D43 		.ascii	"PPMCounter_Enable\000"
 4308      6F756E74 
 4308      65725F45 
 4308      6E61626C 
 4308      6500
 4309              	.LASF54:
 4310 0399 636F6D70 		.ascii	"compare\000"
 4310      61726500 
 4311              	.LASF56:
 4312 03a1 50504D43 		.ascii	"PPMCounter_WriteCompareBuf\000"
 4312      6F756E74 
 4312      65725F57 
 4312      72697465 
ARM GAS  C:\Users\SNFU\AppData\Local\Temp\ccpcIp9g.s 			page 104


 4312      436F6D70 
 4313              	.LASF55:
 4314 03bc 50504D43 		.ascii	"PPMCounter_ReadCompare\000"
 4314      6F756E74 
 4314      65725F52 
 4314      65616443 
 4314      6F6D7061 
 4315              	.LASF16:
 4316 03d3 50504D43 		.ascii	"PPMCounter_Init\000"
 4316      6F756E74 
 4316      65725F49 
 4316      6E697400 
 4317              	.LASF11:
 4318 03e3 666C6F61 		.ascii	"float\000"
 4318      7400
 4319              	.LASF26:
 4320 03e9 70726573 		.ascii	"prescaler\000"
 4320      63616C65 
 4320      7200
 4321              	.LASF65:
 4322 03f3 50504D43 		.ascii	"PPMCounter_SetStopMode\000"
 4322      6F756E74 
 4322      65725F53 
 4322      65745374 
 4322      6F704D6F 
 4323              	.LASF52:
 4324 040a 50504D43 		.ascii	"PPMCounter_SetPeriodSwap\000"
 4324      6F756E74 
 4324      65725F53 
 4324      65745065 
 4324      72696F64 
 4325              	.LASF76:
 4326 0423 474E5520 		.ascii	"GNU C 4.7.3 20130312 (release) [ARM/embedded-4_7-br"
 4326      4320342E 
 4326      372E3320 
 4326      32303133 
 4326      30333132 
 4327 0456 616E6368 		.ascii	"anch revision 196615]\000"
 4327      20726576 
 4327      6973696F 
 4327      6E203139 
 4327      36363135 
 4328              	.LASF1:
 4329 046c 756E7369 		.ascii	"unsigned char\000"
 4329      676E6564 
 4329      20636861 
 4329      7200
 4330              	.LASF34:
 4331 047a 73746F70 		.ascii	"stopOnKillEnable\000"
 4331      4F6E4B69 
 4331      6C6C456E 
 4331      61626C65 
 4331      00
 4332              	.LASF2:
 4333 048b 73686F72 		.ascii	"short int\000"
 4333      7420696E 
 4333      7400
ARM GAS  C:\Users\SNFU\AppData\Local\Temp\ccpcIp9g.s 			page 105


 4334              	.LASF71:
 4335 0495 696E7465 		.ascii	"interruptMask\000"
 4335      72727570 
 4335      744D6173 
 4335      6B00
 4336              	.LASF49:
 4337 04a3 50504D43 		.ascii	"PPMCounter_WritePeriodBuf\000"
 4337      6F756E74 
 4337      65725F57 
 4337      72697465 
 4337      50657269 
 4338              	.LASF13:
 4339 04bd 63686172 		.ascii	"char\000"
 4339      00
 4340              	.LASF23:
 4341 04c2 6D6F6465 		.ascii	"mode\000"
 4341      00
 4342              	.LASF63:
 4343 04c7 50504D43 		.ascii	"PPMCounter_SetReloadMode\000"
 4343      6F756E74 
 4343      65725F53 
 4343      65745265 
 4343      6C6F6164 
 4344              	.LASF42:
 4345 04e0 636F756E 		.ascii	"counterMode\000"
 4345      7465724D 
 4345      6F646500 
 4346              	.LASF79:
 4347 04ec 50504D43 		.ascii	"PPMCounter_initVar\000"
 4347      6F756E74 
 4347      65725F69 
 4347      6E697456 
 4347      617200
 4348              	.LASF60:
 4349 04ff 50504D43 		.ascii	"PPMCounter_ReadCaptureBuf\000"
 4349      6F756E74 
 4349      65725F52 
 4349      65616443 
 4349      61707475 
 4350              	.LASF75:
 4351 0519 50504D43 		.ascii	"PPMCounter_SetInterrupt\000"
 4351      6F756E74 
 4351      65725F53 
 4351      6574496E 
 4351      74657272 
 4352              	.LASF57:
 4353 0531 636F6D70 		.ascii	"compareBuf\000"
 4353      61726542 
 4353      756600
 4354              	.LASF69:
 4355 053c 50504D43 		.ascii	"PPMCounter_ReadStatus\000"
 4355      6F756E74 
 4355      65725F52 
 4355      65616453 
 4355      74617475 
 4356              	.LASF51:
 4357 0552 50504D43 		.ascii	"PPMCounter_ReadPeriodBuf\000"
ARM GAS  C:\Users\SNFU\AppData\Local\Temp\ccpcIp9g.s 			page 106


 4357      6F756E74 
 4357      65725F52 
 4357      65616450 
 4357      6572696F 
 4358              	.LASF20:
 4359 056b 656E6162 		.ascii	"enableInterrupts\000"
 4359      6C65496E 
 4359      74657272 
 4359      75707473 
 4359      00
 4360              	.LASF58:
 4361 057c 50504D43 		.ascii	"PPMCounter_ReadCompareBuf\000"
 4361      6F756E74 
 4361      65725F52 
 4361      65616443 
 4361      6F6D7061 
 4362              	.LASF35:
 4363 0596 50504D43 		.ascii	"PPMCounter_SetPWMDeadTime\000"
 4363      6F756E74 
 4363      65725F53 
 4363      65745057 
 4363      4D446561 
 4364              	.LASF48:
 4365 05b0 73776170 		.ascii	"swapEnable\000"
 4365      456E6162 
 4365      6C6500
 4366              	.LASF66:
 4367 05bb 50504D43 		.ascii	"PPMCounter_SetCountMode\000"
 4367      6F756E74 
 4367      65725F53 
 4367      6574436F 
 4367      756E744D 
 4368              	.LASF41:
 4369 05d3 50504D43 		.ascii	"PPMCounter_SetCounterMode\000"
 4369      6F756E74 
 4369      65725F53 
 4369      6574436F 
 4369      756E7465 
 4370              	.LASF33:
 4371 05ed 50504D43 		.ascii	"PPMCounter_SetPWMStopOnKill\000"
 4371      6F756E74 
 4371      65725F53 
 4371      65745057 
 4371      4D53746F 
 4372              	.LASF50:
 4373 0609 70657269 		.ascii	"periodBuf\000"
 4373      6F644275 
 4373      6600
 4374              		.ident	"GCC: (GNU Tools for ARM Embedded Processors) 4.7.3 20130312 (release) [ARM/embedded-4_7-br
