ARM GAS  C:\Users\SNFU\AppData\Local\Temp\ccF4hLQY.s 			page 1


   1              		.cpu cortex-m0
   2              		.fpu softvfp
   3              		.eabi_attribute 20, 1
   4              		.eabi_attribute 21, 1
   5              		.eabi_attribute 23, 3
   6              		.eabi_attribute 24, 1
   7              		.eabi_attribute 25, 1
   8              		.eabi_attribute 26, 1
   9              		.eabi_attribute 30, 6
  10              		.eabi_attribute 34, 0
  11              		.eabi_attribute 18, 4
  12              		.code	16
  13              		.file	"PPMISR.c"
  14              		.text
  15              	.Ltext0:
  16              		.cfi_sections	.debug_frame
  17              		.section	.text.PPMISR_Start,"ax",%progbits
  18              		.align	2
  19              		.global	PPMISR_Start
  20              		.code	16
  21              		.thumb_func
  22              		.type	PPMISR_Start, %function
  23              	PPMISR_Start:
  24              	.LFB33:
  25              		.file 1 ".\\Generated_Source\\PSoC4\\PPMISR.c"
   1:.\Generated_Source\PSoC4/PPMISR.c **** /*******************************************************************************
   2:.\Generated_Source\PSoC4/PPMISR.c **** * File Name: PPMISR.c  
   3:.\Generated_Source\PSoC4/PPMISR.c **** * Version 1.70
   4:.\Generated_Source\PSoC4/PPMISR.c **** *
   5:.\Generated_Source\PSoC4/PPMISR.c **** *  Description:
   6:.\Generated_Source\PSoC4/PPMISR.c **** *   API for controlling the state of an interrupt.
   7:.\Generated_Source\PSoC4/PPMISR.c **** *
   8:.\Generated_Source\PSoC4/PPMISR.c **** *
   9:.\Generated_Source\PSoC4/PPMISR.c **** *  Note:
  10:.\Generated_Source\PSoC4/PPMISR.c **** *
  11:.\Generated_Source\PSoC4/PPMISR.c **** ********************************************************************************
  12:.\Generated_Source\PSoC4/PPMISR.c **** * Copyright 2008-2012, Cypress Semiconductor Corporation.  All rights reserved.
  13:.\Generated_Source\PSoC4/PPMISR.c **** * You may use this file only in accordance with the license, terms, conditions, 
  14:.\Generated_Source\PSoC4/PPMISR.c **** * disclaimers, and limitations in the end user license agreement accompanying 
  15:.\Generated_Source\PSoC4/PPMISR.c **** * the software package with which this file was provided.
  16:.\Generated_Source\PSoC4/PPMISR.c **** *******************************************************************************/
  17:.\Generated_Source\PSoC4/PPMISR.c **** 
  18:.\Generated_Source\PSoC4/PPMISR.c **** 
  19:.\Generated_Source\PSoC4/PPMISR.c **** #include <cydevice_trm.h>
  20:.\Generated_Source\PSoC4/PPMISR.c **** #include <CyLib.h>
  21:.\Generated_Source\PSoC4/PPMISR.c **** #include <PPMISR.h>
  22:.\Generated_Source\PSoC4/PPMISR.c **** 
  23:.\Generated_Source\PSoC4/PPMISR.c **** #if !defined(PPMISR__REMOVED) /* Check for removal by optimization */
  24:.\Generated_Source\PSoC4/PPMISR.c **** 
  25:.\Generated_Source\PSoC4/PPMISR.c **** /*******************************************************************************
  26:.\Generated_Source\PSoC4/PPMISR.c **** *  Place your includes, defines and code here 
  27:.\Generated_Source\PSoC4/PPMISR.c **** ********************************************************************************/
  28:.\Generated_Source\PSoC4/PPMISR.c **** /* `#START PPMISR_intc` */
  29:.\Generated_Source\PSoC4/PPMISR.c **** #include <project.h>
  30:.\Generated_Source\PSoC4/PPMISR.c ****     
  31:.\Generated_Source\PSoC4/PPMISR.c **** extern uint8_t PPM_channel;     // input channel variable
  32:.\Generated_Source\PSoC4/PPMISR.c **** extern uint16_t ctrl_in[];      // input control vector
ARM GAS  C:\Users\SNFU\AppData\Local\Temp\ccF4hLQY.s 			page 2


  33:.\Generated_Source\PSoC4/PPMISR.c **** extern uint8_t overflow;        // overflow from the PPMRstISR    
  34:.\Generated_Source\PSoC4/PPMISR.c **** /* `#END` */
  35:.\Generated_Source\PSoC4/PPMISR.c **** 
  36:.\Generated_Source\PSoC4/PPMISR.c **** extern cyisraddress CyRamVectors[CYINT_IRQ_BASE + CY_NUM_INTERRUPTS];
  37:.\Generated_Source\PSoC4/PPMISR.c **** 
  38:.\Generated_Source\PSoC4/PPMISR.c **** /* Declared in startup, used to set unused interrupts to. */
  39:.\Generated_Source\PSoC4/PPMISR.c **** CY_ISR_PROTO(IntDefaultHandler);
  40:.\Generated_Source\PSoC4/PPMISR.c **** 
  41:.\Generated_Source\PSoC4/PPMISR.c **** 
  42:.\Generated_Source\PSoC4/PPMISR.c **** /*******************************************************************************
  43:.\Generated_Source\PSoC4/PPMISR.c **** * Function Name: PPMISR_Start
  44:.\Generated_Source\PSoC4/PPMISR.c **** ********************************************************************************
  45:.\Generated_Source\PSoC4/PPMISR.c **** *
  46:.\Generated_Source\PSoC4/PPMISR.c **** * Summary:
  47:.\Generated_Source\PSoC4/PPMISR.c **** *  Set up the interrupt and enable it.
  48:.\Generated_Source\PSoC4/PPMISR.c **** *
  49:.\Generated_Source\PSoC4/PPMISR.c **** * Parameters:  
  50:.\Generated_Source\PSoC4/PPMISR.c **** *   None
  51:.\Generated_Source\PSoC4/PPMISR.c **** *
  52:.\Generated_Source\PSoC4/PPMISR.c **** * Return:
  53:.\Generated_Source\PSoC4/PPMISR.c **** *   None
  54:.\Generated_Source\PSoC4/PPMISR.c **** *
  55:.\Generated_Source\PSoC4/PPMISR.c **** *******************************************************************************/
  56:.\Generated_Source\PSoC4/PPMISR.c **** void PPMISR_Start(void)
  57:.\Generated_Source\PSoC4/PPMISR.c **** {
  26              		.loc 1 57 0
  27              		.cfi_startproc
  28 0000 80B5     		push	{r7, lr}
  29              	.LCFI0:
  30              		.cfi_def_cfa_offset 8
  31              		.cfi_offset 7, -8
  32              		.cfi_offset 14, -4
  33 0002 00AF     		add	r7, sp, #0
  34              	.LCFI1:
  35              		.cfi_def_cfa_register 7
  58:.\Generated_Source\PSoC4/PPMISR.c ****     /* For all we know the interrupt is active. */
  59:.\Generated_Source\PSoC4/PPMISR.c ****     PPMISR_Disable();
  36              		.loc 1 59 0
  37 0004 FFF7FEFF 		bl	PPMISR_Disable
  60:.\Generated_Source\PSoC4/PPMISR.c **** 
  61:.\Generated_Source\PSoC4/PPMISR.c ****     /* Set the ISR to point to the PPMISR Interrupt. */
  62:.\Generated_Source\PSoC4/PPMISR.c ****     PPMISR_SetVector(&PPMISR_Interrupt);
  38              		.loc 1 62 0
  39 0008 054B     		ldr	r3, .L2
  40 000a 181C     		mov	r0, r3
  41 000c FFF7FEFF 		bl	PPMISR_SetVector
  63:.\Generated_Source\PSoC4/PPMISR.c **** 
  64:.\Generated_Source\PSoC4/PPMISR.c ****     /* Set the priority. */
  65:.\Generated_Source\PSoC4/PPMISR.c ****     PPMISR_SetPriority((uint8)PPMISR_INTC_PRIOR_NUMBER);
  42              		.loc 1 65 0
  43 0010 0320     		mov	r0, #3
  44 0012 FFF7FEFF 		bl	PPMISR_SetPriority
  66:.\Generated_Source\PSoC4/PPMISR.c **** 
  67:.\Generated_Source\PSoC4/PPMISR.c ****     /* Enable it. */
  68:.\Generated_Source\PSoC4/PPMISR.c ****     PPMISR_Enable();
  45              		.loc 1 68 0
  46 0016 FFF7FEFF 		bl	PPMISR_Enable
ARM GAS  C:\Users\SNFU\AppData\Local\Temp\ccF4hLQY.s 			page 3


  69:.\Generated_Source\PSoC4/PPMISR.c **** }
  47              		.loc 1 69 0
  48 001a BD46     		mov	sp, r7
  49              		@ sp needed for prologue
  50 001c 80BD     		pop	{r7, pc}
  51              	.L3:
  52 001e C046     		.align	2
  53              	.L2:
  54 0020 00000000 		.word	PPMISR_Interrupt
  55              		.cfi_endproc
  56              	.LFE33:
  57              		.size	PPMISR_Start, .-PPMISR_Start
  58              		.section	.text.PPMISR_StartEx,"ax",%progbits
  59              		.align	2
  60              		.global	PPMISR_StartEx
  61              		.code	16
  62              		.thumb_func
  63              		.type	PPMISR_StartEx, %function
  64              	PPMISR_StartEx:
  65              	.LFB34:
  70:.\Generated_Source\PSoC4/PPMISR.c **** 
  71:.\Generated_Source\PSoC4/PPMISR.c **** 
  72:.\Generated_Source\PSoC4/PPMISR.c **** /*******************************************************************************
  73:.\Generated_Source\PSoC4/PPMISR.c **** * Function Name: PPMISR_StartEx
  74:.\Generated_Source\PSoC4/PPMISR.c **** ********************************************************************************
  75:.\Generated_Source\PSoC4/PPMISR.c **** *
  76:.\Generated_Source\PSoC4/PPMISR.c **** * Summary:
  77:.\Generated_Source\PSoC4/PPMISR.c **** *  Set up the interrupt and enable it.
  78:.\Generated_Source\PSoC4/PPMISR.c **** *
  79:.\Generated_Source\PSoC4/PPMISR.c **** * Parameters:  
  80:.\Generated_Source\PSoC4/PPMISR.c **** *   address: Address of the ISR to set in the interrupt vector table.
  81:.\Generated_Source\PSoC4/PPMISR.c **** *
  82:.\Generated_Source\PSoC4/PPMISR.c **** * Return:
  83:.\Generated_Source\PSoC4/PPMISR.c **** *   None
  84:.\Generated_Source\PSoC4/PPMISR.c **** *
  85:.\Generated_Source\PSoC4/PPMISR.c **** *******************************************************************************/
  86:.\Generated_Source\PSoC4/PPMISR.c **** void PPMISR_StartEx(cyisraddress address)
  87:.\Generated_Source\PSoC4/PPMISR.c **** {
  66              		.loc 1 87 0
  67              		.cfi_startproc
  68 0000 80B5     		push	{r7, lr}
  69              	.LCFI2:
  70              		.cfi_def_cfa_offset 8
  71              		.cfi_offset 7, -8
  72              		.cfi_offset 14, -4
  73 0002 82B0     		sub	sp, sp, #8
  74              	.LCFI3:
  75              		.cfi_def_cfa_offset 16
  76 0004 00AF     		add	r7, sp, #0
  77              	.LCFI4:
  78              		.cfi_def_cfa_register 7
  79 0006 7860     		str	r0, [r7, #4]
  88:.\Generated_Source\PSoC4/PPMISR.c ****     /* For all we know the interrupt is active. */
  89:.\Generated_Source\PSoC4/PPMISR.c ****     PPMISR_Disable();
  80              		.loc 1 89 0
  81 0008 FFF7FEFF 		bl	PPMISR_Disable
  90:.\Generated_Source\PSoC4/PPMISR.c **** 
ARM GAS  C:\Users\SNFU\AppData\Local\Temp\ccF4hLQY.s 			page 4


  91:.\Generated_Source\PSoC4/PPMISR.c ****     /* Set the ISR to point to the PPMISR Interrupt. */
  92:.\Generated_Source\PSoC4/PPMISR.c ****     PPMISR_SetVector(address);
  82              		.loc 1 92 0
  83 000c 7B68     		ldr	r3, [r7, #4]
  84 000e 181C     		mov	r0, r3
  85 0010 FFF7FEFF 		bl	PPMISR_SetVector
  93:.\Generated_Source\PSoC4/PPMISR.c **** 
  94:.\Generated_Source\PSoC4/PPMISR.c ****     /* Set the priority. */
  95:.\Generated_Source\PSoC4/PPMISR.c ****     PPMISR_SetPriority((uint8)PPMISR_INTC_PRIOR_NUMBER);
  86              		.loc 1 95 0
  87 0014 0320     		mov	r0, #3
  88 0016 FFF7FEFF 		bl	PPMISR_SetPriority
  96:.\Generated_Source\PSoC4/PPMISR.c **** 
  97:.\Generated_Source\PSoC4/PPMISR.c ****     /* Enable it. */
  98:.\Generated_Source\PSoC4/PPMISR.c ****     PPMISR_Enable();
  89              		.loc 1 98 0
  90 001a FFF7FEFF 		bl	PPMISR_Enable
  99:.\Generated_Source\PSoC4/PPMISR.c **** }
  91              		.loc 1 99 0
  92 001e BD46     		mov	sp, r7
  93 0020 02B0     		add	sp, sp, #8
  94              		@ sp needed for prologue
  95 0022 80BD     		pop	{r7, pc}
  96              		.cfi_endproc
  97              	.LFE34:
  98              		.size	PPMISR_StartEx, .-PPMISR_StartEx
  99              		.section	.text.PPMISR_Stop,"ax",%progbits
 100              		.align	2
 101              		.global	PPMISR_Stop
 102              		.code	16
 103              		.thumb_func
 104              		.type	PPMISR_Stop, %function
 105              	PPMISR_Stop:
 106              	.LFB35:
 100:.\Generated_Source\PSoC4/PPMISR.c **** 
 101:.\Generated_Source\PSoC4/PPMISR.c **** 
 102:.\Generated_Source\PSoC4/PPMISR.c **** /*******************************************************************************
 103:.\Generated_Source\PSoC4/PPMISR.c **** * Function Name: PPMISR_Stop
 104:.\Generated_Source\PSoC4/PPMISR.c **** ********************************************************************************
 105:.\Generated_Source\PSoC4/PPMISR.c **** *
 106:.\Generated_Source\PSoC4/PPMISR.c **** * Summary:
 107:.\Generated_Source\PSoC4/PPMISR.c **** *   Disables and removes the interrupt.
 108:.\Generated_Source\PSoC4/PPMISR.c **** *
 109:.\Generated_Source\PSoC4/PPMISR.c **** * Parameters:  
 110:.\Generated_Source\PSoC4/PPMISR.c **** *
 111:.\Generated_Source\PSoC4/PPMISR.c **** * Return:
 112:.\Generated_Source\PSoC4/PPMISR.c **** *   None
 113:.\Generated_Source\PSoC4/PPMISR.c **** *
 114:.\Generated_Source\PSoC4/PPMISR.c **** *******************************************************************************/
 115:.\Generated_Source\PSoC4/PPMISR.c **** void PPMISR_Stop(void)
 116:.\Generated_Source\PSoC4/PPMISR.c **** {
 107              		.loc 1 116 0
 108              		.cfi_startproc
 109 0000 80B5     		push	{r7, lr}
 110              	.LCFI5:
 111              		.cfi_def_cfa_offset 8
 112              		.cfi_offset 7, -8
ARM GAS  C:\Users\SNFU\AppData\Local\Temp\ccF4hLQY.s 			page 5


 113              		.cfi_offset 14, -4
 114 0002 00AF     		add	r7, sp, #0
 115              	.LCFI6:
 116              		.cfi_def_cfa_register 7
 117:.\Generated_Source\PSoC4/PPMISR.c ****     /* Disable this interrupt. */
 118:.\Generated_Source\PSoC4/PPMISR.c ****     PPMISR_Disable();
 117              		.loc 1 118 0
 118 0004 FFF7FEFF 		bl	PPMISR_Disable
 119:.\Generated_Source\PSoC4/PPMISR.c **** 
 120:.\Generated_Source\PSoC4/PPMISR.c ****     /* Set the ISR to point to the passive one. */
 121:.\Generated_Source\PSoC4/PPMISR.c ****     PPMISR_SetVector(&IntDefaultHandler);
 119              		.loc 1 121 0
 120 0008 024B     		ldr	r3, .L6
 121 000a 181C     		mov	r0, r3
 122 000c FFF7FEFF 		bl	PPMISR_SetVector
 122:.\Generated_Source\PSoC4/PPMISR.c **** }
 123              		.loc 1 122 0
 124 0010 BD46     		mov	sp, r7
 125              		@ sp needed for prologue
 126 0012 80BD     		pop	{r7, pc}
 127              	.L7:
 128              		.align	2
 129              	.L6:
 130 0014 00000000 		.word	IntDefaultHandler
 131              		.cfi_endproc
 132              	.LFE35:
 133              		.size	PPMISR_Stop, .-PPMISR_Stop
 134              		.section	.text.PPMISR_Interrupt,"ax",%progbits
 135              		.align	2
 136              		.global	PPMISR_Interrupt
 137              		.code	16
 138              		.thumb_func
 139              		.type	PPMISR_Interrupt, %function
 140              	PPMISR_Interrupt:
 141              	.LFB36:
 123:.\Generated_Source\PSoC4/PPMISR.c **** 
 124:.\Generated_Source\PSoC4/PPMISR.c **** 
 125:.\Generated_Source\PSoC4/PPMISR.c **** /*******************************************************************************
 126:.\Generated_Source\PSoC4/PPMISR.c **** * Function Name: PPMISR_Interrupt
 127:.\Generated_Source\PSoC4/PPMISR.c **** ********************************************************************************
 128:.\Generated_Source\PSoC4/PPMISR.c **** *
 129:.\Generated_Source\PSoC4/PPMISR.c **** * Summary:
 130:.\Generated_Source\PSoC4/PPMISR.c **** *   The default Interrupt Service Routine for PPMISR.
 131:.\Generated_Source\PSoC4/PPMISR.c **** *
 132:.\Generated_Source\PSoC4/PPMISR.c **** *   Add custom code between the coments to keep the next version of this file
 133:.\Generated_Source\PSoC4/PPMISR.c **** *   from over writting your code.
 134:.\Generated_Source\PSoC4/PPMISR.c **** *
 135:.\Generated_Source\PSoC4/PPMISR.c **** * Parameters:  
 136:.\Generated_Source\PSoC4/PPMISR.c **** *   None
 137:.\Generated_Source\PSoC4/PPMISR.c **** *
 138:.\Generated_Source\PSoC4/PPMISR.c **** * Return:
 139:.\Generated_Source\PSoC4/PPMISR.c **** *   None
 140:.\Generated_Source\PSoC4/PPMISR.c **** *
 141:.\Generated_Source\PSoC4/PPMISR.c **** *******************************************************************************/
 142:.\Generated_Source\PSoC4/PPMISR.c **** CY_ISR(PPMISR_Interrupt)
 143:.\Generated_Source\PSoC4/PPMISR.c **** {
 142              		.loc 1 143 0
ARM GAS  C:\Users\SNFU\AppData\Local\Temp\ccF4hLQY.s 			page 6


 143              		.cfi_startproc
 144 0000 98B5     		push	{r3, r4, r7, lr}
 145              	.LCFI7:
 146              		.cfi_def_cfa_offset 16
 147              		.cfi_offset 3, -16
 148              		.cfi_offset 4, -12
 149              		.cfi_offset 7, -8
 150              		.cfi_offset 14, -4
 151 0002 00AF     		add	r7, sp, #0
 152              	.LCFI8:
 153              		.cfi_def_cfa_register 7
 144:.\Generated_Source\PSoC4/PPMISR.c ****     /*  Place your Interrupt code here. */
 145:.\Generated_Source\PSoC4/PPMISR.c ****     /* `#START PPMISR_Interrupt` */
 146:.\Generated_Source\PSoC4/PPMISR.c ****     PPMCounter_ClearInterrupt(PPMCounter_INTR_MASK_CC_MATCH); // clears the interrupt
 154              		.loc 1 146 0
 155 0004 0220     		mov	r0, #2
 156 0006 FFF7FEFF 		bl	PPMCounter_ClearInterrupt
 147:.\Generated_Source\PSoC4/PPMISR.c ****     
 148:.\Generated_Source\PSoC4/PPMISR.c ****     if(overflow == 1) 
 157              		.loc 1 148 0
 158 000a 104B     		ldr	r3, .L11
 159 000c 1B78     		ldrb	r3, [r3]
 160 000e 012B     		cmp	r3, #1
 161 0010 06D1     		bne	.L9
 149:.\Generated_Source\PSoC4/PPMISR.c ****     {
 150:.\Generated_Source\PSoC4/PPMISR.c ****         overflow = 0;
 162              		.loc 1 150 0
 163 0012 0E4B     		ldr	r3, .L11
 164 0014 0022     		mov	r2, #0
 165 0016 1A70     		strb	r2, [r3]
 151:.\Generated_Source\PSoC4/PPMISR.c ****         PPM_channel = 0;
 166              		.loc 1 151 0
 167 0018 0D4B     		ldr	r3, .L11+4
 168 001a 0022     		mov	r2, #0
 169 001c 1A70     		strb	r2, [r3]
 170 001e 0FE0     		b	.L10
 171              	.L9:
 152:.\Generated_Source\PSoC4/PPMISR.c ****     }
 153:.\Generated_Source\PSoC4/PPMISR.c ****     else
 154:.\Generated_Source\PSoC4/PPMISR.c ****     {
 155:.\Generated_Source\PSoC4/PPMISR.c ****         ctrl_in[PPM_channel] =  PPMCounter_ReadCounter();       // Reading the current counter valu
 172              		.loc 1 155 0
 173 0020 0B4B     		ldr	r3, .L11+4
 174 0022 1B78     		ldrb	r3, [r3]
 175 0024 1C1C     		mov	r4, r3
 176 0026 FFF7FEFF 		bl	PPMCounter_ReadCounter
 177 002a 031C     		mov	r3, r0
 178 002c 99B2     		uxth	r1, r3
 179 002e 094B     		ldr	r3, .L11+8
 180 0030 6200     		lsl	r2, r4, #1
 181 0032 D152     		strh	r1, [r2, r3]
 156:.\Generated_Source\PSoC4/PPMISR.c ****         PPM_channel++;
 182              		.loc 1 156 0
 183 0034 064B     		ldr	r3, .L11+4
 184 0036 1B78     		ldrb	r3, [r3]
 185 0038 0133     		add	r3, r3, #1
 186 003a DAB2     		uxtb	r2, r3
ARM GAS  C:\Users\SNFU\AppData\Local\Temp\ccF4hLQY.s 			page 7


 187 003c 044B     		ldr	r3, .L11+4
 188 003e 1A70     		strb	r2, [r3]
 189              	.L10:
 157:.\Generated_Source\PSoC4/PPMISR.c ****     }
 158:.\Generated_Source\PSoC4/PPMISR.c ****     PPMCounter_WriteCounter(0);     // Resetting the counter
 190              		.loc 1 158 0
 191 0040 0020     		mov	r0, #0
 192 0042 FFF7FEFF 		bl	PPMCounter_WriteCounter
 159:.\Generated_Source\PSoC4/PPMISR.c ****     /* `#END` */
 160:.\Generated_Source\PSoC4/PPMISR.c **** }
 193              		.loc 1 160 0
 194 0046 BD46     		mov	sp, r7
 195              		@ sp needed for prologue
 196 0048 98BD     		pop	{r3, r4, r7, pc}
 197              	.L12:
 198 004a C046     		.align	2
 199              	.L11:
 200 004c 00000000 		.word	overflow
 201 0050 00000000 		.word	PPM_channel
 202 0054 00000000 		.word	ctrl_in
 203              		.cfi_endproc
 204              	.LFE36:
 205              		.size	PPMISR_Interrupt, .-PPMISR_Interrupt
 206              		.section	.text.PPMISR_SetVector,"ax",%progbits
 207              		.align	2
 208              		.global	PPMISR_SetVector
 209              		.code	16
 210              		.thumb_func
 211              		.type	PPMISR_SetVector, %function
 212              	PPMISR_SetVector:
 213              	.LFB37:
 161:.\Generated_Source\PSoC4/PPMISR.c **** 
 162:.\Generated_Source\PSoC4/PPMISR.c **** 
 163:.\Generated_Source\PSoC4/PPMISR.c **** /*******************************************************************************
 164:.\Generated_Source\PSoC4/PPMISR.c **** * Function Name: PPMISR_SetVector
 165:.\Generated_Source\PSoC4/PPMISR.c **** ********************************************************************************
 166:.\Generated_Source\PSoC4/PPMISR.c **** *
 167:.\Generated_Source\PSoC4/PPMISR.c **** * Summary:
 168:.\Generated_Source\PSoC4/PPMISR.c **** *   Change the ISR vector for the Interrupt. Note calling PPMISR_Start
 169:.\Generated_Source\PSoC4/PPMISR.c **** *   will override any effect this method would have had. To set the vector 
 170:.\Generated_Source\PSoC4/PPMISR.c **** *   before the component has been started use PPMISR_StartEx instead.
 171:.\Generated_Source\PSoC4/PPMISR.c **** *
 172:.\Generated_Source\PSoC4/PPMISR.c **** * Parameters:
 173:.\Generated_Source\PSoC4/PPMISR.c **** *   address: Address of the ISR to set in the interrupt vector table.
 174:.\Generated_Source\PSoC4/PPMISR.c **** *
 175:.\Generated_Source\PSoC4/PPMISR.c **** * Return:
 176:.\Generated_Source\PSoC4/PPMISR.c **** *   None
 177:.\Generated_Source\PSoC4/PPMISR.c **** *
 178:.\Generated_Source\PSoC4/PPMISR.c **** *******************************************************************************/
 179:.\Generated_Source\PSoC4/PPMISR.c **** void PPMISR_SetVector(cyisraddress address)
 180:.\Generated_Source\PSoC4/PPMISR.c **** {
 214              		.loc 1 180 0
 215              		.cfi_startproc
 216 0000 80B5     		push	{r7, lr}
 217              	.LCFI9:
 218              		.cfi_def_cfa_offset 8
 219              		.cfi_offset 7, -8
ARM GAS  C:\Users\SNFU\AppData\Local\Temp\ccF4hLQY.s 			page 8


 220              		.cfi_offset 14, -4
 221 0002 82B0     		sub	sp, sp, #8
 222              	.LCFI10:
 223              		.cfi_def_cfa_offset 16
 224 0004 00AF     		add	r7, sp, #0
 225              	.LCFI11:
 226              		.cfi_def_cfa_register 7
 227 0006 7860     		str	r0, [r7, #4]
 181:.\Generated_Source\PSoC4/PPMISR.c ****     CyRamVectors[CYINT_IRQ_BASE + PPMISR__INTC_NUMBER] = address;
 228              		.loc 1 181 0
 229 0008 034A     		ldr	r2, .L14
 230 000a 8C23     		mov	r3, #140
 231 000c 7968     		ldr	r1, [r7, #4]
 232 000e D150     		str	r1, [r2, r3]
 182:.\Generated_Source\PSoC4/PPMISR.c **** }
 233              		.loc 1 182 0
 234 0010 BD46     		mov	sp, r7
 235 0012 02B0     		add	sp, sp, #8
 236              		@ sp needed for prologue
 237 0014 80BD     		pop	{r7, pc}
 238              	.L15:
 239 0016 C046     		.align	2
 240              	.L14:
 241 0018 00000000 		.word	CyRamVectors
 242              		.cfi_endproc
 243              	.LFE37:
 244              		.size	PPMISR_SetVector, .-PPMISR_SetVector
 245              		.section	.text.PPMISR_GetVector,"ax",%progbits
 246              		.align	2
 247              		.global	PPMISR_GetVector
 248              		.code	16
 249              		.thumb_func
 250              		.type	PPMISR_GetVector, %function
 251              	PPMISR_GetVector:
 252              	.LFB38:
 183:.\Generated_Source\PSoC4/PPMISR.c **** 
 184:.\Generated_Source\PSoC4/PPMISR.c **** 
 185:.\Generated_Source\PSoC4/PPMISR.c **** /*******************************************************************************
 186:.\Generated_Source\PSoC4/PPMISR.c **** * Function Name: PPMISR_GetVector
 187:.\Generated_Source\PSoC4/PPMISR.c **** ********************************************************************************
 188:.\Generated_Source\PSoC4/PPMISR.c **** *
 189:.\Generated_Source\PSoC4/PPMISR.c **** * Summary:
 190:.\Generated_Source\PSoC4/PPMISR.c **** *   Gets the "address" of the current ISR vector for the Interrupt.
 191:.\Generated_Source\PSoC4/PPMISR.c **** *
 192:.\Generated_Source\PSoC4/PPMISR.c **** * Parameters:
 193:.\Generated_Source\PSoC4/PPMISR.c **** *   None
 194:.\Generated_Source\PSoC4/PPMISR.c **** *
 195:.\Generated_Source\PSoC4/PPMISR.c **** * Return:
 196:.\Generated_Source\PSoC4/PPMISR.c **** *   Address of the ISR in the interrupt vector table.
 197:.\Generated_Source\PSoC4/PPMISR.c **** *
 198:.\Generated_Source\PSoC4/PPMISR.c **** *******************************************************************************/
 199:.\Generated_Source\PSoC4/PPMISR.c **** cyisraddress PPMISR_GetVector(void)
 200:.\Generated_Source\PSoC4/PPMISR.c **** {
 253              		.loc 1 200 0
 254              		.cfi_startproc
 255 0000 80B5     		push	{r7, lr}
 256              	.LCFI12:
ARM GAS  C:\Users\SNFU\AppData\Local\Temp\ccF4hLQY.s 			page 9


 257              		.cfi_def_cfa_offset 8
 258              		.cfi_offset 7, -8
 259              		.cfi_offset 14, -4
 260 0002 00AF     		add	r7, sp, #0
 261              	.LCFI13:
 262              		.cfi_def_cfa_register 7
 201:.\Generated_Source\PSoC4/PPMISR.c ****     return CyRamVectors[CYINT_IRQ_BASE + PPMISR__INTC_NUMBER];
 263              		.loc 1 201 0
 264 0004 024A     		ldr	r2, .L18
 265 0006 8C23     		mov	r3, #140
 266 0008 D358     		ldr	r3, [r2, r3]
 202:.\Generated_Source\PSoC4/PPMISR.c **** }
 267              		.loc 1 202 0
 268 000a 181C     		mov	r0, r3
 269 000c BD46     		mov	sp, r7
 270              		@ sp needed for prologue
 271 000e 80BD     		pop	{r7, pc}
 272              	.L19:
 273              		.align	2
 274              	.L18:
 275 0010 00000000 		.word	CyRamVectors
 276              		.cfi_endproc
 277              	.LFE38:
 278              		.size	PPMISR_GetVector, .-PPMISR_GetVector
 279              		.section	.text.PPMISR_SetPriority,"ax",%progbits
 280              		.align	2
 281              		.global	PPMISR_SetPriority
 282              		.code	16
 283              		.thumb_func
 284              		.type	PPMISR_SetPriority, %function
 285              	PPMISR_SetPriority:
 286              	.LFB39:
 203:.\Generated_Source\PSoC4/PPMISR.c **** 
 204:.\Generated_Source\PSoC4/PPMISR.c **** 
 205:.\Generated_Source\PSoC4/PPMISR.c **** /*******************************************************************************
 206:.\Generated_Source\PSoC4/PPMISR.c **** * Function Name: PPMISR_SetPriority
 207:.\Generated_Source\PSoC4/PPMISR.c **** ********************************************************************************
 208:.\Generated_Source\PSoC4/PPMISR.c **** *
 209:.\Generated_Source\PSoC4/PPMISR.c **** * Summary:
 210:.\Generated_Source\PSoC4/PPMISR.c **** *   Sets the Priority of the Interrupt. Note calling PPMISR_Start
 211:.\Generated_Source\PSoC4/PPMISR.c **** *   or PPMISR_StartEx will override any effect this method would 
 212:.\Generated_Source\PSoC4/PPMISR.c **** *   have had. This method should only be called after PPMISR_Start or 
 213:.\Generated_Source\PSoC4/PPMISR.c **** *   PPMISR_StartEx has been called. To set the initial
 214:.\Generated_Source\PSoC4/PPMISR.c **** *   priority for the component use the cydwr file in the tool.
 215:.\Generated_Source\PSoC4/PPMISR.c **** *
 216:.\Generated_Source\PSoC4/PPMISR.c **** * Parameters:
 217:.\Generated_Source\PSoC4/PPMISR.c **** *   priority: Priority of the interrupt. 0 - 3, 0 being the highest.
 218:.\Generated_Source\PSoC4/PPMISR.c **** *
 219:.\Generated_Source\PSoC4/PPMISR.c **** * Return:
 220:.\Generated_Source\PSoC4/PPMISR.c **** *   None
 221:.\Generated_Source\PSoC4/PPMISR.c **** *
 222:.\Generated_Source\PSoC4/PPMISR.c **** *******************************************************************************/
 223:.\Generated_Source\PSoC4/PPMISR.c **** void PPMISR_SetPriority(uint8 priority)
 224:.\Generated_Source\PSoC4/PPMISR.c **** {
 287              		.loc 1 224 0
 288              		.cfi_startproc
 289 0000 90B5     		push	{r4, r7, lr}
ARM GAS  C:\Users\SNFU\AppData\Local\Temp\ccF4hLQY.s 			page 10


 290              	.LCFI14:
 291              		.cfi_def_cfa_offset 12
 292              		.cfi_offset 4, -12
 293              		.cfi_offset 7, -8
 294              		.cfi_offset 14, -4
 295 0002 85B0     		sub	sp, sp, #20
 296              	.LCFI15:
 297              		.cfi_def_cfa_offset 32
 298 0004 00AF     		add	r7, sp, #0
 299              	.LCFI16:
 300              		.cfi_def_cfa_register 7
 301 0006 021C     		mov	r2, r0
 302 0008 FB1D     		add	r3, r7, #7
 303 000a 1A70     		strb	r2, [r3]
 225:.\Generated_Source\PSoC4/PPMISR.c **** 	uint8 interruptState;
 226:.\Generated_Source\PSoC4/PPMISR.c ****     uint32 priorityOffset = ((PPMISR__INTC_NUMBER % 4u) * 8u) + 6u;
 304              		.loc 1 226 0
 305 000c 1E23     		mov	r3, #30
 306 000e FB60     		str	r3, [r7, #12]
 227:.\Generated_Source\PSoC4/PPMISR.c ****     
 228:.\Generated_Source\PSoC4/PPMISR.c **** 	interruptState = CyEnterCriticalSection();
 307              		.loc 1 228 0
 308 0010 3C1C     		mov	r4, r7
 309 0012 0B34     		add	r4, r4, #11
 310 0014 FFF7FEFF 		bl	CyEnterCriticalSection
 311 0018 031C     		mov	r3, r0
 312 001a 2370     		strb	r3, [r4]
 229:.\Generated_Source\PSoC4/PPMISR.c ****     *PPMISR_INTC_PRIOR = (*PPMISR_INTC_PRIOR & (uint32)(~PPMISR__INTC_PRIOR_MASK)) |
 313              		.loc 1 229 0
 314 001c 0A4B     		ldr	r3, .L21
 315 001e 0A4A     		ldr	r2, .L21
 316 0020 1268     		ldr	r2, [r2]
 317 0022 9200     		lsl	r2, r2, #2
 318 0024 9108     		lsr	r1, r2, #2
 230:.\Generated_Source\PSoC4/PPMISR.c ****                                     ((uint32)priority << priorityOffset);
 319              		.loc 1 230 0
 320 0026 FA1D     		add	r2, r7, #7
 321 0028 1078     		ldrb	r0, [r2]
 322 002a FA68     		ldr	r2, [r7, #12]
 323 002c 041C     		mov	r4, r0
 324 002e 9440     		lsl	r4, r4, r2
 325 0030 221C     		mov	r2, r4
 229:.\Generated_Source\PSoC4/PPMISR.c ****     *PPMISR_INTC_PRIOR = (*PPMISR_INTC_PRIOR & (uint32)(~PPMISR__INTC_PRIOR_MASK)) |
 326              		.loc 1 229 0
 327 0032 0A43     		orr	r2, r1
 328 0034 1A60     		str	r2, [r3]
 231:.\Generated_Source\PSoC4/PPMISR.c **** 	CyExitCriticalSection(interruptState);
 329              		.loc 1 231 0
 330 0036 3B1C     		mov	r3, r7
 331 0038 0B33     		add	r3, r3, #11
 332 003a 1B78     		ldrb	r3, [r3]
 333 003c 181C     		mov	r0, r3
 334 003e FFF7FEFF 		bl	CyExitCriticalSection
 232:.\Generated_Source\PSoC4/PPMISR.c **** }
 335              		.loc 1 232 0
 336 0042 BD46     		mov	sp, r7
 337 0044 05B0     		add	sp, sp, #20
ARM GAS  C:\Users\SNFU\AppData\Local\Temp\ccF4hLQY.s 			page 11


 338              		@ sp needed for prologue
 339 0046 90BD     		pop	{r4, r7, pc}
 340              	.L22:
 341              		.align	2
 342              	.L21:
 343 0048 10E400E0 		.word	-536812528
 344              		.cfi_endproc
 345              	.LFE39:
 346              		.size	PPMISR_SetPriority, .-PPMISR_SetPriority
 347              		.section	.text.PPMISR_GetPriority,"ax",%progbits
 348              		.align	2
 349              		.global	PPMISR_GetPriority
 350              		.code	16
 351              		.thumb_func
 352              		.type	PPMISR_GetPriority, %function
 353              	PPMISR_GetPriority:
 354              	.LFB40:
 233:.\Generated_Source\PSoC4/PPMISR.c **** 
 234:.\Generated_Source\PSoC4/PPMISR.c **** 
 235:.\Generated_Source\PSoC4/PPMISR.c **** /*******************************************************************************
 236:.\Generated_Source\PSoC4/PPMISR.c **** * Function Name: PPMISR_GetPriority
 237:.\Generated_Source\PSoC4/PPMISR.c **** ********************************************************************************
 238:.\Generated_Source\PSoC4/PPMISR.c **** *
 239:.\Generated_Source\PSoC4/PPMISR.c **** * Summary:
 240:.\Generated_Source\PSoC4/PPMISR.c **** *   Gets the Priority of the Interrupt.
 241:.\Generated_Source\PSoC4/PPMISR.c **** *
 242:.\Generated_Source\PSoC4/PPMISR.c **** * Parameters:
 243:.\Generated_Source\PSoC4/PPMISR.c **** *   None
 244:.\Generated_Source\PSoC4/PPMISR.c **** *
 245:.\Generated_Source\PSoC4/PPMISR.c **** * Return:
 246:.\Generated_Source\PSoC4/PPMISR.c **** *   Priority of the interrupt. 0 - 3, 0 being the highest.
 247:.\Generated_Source\PSoC4/PPMISR.c **** *
 248:.\Generated_Source\PSoC4/PPMISR.c **** *******************************************************************************/
 249:.\Generated_Source\PSoC4/PPMISR.c **** uint8 PPMISR_GetPriority(void)
 250:.\Generated_Source\PSoC4/PPMISR.c **** {
 355              		.loc 1 250 0
 356              		.cfi_startproc
 357 0000 80B5     		push	{r7, lr}
 358              	.LCFI17:
 359              		.cfi_def_cfa_offset 8
 360              		.cfi_offset 7, -8
 361              		.cfi_offset 14, -4
 362 0002 82B0     		sub	sp, sp, #8
 363              	.LCFI18:
 364              		.cfi_def_cfa_offset 16
 365 0004 00AF     		add	r7, sp, #0
 366              	.LCFI19:
 367              		.cfi_def_cfa_register 7
 251:.\Generated_Source\PSoC4/PPMISR.c ****     uint32 priority;
 252:.\Generated_Source\PSoC4/PPMISR.c **** 	uint32 priorityOffset = ((PPMISR__INTC_NUMBER % 4u) * 8u) + 6u;
 368              		.loc 1 252 0
 369 0006 1E23     		mov	r3, #30
 370 0008 7B60     		str	r3, [r7, #4]
 253:.\Generated_Source\PSoC4/PPMISR.c **** 
 254:.\Generated_Source\PSoC4/PPMISR.c ****     priority = (*PPMISR_INTC_PRIOR & PPMISR__INTC_PRIOR_MASK) >> priorityOffset;
 371              		.loc 1 254 0
 372 000a 074B     		ldr	r3, .L25
ARM GAS  C:\Users\SNFU\AppData\Local\Temp\ccF4hLQY.s 			page 12


 373 000c 1B68     		ldr	r3, [r3]
 374 000e 9B0F     		lsr	r3, r3, #30
 375 0010 9A07     		lsl	r2, r3, #30
 376 0012 7B68     		ldr	r3, [r7, #4]
 377 0014 111C     		mov	r1, r2
 378 0016 D940     		lsr	r1, r1, r3
 379 0018 0B1C     		mov	r3, r1
 380 001a 3B60     		str	r3, [r7]
 255:.\Generated_Source\PSoC4/PPMISR.c **** 
 256:.\Generated_Source\PSoC4/PPMISR.c ****     return (uint8)priority;
 381              		.loc 1 256 0
 382 001c 3B68     		ldr	r3, [r7]
 383 001e DBB2     		uxtb	r3, r3
 257:.\Generated_Source\PSoC4/PPMISR.c **** }
 384              		.loc 1 257 0
 385 0020 181C     		mov	r0, r3
 386 0022 BD46     		mov	sp, r7
 387 0024 02B0     		add	sp, sp, #8
 388              		@ sp needed for prologue
 389 0026 80BD     		pop	{r7, pc}
 390              	.L26:
 391              		.align	2
 392              	.L25:
 393 0028 10E400E0 		.word	-536812528
 394              		.cfi_endproc
 395              	.LFE40:
 396              		.size	PPMISR_GetPriority, .-PPMISR_GetPriority
 397              		.section	.text.PPMISR_Enable,"ax",%progbits
 398              		.align	2
 399              		.global	PPMISR_Enable
 400              		.code	16
 401              		.thumb_func
 402              		.type	PPMISR_Enable, %function
 403              	PPMISR_Enable:
 404              	.LFB41:
 258:.\Generated_Source\PSoC4/PPMISR.c **** 
 259:.\Generated_Source\PSoC4/PPMISR.c **** 
 260:.\Generated_Source\PSoC4/PPMISR.c **** /*******************************************************************************
 261:.\Generated_Source\PSoC4/PPMISR.c **** * Function Name: PPMISR_Enable
 262:.\Generated_Source\PSoC4/PPMISR.c **** ********************************************************************************
 263:.\Generated_Source\PSoC4/PPMISR.c **** *
 264:.\Generated_Source\PSoC4/PPMISR.c **** * Summary:
 265:.\Generated_Source\PSoC4/PPMISR.c **** *   Enables the interrupt.
 266:.\Generated_Source\PSoC4/PPMISR.c **** *
 267:.\Generated_Source\PSoC4/PPMISR.c **** * Parameters:
 268:.\Generated_Source\PSoC4/PPMISR.c **** *   None
 269:.\Generated_Source\PSoC4/PPMISR.c **** *
 270:.\Generated_Source\PSoC4/PPMISR.c **** * Return:
 271:.\Generated_Source\PSoC4/PPMISR.c **** *   None
 272:.\Generated_Source\PSoC4/PPMISR.c **** *
 273:.\Generated_Source\PSoC4/PPMISR.c **** *******************************************************************************/
 274:.\Generated_Source\PSoC4/PPMISR.c **** void PPMISR_Enable(void)
 275:.\Generated_Source\PSoC4/PPMISR.c **** {
 405              		.loc 1 275 0
 406              		.cfi_startproc
 407 0000 80B5     		push	{r7, lr}
 408              	.LCFI20:
ARM GAS  C:\Users\SNFU\AppData\Local\Temp\ccF4hLQY.s 			page 13


 409              		.cfi_def_cfa_offset 8
 410              		.cfi_offset 7, -8
 411              		.cfi_offset 14, -4
 412 0002 00AF     		add	r7, sp, #0
 413              	.LCFI21:
 414              		.cfi_def_cfa_register 7
 276:.\Generated_Source\PSoC4/PPMISR.c ****     /* Enable the general interrupt. */
 277:.\Generated_Source\PSoC4/PPMISR.c ****     *PPMISR_INTC_SET_EN = PPMISR__INTC_MASK;
 415              		.loc 1 277 0
 416 0004 024B     		ldr	r3, .L28
 417 0006 8022     		mov	r2, #128
 418 0008 1203     		lsl	r2, r2, #12
 419 000a 1A60     		str	r2, [r3]
 278:.\Generated_Source\PSoC4/PPMISR.c **** }
 420              		.loc 1 278 0
 421 000c BD46     		mov	sp, r7
 422              		@ sp needed for prologue
 423 000e 80BD     		pop	{r7, pc}
 424              	.L29:
 425              		.align	2
 426              	.L28:
 427 0010 00E100E0 		.word	-536813312
 428              		.cfi_endproc
 429              	.LFE41:
 430              		.size	PPMISR_Enable, .-PPMISR_Enable
 431              		.section	.text.PPMISR_GetState,"ax",%progbits
 432              		.align	2
 433              		.global	PPMISR_GetState
 434              		.code	16
 435              		.thumb_func
 436              		.type	PPMISR_GetState, %function
 437              	PPMISR_GetState:
 438              	.LFB42:
 279:.\Generated_Source\PSoC4/PPMISR.c **** 
 280:.\Generated_Source\PSoC4/PPMISR.c **** 
 281:.\Generated_Source\PSoC4/PPMISR.c **** /*******************************************************************************
 282:.\Generated_Source\PSoC4/PPMISR.c **** * Function Name: PPMISR_GetState
 283:.\Generated_Source\PSoC4/PPMISR.c **** ********************************************************************************
 284:.\Generated_Source\PSoC4/PPMISR.c **** *
 285:.\Generated_Source\PSoC4/PPMISR.c **** * Summary:
 286:.\Generated_Source\PSoC4/PPMISR.c **** *   Gets the state (enabled, disabled) of the Interrupt.
 287:.\Generated_Source\PSoC4/PPMISR.c **** *
 288:.\Generated_Source\PSoC4/PPMISR.c **** * Parameters:
 289:.\Generated_Source\PSoC4/PPMISR.c **** *   None
 290:.\Generated_Source\PSoC4/PPMISR.c **** *
 291:.\Generated_Source\PSoC4/PPMISR.c **** * Return:
 292:.\Generated_Source\PSoC4/PPMISR.c **** *   1 if enabled, 0 if disabled.
 293:.\Generated_Source\PSoC4/PPMISR.c **** *
 294:.\Generated_Source\PSoC4/PPMISR.c **** *******************************************************************************/
 295:.\Generated_Source\PSoC4/PPMISR.c **** uint8 PPMISR_GetState(void)
 296:.\Generated_Source\PSoC4/PPMISR.c **** {
 439              		.loc 1 296 0
 440              		.cfi_startproc
 441 0000 80B5     		push	{r7, lr}
 442              	.LCFI22:
 443              		.cfi_def_cfa_offset 8
 444              		.cfi_offset 7, -8
ARM GAS  C:\Users\SNFU\AppData\Local\Temp\ccF4hLQY.s 			page 14


 445              		.cfi_offset 14, -4
 446 0002 00AF     		add	r7, sp, #0
 447              	.LCFI23:
 448              		.cfi_def_cfa_register 7
 297:.\Generated_Source\PSoC4/PPMISR.c ****     /* Get the state of the general interrupt. */
 298:.\Generated_Source\PSoC4/PPMISR.c ****     return ((*PPMISR_INTC_SET_EN & (uint32)PPMISR__INTC_MASK) != 0u) ? 1u:0u;
 449              		.loc 1 298 0
 450 0004 054B     		ldr	r3, .L34
 451 0006 1A68     		ldr	r2, [r3]
 452 0008 8023     		mov	r3, #128
 453 000a 1B03     		lsl	r3, r3, #12
 454 000c 1340     		and	r3, r2
 455 000e 01D0     		beq	.L31
 456              		.loc 1 298 0 is_stmt 0 discriminator 1
 457 0010 0123     		mov	r3, #1
 458 0012 00E0     		b	.L32
 459              	.L31:
 460              		.loc 1 298 0 discriminator 2
 461 0014 0023     		mov	r3, #0
 462              	.L32:
 299:.\Generated_Source\PSoC4/PPMISR.c **** }
 463              		.loc 1 299 0 is_stmt 1 discriminator 3
 464 0016 181C     		mov	r0, r3
 465 0018 BD46     		mov	sp, r7
 466              		@ sp needed for prologue
 467 001a 80BD     		pop	{r7, pc}
 468              	.L35:
 469              		.align	2
 470              	.L34:
 471 001c 00E100E0 		.word	-536813312
 472              		.cfi_endproc
 473              	.LFE42:
 474              		.size	PPMISR_GetState, .-PPMISR_GetState
 475              		.section	.text.PPMISR_Disable,"ax",%progbits
 476              		.align	2
 477              		.global	PPMISR_Disable
 478              		.code	16
 479              		.thumb_func
 480              		.type	PPMISR_Disable, %function
 481              	PPMISR_Disable:
 482              	.LFB43:
 300:.\Generated_Source\PSoC4/PPMISR.c **** 
 301:.\Generated_Source\PSoC4/PPMISR.c **** 
 302:.\Generated_Source\PSoC4/PPMISR.c **** /*******************************************************************************
 303:.\Generated_Source\PSoC4/PPMISR.c **** * Function Name: PPMISR_Disable
 304:.\Generated_Source\PSoC4/PPMISR.c **** ********************************************************************************
 305:.\Generated_Source\PSoC4/PPMISR.c **** *
 306:.\Generated_Source\PSoC4/PPMISR.c **** * Summary:
 307:.\Generated_Source\PSoC4/PPMISR.c **** *   Disables the Interrupt.
 308:.\Generated_Source\PSoC4/PPMISR.c **** *
 309:.\Generated_Source\PSoC4/PPMISR.c **** * Parameters:
 310:.\Generated_Source\PSoC4/PPMISR.c **** *   None
 311:.\Generated_Source\PSoC4/PPMISR.c **** *
 312:.\Generated_Source\PSoC4/PPMISR.c **** * Return:
 313:.\Generated_Source\PSoC4/PPMISR.c **** *   None
 314:.\Generated_Source\PSoC4/PPMISR.c **** *
 315:.\Generated_Source\PSoC4/PPMISR.c **** *******************************************************************************/
ARM GAS  C:\Users\SNFU\AppData\Local\Temp\ccF4hLQY.s 			page 15


 316:.\Generated_Source\PSoC4/PPMISR.c **** void PPMISR_Disable(void)
 317:.\Generated_Source\PSoC4/PPMISR.c **** {
 483              		.loc 1 317 0
 484              		.cfi_startproc
 485 0000 80B5     		push	{r7, lr}
 486              	.LCFI24:
 487              		.cfi_def_cfa_offset 8
 488              		.cfi_offset 7, -8
 489              		.cfi_offset 14, -4
 490 0002 00AF     		add	r7, sp, #0
 491              	.LCFI25:
 492              		.cfi_def_cfa_register 7
 318:.\Generated_Source\PSoC4/PPMISR.c ****     /* Disable the general interrupt. */
 319:.\Generated_Source\PSoC4/PPMISR.c ****     *PPMISR_INTC_CLR_EN = PPMISR__INTC_MASK;
 493              		.loc 1 319 0
 494 0004 024B     		ldr	r3, .L37
 495 0006 8022     		mov	r2, #128
 496 0008 1203     		lsl	r2, r2, #12
 497 000a 1A60     		str	r2, [r3]
 320:.\Generated_Source\PSoC4/PPMISR.c **** }
 498              		.loc 1 320 0
 499 000c BD46     		mov	sp, r7
 500              		@ sp needed for prologue
 501 000e 80BD     		pop	{r7, pc}
 502              	.L38:
 503              		.align	2
 504              	.L37:
 505 0010 80E100E0 		.word	-536813184
 506              		.cfi_endproc
 507              	.LFE43:
 508              		.size	PPMISR_Disable, .-PPMISR_Disable
 509              		.section	.text.PPMISR_SetPending,"ax",%progbits
 510              		.align	2
 511              		.global	PPMISR_SetPending
 512              		.code	16
 513              		.thumb_func
 514              		.type	PPMISR_SetPending, %function
 515              	PPMISR_SetPending:
 516              	.LFB44:
 321:.\Generated_Source\PSoC4/PPMISR.c **** 
 322:.\Generated_Source\PSoC4/PPMISR.c **** 
 323:.\Generated_Source\PSoC4/PPMISR.c **** /*******************************************************************************
 324:.\Generated_Source\PSoC4/PPMISR.c **** * Function Name: PPMISR_SetPending
 325:.\Generated_Source\PSoC4/PPMISR.c **** ********************************************************************************
 326:.\Generated_Source\PSoC4/PPMISR.c **** *
 327:.\Generated_Source\PSoC4/PPMISR.c **** * Summary:
 328:.\Generated_Source\PSoC4/PPMISR.c **** *   Causes the Interrupt to enter the pending state, a software method of
 329:.\Generated_Source\PSoC4/PPMISR.c **** *   generating the interrupt.
 330:.\Generated_Source\PSoC4/PPMISR.c **** *
 331:.\Generated_Source\PSoC4/PPMISR.c **** * Parameters:
 332:.\Generated_Source\PSoC4/PPMISR.c **** *   None
 333:.\Generated_Source\PSoC4/PPMISR.c **** *
 334:.\Generated_Source\PSoC4/PPMISR.c **** * Return:
 335:.\Generated_Source\PSoC4/PPMISR.c **** *   None
 336:.\Generated_Source\PSoC4/PPMISR.c **** *
 337:.\Generated_Source\PSoC4/PPMISR.c **** *******************************************************************************/
 338:.\Generated_Source\PSoC4/PPMISR.c **** void PPMISR_SetPending(void)
ARM GAS  C:\Users\SNFU\AppData\Local\Temp\ccF4hLQY.s 			page 16


 339:.\Generated_Source\PSoC4/PPMISR.c **** {
 517              		.loc 1 339 0
 518              		.cfi_startproc
 519 0000 80B5     		push	{r7, lr}
 520              	.LCFI26:
 521              		.cfi_def_cfa_offset 8
 522              		.cfi_offset 7, -8
 523              		.cfi_offset 14, -4
 524 0002 00AF     		add	r7, sp, #0
 525              	.LCFI27:
 526              		.cfi_def_cfa_register 7
 340:.\Generated_Source\PSoC4/PPMISR.c ****     *PPMISR_INTC_SET_PD = PPMISR__INTC_MASK;
 527              		.loc 1 340 0
 528 0004 024B     		ldr	r3, .L40
 529 0006 8022     		mov	r2, #128
 530 0008 1203     		lsl	r2, r2, #12
 531 000a 1A60     		str	r2, [r3]
 341:.\Generated_Source\PSoC4/PPMISR.c **** }
 532              		.loc 1 341 0
 533 000c BD46     		mov	sp, r7
 534              		@ sp needed for prologue
 535 000e 80BD     		pop	{r7, pc}
 536              	.L41:
 537              		.align	2
 538              	.L40:
 539 0010 00E200E0 		.word	-536813056
 540              		.cfi_endproc
 541              	.LFE44:
 542              		.size	PPMISR_SetPending, .-PPMISR_SetPending
 543              		.section	.text.PPMISR_ClearPending,"ax",%progbits
 544              		.align	2
 545              		.global	PPMISR_ClearPending
 546              		.code	16
 547              		.thumb_func
 548              		.type	PPMISR_ClearPending, %function
 549              	PPMISR_ClearPending:
 550              	.LFB45:
 342:.\Generated_Source\PSoC4/PPMISR.c **** 
 343:.\Generated_Source\PSoC4/PPMISR.c **** 
 344:.\Generated_Source\PSoC4/PPMISR.c **** /*******************************************************************************
 345:.\Generated_Source\PSoC4/PPMISR.c **** * Function Name: PPMISR_ClearPending
 346:.\Generated_Source\PSoC4/PPMISR.c **** ********************************************************************************
 347:.\Generated_Source\PSoC4/PPMISR.c **** *
 348:.\Generated_Source\PSoC4/PPMISR.c **** * Summary:
 349:.\Generated_Source\PSoC4/PPMISR.c **** *   Clears a pending interrupt.
 350:.\Generated_Source\PSoC4/PPMISR.c **** *
 351:.\Generated_Source\PSoC4/PPMISR.c **** * Parameters:
 352:.\Generated_Source\PSoC4/PPMISR.c **** *   None
 353:.\Generated_Source\PSoC4/PPMISR.c **** *
 354:.\Generated_Source\PSoC4/PPMISR.c **** * Return:
 355:.\Generated_Source\PSoC4/PPMISR.c **** *   None
 356:.\Generated_Source\PSoC4/PPMISR.c **** *
 357:.\Generated_Source\PSoC4/PPMISR.c **** *******************************************************************************/
 358:.\Generated_Source\PSoC4/PPMISR.c **** void PPMISR_ClearPending(void)
 359:.\Generated_Source\PSoC4/PPMISR.c **** {
 551              		.loc 1 359 0
 552              		.cfi_startproc
ARM GAS  C:\Users\SNFU\AppData\Local\Temp\ccF4hLQY.s 			page 17


 553 0000 80B5     		push	{r7, lr}
 554              	.LCFI28:
 555              		.cfi_def_cfa_offset 8
 556              		.cfi_offset 7, -8
 557              		.cfi_offset 14, -4
 558 0002 00AF     		add	r7, sp, #0
 559              	.LCFI29:
 560              		.cfi_def_cfa_register 7
 360:.\Generated_Source\PSoC4/PPMISR.c ****     *PPMISR_INTC_CLR_PD = PPMISR__INTC_MASK;
 561              		.loc 1 360 0
 562 0004 024B     		ldr	r3, .L43
 563 0006 8022     		mov	r2, #128
 564 0008 1203     		lsl	r2, r2, #12
 565 000a 1A60     		str	r2, [r3]
 361:.\Generated_Source\PSoC4/PPMISR.c **** }
 566              		.loc 1 361 0
 567 000c BD46     		mov	sp, r7
 568              		@ sp needed for prologue
 569 000e 80BD     		pop	{r7, pc}
 570              	.L44:
 571              		.align	2
 572              	.L43:
 573 0010 80E200E0 		.word	-536812928
 574              		.cfi_endproc
 575              	.LFE45:
 576              		.size	PPMISR_ClearPending, .-PPMISR_ClearPending
 577              		.text
 578              	.Letext0:
 579              		.file 2 "c:\\program files\\cypress\\psoc creator\\3.0\\psoc creator\\import\\gnu_cs\\arm\\4.7.3\\
 580              		.file 3 "./Generated_Source/PSoC4/cytypes.h"