ARM GAS  C:\Users\SNFU\AppData\Local\Temp\ccOQJqb1.s 			page 1


   1              		.cpu cortex-m0
   2              		.fpu softvfp
   3              		.eabi_attribute 20, 1
   4              		.eabi_attribute 21, 1
   5              		.eabi_attribute 23, 3
   6              		.eabi_attribute 24, 1
   7              		.eabi_attribute 25, 1
   8              		.eabi_attribute 26, 1
   9              		.eabi_attribute 30, 4
  10              		.eabi_attribute 34, 0
  11              		.eabi_attribute 18, 4
  12              		.code	16
  13              		.file	"PPMRstISR.c"
  14              		.text
  15              	.Ltext0:
  16              		.cfi_sections	.debug_frame
  17              		.section	.text.PPMRstISR_Interrupt,"ax",%progbits
  18              		.align	1
  19              		.global	PPMRstISR_Interrupt
  20              		.code	16
  21              		.thumb_func
  22              		.type	PPMRstISR_Interrupt, %function
  23              	PPMRstISR_Interrupt:
  24              	.LFB36:
  25              		.file 1 ".\\Generated_Source\\PSoC4\\PPMRstISR.c"
   1:.\Generated_Source\PSoC4/PPMRstISR.c **** /*******************************************************************************
   2:.\Generated_Source\PSoC4/PPMRstISR.c **** * File Name: PPMRstISR.c  
   3:.\Generated_Source\PSoC4/PPMRstISR.c **** * Version 1.70
   4:.\Generated_Source\PSoC4/PPMRstISR.c **** *
   5:.\Generated_Source\PSoC4/PPMRstISR.c **** *  Description:
   6:.\Generated_Source\PSoC4/PPMRstISR.c **** *   API for controlling the state of an interrupt.
   7:.\Generated_Source\PSoC4/PPMRstISR.c **** *
   8:.\Generated_Source\PSoC4/PPMRstISR.c **** *
   9:.\Generated_Source\PSoC4/PPMRstISR.c **** *  Note:
  10:.\Generated_Source\PSoC4/PPMRstISR.c **** *
  11:.\Generated_Source\PSoC4/PPMRstISR.c **** ********************************************************************************
  12:.\Generated_Source\PSoC4/PPMRstISR.c **** * Copyright 2008-2012, Cypress Semiconductor Corporation.  All rights reserved.
  13:.\Generated_Source\PSoC4/PPMRstISR.c **** * You may use this file only in accordance with the license, terms, conditions, 
  14:.\Generated_Source\PSoC4/PPMRstISR.c **** * disclaimers, and limitations in the end user license agreement accompanying 
  15:.\Generated_Source\PSoC4/PPMRstISR.c **** * the software package with which this file was provided.
  16:.\Generated_Source\PSoC4/PPMRstISR.c **** *******************************************************************************/
  17:.\Generated_Source\PSoC4/PPMRstISR.c **** 
  18:.\Generated_Source\PSoC4/PPMRstISR.c **** 
  19:.\Generated_Source\PSoC4/PPMRstISR.c **** #include <cydevice_trm.h>
  20:.\Generated_Source\PSoC4/PPMRstISR.c **** #include <CyLib.h>
  21:.\Generated_Source\PSoC4/PPMRstISR.c **** #include <PPMRstISR.h>
  22:.\Generated_Source\PSoC4/PPMRstISR.c **** 
  23:.\Generated_Source\PSoC4/PPMRstISR.c **** #if !defined(PPMRstISR__REMOVED) /* Check for removal by optimization */
  24:.\Generated_Source\PSoC4/PPMRstISR.c **** 
  25:.\Generated_Source\PSoC4/PPMRstISR.c **** /*******************************************************************************
  26:.\Generated_Source\PSoC4/PPMRstISR.c **** *  Place your includes, defines and code here 
  27:.\Generated_Source\PSoC4/PPMRstISR.c **** ********************************************************************************/
  28:.\Generated_Source\PSoC4/PPMRstISR.c **** /* `#START PPMRstISR_intc` */
  29:.\Generated_Source\PSoC4/PPMRstISR.c **** #include <project.h>
  30:.\Generated_Source\PSoC4/PPMRstISR.c **** extern uint8_t PPM_channel;     // input channel variable
  31:.\Generated_Source\PSoC4/PPMRstISR.c **** extern uint16_t ctrl_in[];      // input control vector
  32:.\Generated_Source\PSoC4/PPMRstISR.c **** 
ARM GAS  C:\Users\SNFU\AppData\Local\Temp\ccOQJqb1.s 			page 2


  33:.\Generated_Source\PSoC4/PPMRstISR.c **** uint8_t overflow = 0;
  34:.\Generated_Source\PSoC4/PPMRstISR.c **** /* `#END` */
  35:.\Generated_Source\PSoC4/PPMRstISR.c **** 
  36:.\Generated_Source\PSoC4/PPMRstISR.c **** extern cyisraddress CyRamVectors[CYINT_IRQ_BASE + CY_NUM_INTERRUPTS];
  37:.\Generated_Source\PSoC4/PPMRstISR.c **** 
  38:.\Generated_Source\PSoC4/PPMRstISR.c **** /* Declared in startup, used to set unused interrupts to. */
  39:.\Generated_Source\PSoC4/PPMRstISR.c **** CY_ISR_PROTO(IntDefaultHandler);
  40:.\Generated_Source\PSoC4/PPMRstISR.c **** 
  41:.\Generated_Source\PSoC4/PPMRstISR.c **** 
  42:.\Generated_Source\PSoC4/PPMRstISR.c **** /*******************************************************************************
  43:.\Generated_Source\PSoC4/PPMRstISR.c **** * Function Name: PPMRstISR_Start
  44:.\Generated_Source\PSoC4/PPMRstISR.c **** ********************************************************************************
  45:.\Generated_Source\PSoC4/PPMRstISR.c **** *
  46:.\Generated_Source\PSoC4/PPMRstISR.c **** * Summary:
  47:.\Generated_Source\PSoC4/PPMRstISR.c **** *  Set up the interrupt and enable it.
  48:.\Generated_Source\PSoC4/PPMRstISR.c **** *
  49:.\Generated_Source\PSoC4/PPMRstISR.c **** * Parameters:  
  50:.\Generated_Source\PSoC4/PPMRstISR.c **** *   None
  51:.\Generated_Source\PSoC4/PPMRstISR.c **** *
  52:.\Generated_Source\PSoC4/PPMRstISR.c **** * Return:
  53:.\Generated_Source\PSoC4/PPMRstISR.c **** *   None
  54:.\Generated_Source\PSoC4/PPMRstISR.c **** *
  55:.\Generated_Source\PSoC4/PPMRstISR.c **** *******************************************************************************/
  56:.\Generated_Source\PSoC4/PPMRstISR.c **** void PPMRstISR_Start(void)
  57:.\Generated_Source\PSoC4/PPMRstISR.c **** {
  58:.\Generated_Source\PSoC4/PPMRstISR.c ****     /* For all we know the interrupt is active. */
  59:.\Generated_Source\PSoC4/PPMRstISR.c ****     PPMRstISR_Disable();
  60:.\Generated_Source\PSoC4/PPMRstISR.c **** 
  61:.\Generated_Source\PSoC4/PPMRstISR.c ****     /* Set the ISR to point to the PPMRstISR Interrupt. */
  62:.\Generated_Source\PSoC4/PPMRstISR.c ****     PPMRstISR_SetVector(&PPMRstISR_Interrupt);
  63:.\Generated_Source\PSoC4/PPMRstISR.c **** 
  64:.\Generated_Source\PSoC4/PPMRstISR.c ****     /* Set the priority. */
  65:.\Generated_Source\PSoC4/PPMRstISR.c ****     PPMRstISR_SetPriority((uint8)PPMRstISR_INTC_PRIOR_NUMBER);
  66:.\Generated_Source\PSoC4/PPMRstISR.c **** 
  67:.\Generated_Source\PSoC4/PPMRstISR.c ****     /* Enable it. */
  68:.\Generated_Source\PSoC4/PPMRstISR.c ****     PPMRstISR_Enable();
  69:.\Generated_Source\PSoC4/PPMRstISR.c **** }
  70:.\Generated_Source\PSoC4/PPMRstISR.c **** 
  71:.\Generated_Source\PSoC4/PPMRstISR.c **** 
  72:.\Generated_Source\PSoC4/PPMRstISR.c **** /*******************************************************************************
  73:.\Generated_Source\PSoC4/PPMRstISR.c **** * Function Name: PPMRstISR_StartEx
  74:.\Generated_Source\PSoC4/PPMRstISR.c **** ********************************************************************************
  75:.\Generated_Source\PSoC4/PPMRstISR.c **** *
  76:.\Generated_Source\PSoC4/PPMRstISR.c **** * Summary:
  77:.\Generated_Source\PSoC4/PPMRstISR.c **** *  Set up the interrupt and enable it.
  78:.\Generated_Source\PSoC4/PPMRstISR.c **** *
  79:.\Generated_Source\PSoC4/PPMRstISR.c **** * Parameters:  
  80:.\Generated_Source\PSoC4/PPMRstISR.c **** *   address: Address of the ISR to set in the interrupt vector table.
  81:.\Generated_Source\PSoC4/PPMRstISR.c **** *
  82:.\Generated_Source\PSoC4/PPMRstISR.c **** * Return:
  83:.\Generated_Source\PSoC4/PPMRstISR.c **** *   None
  84:.\Generated_Source\PSoC4/PPMRstISR.c **** *
  85:.\Generated_Source\PSoC4/PPMRstISR.c **** *******************************************************************************/
  86:.\Generated_Source\PSoC4/PPMRstISR.c **** void PPMRstISR_StartEx(cyisraddress address)
  87:.\Generated_Source\PSoC4/PPMRstISR.c **** {
  88:.\Generated_Source\PSoC4/PPMRstISR.c ****     /* For all we know the interrupt is active. */
  89:.\Generated_Source\PSoC4/PPMRstISR.c ****     PPMRstISR_Disable();
ARM GAS  C:\Users\SNFU\AppData\Local\Temp\ccOQJqb1.s 			page 3


  90:.\Generated_Source\PSoC4/PPMRstISR.c **** 
  91:.\Generated_Source\PSoC4/PPMRstISR.c ****     /* Set the ISR to point to the PPMRstISR Interrupt. */
  92:.\Generated_Source\PSoC4/PPMRstISR.c ****     PPMRstISR_SetVector(address);
  93:.\Generated_Source\PSoC4/PPMRstISR.c **** 
  94:.\Generated_Source\PSoC4/PPMRstISR.c ****     /* Set the priority. */
  95:.\Generated_Source\PSoC4/PPMRstISR.c ****     PPMRstISR_SetPriority((uint8)PPMRstISR_INTC_PRIOR_NUMBER);
  96:.\Generated_Source\PSoC4/PPMRstISR.c **** 
  97:.\Generated_Source\PSoC4/PPMRstISR.c ****     /* Enable it. */
  98:.\Generated_Source\PSoC4/PPMRstISR.c ****     PPMRstISR_Enable();
  99:.\Generated_Source\PSoC4/PPMRstISR.c **** }
 100:.\Generated_Source\PSoC4/PPMRstISR.c **** 
 101:.\Generated_Source\PSoC4/PPMRstISR.c **** 
 102:.\Generated_Source\PSoC4/PPMRstISR.c **** /*******************************************************************************
 103:.\Generated_Source\PSoC4/PPMRstISR.c **** * Function Name: PPMRstISR_Stop
 104:.\Generated_Source\PSoC4/PPMRstISR.c **** ********************************************************************************
 105:.\Generated_Source\PSoC4/PPMRstISR.c **** *
 106:.\Generated_Source\PSoC4/PPMRstISR.c **** * Summary:
 107:.\Generated_Source\PSoC4/PPMRstISR.c **** *   Disables and removes the interrupt.
 108:.\Generated_Source\PSoC4/PPMRstISR.c **** *
 109:.\Generated_Source\PSoC4/PPMRstISR.c **** * Parameters:  
 110:.\Generated_Source\PSoC4/PPMRstISR.c **** *
 111:.\Generated_Source\PSoC4/PPMRstISR.c **** * Return:
 112:.\Generated_Source\PSoC4/PPMRstISR.c **** *   None
 113:.\Generated_Source\PSoC4/PPMRstISR.c **** *
 114:.\Generated_Source\PSoC4/PPMRstISR.c **** *******************************************************************************/
 115:.\Generated_Source\PSoC4/PPMRstISR.c **** void PPMRstISR_Stop(void)
 116:.\Generated_Source\PSoC4/PPMRstISR.c **** {
 117:.\Generated_Source\PSoC4/PPMRstISR.c ****     /* Disable this interrupt. */
 118:.\Generated_Source\PSoC4/PPMRstISR.c ****     PPMRstISR_Disable();
 119:.\Generated_Source\PSoC4/PPMRstISR.c **** 
 120:.\Generated_Source\PSoC4/PPMRstISR.c ****     /* Set the ISR to point to the passive one. */
 121:.\Generated_Source\PSoC4/PPMRstISR.c ****     PPMRstISR_SetVector(&IntDefaultHandler);
 122:.\Generated_Source\PSoC4/PPMRstISR.c **** }
 123:.\Generated_Source\PSoC4/PPMRstISR.c **** 
 124:.\Generated_Source\PSoC4/PPMRstISR.c **** 
 125:.\Generated_Source\PSoC4/PPMRstISR.c **** /*******************************************************************************
 126:.\Generated_Source\PSoC4/PPMRstISR.c **** * Function Name: PPMRstISR_Interrupt
 127:.\Generated_Source\PSoC4/PPMRstISR.c **** ********************************************************************************
 128:.\Generated_Source\PSoC4/PPMRstISR.c **** *
 129:.\Generated_Source\PSoC4/PPMRstISR.c **** * Summary:
 130:.\Generated_Source\PSoC4/PPMRstISR.c **** *   The default Interrupt Service Routine for PPMRstISR.
 131:.\Generated_Source\PSoC4/PPMRstISR.c **** *
 132:.\Generated_Source\PSoC4/PPMRstISR.c **** *   Add custom code between the coments to keep the next version of this file
 133:.\Generated_Source\PSoC4/PPMRstISR.c **** *   from over writting your code.
 134:.\Generated_Source\PSoC4/PPMRstISR.c **** *
 135:.\Generated_Source\PSoC4/PPMRstISR.c **** * Parameters:  
 136:.\Generated_Source\PSoC4/PPMRstISR.c **** *   None
 137:.\Generated_Source\PSoC4/PPMRstISR.c **** *
 138:.\Generated_Source\PSoC4/PPMRstISR.c **** * Return:
 139:.\Generated_Source\PSoC4/PPMRstISR.c **** *   None
 140:.\Generated_Source\PSoC4/PPMRstISR.c **** *
 141:.\Generated_Source\PSoC4/PPMRstISR.c **** *******************************************************************************/
 142:.\Generated_Source\PSoC4/PPMRstISR.c **** CY_ISR(PPMRstISR_Interrupt)
 143:.\Generated_Source\PSoC4/PPMRstISR.c **** {
  26              		.loc 1 143 0
  27              		.cfi_startproc
  28 0000 08B5     		push	{r3, lr}
ARM GAS  C:\Users\SNFU\AppData\Local\Temp\ccOQJqb1.s 			page 4


  29              	.LCFI0:
  30              		.cfi_def_cfa_offset 8
  31              		.cfi_offset 3, -8
  32              		.cfi_offset 14, -4
 144:.\Generated_Source\PSoC4/PPMRstISR.c ****     /*  Place your Interrupt code here. */
 145:.\Generated_Source\PSoC4/PPMRstISR.c ****     /* `#START PPMRstISR_Interrupt` */
 146:.\Generated_Source\PSoC4/PPMRstISR.c ****     PPMCounter_ClearInterrupt(PPMCounter_INTR_MASK_CC_MATCH); // clears interrupt
  33              		.loc 1 146 0
  34 0002 0220     		mov	r0, #2
  35 0004 FFF7FEFF 		bl	PPMCounter_ClearInterrupt
  36              	.LVL0:
 147:.\Generated_Source\PSoC4/PPMRstISR.c ****     overflow = 1;
  37              		.loc 1 147 0
  38 0008 034B     		ldr	r3, .L2
 148:.\Generated_Source\PSoC4/PPMRstISR.c ****     PPM_channel = 0;
  39              		.loc 1 148 0
  40 000a 0449     		ldr	r1, .L2+4
 147:.\Generated_Source\PSoC4/PPMRstISR.c ****     overflow = 1;
  41              		.loc 1 147 0
  42 000c 0122     		mov	r2, #1
  43              		.loc 1 148 0
  44 000e 0020     		mov	r0, #0
 147:.\Generated_Source\PSoC4/PPMRstISR.c ****     overflow = 1;
  45              		.loc 1 147 0
  46 0010 1A70     		strb	r2, [r3]
  47              		.loc 1 148 0
  48 0012 0870     		strb	r0, [r1]
 149:.\Generated_Source\PSoC4/PPMRstISR.c ****     /* `#END` */
 150:.\Generated_Source\PSoC4/PPMRstISR.c **** }
  49              		.loc 1 150 0
  50              		@ sp needed for prologue
  51 0014 08BD     		pop	{r3, pc}
  52              	.L3:
  53 0016 C046     		.align	2
  54              	.L2:
  55 0018 00000000 		.word	.LANCHOR0
  56 001c 00000000 		.word	PPM_channel
  57              		.cfi_endproc
  58              	.LFE36:
  59              		.size	PPMRstISR_Interrupt, .-PPMRstISR_Interrupt
  60              		.section	.text.PPMRstISR_Stop,"ax",%progbits
  61              		.align	1
  62              		.global	PPMRstISR_Stop
  63              		.code	16
  64              		.thumb_func
  65              		.type	PPMRstISR_Stop, %function
  66              	PPMRstISR_Stop:
  67              	.LFB35:
 116:.\Generated_Source\PSoC4/PPMRstISR.c **** {
  68              		.loc 1 116 0
  69              		.cfi_startproc
  70              	.LBB18:
  71              	.LBB19:
 151:.\Generated_Source\PSoC4/PPMRstISR.c **** 
 152:.\Generated_Source\PSoC4/PPMRstISR.c **** 
 153:.\Generated_Source\PSoC4/PPMRstISR.c **** /*******************************************************************************
 154:.\Generated_Source\PSoC4/PPMRstISR.c **** * Function Name: PPMRstISR_SetVector
ARM GAS  C:\Users\SNFU\AppData\Local\Temp\ccOQJqb1.s 			page 5


 155:.\Generated_Source\PSoC4/PPMRstISR.c **** ********************************************************************************
 156:.\Generated_Source\PSoC4/PPMRstISR.c **** *
 157:.\Generated_Source\PSoC4/PPMRstISR.c **** * Summary:
 158:.\Generated_Source\PSoC4/PPMRstISR.c **** *   Change the ISR vector for the Interrupt. Note calling PPMRstISR_Start
 159:.\Generated_Source\PSoC4/PPMRstISR.c **** *   will override any effect this method would have had. To set the vector 
 160:.\Generated_Source\PSoC4/PPMRstISR.c **** *   before the component has been started use PPMRstISR_StartEx instead.
 161:.\Generated_Source\PSoC4/PPMRstISR.c **** *
 162:.\Generated_Source\PSoC4/PPMRstISR.c **** * Parameters:
 163:.\Generated_Source\PSoC4/PPMRstISR.c **** *   address: Address of the ISR to set in the interrupt vector table.
 164:.\Generated_Source\PSoC4/PPMRstISR.c **** *
 165:.\Generated_Source\PSoC4/PPMRstISR.c **** * Return:
 166:.\Generated_Source\PSoC4/PPMRstISR.c **** *   None
 167:.\Generated_Source\PSoC4/PPMRstISR.c **** *
 168:.\Generated_Source\PSoC4/PPMRstISR.c **** *******************************************************************************/
 169:.\Generated_Source\PSoC4/PPMRstISR.c **** void PPMRstISR_SetVector(cyisraddress address)
 170:.\Generated_Source\PSoC4/PPMRstISR.c **** {
 171:.\Generated_Source\PSoC4/PPMRstISR.c ****     CyRamVectors[CYINT_IRQ_BASE + PPMRstISR__INTC_NUMBER] = address;
 172:.\Generated_Source\PSoC4/PPMRstISR.c **** }
 173:.\Generated_Source\PSoC4/PPMRstISR.c **** 
 174:.\Generated_Source\PSoC4/PPMRstISR.c **** 
 175:.\Generated_Source\PSoC4/PPMRstISR.c **** /*******************************************************************************
 176:.\Generated_Source\PSoC4/PPMRstISR.c **** * Function Name: PPMRstISR_GetVector
 177:.\Generated_Source\PSoC4/PPMRstISR.c **** ********************************************************************************
 178:.\Generated_Source\PSoC4/PPMRstISR.c **** *
 179:.\Generated_Source\PSoC4/PPMRstISR.c **** * Summary:
 180:.\Generated_Source\PSoC4/PPMRstISR.c **** *   Gets the "address" of the current ISR vector for the Interrupt.
 181:.\Generated_Source\PSoC4/PPMRstISR.c **** *
 182:.\Generated_Source\PSoC4/PPMRstISR.c **** * Parameters:
 183:.\Generated_Source\PSoC4/PPMRstISR.c **** *   None
 184:.\Generated_Source\PSoC4/PPMRstISR.c **** *
 185:.\Generated_Source\PSoC4/PPMRstISR.c **** * Return:
 186:.\Generated_Source\PSoC4/PPMRstISR.c **** *   Address of the ISR in the interrupt vector table.
 187:.\Generated_Source\PSoC4/PPMRstISR.c **** *
 188:.\Generated_Source\PSoC4/PPMRstISR.c **** *******************************************************************************/
 189:.\Generated_Source\PSoC4/PPMRstISR.c **** cyisraddress PPMRstISR_GetVector(void)
 190:.\Generated_Source\PSoC4/PPMRstISR.c **** {
 191:.\Generated_Source\PSoC4/PPMRstISR.c ****     return CyRamVectors[CYINT_IRQ_BASE + PPMRstISR__INTC_NUMBER];
 192:.\Generated_Source\PSoC4/PPMRstISR.c **** }
 193:.\Generated_Source\PSoC4/PPMRstISR.c **** 
 194:.\Generated_Source\PSoC4/PPMRstISR.c **** 
 195:.\Generated_Source\PSoC4/PPMRstISR.c **** /*******************************************************************************
 196:.\Generated_Source\PSoC4/PPMRstISR.c **** * Function Name: PPMRstISR_SetPriority
 197:.\Generated_Source\PSoC4/PPMRstISR.c **** ********************************************************************************
 198:.\Generated_Source\PSoC4/PPMRstISR.c **** *
 199:.\Generated_Source\PSoC4/PPMRstISR.c **** * Summary:
 200:.\Generated_Source\PSoC4/PPMRstISR.c **** *   Sets the Priority of the Interrupt. Note calling PPMRstISR_Start
 201:.\Generated_Source\PSoC4/PPMRstISR.c **** *   or PPMRstISR_StartEx will override any effect this method would 
 202:.\Generated_Source\PSoC4/PPMRstISR.c **** *   have had. This method should only be called after PPMRstISR_Start or 
 203:.\Generated_Source\PSoC4/PPMRstISR.c **** *   PPMRstISR_StartEx has been called. To set the initial
 204:.\Generated_Source\PSoC4/PPMRstISR.c **** *   priority for the component use the cydwr file in the tool.
 205:.\Generated_Source\PSoC4/PPMRstISR.c **** *
 206:.\Generated_Source\PSoC4/PPMRstISR.c **** * Parameters:
 207:.\Generated_Source\PSoC4/PPMRstISR.c **** *   priority: Priority of the interrupt. 0 - 3, 0 being the highest.
 208:.\Generated_Source\PSoC4/PPMRstISR.c **** *
 209:.\Generated_Source\PSoC4/PPMRstISR.c **** * Return:
 210:.\Generated_Source\PSoC4/PPMRstISR.c **** *   None
 211:.\Generated_Source\PSoC4/PPMRstISR.c **** *
ARM GAS  C:\Users\SNFU\AppData\Local\Temp\ccOQJqb1.s 			page 6


 212:.\Generated_Source\PSoC4/PPMRstISR.c **** *******************************************************************************/
 213:.\Generated_Source\PSoC4/PPMRstISR.c **** void PPMRstISR_SetPriority(uint8 priority)
 214:.\Generated_Source\PSoC4/PPMRstISR.c **** {
 215:.\Generated_Source\PSoC4/PPMRstISR.c **** 	uint8 interruptState;
 216:.\Generated_Source\PSoC4/PPMRstISR.c ****     uint32 priorityOffset = ((PPMRstISR__INTC_NUMBER % 4u) * 8u) + 6u;
 217:.\Generated_Source\PSoC4/PPMRstISR.c ****     
 218:.\Generated_Source\PSoC4/PPMRstISR.c **** 	interruptState = CyEnterCriticalSection();
 219:.\Generated_Source\PSoC4/PPMRstISR.c ****     *PPMRstISR_INTC_PRIOR = (*PPMRstISR_INTC_PRIOR & (uint32)(~PPMRstISR__INTC_PRIOR_MASK)) |
 220:.\Generated_Source\PSoC4/PPMRstISR.c ****                                     ((uint32)priority << priorityOffset);
 221:.\Generated_Source\PSoC4/PPMRstISR.c **** 	CyExitCriticalSection(interruptState);
 222:.\Generated_Source\PSoC4/PPMRstISR.c **** }
 223:.\Generated_Source\PSoC4/PPMRstISR.c **** 
 224:.\Generated_Source\PSoC4/PPMRstISR.c **** 
 225:.\Generated_Source\PSoC4/PPMRstISR.c **** /*******************************************************************************
 226:.\Generated_Source\PSoC4/PPMRstISR.c **** * Function Name: PPMRstISR_GetPriority
 227:.\Generated_Source\PSoC4/PPMRstISR.c **** ********************************************************************************
 228:.\Generated_Source\PSoC4/PPMRstISR.c **** *
 229:.\Generated_Source\PSoC4/PPMRstISR.c **** * Summary:
 230:.\Generated_Source\PSoC4/PPMRstISR.c **** *   Gets the Priority of the Interrupt.
 231:.\Generated_Source\PSoC4/PPMRstISR.c **** *
 232:.\Generated_Source\PSoC4/PPMRstISR.c **** * Parameters:
 233:.\Generated_Source\PSoC4/PPMRstISR.c **** *   None
 234:.\Generated_Source\PSoC4/PPMRstISR.c **** *
 235:.\Generated_Source\PSoC4/PPMRstISR.c **** * Return:
 236:.\Generated_Source\PSoC4/PPMRstISR.c **** *   Priority of the interrupt. 0 - 3, 0 being the highest.
 237:.\Generated_Source\PSoC4/PPMRstISR.c **** *
 238:.\Generated_Source\PSoC4/PPMRstISR.c **** *******************************************************************************/
 239:.\Generated_Source\PSoC4/PPMRstISR.c **** uint8 PPMRstISR_GetPriority(void)
 240:.\Generated_Source\PSoC4/PPMRstISR.c **** {
 241:.\Generated_Source\PSoC4/PPMRstISR.c ****     uint32 priority;
 242:.\Generated_Source\PSoC4/PPMRstISR.c **** 	uint32 priorityOffset = ((PPMRstISR__INTC_NUMBER % 4u) * 8u) + 6u;
 243:.\Generated_Source\PSoC4/PPMRstISR.c **** 
 244:.\Generated_Source\PSoC4/PPMRstISR.c ****     priority = (*PPMRstISR_INTC_PRIOR & PPMRstISR__INTC_PRIOR_MASK) >> priorityOffset;
 245:.\Generated_Source\PSoC4/PPMRstISR.c **** 
 246:.\Generated_Source\PSoC4/PPMRstISR.c ****     return (uint8)priority;
 247:.\Generated_Source\PSoC4/PPMRstISR.c **** }
 248:.\Generated_Source\PSoC4/PPMRstISR.c **** 
 249:.\Generated_Source\PSoC4/PPMRstISR.c **** 
 250:.\Generated_Source\PSoC4/PPMRstISR.c **** /*******************************************************************************
 251:.\Generated_Source\PSoC4/PPMRstISR.c **** * Function Name: PPMRstISR_Enable
 252:.\Generated_Source\PSoC4/PPMRstISR.c **** ********************************************************************************
 253:.\Generated_Source\PSoC4/PPMRstISR.c **** *
 254:.\Generated_Source\PSoC4/PPMRstISR.c **** * Summary:
 255:.\Generated_Source\PSoC4/PPMRstISR.c **** *   Enables the interrupt.
 256:.\Generated_Source\PSoC4/PPMRstISR.c **** *
 257:.\Generated_Source\PSoC4/PPMRstISR.c **** * Parameters:
 258:.\Generated_Source\PSoC4/PPMRstISR.c **** *   None
 259:.\Generated_Source\PSoC4/PPMRstISR.c **** *
 260:.\Generated_Source\PSoC4/PPMRstISR.c **** * Return:
 261:.\Generated_Source\PSoC4/PPMRstISR.c **** *   None
 262:.\Generated_Source\PSoC4/PPMRstISR.c **** *
 263:.\Generated_Source\PSoC4/PPMRstISR.c **** *******************************************************************************/
 264:.\Generated_Source\PSoC4/PPMRstISR.c **** void PPMRstISR_Enable(void)
 265:.\Generated_Source\PSoC4/PPMRstISR.c **** {
 266:.\Generated_Source\PSoC4/PPMRstISR.c ****     /* Enable the general interrupt. */
 267:.\Generated_Source\PSoC4/PPMRstISR.c ****     *PPMRstISR_INTC_SET_EN = PPMRstISR__INTC_MASK;
 268:.\Generated_Source\PSoC4/PPMRstISR.c **** }
ARM GAS  C:\Users\SNFU\AppData\Local\Temp\ccOQJqb1.s 			page 7


 269:.\Generated_Source\PSoC4/PPMRstISR.c **** 
 270:.\Generated_Source\PSoC4/PPMRstISR.c **** 
 271:.\Generated_Source\PSoC4/PPMRstISR.c **** /*******************************************************************************
 272:.\Generated_Source\PSoC4/PPMRstISR.c **** * Function Name: PPMRstISR_GetState
 273:.\Generated_Source\PSoC4/PPMRstISR.c **** ********************************************************************************
 274:.\Generated_Source\PSoC4/PPMRstISR.c **** *
 275:.\Generated_Source\PSoC4/PPMRstISR.c **** * Summary:
 276:.\Generated_Source\PSoC4/PPMRstISR.c **** *   Gets the state (enabled, disabled) of the Interrupt.
 277:.\Generated_Source\PSoC4/PPMRstISR.c **** *
 278:.\Generated_Source\PSoC4/PPMRstISR.c **** * Parameters:
 279:.\Generated_Source\PSoC4/PPMRstISR.c **** *   None
 280:.\Generated_Source\PSoC4/PPMRstISR.c **** *
 281:.\Generated_Source\PSoC4/PPMRstISR.c **** * Return:
 282:.\Generated_Source\PSoC4/PPMRstISR.c **** *   1 if enabled, 0 if disabled.
 283:.\Generated_Source\PSoC4/PPMRstISR.c **** *
 284:.\Generated_Source\PSoC4/PPMRstISR.c **** *******************************************************************************/
 285:.\Generated_Source\PSoC4/PPMRstISR.c **** uint8 PPMRstISR_GetState(void)
 286:.\Generated_Source\PSoC4/PPMRstISR.c **** {
 287:.\Generated_Source\PSoC4/PPMRstISR.c ****     /* Get the state of the general interrupt. */
 288:.\Generated_Source\PSoC4/PPMRstISR.c ****     return ((*PPMRstISR_INTC_SET_EN & (uint32)PPMRstISR__INTC_MASK) != 0u) ? 1u:0u;
 289:.\Generated_Source\PSoC4/PPMRstISR.c **** }
 290:.\Generated_Source\PSoC4/PPMRstISR.c **** 
 291:.\Generated_Source\PSoC4/PPMRstISR.c **** 
 292:.\Generated_Source\PSoC4/PPMRstISR.c **** /*******************************************************************************
 293:.\Generated_Source\PSoC4/PPMRstISR.c **** * Function Name: PPMRstISR_Disable
 294:.\Generated_Source\PSoC4/PPMRstISR.c **** ********************************************************************************
 295:.\Generated_Source\PSoC4/PPMRstISR.c **** *
 296:.\Generated_Source\PSoC4/PPMRstISR.c **** * Summary:
 297:.\Generated_Source\PSoC4/PPMRstISR.c **** *   Disables the Interrupt.
 298:.\Generated_Source\PSoC4/PPMRstISR.c **** *
 299:.\Generated_Source\PSoC4/PPMRstISR.c **** * Parameters:
 300:.\Generated_Source\PSoC4/PPMRstISR.c **** *   None
 301:.\Generated_Source\PSoC4/PPMRstISR.c **** *
 302:.\Generated_Source\PSoC4/PPMRstISR.c **** * Return:
 303:.\Generated_Source\PSoC4/PPMRstISR.c **** *   None
 304:.\Generated_Source\PSoC4/PPMRstISR.c **** *
 305:.\Generated_Source\PSoC4/PPMRstISR.c **** *******************************************************************************/
 306:.\Generated_Source\PSoC4/PPMRstISR.c **** void PPMRstISR_Disable(void)
 307:.\Generated_Source\PSoC4/PPMRstISR.c **** {
 308:.\Generated_Source\PSoC4/PPMRstISR.c ****     /* Disable the general interrupt. */
 309:.\Generated_Source\PSoC4/PPMRstISR.c ****     *PPMRstISR_INTC_CLR_EN = PPMRstISR__INTC_MASK;
  72              		.loc 1 309 0
  73 0000 034B     		ldr	r3, .L5
  74              	.LBE19:
  75              	.LBE18:
  76              	.LBB21:
  77              	.LBB22:
 171:.\Generated_Source\PSoC4/PPMRstISR.c ****     CyRamVectors[CYINT_IRQ_BASE + PPMRstISR__INTC_NUMBER] = address;
  78              		.loc 1 171 0
  79 0002 0448     		ldr	r0, .L5+4
  80 0004 0449     		ldr	r1, .L5+8
  81              	.LBE22:
  82              	.LBE21:
  83              	.LBB24:
  84              	.LBB20:
  85              		.loc 1 309 0
  86 0006 0222     		mov	r2, #2
ARM GAS  C:\Users\SNFU\AppData\Local\Temp\ccOQJqb1.s 			page 8


  87 0008 1A60     		str	r2, [r3]
  88              	.LVL1:
  89              	.LBE20:
  90              	.LBE24:
 122:.\Generated_Source\PSoC4/PPMRstISR.c **** }
  91              		.loc 1 122 0
  92              		@ sp needed for prologue
  93              	.LBB25:
  94              	.LBB23:
 171:.\Generated_Source\PSoC4/PPMRstISR.c ****     CyRamVectors[CYINT_IRQ_BASE + PPMRstISR__INTC_NUMBER] = address;
  95              		.loc 1 171 0
  96 000a 4864     		str	r0, [r1, #68]
  97              	.LBE23:
  98              	.LBE25:
 122:.\Generated_Source\PSoC4/PPMRstISR.c **** }
  99              		.loc 1 122 0
 100 000c 7047     		bx	lr
 101              	.L6:
 102 000e C046     		.align	2
 103              	.L5:
 104 0010 80E100E0 		.word	-536813184
 105 0014 00000000 		.word	IntDefaultHandler
 106 0018 00000000 		.word	CyRamVectors
 107              		.cfi_endproc
 108              	.LFE35:
 109              		.size	PPMRstISR_Stop, .-PPMRstISR_Stop
 110              		.section	.text.PPMRstISR_SetVector,"ax",%progbits
 111              		.align	1
 112              		.global	PPMRstISR_SetVector
 113              		.code	16
 114              		.thumb_func
 115              		.type	PPMRstISR_SetVector, %function
 116              	PPMRstISR_SetVector:
 117              	.LFB37:
 170:.\Generated_Source\PSoC4/PPMRstISR.c **** {
 118              		.loc 1 170 0
 119              		.cfi_startproc
 120              	.LVL2:
 171:.\Generated_Source\PSoC4/PPMRstISR.c ****     CyRamVectors[CYINT_IRQ_BASE + PPMRstISR__INTC_NUMBER] = address;
 121              		.loc 1 171 0
 122 0000 014B     		ldr	r3, .L8
 172:.\Generated_Source\PSoC4/PPMRstISR.c **** }
 123              		.loc 1 172 0
 124              		@ sp needed for prologue
 171:.\Generated_Source\PSoC4/PPMRstISR.c ****     CyRamVectors[CYINT_IRQ_BASE + PPMRstISR__INTC_NUMBER] = address;
 125              		.loc 1 171 0
 126 0002 5864     		str	r0, [r3, #68]
 172:.\Generated_Source\PSoC4/PPMRstISR.c **** }
 127              		.loc 1 172 0
 128 0004 7047     		bx	lr
 129              	.L9:
 130 0006 C046     		.align	2
 131              	.L8:
 132 0008 00000000 		.word	CyRamVectors
 133              		.cfi_endproc
 134              	.LFE37:
 135              		.size	PPMRstISR_SetVector, .-PPMRstISR_SetVector
ARM GAS  C:\Users\SNFU\AppData\Local\Temp\ccOQJqb1.s 			page 9


 136              		.section	.text.PPMRstISR_GetVector,"ax",%progbits
 137              		.align	1
 138              		.global	PPMRstISR_GetVector
 139              		.code	16
 140              		.thumb_func
 141              		.type	PPMRstISR_GetVector, %function
 142              	PPMRstISR_GetVector:
 143              	.LFB38:
 190:.\Generated_Source\PSoC4/PPMRstISR.c **** {
 144              		.loc 1 190 0
 145              		.cfi_startproc
 191:.\Generated_Source\PSoC4/PPMRstISR.c ****     return CyRamVectors[CYINT_IRQ_BASE + PPMRstISR__INTC_NUMBER];
 146              		.loc 1 191 0
 147 0000 014B     		ldr	r3, .L11
 192:.\Generated_Source\PSoC4/PPMRstISR.c **** }
 148              		.loc 1 192 0
 149              		@ sp needed for prologue
 191:.\Generated_Source\PSoC4/PPMRstISR.c ****     return CyRamVectors[CYINT_IRQ_BASE + PPMRstISR__INTC_NUMBER];
 150              		.loc 1 191 0
 151 0002 586C     		ldr	r0, [r3, #68]
 192:.\Generated_Source\PSoC4/PPMRstISR.c **** }
 152              		.loc 1 192 0
 153 0004 7047     		bx	lr
 154              	.L12:
 155 0006 C046     		.align	2
 156              	.L11:
 157 0008 00000000 		.word	CyRamVectors
 158              		.cfi_endproc
 159              	.LFE38:
 160              		.size	PPMRstISR_GetVector, .-PPMRstISR_GetVector
 161              		.section	.text.PPMRstISR_SetPriority,"ax",%progbits
 162              		.align	1
 163              		.global	PPMRstISR_SetPriority
 164              		.code	16
 165              		.thumb_func
 166              		.type	PPMRstISR_SetPriority, %function
 167              	PPMRstISR_SetPriority:
 168              	.LFB39:
 214:.\Generated_Source\PSoC4/PPMRstISR.c **** {
 169              		.loc 1 214 0
 170              		.cfi_startproc
 171              	.LVL3:
 172 0000 38B5     		push	{r3, r4, r5, lr}
 173              	.LCFI1:
 174              		.cfi_def_cfa_offset 16
 175              		.cfi_offset 3, -16
 176              		.cfi_offset 4, -12
 177              		.cfi_offset 5, -8
 178              		.cfi_offset 14, -4
 214:.\Generated_Source\PSoC4/PPMRstISR.c **** {
 179              		.loc 1 214 0
 180 0002 041C     		mov	r4, r0
 218:.\Generated_Source\PSoC4/PPMRstISR.c **** 	interruptState = CyEnterCriticalSection();
 181              		.loc 1 218 0
 182 0004 FFF7FEFF 		bl	CyEnterCriticalSection
 183              	.LVL4:
 219:.\Generated_Source\PSoC4/PPMRstISR.c ****     *PPMRstISR_INTC_PRIOR = (*PPMRstISR_INTC_PRIOR & (uint32)(~PPMRstISR__INTC_PRIOR_MASK)) |
ARM GAS  C:\Users\SNFU\AppData\Local\Temp\ccOQJqb1.s 			page 10


 184              		.loc 1 219 0
 185 0008 054B     		ldr	r3, .L14
 186 000a 0649     		ldr	r1, .L14+4
 187 000c 1D68     		ldr	r5, [r3]
 220:.\Generated_Source\PSoC4/PPMRstISR.c ****                                     ((uint32)priority << priorityOffset);
 188              		.loc 1 220 0
 189 000e A203     		lsl	r2, r4, #14
 219:.\Generated_Source\PSoC4/PPMRstISR.c ****     *PPMRstISR_INTC_PRIOR = (*PPMRstISR_INTC_PRIOR & (uint32)(~PPMRstISR__INTC_PRIOR_MASK)) |
 190              		.loc 1 219 0
 191 0010 2C1C     		mov	r4, r5
 192 0012 0C40     		and	r4, r1
 193 0014 1443     		orr	r4, r2
 194 0016 1C60     		str	r4, [r3]
 221:.\Generated_Source\PSoC4/PPMRstISR.c **** 	CyExitCriticalSection(interruptState);
 195              		.loc 1 221 0
 196 0018 FFF7FEFF 		bl	CyExitCriticalSection
 197              	.LVL5:
 222:.\Generated_Source\PSoC4/PPMRstISR.c **** }
 198              		.loc 1 222 0
 199              		@ sp needed for prologue
 200 001c 38BD     		pop	{r3, r4, r5, pc}
 201              	.L15:
 202 001e C046     		.align	2
 203              	.L14:
 204 0020 00E400E0 		.word	-536812544
 205 0024 FF3FFFFF 		.word	-49153
 206              		.cfi_endproc
 207              	.LFE39:
 208              		.size	PPMRstISR_SetPriority, .-PPMRstISR_SetPriority
 209              		.section	.text.PPMRstISR_StartEx,"ax",%progbits
 210              		.align	1
 211              		.global	PPMRstISR_StartEx
 212              		.code	16
 213              		.thumb_func
 214              		.type	PPMRstISR_StartEx, %function
 215              	PPMRstISR_StartEx:
 216              	.LFB34:
  87:.\Generated_Source\PSoC4/PPMRstISR.c **** {
 217              		.loc 1 87 0
 218              		.cfi_startproc
 219              	.LVL6:
 220 0000 10B5     		push	{r4, lr}
 221              	.LCFI2:
 222              		.cfi_def_cfa_offset 8
 223              		.cfi_offset 4, -8
 224              		.cfi_offset 14, -4
 225              	.LBB26:
 226              	.LBB27:
 227              		.loc 1 309 0
 228 0002 054B     		ldr	r3, .L17
 229              	.LBE27:
 230              	.LBE26:
 231              	.LBB29:
 232              	.LBB30:
 171:.\Generated_Source\PSoC4/PPMRstISR.c ****     CyRamVectors[CYINT_IRQ_BASE + PPMRstISR__INTC_NUMBER] = address;
 233              		.loc 1 171 0
 234 0004 0549     		ldr	r1, .L17+4
ARM GAS  C:\Users\SNFU\AppData\Local\Temp\ccOQJqb1.s 			page 11


 235              	.LBE30:
 236              	.LBE29:
 237              	.LBB32:
 238              	.LBB28:
 239              		.loc 1 309 0
 240 0006 0224     		mov	r4, #2
 241 0008 1C60     		str	r4, [r3]
 242              	.LVL7:
 243              	.LBE28:
 244              	.LBE32:
 245              	.LBB33:
 246              	.LBB31:
 171:.\Generated_Source\PSoC4/PPMRstISR.c ****     CyRamVectors[CYINT_IRQ_BASE + PPMRstISR__INTC_NUMBER] = address;
 247              		.loc 1 171 0
 248 000a 4864     		str	r0, [r1, #68]
 249              	.LBE31:
 250              	.LBE33:
  95:.\Generated_Source\PSoC4/PPMRstISR.c ****     PPMRstISR_SetPriority((uint8)PPMRstISR_INTC_PRIOR_NUMBER);
 251              		.loc 1 95 0
 252 000c 0320     		mov	r0, #3
 253              	.LVL8:
 254 000e FFF7FEFF 		bl	PPMRstISR_SetPriority
 255              	.LVL9:
 256              	.LBB34:
 257              	.LBB35:
 267:.\Generated_Source\PSoC4/PPMRstISR.c ****     *PPMRstISR_INTC_SET_EN = PPMRstISR__INTC_MASK;
 258              		.loc 1 267 0
 259 0012 0348     		ldr	r0, .L17+8
 260              	.LBE35:
 261              	.LBE34:
  99:.\Generated_Source\PSoC4/PPMRstISR.c **** }
 262              		.loc 1 99 0
 263              		@ sp needed for prologue
 264              	.LBB37:
 265              	.LBB36:
 267:.\Generated_Source\PSoC4/PPMRstISR.c ****     *PPMRstISR_INTC_SET_EN = PPMRstISR__INTC_MASK;
 266              		.loc 1 267 0
 267 0014 0460     		str	r4, [r0]
 268              	.LBE36:
 269              	.LBE37:
  99:.\Generated_Source\PSoC4/PPMRstISR.c **** }
 270              		.loc 1 99 0
 271 0016 10BD     		pop	{r4, pc}
 272              	.L18:
 273              		.align	2
 274              	.L17:
 275 0018 80E100E0 		.word	-536813184
 276 001c 00000000 		.word	CyRamVectors
 277 0020 00E100E0 		.word	-536813312
 278              		.cfi_endproc
 279              	.LFE34:
 280              		.size	PPMRstISR_StartEx, .-PPMRstISR_StartEx
 281              		.section	.text.PPMRstISR_Start,"ax",%progbits
 282              		.align	1
 283              		.global	PPMRstISR_Start
 284              		.code	16
 285              		.thumb_func
ARM GAS  C:\Users\SNFU\AppData\Local\Temp\ccOQJqb1.s 			page 12


 286              		.type	PPMRstISR_Start, %function
 287              	PPMRstISR_Start:
 288              	.LFB33:
  57:.\Generated_Source\PSoC4/PPMRstISR.c **** {
 289              		.loc 1 57 0
 290              		.cfi_startproc
 291 0000 10B5     		push	{r4, lr}
 292              	.LCFI3:
 293              		.cfi_def_cfa_offset 8
 294              		.cfi_offset 4, -8
 295              		.cfi_offset 14, -4
 296              	.LBB38:
 297              	.LBB39:
 298              		.loc 1 309 0
 299 0002 064B     		ldr	r3, .L20
 300              	.LBE39:
 301              	.LBE38:
 302              	.LBB41:
 303              	.LBB42:
 171:.\Generated_Source\PSoC4/PPMRstISR.c ****     CyRamVectors[CYINT_IRQ_BASE + PPMRstISR__INTC_NUMBER] = address;
 304              		.loc 1 171 0
 305 0004 064A     		ldr	r2, .L20+4
 306 0006 0748     		ldr	r0, .L20+8
 307              	.LBE42:
 308              	.LBE41:
 309              	.LBB44:
 310              	.LBB40:
 311              		.loc 1 309 0
 312 0008 0224     		mov	r4, #2
 313 000a 1C60     		str	r4, [r3]
 314              	.LVL10:
 315              	.LBE40:
 316              	.LBE44:
 317              	.LBB45:
 318              	.LBB43:
 171:.\Generated_Source\PSoC4/PPMRstISR.c ****     CyRamVectors[CYINT_IRQ_BASE + PPMRstISR__INTC_NUMBER] = address;
 319              		.loc 1 171 0
 320 000c 4264     		str	r2, [r0, #68]
 321              	.LBE43:
 322              	.LBE45:
  65:.\Generated_Source\PSoC4/PPMRstISR.c ****     PPMRstISR_SetPriority((uint8)PPMRstISR_INTC_PRIOR_NUMBER);
 323              		.loc 1 65 0
 324 000e 0320     		mov	r0, #3
 325 0010 FFF7FEFF 		bl	PPMRstISR_SetPriority
 326              	.LVL11:
 327              	.LBB46:
 328              	.LBB47:
 267:.\Generated_Source\PSoC4/PPMRstISR.c ****     *PPMRstISR_INTC_SET_EN = PPMRstISR__INTC_MASK;
 329              		.loc 1 267 0
 330 0014 0449     		ldr	r1, .L20+12
 331              	.LBE47:
 332              	.LBE46:
  69:.\Generated_Source\PSoC4/PPMRstISR.c **** }
 333              		.loc 1 69 0
 334              		@ sp needed for prologue
 335              	.LBB49:
 336              	.LBB48:
ARM GAS  C:\Users\SNFU\AppData\Local\Temp\ccOQJqb1.s 			page 13


 267:.\Generated_Source\PSoC4/PPMRstISR.c ****     *PPMRstISR_INTC_SET_EN = PPMRstISR__INTC_MASK;
 337              		.loc 1 267 0
 338 0016 0C60     		str	r4, [r1]
 339              	.LBE48:
 340              	.LBE49:
  69:.\Generated_Source\PSoC4/PPMRstISR.c **** }
 341              		.loc 1 69 0
 342 0018 10BD     		pop	{r4, pc}
 343              	.L21:
 344 001a C046     		.align	2
 345              	.L20:
 346 001c 80E100E0 		.word	-536813184
 347 0020 00000000 		.word	PPMRstISR_Interrupt
 348 0024 00000000 		.word	CyRamVectors
 349 0028 00E100E0 		.word	-536813312
 350              		.cfi_endproc
 351              	.LFE33:
 352              		.size	PPMRstISR_Start, .-PPMRstISR_Start
 353              		.section	.text.PPMRstISR_GetPriority,"ax",%progbits
 354              		.align	1
 355              		.global	PPMRstISR_GetPriority
 356              		.code	16
 357              		.thumb_func
 358              		.type	PPMRstISR_GetPriority, %function
 359              	PPMRstISR_GetPriority:
 360              	.LFB40:
 240:.\Generated_Source\PSoC4/PPMRstISR.c **** {
 361              		.loc 1 240 0
 362              		.cfi_startproc
 363              	.LVL12:
 244:.\Generated_Source\PSoC4/PPMRstISR.c ****     priority = (*PPMRstISR_INTC_PRIOR & PPMRstISR__INTC_PRIOR_MASK) >> priorityOffset;
 364              		.loc 1 244 0
 365 0000 024B     		ldr	r3, .L23
 247:.\Generated_Source\PSoC4/PPMRstISR.c **** }
 366              		.loc 1 247 0
 367              		@ sp needed for prologue
 244:.\Generated_Source\PSoC4/PPMRstISR.c ****     priority = (*PPMRstISR_INTC_PRIOR & PPMRstISR__INTC_PRIOR_MASK) >> priorityOffset;
 368              		.loc 1 244 0
 369 0002 1868     		ldr	r0, [r3]
 370              	.LVL13:
 371 0004 0104     		lsl	r1, r0, #16
 246:.\Generated_Source\PSoC4/PPMRstISR.c ****     return (uint8)priority;
 372              		.loc 1 246 0
 373 0006 880F     		lsr	r0, r1, #30
 374              	.LVL14:
 247:.\Generated_Source\PSoC4/PPMRstISR.c **** }
 375              		.loc 1 247 0
 376 0008 7047     		bx	lr
 377              	.L24:
 378 000a C046     		.align	2
 379              	.L23:
 380 000c 00E400E0 		.word	-536812544
 381              		.cfi_endproc
 382              	.LFE40:
 383              		.size	PPMRstISR_GetPriority, .-PPMRstISR_GetPriority
 384              		.section	.text.PPMRstISR_Enable,"ax",%progbits
 385              		.align	1
ARM GAS  C:\Users\SNFU\AppData\Local\Temp\ccOQJqb1.s 			page 14


 386              		.global	PPMRstISR_Enable
 387              		.code	16
 388              		.thumb_func
 389              		.type	PPMRstISR_Enable, %function
 390              	PPMRstISR_Enable:
 391              	.LFB41:
 265:.\Generated_Source\PSoC4/PPMRstISR.c **** {
 392              		.loc 1 265 0
 393              		.cfi_startproc
 267:.\Generated_Source\PSoC4/PPMRstISR.c ****     *PPMRstISR_INTC_SET_EN = PPMRstISR__INTC_MASK;
 394              		.loc 1 267 0
 395 0000 014B     		ldr	r3, .L26
 396 0002 0222     		mov	r2, #2
 397 0004 1A60     		str	r2, [r3]
 268:.\Generated_Source\PSoC4/PPMRstISR.c **** }
 398              		.loc 1 268 0
 399              		@ sp needed for prologue
 400 0006 7047     		bx	lr
 401              	.L27:
 402              		.align	2
 403              	.L26:
 404 0008 00E100E0 		.word	-536813312
 405              		.cfi_endproc
 406              	.LFE41:
 407              		.size	PPMRstISR_Enable, .-PPMRstISR_Enable
 408              		.section	.text.PPMRstISR_GetState,"ax",%progbits
 409              		.align	1
 410              		.global	PPMRstISR_GetState
 411              		.code	16
 412              		.thumb_func
 413              		.type	PPMRstISR_GetState, %function
 414              	PPMRstISR_GetState:
 415              	.LFB42:
 286:.\Generated_Source\PSoC4/PPMRstISR.c **** {
 416              		.loc 1 286 0
 417              		.cfi_startproc
 288:.\Generated_Source\PSoC4/PPMRstISR.c ****     return ((*PPMRstISR_INTC_SET_EN & (uint32)PPMRstISR__INTC_MASK) != 0u) ? 1u:0u;
 418              		.loc 1 288 0
 419 0000 024B     		ldr	r3, .L29
 289:.\Generated_Source\PSoC4/PPMRstISR.c **** }
 420              		.loc 1 289 0
 421              		@ sp needed for prologue
 288:.\Generated_Source\PSoC4/PPMRstISR.c ****     return ((*PPMRstISR_INTC_SET_EN & (uint32)PPMRstISR__INTC_MASK) != 0u) ? 1u:0u;
 422              		.loc 1 288 0
 423 0002 1868     		ldr	r0, [r3]
 424 0004 8107     		lsl	r1, r0, #30
 425 0006 C80F     		lsr	r0, r1, #31
 289:.\Generated_Source\PSoC4/PPMRstISR.c **** }
 426              		.loc 1 289 0
 427 0008 7047     		bx	lr
 428              	.L30:
 429 000a C046     		.align	2
 430              	.L29:
 431 000c 00E100E0 		.word	-536813312
 432              		.cfi_endproc
 433              	.LFE42:
 434              		.size	PPMRstISR_GetState, .-PPMRstISR_GetState
ARM GAS  C:\Users\SNFU\AppData\Local\Temp\ccOQJqb1.s 			page 15


 435              		.section	.text.PPMRstISR_Disable,"ax",%progbits
 436              		.align	1
 437              		.global	PPMRstISR_Disable
 438              		.code	16
 439              		.thumb_func
 440              		.type	PPMRstISR_Disable, %function
 441              	PPMRstISR_Disable:
 442              	.LFB43:
 307:.\Generated_Source\PSoC4/PPMRstISR.c **** {
 443              		.loc 1 307 0
 444              		.cfi_startproc
 445              		.loc 1 309 0
 446 0000 014B     		ldr	r3, .L32
 447 0002 0222     		mov	r2, #2
 448 0004 1A60     		str	r2, [r3]
 310:.\Generated_Source\PSoC4/PPMRstISR.c **** }
 449              		.loc 1 310 0
 450              		@ sp needed for prologue
 451 0006 7047     		bx	lr
 452              	.L33:
 453              		.align	2
 454              	.L32:
 455 0008 80E100E0 		.word	-536813184
 456              		.cfi_endproc
 457              	.LFE43:
 458              		.size	PPMRstISR_Disable, .-PPMRstISR_Disable
 459              		.section	.text.PPMRstISR_SetPending,"ax",%progbits
 460              		.align	1
 461              		.global	PPMRstISR_SetPending
 462              		.code	16
 463              		.thumb_func
 464              		.type	PPMRstISR_SetPending, %function
 465              	PPMRstISR_SetPending:
 466              	.LFB44:
 311:.\Generated_Source\PSoC4/PPMRstISR.c **** 
 312:.\Generated_Source\PSoC4/PPMRstISR.c **** 
 313:.\Generated_Source\PSoC4/PPMRstISR.c **** /*******************************************************************************
 314:.\Generated_Source\PSoC4/PPMRstISR.c **** * Function Name: PPMRstISR_SetPending
 315:.\Generated_Source\PSoC4/PPMRstISR.c **** ********************************************************************************
 316:.\Generated_Source\PSoC4/PPMRstISR.c **** *
 317:.\Generated_Source\PSoC4/PPMRstISR.c **** * Summary:
 318:.\Generated_Source\PSoC4/PPMRstISR.c **** *   Causes the Interrupt to enter the pending state, a software method of
 319:.\Generated_Source\PSoC4/PPMRstISR.c **** *   generating the interrupt.
 320:.\Generated_Source\PSoC4/PPMRstISR.c **** *
 321:.\Generated_Source\PSoC4/PPMRstISR.c **** * Parameters:
 322:.\Generated_Source\PSoC4/PPMRstISR.c **** *   None
 323:.\Generated_Source\PSoC4/PPMRstISR.c **** *
 324:.\Generated_Source\PSoC4/PPMRstISR.c **** * Return:
 325:.\Generated_Source\PSoC4/PPMRstISR.c **** *   None
 326:.\Generated_Source\PSoC4/PPMRstISR.c **** *
 327:.\Generated_Source\PSoC4/PPMRstISR.c **** *******************************************************************************/
 328:.\Generated_Source\PSoC4/PPMRstISR.c **** void PPMRstISR_SetPending(void)
 329:.\Generated_Source\PSoC4/PPMRstISR.c **** {
 467              		.loc 1 329 0
 468              		.cfi_startproc
 330:.\Generated_Source\PSoC4/PPMRstISR.c ****     *PPMRstISR_INTC_SET_PD = PPMRstISR__INTC_MASK;
 469              		.loc 1 330 0
ARM GAS  C:\Users\SNFU\AppData\Local\Temp\ccOQJqb1.s 			page 16


 470 0000 014B     		ldr	r3, .L35
 471 0002 0222     		mov	r2, #2
 472 0004 1A60     		str	r2, [r3]
 331:.\Generated_Source\PSoC4/PPMRstISR.c **** }
 473              		.loc 1 331 0
 474              		@ sp needed for prologue
 475 0006 7047     		bx	lr
 476              	.L36:
 477              		.align	2
 478              	.L35:
 479 0008 00E200E0 		.word	-536813056
 480              		.cfi_endproc
 481              	.LFE44:
 482              		.size	PPMRstISR_SetPending, .-PPMRstISR_SetPending
 483              		.section	.text.PPMRstISR_ClearPending,"ax",%progbits
 484              		.align	1
 485              		.global	PPMRstISR_ClearPending
 486              		.code	16
 487              		.thumb_func
 488              		.type	PPMRstISR_ClearPending, %function
 489              	PPMRstISR_ClearPending:
 490              	.LFB45:
 332:.\Generated_Source\PSoC4/PPMRstISR.c **** 
 333:.\Generated_Source\PSoC4/PPMRstISR.c **** 
 334:.\Generated_Source\PSoC4/PPMRstISR.c **** /*******************************************************************************
 335:.\Generated_Source\PSoC4/PPMRstISR.c **** * Function Name: PPMRstISR_ClearPending
 336:.\Generated_Source\PSoC4/PPMRstISR.c **** ********************************************************************************
 337:.\Generated_Source\PSoC4/PPMRstISR.c **** *
 338:.\Generated_Source\PSoC4/PPMRstISR.c **** * Summary:
 339:.\Generated_Source\PSoC4/PPMRstISR.c **** *   Clears a pending interrupt.
 340:.\Generated_Source\PSoC4/PPMRstISR.c **** *
 341:.\Generated_Source\PSoC4/PPMRstISR.c **** * Parameters:
 342:.\Generated_Source\PSoC4/PPMRstISR.c **** *   None
 343:.\Generated_Source\PSoC4/PPMRstISR.c **** *
 344:.\Generated_Source\PSoC4/PPMRstISR.c **** * Return:
 345:.\Generated_Source\PSoC4/PPMRstISR.c **** *   None
 346:.\Generated_Source\PSoC4/PPMRstISR.c **** *
 347:.\Generated_Source\PSoC4/PPMRstISR.c **** *******************************************************************************/
 348:.\Generated_Source\PSoC4/PPMRstISR.c **** void PPMRstISR_ClearPending(void)
 349:.\Generated_Source\PSoC4/PPMRstISR.c **** {
 491              		.loc 1 349 0
 492              		.cfi_startproc
 350:.\Generated_Source\PSoC4/PPMRstISR.c ****     *PPMRstISR_INTC_CLR_PD = PPMRstISR__INTC_MASK;
 493              		.loc 1 350 0
 494 0000 014B     		ldr	r3, .L38
 495 0002 0222     		mov	r2, #2
 496 0004 1A60     		str	r2, [r3]
 351:.\Generated_Source\PSoC4/PPMRstISR.c **** }
 497              		.loc 1 351 0
 498              		@ sp needed for prologue
 499 0006 7047     		bx	lr
 500              	.L39:
 501              		.align	2
 502              	.L38:
 503 0008 80E200E0 		.word	-536812928
 504              		.cfi_endproc
 505              	.LFE45:
ARM GAS  C:\Users\SNFU\AppData\Local\Temp\ccOQJqb1.s 			page 17


 506              		.size	PPMRstISR_ClearPending, .-PPMRstISR_ClearPending
 507              		.global	overflow
 508              		.bss
 509              		.set	.LANCHOR0,. + 0
 510              		.type	overflow, %object
 511              		.size	overflow, 1
 512              	overflow:
 513 0000 00       		.space	1
 514              		.text
 515              	.Letext0:
 516              		.file 2 "c:\\program files\\cypress\\psoc creator\\3.0\\psoc creator\\import\\gnu_cs\\arm\\4.7.3\\
 517              		.file 3 "./Generated_Source/PSoC4/cytypes.h"
 518              		.file 4 "./Generated_Source/PSoC4/PPMCounter.h"
 519              		.file 5 "./Generated_Source/PSoC4/CyLib.h"