ARM GAS  C:\Users\SNFU\AppData\Local\Temp\ccR1RbrG.s 			page 1


   1              		.cpu cortex-m0
   2              		.fpu softvfp
   3              		.eabi_attribute 20, 1
   4              		.eabi_attribute 21, 1
   5              		.eabi_attribute 23, 3
   6              		.eabi_attribute 24, 1
   7              		.eabi_attribute 25, 1
   8              		.eabi_attribute 26, 1
   9              		.eabi_attribute 30, 6
  10              		.eabi_attribute 34, 0
  11              		.eabi_attribute 18, 4
  12              		.code	16
  13              		.file	"ServoISR.c"
  14              		.text
  15              	.Ltext0:
  16              		.cfi_sections	.debug_frame
  17              		.global	PWM_channel
  18              		.bss
  19              		.type	PWM_channel, %object
  20              		.size	PWM_channel, 1
  21              	PWM_channel:
  22 0000 00       		.space	1
  23              		.section	.text.ServoISR_Start,"ax",%progbits
  24              		.align	2
  25              		.global	ServoISR_Start
  26              		.code	16
  27              		.thumb_func
  28              		.type	ServoISR_Start, %function
  29              	ServoISR_Start:
  30              	.LFB33:
  31              		.file 1 ".\\Generated_Source\\PSoC4\\ServoISR.c"
   1:.\Generated_Source\PSoC4/ServoISR.c **** /*******************************************************************************
   2:.\Generated_Source\PSoC4/ServoISR.c **** * File Name: ServoISR.c  
   3:.\Generated_Source\PSoC4/ServoISR.c **** * Version 1.70
   4:.\Generated_Source\PSoC4/ServoISR.c **** *
   5:.\Generated_Source\PSoC4/ServoISR.c **** *  Description:
   6:.\Generated_Source\PSoC4/ServoISR.c **** *   API for controlling the state of an interrupt.
   7:.\Generated_Source\PSoC4/ServoISR.c **** *
   8:.\Generated_Source\PSoC4/ServoISR.c **** *
   9:.\Generated_Source\PSoC4/ServoISR.c **** *  Note:
  10:.\Generated_Source\PSoC4/ServoISR.c **** *
  11:.\Generated_Source\PSoC4/ServoISR.c **** ********************************************************************************
  12:.\Generated_Source\PSoC4/ServoISR.c **** * Copyright 2008-2012, Cypress Semiconductor Corporation.  All rights reserved.
  13:.\Generated_Source\PSoC4/ServoISR.c **** * You may use this file only in accordance with the license, terms, conditions, 
  14:.\Generated_Source\PSoC4/ServoISR.c **** * disclaimers, and limitations in the end user license agreement accompanying 
  15:.\Generated_Source\PSoC4/ServoISR.c **** * the software package with which this file was provided.
  16:.\Generated_Source\PSoC4/ServoISR.c **** *******************************************************************************/
  17:.\Generated_Source\PSoC4/ServoISR.c **** 
  18:.\Generated_Source\PSoC4/ServoISR.c **** 
  19:.\Generated_Source\PSoC4/ServoISR.c **** #include <cydevice_trm.h>
  20:.\Generated_Source\PSoC4/ServoISR.c **** #include <CyLib.h>
  21:.\Generated_Source\PSoC4/ServoISR.c **** #include <ServoISR.h>
  22:.\Generated_Source\PSoC4/ServoISR.c **** 
  23:.\Generated_Source\PSoC4/ServoISR.c **** #if !defined(ServoISR__REMOVED) /* Check for removal by optimization */
  24:.\Generated_Source\PSoC4/ServoISR.c **** 
  25:.\Generated_Source\PSoC4/ServoISR.c **** /*******************************************************************************
  26:.\Generated_Source\PSoC4/ServoISR.c **** *  Place your includes, defines and code here 
ARM GAS  C:\Users\SNFU\AppData\Local\Temp\ccR1RbrG.s 			page 2


  27:.\Generated_Source\PSoC4/ServoISR.c **** ********************************************************************************/
  28:.\Generated_Source\PSoC4/ServoISR.c **** /* `#START ServoISR_intc` */
  29:.\Generated_Source\PSoC4/ServoISR.c **** #include <project.h>
  30:.\Generated_Source\PSoC4/ServoISR.c **** extern uint16_t ctrl_in[];
  31:.\Generated_Source\PSoC4/ServoISR.c **** extern uint16_t ctrl_out[];
  32:.\Generated_Source\PSoC4/ServoISR.c **** uint8_t PWM_channel = 0;    // the PWM output channel
  33:.\Generated_Source\PSoC4/ServoISR.c **** 
  34:.\Generated_Source\PSoC4/ServoISR.c **** /* `#END` */
  35:.\Generated_Source\PSoC4/ServoISR.c **** 
  36:.\Generated_Source\PSoC4/ServoISR.c **** extern cyisraddress CyRamVectors[CYINT_IRQ_BASE + CY_NUM_INTERRUPTS];
  37:.\Generated_Source\PSoC4/ServoISR.c **** 
  38:.\Generated_Source\PSoC4/ServoISR.c **** /* Declared in startup, used to set unused interrupts to. */
  39:.\Generated_Source\PSoC4/ServoISR.c **** CY_ISR_PROTO(IntDefaultHandler);
  40:.\Generated_Source\PSoC4/ServoISR.c **** 
  41:.\Generated_Source\PSoC4/ServoISR.c **** 
  42:.\Generated_Source\PSoC4/ServoISR.c **** /*******************************************************************************
  43:.\Generated_Source\PSoC4/ServoISR.c **** * Function Name: ServoISR_Start
  44:.\Generated_Source\PSoC4/ServoISR.c **** ********************************************************************************
  45:.\Generated_Source\PSoC4/ServoISR.c **** *
  46:.\Generated_Source\PSoC4/ServoISR.c **** * Summary:
  47:.\Generated_Source\PSoC4/ServoISR.c **** *  Set up the interrupt and enable it.
  48:.\Generated_Source\PSoC4/ServoISR.c **** *
  49:.\Generated_Source\PSoC4/ServoISR.c **** * Parameters:  
  50:.\Generated_Source\PSoC4/ServoISR.c **** *   None
  51:.\Generated_Source\PSoC4/ServoISR.c **** *
  52:.\Generated_Source\PSoC4/ServoISR.c **** * Return:
  53:.\Generated_Source\PSoC4/ServoISR.c **** *   None
  54:.\Generated_Source\PSoC4/ServoISR.c **** *
  55:.\Generated_Source\PSoC4/ServoISR.c **** *******************************************************************************/
  56:.\Generated_Source\PSoC4/ServoISR.c **** void ServoISR_Start(void)
  57:.\Generated_Source\PSoC4/ServoISR.c **** {
  32              		.loc 1 57 0
  33              		.cfi_startproc
  34 0000 80B5     		push	{r7, lr}
  35              	.LCFI0:
  36              		.cfi_def_cfa_offset 8
  37              		.cfi_offset 7, -8
  38              		.cfi_offset 14, -4
  39 0002 00AF     		add	r7, sp, #0
  40              	.LCFI1:
  41              		.cfi_def_cfa_register 7
  58:.\Generated_Source\PSoC4/ServoISR.c ****     /* For all we know the interrupt is active. */
  59:.\Generated_Source\PSoC4/ServoISR.c ****     ServoISR_Disable();
  42              		.loc 1 59 0
  43 0004 FFF7FEFF 		bl	ServoISR_Disable
  60:.\Generated_Source\PSoC4/ServoISR.c **** 
  61:.\Generated_Source\PSoC4/ServoISR.c ****     /* Set the ISR to point to the ServoISR Interrupt. */
  62:.\Generated_Source\PSoC4/ServoISR.c ****     ServoISR_SetVector(&ServoISR_Interrupt);
  44              		.loc 1 62 0
  45 0008 054B     		ldr	r3, .L2
  46 000a 181C     		mov	r0, r3
  47 000c FFF7FEFF 		bl	ServoISR_SetVector
  63:.\Generated_Source\PSoC4/ServoISR.c **** 
  64:.\Generated_Source\PSoC4/ServoISR.c ****     /* Set the priority. */
  65:.\Generated_Source\PSoC4/ServoISR.c ****     ServoISR_SetPriority((uint8)ServoISR_INTC_PRIOR_NUMBER);
  48              		.loc 1 65 0
  49 0010 0320     		mov	r0, #3
ARM GAS  C:\Users\SNFU\AppData\Local\Temp\ccR1RbrG.s 			page 3


  50 0012 FFF7FEFF 		bl	ServoISR_SetPriority
  66:.\Generated_Source\PSoC4/ServoISR.c **** 
  67:.\Generated_Source\PSoC4/ServoISR.c ****     /* Enable it. */
  68:.\Generated_Source\PSoC4/ServoISR.c ****     ServoISR_Enable();
  51              		.loc 1 68 0
  52 0016 FFF7FEFF 		bl	ServoISR_Enable
  69:.\Generated_Source\PSoC4/ServoISR.c **** }
  53              		.loc 1 69 0
  54 001a BD46     		mov	sp, r7
  55              		@ sp needed for prologue
  56 001c 80BD     		pop	{r7, pc}
  57              	.L3:
  58 001e C046     		.align	2
  59              	.L2:
  60 0020 00000000 		.word	ServoISR_Interrupt
  61              		.cfi_endproc
  62              	.LFE33:
  63              		.size	ServoISR_Start, .-ServoISR_Start
  64              		.section	.text.ServoISR_StartEx,"ax",%progbits
  65              		.align	2
  66              		.global	ServoISR_StartEx
  67              		.code	16
  68              		.thumb_func
  69              		.type	ServoISR_StartEx, %function
  70              	ServoISR_StartEx:
  71              	.LFB34:
  70:.\Generated_Source\PSoC4/ServoISR.c **** 
  71:.\Generated_Source\PSoC4/ServoISR.c **** 
  72:.\Generated_Source\PSoC4/ServoISR.c **** /*******************************************************************************
  73:.\Generated_Source\PSoC4/ServoISR.c **** * Function Name: ServoISR_StartEx
  74:.\Generated_Source\PSoC4/ServoISR.c **** ********************************************************************************
  75:.\Generated_Source\PSoC4/ServoISR.c **** *
  76:.\Generated_Source\PSoC4/ServoISR.c **** * Summary:
  77:.\Generated_Source\PSoC4/ServoISR.c **** *  Set up the interrupt and enable it.
  78:.\Generated_Source\PSoC4/ServoISR.c **** *
  79:.\Generated_Source\PSoC4/ServoISR.c **** * Parameters:  
  80:.\Generated_Source\PSoC4/ServoISR.c **** *   address: Address of the ISR to set in the interrupt vector table.
  81:.\Generated_Source\PSoC4/ServoISR.c **** *
  82:.\Generated_Source\PSoC4/ServoISR.c **** * Return:
  83:.\Generated_Source\PSoC4/ServoISR.c **** *   None
  84:.\Generated_Source\PSoC4/ServoISR.c **** *
  85:.\Generated_Source\PSoC4/ServoISR.c **** *******************************************************************************/
  86:.\Generated_Source\PSoC4/ServoISR.c **** void ServoISR_StartEx(cyisraddress address)
  87:.\Generated_Source\PSoC4/ServoISR.c **** {
  72              		.loc 1 87 0
  73              		.cfi_startproc
  74 0000 80B5     		push	{r7, lr}
  75              	.LCFI2:
  76              		.cfi_def_cfa_offset 8
  77              		.cfi_offset 7, -8
  78              		.cfi_offset 14, -4
  79 0002 82B0     		sub	sp, sp, #8
  80              	.LCFI3:
  81              		.cfi_def_cfa_offset 16
  82 0004 00AF     		add	r7, sp, #0
  83              	.LCFI4:
  84              		.cfi_def_cfa_register 7
ARM GAS  C:\Users\SNFU\AppData\Local\Temp\ccR1RbrG.s 			page 4


  85 0006 7860     		str	r0, [r7, #4]
  88:.\Generated_Source\PSoC4/ServoISR.c ****     /* For all we know the interrupt is active. */
  89:.\Generated_Source\PSoC4/ServoISR.c ****     ServoISR_Disable();
  86              		.loc 1 89 0
  87 0008 FFF7FEFF 		bl	ServoISR_Disable
  90:.\Generated_Source\PSoC4/ServoISR.c **** 
  91:.\Generated_Source\PSoC4/ServoISR.c ****     /* Set the ISR to point to the ServoISR Interrupt. */
  92:.\Generated_Source\PSoC4/ServoISR.c ****     ServoISR_SetVector(address);
  88              		.loc 1 92 0
  89 000c 7B68     		ldr	r3, [r7, #4]
  90 000e 181C     		mov	r0, r3
  91 0010 FFF7FEFF 		bl	ServoISR_SetVector
  93:.\Generated_Source\PSoC4/ServoISR.c **** 
  94:.\Generated_Source\PSoC4/ServoISR.c ****     /* Set the priority. */
  95:.\Generated_Source\PSoC4/ServoISR.c ****     ServoISR_SetPriority((uint8)ServoISR_INTC_PRIOR_NUMBER);
  92              		.loc 1 95 0
  93 0014 0320     		mov	r0, #3
  94 0016 FFF7FEFF 		bl	ServoISR_SetPriority
  96:.\Generated_Source\PSoC4/ServoISR.c **** 
  97:.\Generated_Source\PSoC4/ServoISR.c ****     /* Enable it. */
  98:.\Generated_Source\PSoC4/ServoISR.c ****     ServoISR_Enable();
  95              		.loc 1 98 0
  96 001a FFF7FEFF 		bl	ServoISR_Enable
  99:.\Generated_Source\PSoC4/ServoISR.c **** }
  97              		.loc 1 99 0
  98 001e BD46     		mov	sp, r7
  99 0020 02B0     		add	sp, sp, #8
 100              		@ sp needed for prologue
 101 0022 80BD     		pop	{r7, pc}
 102              		.cfi_endproc
 103              	.LFE34:
 104              		.size	ServoISR_StartEx, .-ServoISR_StartEx
 105              		.section	.text.ServoISR_Stop,"ax",%progbits
 106              		.align	2
 107              		.global	ServoISR_Stop
 108              		.code	16
 109              		.thumb_func
 110              		.type	ServoISR_Stop, %function
 111              	ServoISR_Stop:
 112              	.LFB35:
 100:.\Generated_Source\PSoC4/ServoISR.c **** 
 101:.\Generated_Source\PSoC4/ServoISR.c **** 
 102:.\Generated_Source\PSoC4/ServoISR.c **** /*******************************************************************************
 103:.\Generated_Source\PSoC4/ServoISR.c **** * Function Name: ServoISR_Stop
 104:.\Generated_Source\PSoC4/ServoISR.c **** ********************************************************************************
 105:.\Generated_Source\PSoC4/ServoISR.c **** *
 106:.\Generated_Source\PSoC4/ServoISR.c **** * Summary:
 107:.\Generated_Source\PSoC4/ServoISR.c **** *   Disables and removes the interrupt.
 108:.\Generated_Source\PSoC4/ServoISR.c **** *
 109:.\Generated_Source\PSoC4/ServoISR.c **** * Parameters:  
 110:.\Generated_Source\PSoC4/ServoISR.c **** *
 111:.\Generated_Source\PSoC4/ServoISR.c **** * Return:
 112:.\Generated_Source\PSoC4/ServoISR.c **** *   None
 113:.\Generated_Source\PSoC4/ServoISR.c **** *
 114:.\Generated_Source\PSoC4/ServoISR.c **** *******************************************************************************/
 115:.\Generated_Source\PSoC4/ServoISR.c **** void ServoISR_Stop(void)
 116:.\Generated_Source\PSoC4/ServoISR.c **** {
ARM GAS  C:\Users\SNFU\AppData\Local\Temp\ccR1RbrG.s 			page 5


 113              		.loc 1 116 0
 114              		.cfi_startproc
 115 0000 80B5     		push	{r7, lr}
 116              	.LCFI5:
 117              		.cfi_def_cfa_offset 8
 118              		.cfi_offset 7, -8
 119              		.cfi_offset 14, -4
 120 0002 00AF     		add	r7, sp, #0
 121              	.LCFI6:
 122              		.cfi_def_cfa_register 7
 117:.\Generated_Source\PSoC4/ServoISR.c ****     /* Disable this interrupt. */
 118:.\Generated_Source\PSoC4/ServoISR.c ****     ServoISR_Disable();
 123              		.loc 1 118 0
 124 0004 FFF7FEFF 		bl	ServoISR_Disable
 119:.\Generated_Source\PSoC4/ServoISR.c **** 
 120:.\Generated_Source\PSoC4/ServoISR.c ****     /* Set the ISR to point to the passive one. */
 121:.\Generated_Source\PSoC4/ServoISR.c ****     ServoISR_SetVector(&IntDefaultHandler);
 125              		.loc 1 121 0
 126 0008 024B     		ldr	r3, .L6
 127 000a 181C     		mov	r0, r3
 128 000c FFF7FEFF 		bl	ServoISR_SetVector
 122:.\Generated_Source\PSoC4/ServoISR.c **** }
 129              		.loc 1 122 0
 130 0010 BD46     		mov	sp, r7
 131              		@ sp needed for prologue
 132 0012 80BD     		pop	{r7, pc}
 133              	.L7:
 134              		.align	2
 135              	.L6:
 136 0014 00000000 		.word	IntDefaultHandler
 137              		.cfi_endproc
 138              	.LFE35:
 139              		.size	ServoISR_Stop, .-ServoISR_Stop
 140              		.section	.text.ServoISR_Interrupt,"ax",%progbits
 141              		.align	2
 142              		.global	ServoISR_Interrupt
 143              		.code	16
 144              		.thumb_func
 145              		.type	ServoISR_Interrupt, %function
 146              	ServoISR_Interrupt:
 147              	.LFB36:
 123:.\Generated_Source\PSoC4/ServoISR.c **** 
 124:.\Generated_Source\PSoC4/ServoISR.c **** 
 125:.\Generated_Source\PSoC4/ServoISR.c **** /*******************************************************************************
 126:.\Generated_Source\PSoC4/ServoISR.c **** * Function Name: ServoISR_Interrupt
 127:.\Generated_Source\PSoC4/ServoISR.c **** ********************************************************************************
 128:.\Generated_Source\PSoC4/ServoISR.c **** *
 129:.\Generated_Source\PSoC4/ServoISR.c **** * Summary:
 130:.\Generated_Source\PSoC4/ServoISR.c **** *   The default Interrupt Service Routine for ServoISR.
 131:.\Generated_Source\PSoC4/ServoISR.c **** *
 132:.\Generated_Source\PSoC4/ServoISR.c **** *   Add custom code between the coments to keep the next version of this file
 133:.\Generated_Source\PSoC4/ServoISR.c **** *   from over writting your code.
 134:.\Generated_Source\PSoC4/ServoISR.c **** *
 135:.\Generated_Source\PSoC4/ServoISR.c **** * Parameters:  
 136:.\Generated_Source\PSoC4/ServoISR.c **** *   None
 137:.\Generated_Source\PSoC4/ServoISR.c **** *
 138:.\Generated_Source\PSoC4/ServoISR.c **** * Return:
ARM GAS  C:\Users\SNFU\AppData\Local\Temp\ccR1RbrG.s 			page 6


 139:.\Generated_Source\PSoC4/ServoISR.c **** *   None
 140:.\Generated_Source\PSoC4/ServoISR.c **** *
 141:.\Generated_Source\PSoC4/ServoISR.c **** *******************************************************************************/
 142:.\Generated_Source\PSoC4/ServoISR.c **** CY_ISR(ServoISR_Interrupt)
 143:.\Generated_Source\PSoC4/ServoISR.c **** {
 148              		.loc 1 143 0
 149              		.cfi_startproc
 150 0000 80B5     		push	{r7, lr}
 151              	.LCFI7:
 152              		.cfi_def_cfa_offset 8
 153              		.cfi_offset 7, -8
 154              		.cfi_offset 14, -4
 155 0002 00AF     		add	r7, sp, #0
 156              	.LCFI8:
 157              		.cfi_def_cfa_register 7
 144:.\Generated_Source\PSoC4/ServoISR.c ****     /*  Place your Interrupt code here. */
 145:.\Generated_Source\PSoC4/ServoISR.c ****     /* `#START ServoISR_Interrupt` */
 146:.\Generated_Source\PSoC4/ServoISR.c ****     ServoTimer_ClearInterrupt(ServoTimer_INTR_MASK_TC);
 158              		.loc 1 146 0
 159 0004 0120     		mov	r0, #1
 160 0006 FFF7FEFF 		bl	ServoTimer_ClearInterrupt
 147:.\Generated_Source\PSoC4/ServoISR.c ****     switch (PWM_channel)
 161              		.loc 1 147 0
 162 000a 764B     		ldr	r3, .L25
 163 000c 1B78     		ldrb	r3, [r3]
 164 000e 0C2B     		cmp	r3, #12
 165 0010 00D9     		bls	.LCB110
 166 0012 D4E0     		b	.L9	@long jump
 167              	.LCB110:
 168 0014 9A00     		lsl	r2, r3, #2
 169 0016 744B     		ldr	r3, .L25+4
 170 0018 D318     		add	r3, r2, r3
 171 001a 1B68     		ldr	r3, [r3]
 172 001c 9F46     		mov	pc, r3
 173              		.section	.rodata
 174              		.align	2
 175              	.L23:
 176 0000 1E000000 		.word	.L10
 177 0004 3E000000 		.word	.L11
 178 0008 5E000000 		.word	.L12
 179 000c 7E000000 		.word	.L13
 180 0010 9E000000 		.word	.L14
 181 0014 BE000000 		.word	.L15
 182 0018 DE000000 		.word	.L16
 183 001c FE000000 		.word	.L17
 184 0020 1E010000 		.word	.L18
 185 0024 3E010000 		.word	.L19
 186 0028 5E010000 		.word	.L20
 187 002c 7E010000 		.word	.L21
 188 0030 9E010000 		.word	.L22
 189              		.section	.text.ServoISR_Interrupt
 190              	.L10:
 148:.\Generated_Source\PSoC4/ServoISR.c ****     {
 149:.\Generated_Source\PSoC4/ServoISR.c ****         case 0:
 150:.\Generated_Source\PSoC4/ServoISR.c ****             // Set the Pin of output 12 to low
 151:.\Generated_Source\PSoC4/ServoISR.c ****             Out_Sp2_Pin_Write(0x00);
 191              		.loc 1 151 0
ARM GAS  C:\Users\SNFU\AppData\Local\Temp\ccR1RbrG.s 			page 7


 192 001e 0020     		mov	r0, #0
 193 0020 FFF7FEFF 		bl	Out_Sp2_Pin_Write
 152:.\Generated_Source\PSoC4/ServoISR.c ****             // Set the Pin of output 0 to high
 153:.\Generated_Source\PSoC4/ServoISR.c ****             Out_Mot_Pin_Write(0xFF);
 194              		.loc 1 153 0
 195 0024 FF20     		mov	r0, #255
 196 0026 FFF7FEFF 		bl	Out_Mot_Pin_Write
 154:.\Generated_Source\PSoC4/ServoISR.c ****             
 155:.\Generated_Source\PSoC4/ServoISR.c ****             ServoTimer_WritePeriod(ctrl_out[PWM_channel]);    // mot
 197              		.loc 1 155 0
 198 002a 6E4B     		ldr	r3, .L25
 199 002c 1B78     		ldrb	r3, [r3]
 200 002e 1A1C     		mov	r2, r3
 201 0030 6E4B     		ldr	r3, .L25+8
 202 0032 5200     		lsl	r2, r2, #1
 203 0034 D35A     		ldrh	r3, [r2, r3]
 204 0036 181C     		mov	r0, r3
 205 0038 FFF7FEFF 		bl	ServoTimer_WritePeriod
 156:.\Generated_Source\PSoC4/ServoISR.c ****         break;
 206              		.loc 1 156 0
 207 003c BFE0     		b	.L9
 208              	.L11:
 157:.\Generated_Source\PSoC4/ServoISR.c ****         
 158:.\Generated_Source\PSoC4/ServoISR.c ****         case 1:
 159:.\Generated_Source\PSoC4/ServoISR.c ****             // Set the Pin of output 0 to low
 160:.\Generated_Source\PSoC4/ServoISR.c ****             Out_Mot_Pin_Write(0x00);
 209              		.loc 1 160 0
 210 003e 0020     		mov	r0, #0
 211 0040 FFF7FEFF 		bl	Out_Mot_Pin_Write
 161:.\Generated_Source\PSoC4/ServoISR.c ****             // Set the Pin of output 1 to high
 162:.\Generated_Source\PSoC4/ServoISR.c ****             Out_Ail1_Pin_Write(0xFF);                         // ail1
 212              		.loc 1 162 0
 213 0044 FF20     		mov	r0, #255
 214 0046 FFF7FEFF 		bl	Out_Ail1_Pin_Write
 163:.\Generated_Source\PSoC4/ServoISR.c ****             ServoTimer_WritePeriod(ctrl_out[PWM_channel]);    
 215              		.loc 1 163 0
 216 004a 664B     		ldr	r3, .L25
 217 004c 1B78     		ldrb	r3, [r3]
 218 004e 1A1C     		mov	r2, r3
 219 0050 664B     		ldr	r3, .L25+8
 220 0052 5200     		lsl	r2, r2, #1
 221 0054 D35A     		ldrh	r3, [r2, r3]
 222 0056 181C     		mov	r0, r3
 223 0058 FFF7FEFF 		bl	ServoTimer_WritePeriod
 164:.\Generated_Source\PSoC4/ServoISR.c ****         break;
 224              		.loc 1 164 0
 225 005c AFE0     		b	.L9
 226              	.L12:
 165:.\Generated_Source\PSoC4/ServoISR.c ****             
 166:.\Generated_Source\PSoC4/ServoISR.c ****         case 2:
 167:.\Generated_Source\PSoC4/ServoISR.c ****             // Set the Pin of output 1 to low
 168:.\Generated_Source\PSoC4/ServoISR.c ****             Out_Ail1_Pin_Write(0x00);
 227              		.loc 1 168 0
 228 005e 0020     		mov	r0, #0
 229 0060 FFF7FEFF 		bl	Out_Ail1_Pin_Write
 169:.\Generated_Source\PSoC4/ServoISR.c ****             // Set the Pin of output 2 to high
 170:.\Generated_Source\PSoC4/ServoISR.c ****             Out_Ail2_Pin_Write(0xFF);                          // ail2
ARM GAS  C:\Users\SNFU\AppData\Local\Temp\ccR1RbrG.s 			page 8


 230              		.loc 1 170 0
 231 0064 FF20     		mov	r0, #255
 232 0066 FFF7FEFF 		bl	Out_Ail2_Pin_Write
 171:.\Generated_Source\PSoC4/ServoISR.c ****             ServoTimer_WritePeriod(ctrl_out[PWM_channel]);    
 233              		.loc 1 171 0
 234 006a 5E4B     		ldr	r3, .L25
 235 006c 1B78     		ldrb	r3, [r3]
 236 006e 1A1C     		mov	r2, r3
 237 0070 5E4B     		ldr	r3, .L25+8
 238 0072 5200     		lsl	r2, r2, #1
 239 0074 D35A     		ldrh	r3, [r2, r3]
 240 0076 181C     		mov	r0, r3
 241 0078 FFF7FEFF 		bl	ServoTimer_WritePeriod
 172:.\Generated_Source\PSoC4/ServoISR.c ****         break;    
 242              		.loc 1 172 0
 243 007c 9FE0     		b	.L9
 244              	.L13:
 173:.\Generated_Source\PSoC4/ServoISR.c ****        
 174:.\Generated_Source\PSoC4/ServoISR.c ****         case 3:
 175:.\Generated_Source\PSoC4/ServoISR.c ****             // Set the Pin of output 2 to low
 176:.\Generated_Source\PSoC4/ServoISR.c ****             Out_Ail2_Pin_Write(0x00);
 245              		.loc 1 176 0
 246 007e 0020     		mov	r0, #0
 247 0080 FFF7FEFF 		bl	Out_Ail2_Pin_Write
 177:.\Generated_Source\PSoC4/ServoISR.c ****             // Set the Pin of output 3 to high
 178:.\Generated_Source\PSoC4/ServoISR.c ****             Out_Ele1_Pin_Write(0xFF);
 248              		.loc 1 178 0
 249 0084 FF20     		mov	r0, #255
 250 0086 FFF7FEFF 		bl	Out_Ele1_Pin_Write
 179:.\Generated_Source\PSoC4/ServoISR.c ****             // Set Timer Value to next output
 180:.\Generated_Source\PSoC4/ServoISR.c ****             ServoTimer_WritePeriod(ctrl_out[PWM_channel]);    
 251              		.loc 1 180 0
 252 008a 564B     		ldr	r3, .L25
 253 008c 1B78     		ldrb	r3, [r3]
 254 008e 1A1C     		mov	r2, r3
 255 0090 564B     		ldr	r3, .L25+8
 256 0092 5200     		lsl	r2, r2, #1
 257 0094 D35A     		ldrh	r3, [r2, r3]
 258 0096 181C     		mov	r0, r3
 259 0098 FFF7FEFF 		bl	ServoTimer_WritePeriod
 181:.\Generated_Source\PSoC4/ServoISR.c ****         break; 
 260              		.loc 1 181 0
 261 009c 8FE0     		b	.L9
 262              	.L14:
 182:.\Generated_Source\PSoC4/ServoISR.c ****         
 183:.\Generated_Source\PSoC4/ServoISR.c ****         case 4:
 184:.\Generated_Source\PSoC4/ServoISR.c ****             // Set the Pin of output 3 to low
 185:.\Generated_Source\PSoC4/ServoISR.c ****             Out_Ele1_Pin_Write(0x00);
 263              		.loc 1 185 0
 264 009e 0020     		mov	r0, #0
 265 00a0 FFF7FEFF 		bl	Out_Ele1_Pin_Write
 186:.\Generated_Source\PSoC4/ServoISR.c ****             // Set the Pin of output 4 to high
 187:.\Generated_Source\PSoC4/ServoISR.c ****             Out_Ele2_Pin_Write(0xFF);
 266              		.loc 1 187 0
 267 00a4 FF20     		mov	r0, #255
 268 00a6 FFF7FEFF 		bl	Out_Ele2_Pin_Write
 188:.\Generated_Source\PSoC4/ServoISR.c ****             ServoTimer_WritePeriod(ctrl_out[PWM_channel]);    
ARM GAS  C:\Users\SNFU\AppData\Local\Temp\ccR1RbrG.s 			page 9


 269              		.loc 1 188 0
 270 00aa 4E4B     		ldr	r3, .L25
 271 00ac 1B78     		ldrb	r3, [r3]
 272 00ae 1A1C     		mov	r2, r3
 273 00b0 4E4B     		ldr	r3, .L25+8
 274 00b2 5200     		lsl	r2, r2, #1
 275 00b4 D35A     		ldrh	r3, [r2, r3]
 276 00b6 181C     		mov	r0, r3
 277 00b8 FFF7FEFF 		bl	ServoTimer_WritePeriod
 189:.\Generated_Source\PSoC4/ServoISR.c ****         break; 
 278              		.loc 1 189 0
 279 00bc 7FE0     		b	.L9
 280              	.L15:
 190:.\Generated_Source\PSoC4/ServoISR.c ****         
 191:.\Generated_Source\PSoC4/ServoISR.c ****         case 5:
 192:.\Generated_Source\PSoC4/ServoISR.c ****             // Set the Pin of output 4 to low
 193:.\Generated_Source\PSoC4/ServoISR.c ****             Out_Ele2_Pin_Write(0x00);
 281              		.loc 1 193 0
 282 00be 0020     		mov	r0, #0
 283 00c0 FFF7FEFF 		bl	Out_Ele2_Pin_Write
 194:.\Generated_Source\PSoC4/ServoISR.c ****             // Set the Pin of output 5 to high
 195:.\Generated_Source\PSoC4/ServoISR.c ****             Out_Rud_Pin_Write(0xFF);
 284              		.loc 1 195 0
 285 00c4 FF20     		mov	r0, #255
 286 00c6 FFF7FEFF 		bl	Out_Rud_Pin_Write
 196:.\Generated_Source\PSoC4/ServoISR.c ****             ServoTimer_WritePeriod(ctrl_out[PWM_channel]);    
 287              		.loc 1 196 0
 288 00ca 464B     		ldr	r3, .L25
 289 00cc 1B78     		ldrb	r3, [r3]
 290 00ce 1A1C     		mov	r2, r3
 291 00d0 464B     		ldr	r3, .L25+8
 292 00d2 5200     		lsl	r2, r2, #1
 293 00d4 D35A     		ldrh	r3, [r2, r3]
 294 00d6 181C     		mov	r0, r3
 295 00d8 FFF7FEFF 		bl	ServoTimer_WritePeriod
 197:.\Generated_Source\PSoC4/ServoISR.c ****         break; 
 296              		.loc 1 197 0
 297 00dc 6FE0     		b	.L9
 298              	.L16:
 198:.\Generated_Source\PSoC4/ServoISR.c ****         
 199:.\Generated_Source\PSoC4/ServoISR.c ****         case 6:
 200:.\Generated_Source\PSoC4/ServoISR.c ****             // Set the Pin of output 5 to low
 201:.\Generated_Source\PSoC4/ServoISR.c ****             Out_Rud_Pin_Write(0x00);
 299              		.loc 1 201 0
 300 00de 0020     		mov	r0, #0
 301 00e0 FFF7FEFF 		bl	Out_Rud_Pin_Write
 202:.\Generated_Source\PSoC4/ServoISR.c ****             // Set the Pin of output 6 to high
 203:.\Generated_Source\PSoC4/ServoISR.c ****             Out_Fl1_Pin_Write(0xFF);
 302              		.loc 1 203 0
 303 00e4 FF20     		mov	r0, #255
 304 00e6 FFF7FEFF 		bl	Out_Fl1_Pin_Write
 204:.\Generated_Source\PSoC4/ServoISR.c ****             ServoTimer_WritePeriod(ctrl_out[PWM_channel]); 
 305              		.loc 1 204 0
 306 00ea 3E4B     		ldr	r3, .L25
 307 00ec 1B78     		ldrb	r3, [r3]
 308 00ee 1A1C     		mov	r2, r3
 309 00f0 3E4B     		ldr	r3, .L25+8
ARM GAS  C:\Users\SNFU\AppData\Local\Temp\ccR1RbrG.s 			page 10


 310 00f2 5200     		lsl	r2, r2, #1
 311 00f4 D35A     		ldrh	r3, [r2, r3]
 312 00f6 181C     		mov	r0, r3
 313 00f8 FFF7FEFF 		bl	ServoTimer_WritePeriod
 205:.\Generated_Source\PSoC4/ServoISR.c ****         break; 
 314              		.loc 1 205 0
 315 00fc 5FE0     		b	.L9
 316              	.L17:
 206:.\Generated_Source\PSoC4/ServoISR.c ****         
 207:.\Generated_Source\PSoC4/ServoISR.c ****         case 7:
 208:.\Generated_Source\PSoC4/ServoISR.c ****             // Set the Pin of output 6 to low
 209:.\Generated_Source\PSoC4/ServoISR.c ****             Out_Fl1_Pin_Write(0x00);
 317              		.loc 1 209 0
 318 00fe 0020     		mov	r0, #0
 319 0100 FFF7FEFF 		bl	Out_Fl1_Pin_Write
 210:.\Generated_Source\PSoC4/ServoISR.c ****             // Set the Pin of output 7 to high
 211:.\Generated_Source\PSoC4/ServoISR.c ****             Out_Fl2_Pin_Write(0xFF);
 320              		.loc 1 211 0
 321 0104 FF20     		mov	r0, #255
 322 0106 FFF7FEFF 		bl	Out_Fl2_Pin_Write
 212:.\Generated_Source\PSoC4/ServoISR.c ****             ServoTimer_WritePeriod(ctrl_out[PWM_channel]);
 323              		.loc 1 212 0
 324 010a 364B     		ldr	r3, .L25
 325 010c 1B78     		ldrb	r3, [r3]
 326 010e 1A1C     		mov	r2, r3
 327 0110 364B     		ldr	r3, .L25+8
 328 0112 5200     		lsl	r2, r2, #1
 329 0114 D35A     		ldrh	r3, [r2, r3]
 330 0116 181C     		mov	r0, r3
 331 0118 FFF7FEFF 		bl	ServoTimer_WritePeriod
 213:.\Generated_Source\PSoC4/ServoISR.c ****         break; 
 332              		.loc 1 213 0
 333 011c 4FE0     		b	.L9
 334              	.L18:
 214:.\Generated_Source\PSoC4/ServoISR.c ****         
 215:.\Generated_Source\PSoC4/ServoISR.c ****         case 8:
 216:.\Generated_Source\PSoC4/ServoISR.c ****             // Set the Pin of output 7 to low
 217:.\Generated_Source\PSoC4/ServoISR.c ****             Out_Fl2_Pin_Write(0x00);
 335              		.loc 1 217 0
 336 011e 0020     		mov	r0, #0
 337 0120 FFF7FEFF 		bl	Out_Fl2_Pin_Write
 218:.\Generated_Source\PSoC4/ServoISR.c ****             // Set the Pin of output 8 to high
 219:.\Generated_Source\PSoC4/ServoISR.c ****             Out_Ge1_Pin_Write(0xFF);
 338              		.loc 1 219 0
 339 0124 FF20     		mov	r0, #255
 340 0126 FFF7FEFF 		bl	Out_Ge1_Pin_Write
 220:.\Generated_Source\PSoC4/ServoISR.c ****             ServoTimer_WritePeriod(ctrl_out[PWM_channel]);
 341              		.loc 1 220 0
 342 012a 2E4B     		ldr	r3, .L25
 343 012c 1B78     		ldrb	r3, [r3]
 344 012e 1A1C     		mov	r2, r3
 345 0130 2E4B     		ldr	r3, .L25+8
 346 0132 5200     		lsl	r2, r2, #1
 347 0134 D35A     		ldrh	r3, [r2, r3]
 348 0136 181C     		mov	r0, r3
 349 0138 FFF7FEFF 		bl	ServoTimer_WritePeriod
 221:.\Generated_Source\PSoC4/ServoISR.c ****         break; 
ARM GAS  C:\Users\SNFU\AppData\Local\Temp\ccR1RbrG.s 			page 11


 350              		.loc 1 221 0
 351 013c 3FE0     		b	.L9
 352              	.L19:
 222:.\Generated_Source\PSoC4/ServoISR.c ****         
 223:.\Generated_Source\PSoC4/ServoISR.c ****         case 9:
 224:.\Generated_Source\PSoC4/ServoISR.c ****             // Set the Pin of output 8 to low
 225:.\Generated_Source\PSoC4/ServoISR.c ****             Out_Ge1_Pin_Write(0x00);
 353              		.loc 1 225 0
 354 013e 0020     		mov	r0, #0
 355 0140 FFF7FEFF 		bl	Out_Ge1_Pin_Write
 226:.\Generated_Source\PSoC4/ServoISR.c ****             // Set the Pin of output 9 to high
 227:.\Generated_Source\PSoC4/ServoISR.c ****             Out_Ge2_Pin_Write(0xFF);
 356              		.loc 1 227 0
 357 0144 FF20     		mov	r0, #255
 358 0146 FFF7FEFF 		bl	Out_Ge2_Pin_Write
 228:.\Generated_Source\PSoC4/ServoISR.c ****             ServoTimer_WritePeriod(ctrl_out[PWM_channel]);
 359              		.loc 1 228 0
 360 014a 264B     		ldr	r3, .L25
 361 014c 1B78     		ldrb	r3, [r3]
 362 014e 1A1C     		mov	r2, r3
 363 0150 264B     		ldr	r3, .L25+8
 364 0152 5200     		lsl	r2, r2, #1
 365 0154 D35A     		ldrh	r3, [r2, r3]
 366 0156 181C     		mov	r0, r3
 367 0158 FFF7FEFF 		bl	ServoTimer_WritePeriod
 229:.\Generated_Source\PSoC4/ServoISR.c ****         break; 
 368              		.loc 1 229 0
 369 015c 2FE0     		b	.L9
 370              	.L20:
 230:.\Generated_Source\PSoC4/ServoISR.c ****         
 231:.\Generated_Source\PSoC4/ServoISR.c ****         case 10:
 232:.\Generated_Source\PSoC4/ServoISR.c ****             // Set the Pin of output 9 to low
 233:.\Generated_Source\PSoC4/ServoISR.c ****             Out_Ge2_Pin_Write(0x00);
 371              		.loc 1 233 0
 372 015e 0020     		mov	r0, #0
 373 0160 FFF7FEFF 		bl	Out_Ge2_Pin_Write
 234:.\Generated_Source\PSoC4/ServoISR.c ****             // Set the Pin of output 10 to high
 235:.\Generated_Source\PSoC4/ServoISR.c ****             Out_Ge3_Pin_Write(0xFF);
 374              		.loc 1 235 0
 375 0164 FF20     		mov	r0, #255
 376 0166 FFF7FEFF 		bl	Out_Ge3_Pin_Write
 236:.\Generated_Source\PSoC4/ServoISR.c ****             ServoTimer_WritePeriod(ctrl_out[PWM_channel]);
 377              		.loc 1 236 0
 378 016a 1E4B     		ldr	r3, .L25
 379 016c 1B78     		ldrb	r3, [r3]
 380 016e 1A1C     		mov	r2, r3
 381 0170 1E4B     		ldr	r3, .L25+8
 382 0172 5200     		lsl	r2, r2, #1
 383 0174 D35A     		ldrh	r3, [r2, r3]
 384 0176 181C     		mov	r0, r3
 385 0178 FFF7FEFF 		bl	ServoTimer_WritePeriod
 237:.\Generated_Source\PSoC4/ServoISR.c ****         break; 
 386              		.loc 1 237 0
 387 017c 1FE0     		b	.L9
 388              	.L21:
 238:.\Generated_Source\PSoC4/ServoISR.c ****         
 239:.\Generated_Source\PSoC4/ServoISR.c ****         case 11:
ARM GAS  C:\Users\SNFU\AppData\Local\Temp\ccR1RbrG.s 			page 12


 240:.\Generated_Source\PSoC4/ServoISR.c ****             // Set the Pin of output 10 to low
 241:.\Generated_Source\PSoC4/ServoISR.c ****             Out_Ge3_Pin_Write(0x00);
 389              		.loc 1 241 0
 390 017e 0020     		mov	r0, #0
 391 0180 FFF7FEFF 		bl	Out_Ge3_Pin_Write
 242:.\Generated_Source\PSoC4/ServoISR.c ****             // Set the Pin of output 11 to high
 243:.\Generated_Source\PSoC4/ServoISR.c ****             Out_Sp1_Pin_Write(0xFF);
 392              		.loc 1 243 0
 393 0184 FF20     		mov	r0, #255
 394 0186 FFF7FEFF 		bl	Out_Sp1_Pin_Write
 244:.\Generated_Source\PSoC4/ServoISR.c ****             ServoTimer_WritePeriod(ctrl_out[PWM_channel]);
 395              		.loc 1 244 0
 396 018a 164B     		ldr	r3, .L25
 397 018c 1B78     		ldrb	r3, [r3]
 398 018e 1A1C     		mov	r2, r3
 399 0190 164B     		ldr	r3, .L25+8
 400 0192 5200     		lsl	r2, r2, #1
 401 0194 D35A     		ldrh	r3, [r2, r3]
 402 0196 181C     		mov	r0, r3
 403 0198 FFF7FEFF 		bl	ServoTimer_WritePeriod
 245:.\Generated_Source\PSoC4/ServoISR.c ****         break; 
 404              		.loc 1 245 0
 405 019c 0FE0     		b	.L9
 406              	.L22:
 246:.\Generated_Source\PSoC4/ServoISR.c ****         
 247:.\Generated_Source\PSoC4/ServoISR.c ****         case 12:
 248:.\Generated_Source\PSoC4/ServoISR.c ****             // Set the Pin of output 11 to low
 249:.\Generated_Source\PSoC4/ServoISR.c ****             Out_Sp1_Pin_Write(0x00);
 407              		.loc 1 249 0
 408 019e 0020     		mov	r0, #0
 409 01a0 FFF7FEFF 		bl	Out_Sp1_Pin_Write
 250:.\Generated_Source\PSoC4/ServoISR.c ****             // Set the Pin of output 0 to high
 251:.\Generated_Source\PSoC4/ServoISR.c ****             Out_Sp2_Pin_Write(0xFF);
 410              		.loc 1 251 0
 411 01a4 FF20     		mov	r0, #255
 412 01a6 FFF7FEFF 		bl	Out_Sp2_Pin_Write
 252:.\Generated_Source\PSoC4/ServoISR.c ****             ServoTimer_WritePeriod(ctrl_out[PWM_channel]);
 413              		.loc 1 252 0
 414 01aa 0E4B     		ldr	r3, .L25
 415 01ac 1B78     		ldrb	r3, [r3]
 416 01ae 1A1C     		mov	r2, r3
 417 01b0 0E4B     		ldr	r3, .L25+8
 418 01b2 5200     		lsl	r2, r2, #1
 419 01b4 D35A     		ldrh	r3, [r2, r3]
 420 01b6 181C     		mov	r0, r3
 421 01b8 FFF7FEFF 		bl	ServoTimer_WritePeriod
 253:.\Generated_Source\PSoC4/ServoISR.c ****         break; 
 422              		.loc 1 253 0
 423 01bc C046     		mov	r8, r8
 424              	.L9:
 254:.\Generated_Source\PSoC4/ServoISR.c ****         
 255:.\Generated_Source\PSoC4/ServoISR.c ****     }
 256:.\Generated_Source\PSoC4/ServoISR.c ****     
 257:.\Generated_Source\PSoC4/ServoISR.c ****     ServoTimer_WriteCounter(0); // Reset the counter
 425              		.loc 1 257 0
 426 01be 0020     		mov	r0, #0
 427 01c0 FFF7FEFF 		bl	ServoTimer_WriteCounter
ARM GAS  C:\Users\SNFU\AppData\Local\Temp\ccR1RbrG.s 			page 13


 258:.\Generated_Source\PSoC4/ServoISR.c ****     PWM_channel++;
 428              		.loc 1 258 0
 429 01c4 074B     		ldr	r3, .L25
 430 01c6 1B78     		ldrb	r3, [r3]
 431 01c8 0133     		add	r3, r3, #1
 432 01ca DAB2     		uxtb	r2, r3
 433 01cc 054B     		ldr	r3, .L25
 434 01ce 1A70     		strb	r2, [r3]
 259:.\Generated_Source\PSoC4/ServoISR.c ****     if(PWM_channel == 13) PWM_channel = 0;
 435              		.loc 1 259 0
 436 01d0 044B     		ldr	r3, .L25
 437 01d2 1B78     		ldrb	r3, [r3]
 438 01d4 0D2B     		cmp	r3, #13
 439 01d6 02D1     		bne	.L8
 440              		.loc 1 259 0 is_stmt 0 discriminator 1
 441 01d8 024B     		ldr	r3, .L25
 442 01da 0022     		mov	r2, #0
 443 01dc 1A70     		strb	r2, [r3]
 444              	.L8:
 260:.\Generated_Source\PSoC4/ServoISR.c ****     /* `#END` */
 261:.\Generated_Source\PSoC4/ServoISR.c **** }
 445              		.loc 1 261 0 is_stmt 1
 446 01de BD46     		mov	sp, r7
 447              		@ sp needed for prologue
 448 01e0 80BD     		pop	{r7, pc}
 449              	.L26:
 450 01e2 C046     		.align	2
 451              	.L25:
 452 01e4 00000000 		.word	PWM_channel
 453 01e8 00000000 		.word	.L23
 454 01ec 00000000 		.word	ctrl_out
 455              		.cfi_endproc
 456              	.LFE36:
 457              		.size	ServoISR_Interrupt, .-ServoISR_Interrupt
 458              		.section	.text.ServoISR_SetVector,"ax",%progbits
 459              		.align	2
 460              		.global	ServoISR_SetVector
 461              		.code	16
 462              		.thumb_func
 463              		.type	ServoISR_SetVector, %function
 464              	ServoISR_SetVector:
 465              	.LFB37:
 262:.\Generated_Source\PSoC4/ServoISR.c **** 
 263:.\Generated_Source\PSoC4/ServoISR.c **** 
 264:.\Generated_Source\PSoC4/ServoISR.c **** /*******************************************************************************
 265:.\Generated_Source\PSoC4/ServoISR.c **** * Function Name: ServoISR_SetVector
 266:.\Generated_Source\PSoC4/ServoISR.c **** ********************************************************************************
 267:.\Generated_Source\PSoC4/ServoISR.c **** *
 268:.\Generated_Source\PSoC4/ServoISR.c **** * Summary:
 269:.\Generated_Source\PSoC4/ServoISR.c **** *   Change the ISR vector for the Interrupt. Note calling ServoISR_Start
 270:.\Generated_Source\PSoC4/ServoISR.c **** *   will override any effect this method would have had. To set the vector 
 271:.\Generated_Source\PSoC4/ServoISR.c **** *   before the component has been started use ServoISR_StartEx instead.
 272:.\Generated_Source\PSoC4/ServoISR.c **** *
 273:.\Generated_Source\PSoC4/ServoISR.c **** * Parameters:
 274:.\Generated_Source\PSoC4/ServoISR.c **** *   address: Address of the ISR to set in the interrupt vector table.
 275:.\Generated_Source\PSoC4/ServoISR.c **** *
 276:.\Generated_Source\PSoC4/ServoISR.c **** * Return:
ARM GAS  C:\Users\SNFU\AppData\Local\Temp\ccR1RbrG.s 			page 14


 277:.\Generated_Source\PSoC4/ServoISR.c **** *   None
 278:.\Generated_Source\PSoC4/ServoISR.c **** *
 279:.\Generated_Source\PSoC4/ServoISR.c **** *******************************************************************************/
 280:.\Generated_Source\PSoC4/ServoISR.c **** void ServoISR_SetVector(cyisraddress address)
 281:.\Generated_Source\PSoC4/ServoISR.c **** {
 466              		.loc 1 281 0
 467              		.cfi_startproc
 468 0000 80B5     		push	{r7, lr}
 469              	.LCFI9:
 470              		.cfi_def_cfa_offset 8
 471              		.cfi_offset 7, -8
 472              		.cfi_offset 14, -4
 473 0002 82B0     		sub	sp, sp, #8
 474              	.LCFI10:
 475              		.cfi_def_cfa_offset 16
 476 0004 00AF     		add	r7, sp, #0
 477              	.LCFI11:
 478              		.cfi_def_cfa_register 7
 479 0006 7860     		str	r0, [r7, #4]
 282:.\Generated_Source\PSoC4/ServoISR.c ****     CyRamVectors[CYINT_IRQ_BASE + ServoISR__INTC_NUMBER] = address;
 480              		.loc 1 282 0
 481 0008 034A     		ldr	r2, .L28
 482 000a 8423     		mov	r3, #132
 483 000c 7968     		ldr	r1, [r7, #4]
 484 000e D150     		str	r1, [r2, r3]
 283:.\Generated_Source\PSoC4/ServoISR.c **** }
 485              		.loc 1 283 0
 486 0010 BD46     		mov	sp, r7
 487 0012 02B0     		add	sp, sp, #8
 488              		@ sp needed for prologue
 489 0014 80BD     		pop	{r7, pc}
 490              	.L29:
 491 0016 C046     		.align	2
 492              	.L28:
 493 0018 00000000 		.word	CyRamVectors
 494              		.cfi_endproc
 495              	.LFE37:
 496              		.size	ServoISR_SetVector, .-ServoISR_SetVector
 497              		.section	.text.ServoISR_GetVector,"ax",%progbits
 498              		.align	2
 499              		.global	ServoISR_GetVector
 500              		.code	16
 501              		.thumb_func
 502              		.type	ServoISR_GetVector, %function
 503              	ServoISR_GetVector:
 504              	.LFB38:
 284:.\Generated_Source\PSoC4/ServoISR.c **** 
 285:.\Generated_Source\PSoC4/ServoISR.c **** 
 286:.\Generated_Source\PSoC4/ServoISR.c **** /*******************************************************************************
 287:.\Generated_Source\PSoC4/ServoISR.c **** * Function Name: ServoISR_GetVector
 288:.\Generated_Source\PSoC4/ServoISR.c **** ********************************************************************************
 289:.\Generated_Source\PSoC4/ServoISR.c **** *
 290:.\Generated_Source\PSoC4/ServoISR.c **** * Summary:
 291:.\Generated_Source\PSoC4/ServoISR.c **** *   Gets the "address" of the current ISR vector for the Interrupt.
 292:.\Generated_Source\PSoC4/ServoISR.c **** *
 293:.\Generated_Source\PSoC4/ServoISR.c **** * Parameters:
 294:.\Generated_Source\PSoC4/ServoISR.c **** *   None
ARM GAS  C:\Users\SNFU\AppData\Local\Temp\ccR1RbrG.s 			page 15


 295:.\Generated_Source\PSoC4/ServoISR.c **** *
 296:.\Generated_Source\PSoC4/ServoISR.c **** * Return:
 297:.\Generated_Source\PSoC4/ServoISR.c **** *   Address of the ISR in the interrupt vector table.
 298:.\Generated_Source\PSoC4/ServoISR.c **** *
 299:.\Generated_Source\PSoC4/ServoISR.c **** *******************************************************************************/
 300:.\Generated_Source\PSoC4/ServoISR.c **** cyisraddress ServoISR_GetVector(void)
 301:.\Generated_Source\PSoC4/ServoISR.c **** {
 505              		.loc 1 301 0
 506              		.cfi_startproc
 507 0000 80B5     		push	{r7, lr}
 508              	.LCFI12:
 509              		.cfi_def_cfa_offset 8
 510              		.cfi_offset 7, -8
 511              		.cfi_offset 14, -4
 512 0002 00AF     		add	r7, sp, #0
 513              	.LCFI13:
 514              		.cfi_def_cfa_register 7
 302:.\Generated_Source\PSoC4/ServoISR.c ****     return CyRamVectors[CYINT_IRQ_BASE + ServoISR__INTC_NUMBER];
 515              		.loc 1 302 0
 516 0004 024A     		ldr	r2, .L32
 517 0006 8423     		mov	r3, #132
 518 0008 D358     		ldr	r3, [r2, r3]
 303:.\Generated_Source\PSoC4/ServoISR.c **** }
 519              		.loc 1 303 0
 520 000a 181C     		mov	r0, r3
 521 000c BD46     		mov	sp, r7
 522              		@ sp needed for prologue
 523 000e 80BD     		pop	{r7, pc}
 524              	.L33:
 525              		.align	2
 526              	.L32:
 527 0010 00000000 		.word	CyRamVectors
 528              		.cfi_endproc
 529              	.LFE38:
 530              		.size	ServoISR_GetVector, .-ServoISR_GetVector
 531              		.section	.text.ServoISR_SetPriority,"ax",%progbits
 532              		.align	2
 533              		.global	ServoISR_SetPriority
 534              		.code	16
 535              		.thumb_func
 536              		.type	ServoISR_SetPriority, %function
 537              	ServoISR_SetPriority:
 538              	.LFB39:
 304:.\Generated_Source\PSoC4/ServoISR.c **** 
 305:.\Generated_Source\PSoC4/ServoISR.c **** 
 306:.\Generated_Source\PSoC4/ServoISR.c **** /*******************************************************************************
 307:.\Generated_Source\PSoC4/ServoISR.c **** * Function Name: ServoISR_SetPriority
 308:.\Generated_Source\PSoC4/ServoISR.c **** ********************************************************************************
 309:.\Generated_Source\PSoC4/ServoISR.c **** *
 310:.\Generated_Source\PSoC4/ServoISR.c **** * Summary:
 311:.\Generated_Source\PSoC4/ServoISR.c **** *   Sets the Priority of the Interrupt. Note calling ServoISR_Start
 312:.\Generated_Source\PSoC4/ServoISR.c **** *   or ServoISR_StartEx will override any effect this method would 
 313:.\Generated_Source\PSoC4/ServoISR.c **** *   have had. This method should only be called after ServoISR_Start or 
 314:.\Generated_Source\PSoC4/ServoISR.c **** *   ServoISR_StartEx has been called. To set the initial
 315:.\Generated_Source\PSoC4/ServoISR.c **** *   priority for the component use the cydwr file in the tool.
 316:.\Generated_Source\PSoC4/ServoISR.c **** *
 317:.\Generated_Source\PSoC4/ServoISR.c **** * Parameters:
ARM GAS  C:\Users\SNFU\AppData\Local\Temp\ccR1RbrG.s 			page 16


 318:.\Generated_Source\PSoC4/ServoISR.c **** *   priority: Priority of the interrupt. 0 - 3, 0 being the highest.
 319:.\Generated_Source\PSoC4/ServoISR.c **** *
 320:.\Generated_Source\PSoC4/ServoISR.c **** * Return:
 321:.\Generated_Source\PSoC4/ServoISR.c **** *   None
 322:.\Generated_Source\PSoC4/ServoISR.c **** *
 323:.\Generated_Source\PSoC4/ServoISR.c **** *******************************************************************************/
 324:.\Generated_Source\PSoC4/ServoISR.c **** void ServoISR_SetPriority(uint8 priority)
 325:.\Generated_Source\PSoC4/ServoISR.c **** {
 539              		.loc 1 325 0
 540              		.cfi_startproc
 541 0000 90B5     		push	{r4, r7, lr}
 542              	.LCFI14:
 543              		.cfi_def_cfa_offset 12
 544              		.cfi_offset 4, -12
 545              		.cfi_offset 7, -8
 546              		.cfi_offset 14, -4
 547 0002 85B0     		sub	sp, sp, #20
 548              	.LCFI15:
 549              		.cfi_def_cfa_offset 32
 550 0004 00AF     		add	r7, sp, #0
 551              	.LCFI16:
 552              		.cfi_def_cfa_register 7
 553 0006 021C     		mov	r2, r0
 554 0008 FB1D     		add	r3, r7, #7
 555 000a 1A70     		strb	r2, [r3]
 326:.\Generated_Source\PSoC4/ServoISR.c **** 	uint8 interruptState;
 327:.\Generated_Source\PSoC4/ServoISR.c ****     uint32 priorityOffset = ((ServoISR__INTC_NUMBER % 4u) * 8u) + 6u;
 556              		.loc 1 327 0
 557 000c 0E23     		mov	r3, #14
 558 000e FB60     		str	r3, [r7, #12]
 328:.\Generated_Source\PSoC4/ServoISR.c ****     
 329:.\Generated_Source\PSoC4/ServoISR.c **** 	interruptState = CyEnterCriticalSection();
 559              		.loc 1 329 0
 560 0010 3C1C     		mov	r4, r7
 561 0012 0B34     		add	r4, r4, #11
 562 0014 FFF7FEFF 		bl	CyEnterCriticalSection
 563 0018 031C     		mov	r3, r0
 564 001a 2370     		strb	r3, [r4]
 330:.\Generated_Source\PSoC4/ServoISR.c ****     *ServoISR_INTC_PRIOR = (*ServoISR_INTC_PRIOR & (uint32)(~ServoISR__INTC_PRIOR_MASK)) |
 565              		.loc 1 330 0
 566 001c 0A4B     		ldr	r3, .L35
 567 001e 0A4A     		ldr	r2, .L35
 568 0020 1168     		ldr	r1, [r2]
 569 0022 0A4A     		ldr	r2, .L35+4
 570 0024 1140     		and	r1, r2
 331:.\Generated_Source\PSoC4/ServoISR.c ****                                     ((uint32)priority << priorityOffset);
 571              		.loc 1 331 0
 572 0026 FA1D     		add	r2, r7, #7
 573 0028 1078     		ldrb	r0, [r2]
 574 002a FA68     		ldr	r2, [r7, #12]
 575 002c 041C     		mov	r4, r0
 576 002e 9440     		lsl	r4, r4, r2
 577 0030 221C     		mov	r2, r4
 330:.\Generated_Source\PSoC4/ServoISR.c ****     *ServoISR_INTC_PRIOR = (*ServoISR_INTC_PRIOR & (uint32)(~ServoISR__INTC_PRIOR_MASK)) |
 578              		.loc 1 330 0
 579 0032 0A43     		orr	r2, r1
 580 0034 1A60     		str	r2, [r3]
ARM GAS  C:\Users\SNFU\AppData\Local\Temp\ccR1RbrG.s 			page 17


 332:.\Generated_Source\PSoC4/ServoISR.c **** 	CyExitCriticalSection(interruptState);
 581              		.loc 1 332 0
 582 0036 3B1C     		mov	r3, r7
 583 0038 0B33     		add	r3, r3, #11
 584 003a 1B78     		ldrb	r3, [r3]
 585 003c 181C     		mov	r0, r3
 586 003e FFF7FEFF 		bl	CyExitCriticalSection
 333:.\Generated_Source\PSoC4/ServoISR.c **** }
 587              		.loc 1 333 0
 588 0042 BD46     		mov	sp, r7
 589 0044 05B0     		add	sp, sp, #20
 590              		@ sp needed for prologue
 591 0046 90BD     		pop	{r4, r7, pc}
 592              	.L36:
 593              		.align	2
 594              	.L35:
 595 0048 10E400E0 		.word	-536812528
 596 004c FF3FFFFF 		.word	-49153
 597              		.cfi_endproc
 598              	.LFE39:
 599              		.size	ServoISR_SetPriority, .-ServoISR_SetPriority
 600              		.section	.text.ServoISR_GetPriority,"ax",%progbits
 601              		.align	2
 602              		.global	ServoISR_GetPriority
 603              		.code	16
 604              		.thumb_func
 605              		.type	ServoISR_GetPriority, %function
 606              	ServoISR_GetPriority:
 607              	.LFB40:
 334:.\Generated_Source\PSoC4/ServoISR.c **** 
 335:.\Generated_Source\PSoC4/ServoISR.c **** 
 336:.\Generated_Source\PSoC4/ServoISR.c **** /*******************************************************************************
 337:.\Generated_Source\PSoC4/ServoISR.c **** * Function Name: ServoISR_GetPriority
 338:.\Generated_Source\PSoC4/ServoISR.c **** ********************************************************************************
 339:.\Generated_Source\PSoC4/ServoISR.c **** *
 340:.\Generated_Source\PSoC4/ServoISR.c **** * Summary:
 341:.\Generated_Source\PSoC4/ServoISR.c **** *   Gets the Priority of the Interrupt.
 342:.\Generated_Source\PSoC4/ServoISR.c **** *
 343:.\Generated_Source\PSoC4/ServoISR.c **** * Parameters:
 344:.\Generated_Source\PSoC4/ServoISR.c **** *   None
 345:.\Generated_Source\PSoC4/ServoISR.c **** *
 346:.\Generated_Source\PSoC4/ServoISR.c **** * Return:
 347:.\Generated_Source\PSoC4/ServoISR.c **** *   Priority of the interrupt. 0 - 3, 0 being the highest.
 348:.\Generated_Source\PSoC4/ServoISR.c **** *
 349:.\Generated_Source\PSoC4/ServoISR.c **** *******************************************************************************/
 350:.\Generated_Source\PSoC4/ServoISR.c **** uint8 ServoISR_GetPriority(void)
 351:.\Generated_Source\PSoC4/ServoISR.c **** {
 608              		.loc 1 351 0
 609              		.cfi_startproc
 610 0000 80B5     		push	{r7, lr}
 611              	.LCFI17:
 612              		.cfi_def_cfa_offset 8
 613              		.cfi_offset 7, -8
 614              		.cfi_offset 14, -4
 615 0002 82B0     		sub	sp, sp, #8
 616              	.LCFI18:
 617              		.cfi_def_cfa_offset 16
ARM GAS  C:\Users\SNFU\AppData\Local\Temp\ccR1RbrG.s 			page 18


 618 0004 00AF     		add	r7, sp, #0
 619              	.LCFI19:
 620              		.cfi_def_cfa_register 7
 352:.\Generated_Source\PSoC4/ServoISR.c ****     uint32 priority;
 353:.\Generated_Source\PSoC4/ServoISR.c **** 	uint32 priorityOffset = ((ServoISR__INTC_NUMBER % 4u) * 8u) + 6u;
 621              		.loc 1 353 0
 622 0006 0E23     		mov	r3, #14
 623 0008 7B60     		str	r3, [r7, #4]
 354:.\Generated_Source\PSoC4/ServoISR.c **** 
 355:.\Generated_Source\PSoC4/ServoISR.c ****     priority = (*ServoISR_INTC_PRIOR & ServoISR__INTC_PRIOR_MASK) >> priorityOffset;
 624              		.loc 1 355 0
 625 000a 084B     		ldr	r3, .L39
 626 000c 1A68     		ldr	r2, [r3]
 627 000e C023     		mov	r3, #192
 628 0010 1B02     		lsl	r3, r3, #8
 629 0012 1A40     		and	r2, r3
 630 0014 7B68     		ldr	r3, [r7, #4]
 631 0016 111C     		mov	r1, r2
 632 0018 D940     		lsr	r1, r1, r3
 633 001a 0B1C     		mov	r3, r1
 634 001c 3B60     		str	r3, [r7]
 356:.\Generated_Source\PSoC4/ServoISR.c **** 
 357:.\Generated_Source\PSoC4/ServoISR.c ****     return (uint8)priority;
 635              		.loc 1 357 0
 636 001e 3B68     		ldr	r3, [r7]
 637 0020 DBB2     		uxtb	r3, r3
 358:.\Generated_Source\PSoC4/ServoISR.c **** }
 638              		.loc 1 358 0
 639 0022 181C     		mov	r0, r3
 640 0024 BD46     		mov	sp, r7
 641 0026 02B0     		add	sp, sp, #8
 642              		@ sp needed for prologue
 643 0028 80BD     		pop	{r7, pc}
 644              	.L40:
 645 002a C046     		.align	2
 646              	.L39:
 647 002c 10E400E0 		.word	-536812528
 648              		.cfi_endproc
 649              	.LFE40:
 650              		.size	ServoISR_GetPriority, .-ServoISR_GetPriority
 651              		.section	.text.ServoISR_Enable,"ax",%progbits
 652              		.align	2
 653              		.global	ServoISR_Enable
 654              		.code	16
 655              		.thumb_func
 656              		.type	ServoISR_Enable, %function
 657              	ServoISR_Enable:
 658              	.LFB41:
 359:.\Generated_Source\PSoC4/ServoISR.c **** 
 360:.\Generated_Source\PSoC4/ServoISR.c **** 
 361:.\Generated_Source\PSoC4/ServoISR.c **** /*******************************************************************************
 362:.\Generated_Source\PSoC4/ServoISR.c **** * Function Name: ServoISR_Enable
 363:.\Generated_Source\PSoC4/ServoISR.c **** ********************************************************************************
 364:.\Generated_Source\PSoC4/ServoISR.c **** *
 365:.\Generated_Source\PSoC4/ServoISR.c **** * Summary:
 366:.\Generated_Source\PSoC4/ServoISR.c **** *   Enables the interrupt.
 367:.\Generated_Source\PSoC4/ServoISR.c **** *
ARM GAS  C:\Users\SNFU\AppData\Local\Temp\ccR1RbrG.s 			page 19


 368:.\Generated_Source\PSoC4/ServoISR.c **** * Parameters:
 369:.\Generated_Source\PSoC4/ServoISR.c **** *   None
 370:.\Generated_Source\PSoC4/ServoISR.c **** *
 371:.\Generated_Source\PSoC4/ServoISR.c **** * Return:
 372:.\Generated_Source\PSoC4/ServoISR.c **** *   None
 373:.\Generated_Source\PSoC4/ServoISR.c **** *
 374:.\Generated_Source\PSoC4/ServoISR.c **** *******************************************************************************/
 375:.\Generated_Source\PSoC4/ServoISR.c **** void ServoISR_Enable(void)
 376:.\Generated_Source\PSoC4/ServoISR.c **** {
 659              		.loc 1 376 0
 660              		.cfi_startproc
 661 0000 80B5     		push	{r7, lr}
 662              	.LCFI20:
 663              		.cfi_def_cfa_offset 8
 664              		.cfi_offset 7, -8
 665              		.cfi_offset 14, -4
 666 0002 00AF     		add	r7, sp, #0
 667              	.LCFI21:
 668              		.cfi_def_cfa_register 7
 377:.\Generated_Source\PSoC4/ServoISR.c ****     /* Enable the general interrupt. */
 378:.\Generated_Source\PSoC4/ServoISR.c ****     *ServoISR_INTC_SET_EN = ServoISR__INTC_MASK;
 669              		.loc 1 378 0
 670 0004 024B     		ldr	r3, .L42
 671 0006 8022     		mov	r2, #128
 672 0008 9202     		lsl	r2, r2, #10
 673 000a 1A60     		str	r2, [r3]
 379:.\Generated_Source\PSoC4/ServoISR.c **** }
 674              		.loc 1 379 0
 675 000c BD46     		mov	sp, r7
 676              		@ sp needed for prologue
 677 000e 80BD     		pop	{r7, pc}
 678              	.L43:
 679              		.align	2
 680              	.L42:
 681 0010 00E100E0 		.word	-536813312
 682              		.cfi_endproc
 683              	.LFE41:
 684              		.size	ServoISR_Enable, .-ServoISR_Enable
 685              		.section	.text.ServoISR_GetState,"ax",%progbits
 686              		.align	2
 687              		.global	ServoISR_GetState
 688              		.code	16
 689              		.thumb_func
 690              		.type	ServoISR_GetState, %function
 691              	ServoISR_GetState:
 692              	.LFB42:
 380:.\Generated_Source\PSoC4/ServoISR.c **** 
 381:.\Generated_Source\PSoC4/ServoISR.c **** 
 382:.\Generated_Source\PSoC4/ServoISR.c **** /*******************************************************************************
 383:.\Generated_Source\PSoC4/ServoISR.c **** * Function Name: ServoISR_GetState
 384:.\Generated_Source\PSoC4/ServoISR.c **** ********************************************************************************
 385:.\Generated_Source\PSoC4/ServoISR.c **** *
 386:.\Generated_Source\PSoC4/ServoISR.c **** * Summary:
 387:.\Generated_Source\PSoC4/ServoISR.c **** *   Gets the state (enabled, disabled) of the Interrupt.
 388:.\Generated_Source\PSoC4/ServoISR.c **** *
 389:.\Generated_Source\PSoC4/ServoISR.c **** * Parameters:
 390:.\Generated_Source\PSoC4/ServoISR.c **** *   None
ARM GAS  C:\Users\SNFU\AppData\Local\Temp\ccR1RbrG.s 			page 20


 391:.\Generated_Source\PSoC4/ServoISR.c **** *
 392:.\Generated_Source\PSoC4/ServoISR.c **** * Return:
 393:.\Generated_Source\PSoC4/ServoISR.c **** *   1 if enabled, 0 if disabled.
 394:.\Generated_Source\PSoC4/ServoISR.c **** *
 395:.\Generated_Source\PSoC4/ServoISR.c **** *******************************************************************************/
 396:.\Generated_Source\PSoC4/ServoISR.c **** uint8 ServoISR_GetState(void)
 397:.\Generated_Source\PSoC4/ServoISR.c **** {
 693              		.loc 1 397 0
 694              		.cfi_startproc
 695 0000 80B5     		push	{r7, lr}
 696              	.LCFI22:
 697              		.cfi_def_cfa_offset 8
 698              		.cfi_offset 7, -8
 699              		.cfi_offset 14, -4
 700 0002 00AF     		add	r7, sp, #0
 701              	.LCFI23:
 702              		.cfi_def_cfa_register 7
 398:.\Generated_Source\PSoC4/ServoISR.c ****     /* Get the state of the general interrupt. */
 399:.\Generated_Source\PSoC4/ServoISR.c ****     return ((*ServoISR_INTC_SET_EN & (uint32)ServoISR__INTC_MASK) != 0u) ? 1u:0u;
 703              		.loc 1 399 0
 704 0004 054B     		ldr	r3, .L48
 705 0006 1A68     		ldr	r2, [r3]
 706 0008 8023     		mov	r3, #128
 707 000a 9B02     		lsl	r3, r3, #10
 708 000c 1340     		and	r3, r2
 709 000e 01D0     		beq	.L45
 710              		.loc 1 399 0 is_stmt 0 discriminator 1
 711 0010 0123     		mov	r3, #1
 712 0012 00E0     		b	.L46
 713              	.L45:
 714              		.loc 1 399 0 discriminator 2
 715 0014 0023     		mov	r3, #0
 716              	.L46:
 400:.\Generated_Source\PSoC4/ServoISR.c **** }
 717              		.loc 1 400 0 is_stmt 1 discriminator 3
 718 0016 181C     		mov	r0, r3
 719 0018 BD46     		mov	sp, r7
 720              		@ sp needed for prologue
 721 001a 80BD     		pop	{r7, pc}
 722              	.L49:
 723              		.align	2
 724              	.L48:
 725 001c 00E100E0 		.word	-536813312
 726              		.cfi_endproc
 727              	.LFE42:
 728              		.size	ServoISR_GetState, .-ServoISR_GetState
 729              		.section	.text.ServoISR_Disable,"ax",%progbits
 730              		.align	2
 731              		.global	ServoISR_Disable
 732              		.code	16
 733              		.thumb_func
 734              		.type	ServoISR_Disable, %function
 735              	ServoISR_Disable:
 736              	.LFB43:
 401:.\Generated_Source\PSoC4/ServoISR.c **** 
 402:.\Generated_Source\PSoC4/ServoISR.c **** 
 403:.\Generated_Source\PSoC4/ServoISR.c **** /*******************************************************************************
ARM GAS  C:\Users\SNFU\AppData\Local\Temp\ccR1RbrG.s 			page 21


 404:.\Generated_Source\PSoC4/ServoISR.c **** * Function Name: ServoISR_Disable
 405:.\Generated_Source\PSoC4/ServoISR.c **** ********************************************************************************
 406:.\Generated_Source\PSoC4/ServoISR.c **** *
 407:.\Generated_Source\PSoC4/ServoISR.c **** * Summary:
 408:.\Generated_Source\PSoC4/ServoISR.c **** *   Disables the Interrupt.
 409:.\Generated_Source\PSoC4/ServoISR.c **** *
 410:.\Generated_Source\PSoC4/ServoISR.c **** * Parameters:
 411:.\Generated_Source\PSoC4/ServoISR.c **** *   None
 412:.\Generated_Source\PSoC4/ServoISR.c **** *
 413:.\Generated_Source\PSoC4/ServoISR.c **** * Return:
 414:.\Generated_Source\PSoC4/ServoISR.c **** *   None
 415:.\Generated_Source\PSoC4/ServoISR.c **** *
 416:.\Generated_Source\PSoC4/ServoISR.c **** *******************************************************************************/
 417:.\Generated_Source\PSoC4/ServoISR.c **** void ServoISR_Disable(void)
 418:.\Generated_Source\PSoC4/ServoISR.c **** {
 737              		.loc 1 418 0
 738              		.cfi_startproc
 739 0000 80B5     		push	{r7, lr}
 740              	.LCFI24:
 741              		.cfi_def_cfa_offset 8
 742              		.cfi_offset 7, -8
 743              		.cfi_offset 14, -4
 744 0002 00AF     		add	r7, sp, #0
 745              	.LCFI25:
 746              		.cfi_def_cfa_register 7
 419:.\Generated_Source\PSoC4/ServoISR.c ****     /* Disable the general interrupt. */
 420:.\Generated_Source\PSoC4/ServoISR.c ****     *ServoISR_INTC_CLR_EN = ServoISR__INTC_MASK;
 747              		.loc 1 420 0
 748 0004 024B     		ldr	r3, .L51
 749 0006 8022     		mov	r2, #128
 750 0008 9202     		lsl	r2, r2, #10
 751 000a 1A60     		str	r2, [r3]
 421:.\Generated_Source\PSoC4/ServoISR.c **** }
 752              		.loc 1 421 0
 753 000c BD46     		mov	sp, r7
 754              		@ sp needed for prologue
 755 000e 80BD     		pop	{r7, pc}
 756              	.L52:
 757              		.align	2
 758              	.L51:
 759 0010 80E100E0 		.word	-536813184
 760              		.cfi_endproc
 761              	.LFE43:
 762              		.size	ServoISR_Disable, .-ServoISR_Disable
 763              		.section	.text.ServoISR_SetPending,"ax",%progbits
 764              		.align	2
 765              		.global	ServoISR_SetPending
 766              		.code	16
 767              		.thumb_func
 768              		.type	ServoISR_SetPending, %function
 769              	ServoISR_SetPending:
 770              	.LFB44:
 422:.\Generated_Source\PSoC4/ServoISR.c **** 
 423:.\Generated_Source\PSoC4/ServoISR.c **** 
 424:.\Generated_Source\PSoC4/ServoISR.c **** /*******************************************************************************
 425:.\Generated_Source\PSoC4/ServoISR.c **** * Function Name: ServoISR_SetPending
 426:.\Generated_Source\PSoC4/ServoISR.c **** ********************************************************************************
ARM GAS  C:\Users\SNFU\AppData\Local\Temp\ccR1RbrG.s 			page 22


 427:.\Generated_Source\PSoC4/ServoISR.c **** *
 428:.\Generated_Source\PSoC4/ServoISR.c **** * Summary:
 429:.\Generated_Source\PSoC4/ServoISR.c **** *   Causes the Interrupt to enter the pending state, a software method of
 430:.\Generated_Source\PSoC4/ServoISR.c **** *   generating the interrupt.
 431:.\Generated_Source\PSoC4/ServoISR.c **** *
 432:.\Generated_Source\PSoC4/ServoISR.c **** * Parameters:
 433:.\Generated_Source\PSoC4/ServoISR.c **** *   None
 434:.\Generated_Source\PSoC4/ServoISR.c **** *
 435:.\Generated_Source\PSoC4/ServoISR.c **** * Return:
 436:.\Generated_Source\PSoC4/ServoISR.c **** *   None
 437:.\Generated_Source\PSoC4/ServoISR.c **** *
 438:.\Generated_Source\PSoC4/ServoISR.c **** *******************************************************************************/
 439:.\Generated_Source\PSoC4/ServoISR.c **** void ServoISR_SetPending(void)
 440:.\Generated_Source\PSoC4/ServoISR.c **** {
 771              		.loc 1 440 0
 772              		.cfi_startproc
 773 0000 80B5     		push	{r7, lr}
 774              	.LCFI26:
 775              		.cfi_def_cfa_offset 8
 776              		.cfi_offset 7, -8
 777              		.cfi_offset 14, -4
 778 0002 00AF     		add	r7, sp, #0
 779              	.LCFI27:
 780              		.cfi_def_cfa_register 7
 441:.\Generated_Source\PSoC4/ServoISR.c ****     *ServoISR_INTC_SET_PD = ServoISR__INTC_MASK;
 781              		.loc 1 441 0
 782 0004 024B     		ldr	r3, .L54
 783 0006 8022     		mov	r2, #128
 784 0008 9202     		lsl	r2, r2, #10
 785 000a 1A60     		str	r2, [r3]
 442:.\Generated_Source\PSoC4/ServoISR.c **** }
 786              		.loc 1 442 0
 787 000c BD46     		mov	sp, r7
 788              		@ sp needed for prologue
 789 000e 80BD     		pop	{r7, pc}
 790              	.L55:
 791              		.align	2
 792              	.L54:
 793 0010 00E200E0 		.word	-536813056
 794              		.cfi_endproc
 795              	.LFE44:
 796              		.size	ServoISR_SetPending, .-ServoISR_SetPending
 797              		.section	.text.ServoISR_ClearPending,"ax",%progbits
 798              		.align	2
 799              		.global	ServoISR_ClearPending
 800              		.code	16
 801              		.thumb_func
 802              		.type	ServoISR_ClearPending, %function
 803              	ServoISR_ClearPending:
 804              	.LFB45:
 443:.\Generated_Source\PSoC4/ServoISR.c **** 
 444:.\Generated_Source\PSoC4/ServoISR.c **** 
 445:.\Generated_Source\PSoC4/ServoISR.c **** /*******************************************************************************
 446:.\Generated_Source\PSoC4/ServoISR.c **** * Function Name: ServoISR_ClearPending
 447:.\Generated_Source\PSoC4/ServoISR.c **** ********************************************************************************
 448:.\Generated_Source\PSoC4/ServoISR.c **** *
 449:.\Generated_Source\PSoC4/ServoISR.c **** * Summary:
ARM GAS  C:\Users\SNFU\AppData\Local\Temp\ccR1RbrG.s 			page 23


 450:.\Generated_Source\PSoC4/ServoISR.c **** *   Clears a pending interrupt.
 451:.\Generated_Source\PSoC4/ServoISR.c **** *
 452:.\Generated_Source\PSoC4/ServoISR.c **** * Parameters:
 453:.\Generated_Source\PSoC4/ServoISR.c **** *   None
 454:.\Generated_Source\PSoC4/ServoISR.c **** *
 455:.\Generated_Source\PSoC4/ServoISR.c **** * Return:
 456:.\Generated_Source\PSoC4/ServoISR.c **** *   None
 457:.\Generated_Source\PSoC4/ServoISR.c **** *
 458:.\Generated_Source\PSoC4/ServoISR.c **** *******************************************************************************/
 459:.\Generated_Source\PSoC4/ServoISR.c **** void ServoISR_ClearPending(void)
 460:.\Generated_Source\PSoC4/ServoISR.c **** {
 805              		.loc 1 460 0
 806              		.cfi_startproc
 807 0000 80B5     		push	{r7, lr}
 808              	.LCFI28:
 809              		.cfi_def_cfa_offset 8
 810              		.cfi_offset 7, -8
 811              		.cfi_offset 14, -4
 812 0002 00AF     		add	r7, sp, #0
 813              	.LCFI29:
 814              		.cfi_def_cfa_register 7
 461:.\Generated_Source\PSoC4/ServoISR.c ****     *ServoISR_INTC_CLR_PD = ServoISR__INTC_MASK;
 815              		.loc 1 461 0
 816 0004 024B     		ldr	r3, .L57
 817 0006 8022     		mov	r2, #128
 818 0008 9202     		lsl	r2, r2, #10
 819 000a 1A60     		str	r2, [r3]
 462:.\Generated_Source\PSoC4/ServoISR.c **** }
 820              		.loc 1 462 0
 821 000c BD46     		mov	sp, r7
 822              		@ sp needed for prologue
 823 000e 80BD     		pop	{r7, pc}
 824              	.L58:
 825              		.align	2
 826              	.L57:
 827 0010 80E200E0 		.word	-536812928
 828              		.cfi_endproc
 829              	.LFE45:
 830              		.size	ServoISR_ClearPending, .-ServoISR_ClearPending
 831              		.text
 832              	.Letext0:
 833              		.file 2 "c:\\program files\\cypress\\psoc creator\\3.0\\psoc creator\\import\\gnu_cs\\arm\\4.7.3\\
 834              		.file 3 "./Generated_Source/PSoC4/cytypes.h"