ARM GAS  C:\Users\SNFU\AppData\Local\Temp\ccjKfo5Y.s 			page 1


   1              		.cpu cortex-m0
   2              		.fpu softvfp
   3              		.eabi_attribute 20, 1
   4              		.eabi_attribute 21, 1
   5              		.eabi_attribute 23, 3
   6              		.eabi_attribute 24, 1
   7              		.eabi_attribute 25, 1
   8              		.eabi_attribute 26, 1
   9              		.eabi_attribute 30, 4
  10              		.eabi_attribute 34, 0
  11              		.eabi_attribute 18, 4
  12              		.code	16
  13              		.file	"TelemUART_PM.c"
  14              		.text
  15              	.Ltext0:
  16              		.cfi_sections	.debug_frame
  17              		.section	.text.TelemUART_SaveConfig,"ax",%progbits
  18              		.align	1
  19              		.global	TelemUART_SaveConfig
  20              		.code	16
  21              		.thumb_func
  22              		.type	TelemUART_SaveConfig, %function
  23              	TelemUART_SaveConfig:
  24              	.LFB0:
  25              		.file 1 ".\\Generated_Source\\PSoC4\\TelemUART_PM.c"
   1:.\Generated_Source\PSoC4/TelemUART_PM.c **** /*******************************************************************************
   2:.\Generated_Source\PSoC4/TelemUART_PM.c **** * File Name: TelemUART_PM.c
   3:.\Generated_Source\PSoC4/TelemUART_PM.c **** * Version 2.30
   4:.\Generated_Source\PSoC4/TelemUART_PM.c **** *
   5:.\Generated_Source\PSoC4/TelemUART_PM.c **** * Description:
   6:.\Generated_Source\PSoC4/TelemUART_PM.c **** *  This file provides Sleep/WakeUp APIs functionality.
   7:.\Generated_Source\PSoC4/TelemUART_PM.c **** *
   8:.\Generated_Source\PSoC4/TelemUART_PM.c **** * Note:
   9:.\Generated_Source\PSoC4/TelemUART_PM.c **** *
  10:.\Generated_Source\PSoC4/TelemUART_PM.c **** ********************************************************************************
  11:.\Generated_Source\PSoC4/TelemUART_PM.c **** * Copyright 2008-2012, Cypress Semiconductor Corporation.  All rights reserved.
  12:.\Generated_Source\PSoC4/TelemUART_PM.c **** * You may use this file only in accordance with the license, terms, conditions,
  13:.\Generated_Source\PSoC4/TelemUART_PM.c **** * disclaimers, and limitations in the end user license agreement accompanying
  14:.\Generated_Source\PSoC4/TelemUART_PM.c **** * the software package with which this file was provided.
  15:.\Generated_Source\PSoC4/TelemUART_PM.c **** *******************************************************************************/
  16:.\Generated_Source\PSoC4/TelemUART_PM.c **** 
  17:.\Generated_Source\PSoC4/TelemUART_PM.c **** #include "TelemUART.h"
  18:.\Generated_Source\PSoC4/TelemUART_PM.c **** 
  19:.\Generated_Source\PSoC4/TelemUART_PM.c **** 
  20:.\Generated_Source\PSoC4/TelemUART_PM.c **** /***************************************
  21:.\Generated_Source\PSoC4/TelemUART_PM.c **** * Local data allocation
  22:.\Generated_Source\PSoC4/TelemUART_PM.c **** ***************************************/
  23:.\Generated_Source\PSoC4/TelemUART_PM.c **** 
  24:.\Generated_Source\PSoC4/TelemUART_PM.c **** static TelemUART_BACKUP_STRUCT  TelemUART_backup =
  25:.\Generated_Source\PSoC4/TelemUART_PM.c **** {
  26:.\Generated_Source\PSoC4/TelemUART_PM.c ****     /* enableState - disabled */
  27:.\Generated_Source\PSoC4/TelemUART_PM.c ****     0u,
  28:.\Generated_Source\PSoC4/TelemUART_PM.c **** };
  29:.\Generated_Source\PSoC4/TelemUART_PM.c **** 
  30:.\Generated_Source\PSoC4/TelemUART_PM.c **** 
  31:.\Generated_Source\PSoC4/TelemUART_PM.c **** 
  32:.\Generated_Source\PSoC4/TelemUART_PM.c **** /*******************************************************************************
ARM GAS  C:\Users\SNFU\AppData\Local\Temp\ccjKfo5Y.s 			page 2


  33:.\Generated_Source\PSoC4/TelemUART_PM.c **** * Function Name: TelemUART_SaveConfig
  34:.\Generated_Source\PSoC4/TelemUART_PM.c **** ********************************************************************************
  35:.\Generated_Source\PSoC4/TelemUART_PM.c **** *
  36:.\Generated_Source\PSoC4/TelemUART_PM.c **** * Summary:
  37:.\Generated_Source\PSoC4/TelemUART_PM.c **** *  Saves the current user configuration.
  38:.\Generated_Source\PSoC4/TelemUART_PM.c **** *
  39:.\Generated_Source\PSoC4/TelemUART_PM.c **** * Parameters:
  40:.\Generated_Source\PSoC4/TelemUART_PM.c **** *  None.
  41:.\Generated_Source\PSoC4/TelemUART_PM.c **** *
  42:.\Generated_Source\PSoC4/TelemUART_PM.c **** * Return:
  43:.\Generated_Source\PSoC4/TelemUART_PM.c **** *  None.
  44:.\Generated_Source\PSoC4/TelemUART_PM.c **** *
  45:.\Generated_Source\PSoC4/TelemUART_PM.c **** * Global Variables:
  46:.\Generated_Source\PSoC4/TelemUART_PM.c **** *  TelemUART_backup - modified when non-retention registers are saved.
  47:.\Generated_Source\PSoC4/TelemUART_PM.c **** *
  48:.\Generated_Source\PSoC4/TelemUART_PM.c **** * Reentrant:
  49:.\Generated_Source\PSoC4/TelemUART_PM.c **** *  No.
  50:.\Generated_Source\PSoC4/TelemUART_PM.c **** *
  51:.\Generated_Source\PSoC4/TelemUART_PM.c **** *******************************************************************************/
  52:.\Generated_Source\PSoC4/TelemUART_PM.c **** void TelemUART_SaveConfig(void)
  53:.\Generated_Source\PSoC4/TelemUART_PM.c **** {
  26              		.loc 1 53 0
  27              		.cfi_startproc
  54:.\Generated_Source\PSoC4/TelemUART_PM.c ****     #if (CY_UDB_V0)
  55:.\Generated_Source\PSoC4/TelemUART_PM.c **** 
  56:.\Generated_Source\PSoC4/TelemUART_PM.c ****         #if(TelemUART_CONTROL_REG_REMOVED == 0u)
  57:.\Generated_Source\PSoC4/TelemUART_PM.c ****             TelemUART_backup.cr = TelemUART_CONTROL_REG;
  58:.\Generated_Source\PSoC4/TelemUART_PM.c ****         #endif /* End TelemUART_CONTROL_REG_REMOVED */
  59:.\Generated_Source\PSoC4/TelemUART_PM.c **** 
  60:.\Generated_Source\PSoC4/TelemUART_PM.c ****         #if( (TelemUART_RX_ENABLED) || (TelemUART_HD_ENABLED) )
  61:.\Generated_Source\PSoC4/TelemUART_PM.c ****             TelemUART_backup.rx_period = TelemUART_RXBITCTR_PERIOD_REG;
  62:.\Generated_Source\PSoC4/TelemUART_PM.c ****             TelemUART_backup.rx_mask = TelemUART_RXSTATUS_MASK_REG;
  63:.\Generated_Source\PSoC4/TelemUART_PM.c ****             #if (TelemUART_RXHW_ADDRESS_ENABLED)
  64:.\Generated_Source\PSoC4/TelemUART_PM.c ****                 TelemUART_backup.rx_addr1 = TelemUART_RXADDRESS1_REG;
  65:.\Generated_Source\PSoC4/TelemUART_PM.c ****                 TelemUART_backup.rx_addr2 = TelemUART_RXADDRESS2_REG;
  66:.\Generated_Source\PSoC4/TelemUART_PM.c ****             #endif /* End TelemUART_RXHW_ADDRESS_ENABLED */
  67:.\Generated_Source\PSoC4/TelemUART_PM.c ****         #endif /* End TelemUART_RX_ENABLED | TelemUART_HD_ENABLED*/
  68:.\Generated_Source\PSoC4/TelemUART_PM.c **** 
  69:.\Generated_Source\PSoC4/TelemUART_PM.c ****         #if(TelemUART_TX_ENABLED)
  70:.\Generated_Source\PSoC4/TelemUART_PM.c ****             #if(TelemUART_TXCLKGEN_DP)
  71:.\Generated_Source\PSoC4/TelemUART_PM.c ****                 TelemUART_backup.tx_clk_ctr = TelemUART_TXBITCLKGEN_CTR_REG;
  72:.\Generated_Source\PSoC4/TelemUART_PM.c ****                 TelemUART_backup.tx_clk_compl = TelemUART_TXBITCLKTX_COMPLETE_REG;
  73:.\Generated_Source\PSoC4/TelemUART_PM.c ****             #else
  74:.\Generated_Source\PSoC4/TelemUART_PM.c ****                 TelemUART_backup.tx_period = TelemUART_TXBITCTR_PERIOD_REG;
  75:.\Generated_Source\PSoC4/TelemUART_PM.c ****             #endif /*End TelemUART_TXCLKGEN_DP */
  76:.\Generated_Source\PSoC4/TelemUART_PM.c ****             TelemUART_backup.tx_mask = TelemUART_TXSTATUS_MASK_REG;
  77:.\Generated_Source\PSoC4/TelemUART_PM.c ****         #endif /*End TelemUART_TX_ENABLED */
  78:.\Generated_Source\PSoC4/TelemUART_PM.c **** 
  79:.\Generated_Source\PSoC4/TelemUART_PM.c **** 
  80:.\Generated_Source\PSoC4/TelemUART_PM.c ****     #else /* CY_UDB_V1 */
  81:.\Generated_Source\PSoC4/TelemUART_PM.c **** 
  82:.\Generated_Source\PSoC4/TelemUART_PM.c ****         #if(TelemUART_CONTROL_REG_REMOVED == 0u)
  83:.\Generated_Source\PSoC4/TelemUART_PM.c ****             TelemUART_backup.cr = TelemUART_CONTROL_REG;
  84:.\Generated_Source\PSoC4/TelemUART_PM.c ****         #endif /* End TelemUART_CONTROL_REG_REMOVED */
  85:.\Generated_Source\PSoC4/TelemUART_PM.c **** 
  86:.\Generated_Source\PSoC4/TelemUART_PM.c ****     #endif  /* End CY_UDB_V0 */
  87:.\Generated_Source\PSoC4/TelemUART_PM.c **** }
ARM GAS  C:\Users\SNFU\AppData\Local\Temp\ccjKfo5Y.s 			page 3


  28              		.loc 1 87 0
  29              		@ sp needed for prologue
  30 0000 7047     		bx	lr
  31              		.cfi_endproc
  32              	.LFE0:
  33              		.size	TelemUART_SaveConfig, .-TelemUART_SaveConfig
  34              		.section	.text.TelemUART_RestoreConfig,"ax",%progbits
  35              		.align	1
  36              		.global	TelemUART_RestoreConfig
  37              		.code	16
  38              		.thumb_func
  39              		.type	TelemUART_RestoreConfig, %function
  40              	TelemUART_RestoreConfig:
  41              	.LFB1:
  88:.\Generated_Source\PSoC4/TelemUART_PM.c **** 
  89:.\Generated_Source\PSoC4/TelemUART_PM.c **** 
  90:.\Generated_Source\PSoC4/TelemUART_PM.c **** /*******************************************************************************
  91:.\Generated_Source\PSoC4/TelemUART_PM.c **** * Function Name: TelemUART_RestoreConfig
  92:.\Generated_Source\PSoC4/TelemUART_PM.c **** ********************************************************************************
  93:.\Generated_Source\PSoC4/TelemUART_PM.c **** *
  94:.\Generated_Source\PSoC4/TelemUART_PM.c **** * Summary:
  95:.\Generated_Source\PSoC4/TelemUART_PM.c **** *  Restores the current user configuration.
  96:.\Generated_Source\PSoC4/TelemUART_PM.c **** *
  97:.\Generated_Source\PSoC4/TelemUART_PM.c **** * Parameters:
  98:.\Generated_Source\PSoC4/TelemUART_PM.c **** *  None.
  99:.\Generated_Source\PSoC4/TelemUART_PM.c **** *
 100:.\Generated_Source\PSoC4/TelemUART_PM.c **** * Return:
 101:.\Generated_Source\PSoC4/TelemUART_PM.c **** *  None.
 102:.\Generated_Source\PSoC4/TelemUART_PM.c **** *
 103:.\Generated_Source\PSoC4/TelemUART_PM.c **** * Global Variables:
 104:.\Generated_Source\PSoC4/TelemUART_PM.c **** *  TelemUART_backup - used when non-retention registers are restored.
 105:.\Generated_Source\PSoC4/TelemUART_PM.c **** *
 106:.\Generated_Source\PSoC4/TelemUART_PM.c **** * Reentrant:
 107:.\Generated_Source\PSoC4/TelemUART_PM.c **** *  No.
 108:.\Generated_Source\PSoC4/TelemUART_PM.c **** *
 109:.\Generated_Source\PSoC4/TelemUART_PM.c **** *******************************************************************************/
 110:.\Generated_Source\PSoC4/TelemUART_PM.c **** void TelemUART_RestoreConfig(void)
 111:.\Generated_Source\PSoC4/TelemUART_PM.c **** {
  42              		.loc 1 111 0
  43              		.cfi_startproc
 112:.\Generated_Source\PSoC4/TelemUART_PM.c **** 
 113:.\Generated_Source\PSoC4/TelemUART_PM.c ****     #if (CY_UDB_V0)
 114:.\Generated_Source\PSoC4/TelemUART_PM.c **** 
 115:.\Generated_Source\PSoC4/TelemUART_PM.c ****         #if(TelemUART_CONTROL_REG_REMOVED == 0u)
 116:.\Generated_Source\PSoC4/TelemUART_PM.c ****             TelemUART_CONTROL_REG = TelemUART_backup.cr;
 117:.\Generated_Source\PSoC4/TelemUART_PM.c ****         #endif /* End TelemUART_CONTROL_REG_REMOVED */
 118:.\Generated_Source\PSoC4/TelemUART_PM.c **** 
 119:.\Generated_Source\PSoC4/TelemUART_PM.c ****         #if( (TelemUART_RX_ENABLED) || (TelemUART_HD_ENABLED) )
 120:.\Generated_Source\PSoC4/TelemUART_PM.c ****             TelemUART_RXBITCTR_PERIOD_REG = TelemUART_backup.rx_period;
 121:.\Generated_Source\PSoC4/TelemUART_PM.c ****             TelemUART_RXSTATUS_MASK_REG = TelemUART_backup.rx_mask;
 122:.\Generated_Source\PSoC4/TelemUART_PM.c ****             #if (TelemUART_RXHW_ADDRESS_ENABLED)
 123:.\Generated_Source\PSoC4/TelemUART_PM.c ****                 TelemUART_RXADDRESS1_REG = TelemUART_backup.rx_addr1;
 124:.\Generated_Source\PSoC4/TelemUART_PM.c ****                 TelemUART_RXADDRESS2_REG = TelemUART_backup.rx_addr2;
 125:.\Generated_Source\PSoC4/TelemUART_PM.c ****             #endif /* End TelemUART_RXHW_ADDRESS_ENABLED */
 126:.\Generated_Source\PSoC4/TelemUART_PM.c ****         #endif  /* End (TelemUART_RX_ENABLED) || (TelemUART_HD_ENABLED) */
 127:.\Generated_Source\PSoC4/TelemUART_PM.c **** 
 128:.\Generated_Source\PSoC4/TelemUART_PM.c ****         #if(TelemUART_TX_ENABLED)
ARM GAS  C:\Users\SNFU\AppData\Local\Temp\ccjKfo5Y.s 			page 4


 129:.\Generated_Source\PSoC4/TelemUART_PM.c ****             #if(TelemUART_TXCLKGEN_DP)
 130:.\Generated_Source\PSoC4/TelemUART_PM.c ****                 TelemUART_TXBITCLKGEN_CTR_REG = TelemUART_backup.tx_clk_ctr;
 131:.\Generated_Source\PSoC4/TelemUART_PM.c ****                 TelemUART_TXBITCLKTX_COMPLETE_REG = TelemUART_backup.tx_clk_compl;
 132:.\Generated_Source\PSoC4/TelemUART_PM.c ****             #else
 133:.\Generated_Source\PSoC4/TelemUART_PM.c ****                 TelemUART_TXBITCTR_PERIOD_REG = TelemUART_backup.tx_period;
 134:.\Generated_Source\PSoC4/TelemUART_PM.c ****             #endif /*End TelemUART_TXCLKGEN_DP */
 135:.\Generated_Source\PSoC4/TelemUART_PM.c ****             TelemUART_TXSTATUS_MASK_REG = TelemUART_backup.tx_mask;
 136:.\Generated_Source\PSoC4/TelemUART_PM.c ****         #endif /*End TelemUART_TX_ENABLED */
 137:.\Generated_Source\PSoC4/TelemUART_PM.c **** 
 138:.\Generated_Source\PSoC4/TelemUART_PM.c ****     #else /* CY_UDB_V1 */
 139:.\Generated_Source\PSoC4/TelemUART_PM.c **** 
 140:.\Generated_Source\PSoC4/TelemUART_PM.c ****         #if(TelemUART_CONTROL_REG_REMOVED == 0u)
 141:.\Generated_Source\PSoC4/TelemUART_PM.c ****             TelemUART_CONTROL_REG = TelemUART_backup.cr;
 142:.\Generated_Source\PSoC4/TelemUART_PM.c ****         #endif /* End TelemUART_CONTROL_REG_REMOVED */
 143:.\Generated_Source\PSoC4/TelemUART_PM.c **** 
 144:.\Generated_Source\PSoC4/TelemUART_PM.c ****     #endif  /* End CY_UDB_V0 */
 145:.\Generated_Source\PSoC4/TelemUART_PM.c **** }
  44              		.loc 1 145 0
  45              		@ sp needed for prologue
  46 0000 7047     		bx	lr
  47              		.cfi_endproc
  48              	.LFE1:
  49              		.size	TelemUART_RestoreConfig, .-TelemUART_RestoreConfig
  50              		.section	.text.TelemUART_Sleep,"ax",%progbits
  51              		.align	1
  52              		.global	TelemUART_Sleep
  53              		.code	16
  54              		.thumb_func
  55              		.type	TelemUART_Sleep, %function
  56              	TelemUART_Sleep:
  57              	.LFB2:
 146:.\Generated_Source\PSoC4/TelemUART_PM.c **** 
 147:.\Generated_Source\PSoC4/TelemUART_PM.c **** 
 148:.\Generated_Source\PSoC4/TelemUART_PM.c **** /*******************************************************************************
 149:.\Generated_Source\PSoC4/TelemUART_PM.c **** * Function Name: TelemUART_Sleep
 150:.\Generated_Source\PSoC4/TelemUART_PM.c **** ********************************************************************************
 151:.\Generated_Source\PSoC4/TelemUART_PM.c **** *
 152:.\Generated_Source\PSoC4/TelemUART_PM.c **** * Summary:
 153:.\Generated_Source\PSoC4/TelemUART_PM.c **** *  Stops and saves the user configuration. Should be called
 154:.\Generated_Source\PSoC4/TelemUART_PM.c **** *  just prior to entering sleep.
 155:.\Generated_Source\PSoC4/TelemUART_PM.c **** *
 156:.\Generated_Source\PSoC4/TelemUART_PM.c **** *
 157:.\Generated_Source\PSoC4/TelemUART_PM.c **** * Parameters:
 158:.\Generated_Source\PSoC4/TelemUART_PM.c **** *  None.
 159:.\Generated_Source\PSoC4/TelemUART_PM.c **** *
 160:.\Generated_Source\PSoC4/TelemUART_PM.c **** * Return:
 161:.\Generated_Source\PSoC4/TelemUART_PM.c **** *  None.
 162:.\Generated_Source\PSoC4/TelemUART_PM.c **** *
 163:.\Generated_Source\PSoC4/TelemUART_PM.c **** * Global Variables:
 164:.\Generated_Source\PSoC4/TelemUART_PM.c **** *  TelemUART_backup - modified when non-retention registers are saved.
 165:.\Generated_Source\PSoC4/TelemUART_PM.c **** *
 166:.\Generated_Source\PSoC4/TelemUART_PM.c **** * Reentrant:
 167:.\Generated_Source\PSoC4/TelemUART_PM.c **** *  No.
 168:.\Generated_Source\PSoC4/TelemUART_PM.c **** *
 169:.\Generated_Source\PSoC4/TelemUART_PM.c **** *******************************************************************************/
 170:.\Generated_Source\PSoC4/TelemUART_PM.c **** void TelemUART_Sleep(void)
 171:.\Generated_Source\PSoC4/TelemUART_PM.c **** {
ARM GAS  C:\Users\SNFU\AppData\Local\Temp\ccjKfo5Y.s 			page 5


  58              		.loc 1 171 0
  59              		.cfi_startproc
  60 0000 08B5     		push	{r3, lr}
  61              	.LCFI0:
  62              		.cfi_def_cfa_offset 8
  63              		.cfi_offset 3, -8
  64              		.cfi_offset 14, -4
 172:.\Generated_Source\PSoC4/TelemUART_PM.c **** 
 173:.\Generated_Source\PSoC4/TelemUART_PM.c ****     #if(TelemUART_RX_ENABLED || TelemUART_HD_ENABLED)
 174:.\Generated_Source\PSoC4/TelemUART_PM.c ****         if((TelemUART_RXSTATUS_ACTL_REG  & TelemUART_INT_ENABLE) != 0u)
 175:.\Generated_Source\PSoC4/TelemUART_PM.c ****         {
 176:.\Generated_Source\PSoC4/TelemUART_PM.c ****             TelemUART_backup.enableState = 1u;
 177:.\Generated_Source\PSoC4/TelemUART_PM.c ****         }
 178:.\Generated_Source\PSoC4/TelemUART_PM.c ****         else
 179:.\Generated_Source\PSoC4/TelemUART_PM.c ****         {
 180:.\Generated_Source\PSoC4/TelemUART_PM.c ****             TelemUART_backup.enableState = 0u;
 181:.\Generated_Source\PSoC4/TelemUART_PM.c ****         }
 182:.\Generated_Source\PSoC4/TelemUART_PM.c ****     #else
 183:.\Generated_Source\PSoC4/TelemUART_PM.c ****         if((TelemUART_TXSTATUS_ACTL_REG  & TelemUART_INT_ENABLE) !=0u)
  65              		.loc 1 183 0
  66 0002 054B     		ldr	r3, .L7
  67 0004 1020     		mov	r0, #16
  68 0006 1A78     		ldrb	r2, [r3]
  69 0008 0449     		ldr	r1, .L7+4
  70 000a 0240     		and	r2, r0
  71 000c 00D0     		beq	.L4
 184:.\Generated_Source\PSoC4/TelemUART_PM.c ****         {
 185:.\Generated_Source\PSoC4/TelemUART_PM.c ****             TelemUART_backup.enableState = 1u;
  72              		.loc 1 185 0
  73 000e 0122     		mov	r2, #1
  74              	.L4:
 186:.\Generated_Source\PSoC4/TelemUART_PM.c ****         }
 187:.\Generated_Source\PSoC4/TelemUART_PM.c ****         else
 188:.\Generated_Source\PSoC4/TelemUART_PM.c ****         {
 189:.\Generated_Source\PSoC4/TelemUART_PM.c ****             TelemUART_backup.enableState = 0u;
  75              		.loc 1 189 0
  76 0010 0A70     		strb	r2, [r1]
 190:.\Generated_Source\PSoC4/TelemUART_PM.c ****         }
 191:.\Generated_Source\PSoC4/TelemUART_PM.c ****     #endif /* End TelemUART_RX_ENABLED || TelemUART_HD_ENABLED*/
 192:.\Generated_Source\PSoC4/TelemUART_PM.c **** 
 193:.\Generated_Source\PSoC4/TelemUART_PM.c ****     TelemUART_Stop();
 194:.\Generated_Source\PSoC4/TelemUART_PM.c ****     TelemUART_SaveConfig();
 195:.\Generated_Source\PSoC4/TelemUART_PM.c **** }
  77              		.loc 1 195 0
  78              		@ sp needed for prologue
 193:.\Generated_Source\PSoC4/TelemUART_PM.c ****     TelemUART_Stop();
  79              		.loc 1 193 0
  80 0012 FFF7FEFF 		bl	TelemUART_Stop
  81              	.LVL0:
  82              		.loc 1 195 0
  83 0016 08BD     		pop	{r3, pc}
  84              	.L8:
  85              		.align	2
  86              	.L7:
  87 0018 93000F40 		.word	1074725011
  88 001c 00000000 		.word	.LANCHOR0
  89              		.cfi_endproc
ARM GAS  C:\Users\SNFU\AppData\Local\Temp\ccjKfo5Y.s 			page 6


  90              	.LFE2:
  91              		.size	TelemUART_Sleep, .-TelemUART_Sleep
  92              		.section	.text.TelemUART_Wakeup,"ax",%progbits
  93              		.align	1
  94              		.global	TelemUART_Wakeup
  95              		.code	16
  96              		.thumb_func
  97              		.type	TelemUART_Wakeup, %function
  98              	TelemUART_Wakeup:
  99              	.LFB3:
 196:.\Generated_Source\PSoC4/TelemUART_PM.c **** 
 197:.\Generated_Source\PSoC4/TelemUART_PM.c **** 
 198:.\Generated_Source\PSoC4/TelemUART_PM.c **** /*******************************************************************************
 199:.\Generated_Source\PSoC4/TelemUART_PM.c **** * Function Name: TelemUART_Wakeup
 200:.\Generated_Source\PSoC4/TelemUART_PM.c **** ********************************************************************************
 201:.\Generated_Source\PSoC4/TelemUART_PM.c **** *
 202:.\Generated_Source\PSoC4/TelemUART_PM.c **** * Summary:
 203:.\Generated_Source\PSoC4/TelemUART_PM.c **** *  Restores and enables the user configuration. Should be called
 204:.\Generated_Source\PSoC4/TelemUART_PM.c **** *  just after awaking from sleep.
 205:.\Generated_Source\PSoC4/TelemUART_PM.c **** *
 206:.\Generated_Source\PSoC4/TelemUART_PM.c **** * Parameters:
 207:.\Generated_Source\PSoC4/TelemUART_PM.c **** *  None.
 208:.\Generated_Source\PSoC4/TelemUART_PM.c **** *
 209:.\Generated_Source\PSoC4/TelemUART_PM.c **** * Return:
 210:.\Generated_Source\PSoC4/TelemUART_PM.c **** *  None.
 211:.\Generated_Source\PSoC4/TelemUART_PM.c **** *
 212:.\Generated_Source\PSoC4/TelemUART_PM.c **** * Global Variables:
 213:.\Generated_Source\PSoC4/TelemUART_PM.c **** *  TelemUART_backup - used when non-retention registers are restored.
 214:.\Generated_Source\PSoC4/TelemUART_PM.c **** *
 215:.\Generated_Source\PSoC4/TelemUART_PM.c **** * Reentrant:
 216:.\Generated_Source\PSoC4/TelemUART_PM.c **** *  No.
 217:.\Generated_Source\PSoC4/TelemUART_PM.c **** *
 218:.\Generated_Source\PSoC4/TelemUART_PM.c **** *******************************************************************************/
 219:.\Generated_Source\PSoC4/TelemUART_PM.c **** void TelemUART_Wakeup(void)
 220:.\Generated_Source\PSoC4/TelemUART_PM.c **** {
 100              		.loc 1 220 0
 101              		.cfi_startproc
 102 0000 08B5     		push	{r3, lr}
 103              	.LCFI1:
 104              		.cfi_def_cfa_offset 8
 105              		.cfi_offset 3, -8
 106              		.cfi_offset 14, -4
 221:.\Generated_Source\PSoC4/TelemUART_PM.c ****     TelemUART_RestoreConfig();
 222:.\Generated_Source\PSoC4/TelemUART_PM.c ****     #if( (TelemUART_RX_ENABLED) || (TelemUART_HD_ENABLED) )
 223:.\Generated_Source\PSoC4/TelemUART_PM.c ****         TelemUART_ClearRxBuffer();
 224:.\Generated_Source\PSoC4/TelemUART_PM.c ****     #endif /* End (TelemUART_RX_ENABLED) || (TelemUART_HD_ENABLED) */
 225:.\Generated_Source\PSoC4/TelemUART_PM.c ****     #if(TelemUART_TX_ENABLED || TelemUART_HD_ENABLED)
 226:.\Generated_Source\PSoC4/TelemUART_PM.c ****         TelemUART_ClearTxBuffer();
 107              		.loc 1 226 0
 108 0002 FFF7FEFF 		bl	TelemUART_ClearTxBuffer
 109              	.LVL1:
 227:.\Generated_Source\PSoC4/TelemUART_PM.c ****     #endif /* End TelemUART_TX_ENABLED || TelemUART_HD_ENABLED */
 228:.\Generated_Source\PSoC4/TelemUART_PM.c **** 
 229:.\Generated_Source\PSoC4/TelemUART_PM.c ****     if(TelemUART_backup.enableState != 0u)
 110              		.loc 1 229 0
 111 0006 034B     		ldr	r3, .L14
 112 0008 1878     		ldrb	r0, [r3]
ARM GAS  C:\Users\SNFU\AppData\Local\Temp\ccjKfo5Y.s 			page 7


 113 000a 0028     		cmp	r0, #0
 114 000c 01D0     		beq	.L9
 230:.\Generated_Source\PSoC4/TelemUART_PM.c ****     {
 231:.\Generated_Source\PSoC4/TelemUART_PM.c ****         TelemUART_Enable();
 115              		.loc 1 231 0
 116 000e FFF7FEFF 		bl	TelemUART_Enable
 117              	.LVL2:
 118              	.L9:
 232:.\Generated_Source\PSoC4/TelemUART_PM.c ****     }
 233:.\Generated_Source\PSoC4/TelemUART_PM.c **** }
 119              		.loc 1 233 0
 120              		@ sp needed for prologue
 121 0012 08BD     		pop	{r3, pc}
 122              	.L15:
 123              		.align	2
 124              	.L14:
 125 0014 00000000 		.word	.LANCHOR0
 126              		.cfi_endproc
 127              	.LFE3:
 128              		.size	TelemUART_Wakeup, .-TelemUART_Wakeup
 129              		.bss
 130              		.set	.LANCHOR0,. + 0
 131              		.type	TelemUART_backup, %object
 132              		.size	TelemUART_backup, 2
 133              	TelemUART_backup:
 134 0000 0000     		.space	2
 135              		.text
 136              	.Letext0:
 137              		.file 2 ".\\Generated_Source\\PSoC4\\cytypes.h"
 138              		.file 3 ".\\Generated_Source\\PSoC4\\TelemUART.h"