ARM GAS  C:\Users\SNFU\AppData\Local\Temp\cccpROyA.s 			page 1


   1              		.cpu cortex-m0
   2              		.fpu softvfp
   3              		.eabi_attribute 20, 1
   4              		.eabi_attribute 21, 1
   5              		.eabi_attribute 23, 3
   6              		.eabi_attribute 24, 1
   7              		.eabi_attribute 25, 1
   8              		.eabi_attribute 26, 1
   9              		.eabi_attribute 30, 4
  10              		.eabi_attribute 34, 0
  11              		.eabi_attribute 18, 4
  12              		.code	16
  13              		.file	"ADC.c"
  14              		.text
  15              	.Ltext0:
  16              		.cfi_sections	.debug_frame
  17              		.section	.text.ADC_Init,"ax",%progbits
  18              		.align	1
  19              		.global	ADC_Init
  20              		.code	16
  21              		.thumb_func
  22              		.type	ADC_Init, %function
  23              	ADC_Init:
  24              	.LFB1:
  25              		.file 1 ".\\Generated_Source\\PSoC4\\ADC.c"
   1:.\Generated_Source\PSoC4/ADC.c **** /*******************************************************************************
   2:.\Generated_Source\PSoC4/ADC.c **** * File Name: ADC.c
   3:.\Generated_Source\PSoC4/ADC.c **** * Version 2.0
   4:.\Generated_Source\PSoC4/ADC.c **** *
   5:.\Generated_Source\PSoC4/ADC.c **** * Description:
   6:.\Generated_Source\PSoC4/ADC.c **** *  This file provides the source code to the API for the Sequencing Successive
   7:.\Generated_Source\PSoC4/ADC.c **** *  Approximation ADC Component Component.
   8:.\Generated_Source\PSoC4/ADC.c **** *
   9:.\Generated_Source\PSoC4/ADC.c **** * Note:
  10:.\Generated_Source\PSoC4/ADC.c **** *
  11:.\Generated_Source\PSoC4/ADC.c **** ********************************************************************************
  12:.\Generated_Source\PSoC4/ADC.c **** * Copyright 2008-2014, Cypress Semiconductor Corporation.  All rights reserved.
  13:.\Generated_Source\PSoC4/ADC.c **** * You may use this file only in accordance with the license, terms, conditions,
  14:.\Generated_Source\PSoC4/ADC.c **** * disclaimers, and limitations in the end user license agreement accompanying
  15:.\Generated_Source\PSoC4/ADC.c **** * the software package with which this file was provided.
  16:.\Generated_Source\PSoC4/ADC.c **** *******************************************************************************/
  17:.\Generated_Source\PSoC4/ADC.c **** 
  18:.\Generated_Source\PSoC4/ADC.c **** #include "ADC.h"
  19:.\Generated_Source\PSoC4/ADC.c **** 
  20:.\Generated_Source\PSoC4/ADC.c **** 
  21:.\Generated_Source\PSoC4/ADC.c **** /***************************************
  22:.\Generated_Source\PSoC4/ADC.c **** * Global data allocation
  23:.\Generated_Source\PSoC4/ADC.c **** ***************************************/
  24:.\Generated_Source\PSoC4/ADC.c **** uint8 ADC_initVar = 0u;
  25:.\Generated_Source\PSoC4/ADC.c **** volatile int16 ADC_offset[ADC_TOTAL_CHANNELS_NUM];
  26:.\Generated_Source\PSoC4/ADC.c **** volatile int32 ADC_countsPer10Volt[ADC_TOTAL_CHANNELS_NUM];   /* Gain compensation */
  27:.\Generated_Source\PSoC4/ADC.c **** 
  28:.\Generated_Source\PSoC4/ADC.c **** 
  29:.\Generated_Source\PSoC4/ADC.c **** /***************************************
  30:.\Generated_Source\PSoC4/ADC.c **** * Local data allocation
  31:.\Generated_Source\PSoC4/ADC.c **** ***************************************/
  32:.\Generated_Source\PSoC4/ADC.c **** /* Channels configuration generated by customiser */
ARM GAS  C:\Users\SNFU\AppData\Local\Temp\cccpROyA.s 			page 2


  33:.\Generated_Source\PSoC4/ADC.c **** static const uint32 CYCODE ADC_channelsConfig[] = { 0x00000300u };
  34:.\Generated_Source\PSoC4/ADC.c **** 
  35:.\Generated_Source\PSoC4/ADC.c **** 
  36:.\Generated_Source\PSoC4/ADC.c **** /*******************************************************************************
  37:.\Generated_Source\PSoC4/ADC.c **** * Function Name: ADC_Start
  38:.\Generated_Source\PSoC4/ADC.c **** ********************************************************************************
  39:.\Generated_Source\PSoC4/ADC.c **** *
  40:.\Generated_Source\PSoC4/ADC.c **** * Summary:
  41:.\Generated_Source\PSoC4/ADC.c **** *  Performs all required initialization for this component
  42:.\Generated_Source\PSoC4/ADC.c **** *  and enables the power. The power will be set to the appropriate
  43:.\Generated_Source\PSoC4/ADC.c **** *  power based on the clock frequency.
  44:.\Generated_Source\PSoC4/ADC.c **** *
  45:.\Generated_Source\PSoC4/ADC.c **** * Parameters:
  46:.\Generated_Source\PSoC4/ADC.c **** *  None.
  47:.\Generated_Source\PSoC4/ADC.c **** *
  48:.\Generated_Source\PSoC4/ADC.c **** * Return:
  49:.\Generated_Source\PSoC4/ADC.c **** *  None.
  50:.\Generated_Source\PSoC4/ADC.c **** *
  51:.\Generated_Source\PSoC4/ADC.c **** * Global variables:
  52:.\Generated_Source\PSoC4/ADC.c **** *  The ADC_initVar variable is used to indicate when/if initial
  53:.\Generated_Source\PSoC4/ADC.c **** *  configuration of this component has happened. The variable is initialized to
  54:.\Generated_Source\PSoC4/ADC.c **** *  zero and set to 1 the first time ADC_Start() is called. This allows for
  55:.\Generated_Source\PSoC4/ADC.c **** *  component Re-Start without re-initialization in all subsequent calls to the
  56:.\Generated_Source\PSoC4/ADC.c **** *  ADC_Start() routine.
  57:.\Generated_Source\PSoC4/ADC.c **** *  If re-initialization of the component is required the variable should be set
  58:.\Generated_Source\PSoC4/ADC.c **** *  to zero before call of ADC_Start() routine, or the user may call
  59:.\Generated_Source\PSoC4/ADC.c **** *  ADC_Init() and ADC_Enable() as done in the
  60:.\Generated_Source\PSoC4/ADC.c **** *  ADC_Start() routine.
  61:.\Generated_Source\PSoC4/ADC.c **** *
  62:.\Generated_Source\PSoC4/ADC.c **** *******************************************************************************/
  63:.\Generated_Source\PSoC4/ADC.c **** void ADC_Start(void)
  64:.\Generated_Source\PSoC4/ADC.c **** {
  65:.\Generated_Source\PSoC4/ADC.c ****     /* If not Initialized then initialize all required hardware and software */
  66:.\Generated_Source\PSoC4/ADC.c ****     if(ADC_initVar == 0u)
  67:.\Generated_Source\PSoC4/ADC.c ****     {
  68:.\Generated_Source\PSoC4/ADC.c ****         ADC_Init();
  69:.\Generated_Source\PSoC4/ADC.c ****         ADC_initVar = 1u;
  70:.\Generated_Source\PSoC4/ADC.c ****     }
  71:.\Generated_Source\PSoC4/ADC.c ****     ADC_Enable();
  72:.\Generated_Source\PSoC4/ADC.c **** }
  73:.\Generated_Source\PSoC4/ADC.c **** 
  74:.\Generated_Source\PSoC4/ADC.c **** 
  75:.\Generated_Source\PSoC4/ADC.c **** /*******************************************************************************
  76:.\Generated_Source\PSoC4/ADC.c **** * Function Name: ADC_Init
  77:.\Generated_Source\PSoC4/ADC.c **** ********************************************************************************
  78:.\Generated_Source\PSoC4/ADC.c **** *
  79:.\Generated_Source\PSoC4/ADC.c **** * Summary:
  80:.\Generated_Source\PSoC4/ADC.c **** *  Initialize component's parameters to the parameters set by user in the
  81:.\Generated_Source\PSoC4/ADC.c **** *  customizer of the component placed onto schematic. Usually called in
  82:.\Generated_Source\PSoC4/ADC.c **** *  ADC_Start().
  83:.\Generated_Source\PSoC4/ADC.c **** *
  84:.\Generated_Source\PSoC4/ADC.c **** * Parameters:
  85:.\Generated_Source\PSoC4/ADC.c **** *  None.
  86:.\Generated_Source\PSoC4/ADC.c **** *
  87:.\Generated_Source\PSoC4/ADC.c **** * Return:
  88:.\Generated_Source\PSoC4/ADC.c **** *  None.
  89:.\Generated_Source\PSoC4/ADC.c **** *
ARM GAS  C:\Users\SNFU\AppData\Local\Temp\cccpROyA.s 			page 3


  90:.\Generated_Source\PSoC4/ADC.c **** * Global variables:
  91:.\Generated_Source\PSoC4/ADC.c **** *  The ADC_offset variable is initialized.
  92:.\Generated_Source\PSoC4/ADC.c **** *
  93:.\Generated_Source\PSoC4/ADC.c **** *******************************************************************************/
  94:.\Generated_Source\PSoC4/ADC.c **** void ADC_Init(void)
  95:.\Generated_Source\PSoC4/ADC.c **** {
  26              		.loc 1 95 0
  27              		.cfi_startproc
  28 0000 10B5     		push	{r4, lr}
  29              		.cfi_def_cfa_offset 8
  30              		.cfi_offset 4, -8
  31              		.cfi_offset 14, -4
  96:.\Generated_Source\PSoC4/ADC.c ****     uint32 chNum;
  97:.\Generated_Source\PSoC4/ADC.c ****     uint32 tmpRegVal;
  98:.\Generated_Source\PSoC4/ADC.c ****     int32 counts;
  99:.\Generated_Source\PSoC4/ADC.c **** 
 100:.\Generated_Source\PSoC4/ADC.c ****     #if(ADC_TOTAL_CHANNELS_NUM > 1u)
 101:.\Generated_Source\PSoC4/ADC.c ****         static const uint8 CYCODE ADC_InputsPlacement[] =
 102:.\Generated_Source\PSoC4/ADC.c ****         {
 103:.\Generated_Source\PSoC4/ADC.c ****             (uint8)(ADC_cy_psoc4_sarmux_8__CH_0_PORT << 4u) |
 104:.\Generated_Source\PSoC4/ADC.c ****             (uint8)ADC_cy_psoc4_sarmux_8__CH_0_PIN
 105:.\Generated_Source\PSoC4/ADC.c ****             ,(uint8)(ADC_cy_psoc4_sarmux_8__CH_1_PORT << 4u) |
 106:.\Generated_Source\PSoC4/ADC.c ****              (uint8)ADC_cy_psoc4_sarmux_8__CH_1_PIN
 107:.\Generated_Source\PSoC4/ADC.c ****             #if(ADC_TOTAL_CHANNELS_NUM > 2u)
 108:.\Generated_Source\PSoC4/ADC.c ****                 ,(uint8)(ADC_cy_psoc4_sarmux_8__CH_2_PORT << 4u) |
 109:.\Generated_Source\PSoC4/ADC.c ****                  (uint8)ADC_cy_psoc4_sarmux_8__CH_2_PIN
 110:.\Generated_Source\PSoC4/ADC.c ****             #endif /* End ADC_TOTAL_CHANNELS_NUM > 2u */
 111:.\Generated_Source\PSoC4/ADC.c ****             #if(ADC_TOTAL_CHANNELS_NUM > 3u)
 112:.\Generated_Source\PSoC4/ADC.c ****                 ,(uint8)(ADC_cy_psoc4_sarmux_8__CH_3_PORT << 4u) |
 113:.\Generated_Source\PSoC4/ADC.c ****                  (uint8)ADC_cy_psoc4_sarmux_8__CH_3_PIN
 114:.\Generated_Source\PSoC4/ADC.c ****             #endif /* End ADC_TOTAL_CHANNELS_NUM > 3u */
 115:.\Generated_Source\PSoC4/ADC.c ****             #if(ADC_TOTAL_CHANNELS_NUM > 4u)
 116:.\Generated_Source\PSoC4/ADC.c ****                 ,(uint8)(ADC_cy_psoc4_sarmux_8__CH_4_PORT << 4u) |
 117:.\Generated_Source\PSoC4/ADC.c ****                  (uint8)ADC_cy_psoc4_sarmux_8__CH_4_PIN
 118:.\Generated_Source\PSoC4/ADC.c ****             #endif /* End ADC_TOTAL_CHANNELS_NUM > 4u */
 119:.\Generated_Source\PSoC4/ADC.c ****             #if(ADC_TOTAL_CHANNELS_NUM > 5u)
 120:.\Generated_Source\PSoC4/ADC.c ****                 ,(uint8)(ADC_cy_psoc4_sarmux_8__CH_5_PORT << 4u) |
 121:.\Generated_Source\PSoC4/ADC.c ****                  (uint8)ADC_cy_psoc4_sarmux_8__CH_5_PIN
 122:.\Generated_Source\PSoC4/ADC.c ****             #endif /* End ADC_TOTAL_CHANNELS_NUM > 5u */
 123:.\Generated_Source\PSoC4/ADC.c ****             #if(ADC_TOTAL_CHANNELS_NUM > 6u)
 124:.\Generated_Source\PSoC4/ADC.c ****                 ,(uint8)(ADC_cy_psoc4_sarmux_8__CH_6_PORT << 4u) |
 125:.\Generated_Source\PSoC4/ADC.c ****                  (uint8)ADC_cy_psoc4_sarmux_8__CH_6_PIN
 126:.\Generated_Source\PSoC4/ADC.c ****             #endif /* End ADC_TOTAL_CHANNELS_NUM > 6u */
 127:.\Generated_Source\PSoC4/ADC.c ****             #if(ADC_TOTAL_CHANNELS_NUM > 7u)
 128:.\Generated_Source\PSoC4/ADC.c ****                 ,(uint8)(ADC_cy_psoc4_sarmux_8__CH_7_PORT << 4u) |
 129:.\Generated_Source\PSoC4/ADC.c ****                  (uint8)ADC_cy_psoc4_sarmux_8__CH_7_PIN
 130:.\Generated_Source\PSoC4/ADC.c ****             #endif /* End ADC_TOTAL_CHANNELS_NUM > 7u */
 131:.\Generated_Source\PSoC4/ADC.c ****             #if(ADC_TOTAL_CHANNELS_NUM > 8u)
 132:.\Generated_Source\PSoC4/ADC.c ****                 ,(uint8)(ADC_cy_psoc4_sarmux_8__CH_8_PORT << 4u) |
 133:.\Generated_Source\PSoC4/ADC.c ****                  (uint8)ADC_cy_psoc4_sarmux_8__CH_8_PIN
 134:.\Generated_Source\PSoC4/ADC.c ****             #endif /* End ADC_TOTAL_CHANNELS_NUM > 8u */
 135:.\Generated_Source\PSoC4/ADC.c ****         };
 136:.\Generated_Source\PSoC4/ADC.c ****     #endif /* End ADC_TOTAL_CHANNELS_NUM > 1u */
 137:.\Generated_Source\PSoC4/ADC.c **** 
 138:.\Generated_Source\PSoC4/ADC.c ****     #if(ADC_IRQ_REMOVE == 0u)
 139:.\Generated_Source\PSoC4/ADC.c ****         /* Start and set interrupt vector */
 140:.\Generated_Source\PSoC4/ADC.c ****         CyIntSetPriority(ADC_INTC_NUMBER, ADC_INTC_PRIOR_NUMBER);
ARM GAS  C:\Users\SNFU\AppData\Local\Temp\cccpROyA.s 			page 4


  32              		.loc 1 140 0
  33 0002 0E20     		mov	r0, #14
  34 0004 0321     		mov	r1, #3
  35 0006 FFF7FEFF 		bl	CyIntSetPriority
  36              	.LVL0:
 141:.\Generated_Source\PSoC4/ADC.c ****         (void)CyIntSetVector(ADC_INTC_NUMBER, &ADC_ISR);
  37              		.loc 1 141 0
  38 000a 1A49     		ldr	r1, .L2
  39 000c 0E20     		mov	r0, #14
  40 000e FFF7FEFF 		bl	CyIntSetVector
  41              	.LVL1:
 142:.\Generated_Source\PSoC4/ADC.c ****     #endif   /* End ADC_IRQ_REMOVE */
 143:.\Generated_Source\PSoC4/ADC.c **** 
 144:.\Generated_Source\PSoC4/ADC.c ****     /* Init SAR and MUX registers */
 145:.\Generated_Source\PSoC4/ADC.c ****     ADC_SAR_CHAN_EN_REG = ADC_DEFAULT_EN_CHANNELS;
  42              		.loc 1 145 0
  43 0012 194A     		ldr	r2, .L2+4
  44 0014 0123     		mov	r3, #1
  45 0016 1360     		str	r3, [r2]
 146:.\Generated_Source\PSoC4/ADC.c ****     ADC_SAR_CTRL_REG = ADC_DEFAULT_CTRL_REG_CFG;
  46              		.loc 1 146 0
  47 0018 1849     		ldr	r1, .L2+8
  48 001a 194A     		ldr	r2, .L2+12
 147:.\Generated_Source\PSoC4/ADC.c ****     ADC_SAR_SAMPLE_CTRL_REG = ADC_DEFAULT_SAMPLE_CTRL_REG_CFG;
 148:.\Generated_Source\PSoC4/ADC.c ****     ADC_SAR_RANGE_THRES_REG = ADC_DEFAULT_RANGE_THRES_REG_CFG;
 149:.\Generated_Source\PSoC4/ADC.c ****     ADC_SAR_RANGE_COND_REG  = ADC_COMPARE_MODE;
 150:.\Generated_Source\PSoC4/ADC.c ****     ADC_SAR_SAMPLE_TIME01_REG = ADC_DEFAULT_SAMPLE_TIME01_REG_CFG;
  49              		.loc 1 150 0
  50 001c 1948     		ldr	r0, .L2+16
 146:.\Generated_Source\PSoC4/ADC.c ****     ADC_SAR_CTRL_REG = ADC_DEFAULT_CTRL_REG_CFG;
  51              		.loc 1 146 0
  52 001e 1160     		str	r1, [r2]
 147:.\Generated_Source\PSoC4/ADC.c ****     ADC_SAR_SAMPLE_CTRL_REG = ADC_DEFAULT_SAMPLE_CTRL_REG_CFG;
  53              		.loc 1 147 0
  54 0020 1949     		ldr	r1, .L2+20
  55 0022 1A4A     		ldr	r2, .L2+24
 151:.\Generated_Source\PSoC4/ADC.c ****     ADC_SAR_SAMPLE_TIME23_REG = ADC_DEFAULT_SAMPLE_TIME23_REG_CFG;
 152:.\Generated_Source\PSoC4/ADC.c ****     
 153:.\Generated_Source\PSoC4/ADC.c ****     /* Connect Vm to VSSA when even one channel is single-ended or multiple channels configured */
 154:.\Generated_Source\PSoC4/ADC.c ****     #if(ADC_DEFAULT_MUX_SWITCH0 != 0u)
 155:.\Generated_Source\PSoC4/ADC.c ****         ADC_MUX_SWITCH0_REG |= ADC_DEFAULT_MUX_SWITCH0;
 156:.\Generated_Source\PSoC4/ADC.c ****         /* Set MUX_HW_CTRL_VSSA in MUX_SWITCH_HW_CTRL when multiple channels enabled */
 157:.\Generated_Source\PSoC4/ADC.c ****         #if(ADC_TOTAL_CHANNELS_NUM > 1u)
 158:.\Generated_Source\PSoC4/ADC.c ****             ADC_MUX_SWITCH_HW_CTRL_REG |= ADC_DEFAULT_MUX_SWITCH0;
 159:.\Generated_Source\PSoC4/ADC.c ****         #endif /* ADC_TOTAL_CHANNELS_NUM > 1u */
 160:.\Generated_Source\PSoC4/ADC.c ****     #endif /*ADC_CHANNELS_MODE !=0 */
 161:.\Generated_Source\PSoC4/ADC.c **** 
 162:.\Generated_Source\PSoC4/ADC.c ****     ADC_SAR_SATURATE_INTR_MASK_REG = 0u;
 163:.\Generated_Source\PSoC4/ADC.c ****     ADC_SAR_RANGE_INTR_MASK_REG = 0u;
 164:.\Generated_Source\PSoC4/ADC.c ****     ADC_SAR_INTR_MASK_REG = ADC_SAR_INTR_MASK;
 165:.\Generated_Source\PSoC4/ADC.c **** 
 166:.\Generated_Source\PSoC4/ADC.c ****     #if(ADC_CY_SAR_IP_VER == ADC_CY_SAR_IP_PSOC4)
 167:.\Generated_Source\PSoC4/ADC.c ****         ADC_ANA_TRIM_REG = ADC_TRIM_COEF;
 168:.\Generated_Source\PSoC4/ADC.c ****     #endif /* (ADC_CY_SAR_IP_VER == ADC_CY_SAR_IP_PSOC4) */
 169:.\Generated_Source\PSoC4/ADC.c **** 
 170:.\Generated_Source\PSoC4/ADC.c ****     /* Read and modify default configuration based on characterization */
 171:.\Generated_Source\PSoC4/ADC.c ****     tmpRegVal = ADC_SAR_DFT_CTRL_REG;
ARM GAS  C:\Users\SNFU\AppData\Local\Temp\cccpROyA.s 			page 5


 172:.\Generated_Source\PSoC4/ADC.c ****     tmpRegVal &= (uint32)~ADC_DCEN;
 173:.\Generated_Source\PSoC4/ADC.c ****     
 174:.\Generated_Source\PSoC4/ADC.c ****     #if(ADC_CY_SAR_IP_VER == ADC_CY_SAR_IP_PSOC4)
 175:.\Generated_Source\PSoC4/ADC.c ****         #if(ADC_NOMINAL_CLOCK_FREQ > (ADC_MAX_FREQUENCY / 2))
 176:.\Generated_Source\PSoC4/ADC.c ****             tmpRegVal |= ADC_SEL_CSEL_DFT_CHAR;
 177:.\Generated_Source\PSoC4/ADC.c ****         #else  /* clock speed < 9 Mhz */
 178:.\Generated_Source\PSoC4/ADC.c ****             tmpRegVal |= ADC_DLY_INC;
 179:.\Generated_Source\PSoC4/ADC.c ****         #endif /* clock speed > 9 Mhz */
 180:.\Generated_Source\PSoC4/ADC.c ****     #else
 181:.\Generated_Source\PSoC4/ADC.c ****         #if ((ADC_DEFAULT_VREF_SEL == ADC__INTERNAL1024) || \
 182:.\Generated_Source\PSoC4/ADC.c ****              (ADC_DEFAULT_VREF_SEL == ADC__INTERNALVREF))
 183:.\Generated_Source\PSoC4/ADC.c ****             tmpRegVal |= ADC_DLY_INC;
 184:.\Generated_Source\PSoC4/ADC.c ****         #else
 185:.\Generated_Source\PSoC4/ADC.c ****             tmpRegVal |= ADC_DCEN;
 186:.\Generated_Source\PSoC4/ADC.c ****             tmpRegVal &= (uint32)~ADC_DLY_INC;
 187:.\Generated_Source\PSoC4/ADC.c ****         #endif /* ((ADC_DEFAULT_VREF_SEL == ADC__INTERNAL1024) || \
 188:.\Generated_Source\PSoC4/ADC.c ****                    (ADC_DEFAULT_VREF_SEL == ADC__INTERNALVREF)) */
 189:.\Generated_Source\PSoC4/ADC.c ****     #endif /* (ADC_CY_SAR_IP_VER == ADC_CY_SAR_IP_PSOC4) */
 190:.\Generated_Source\PSoC4/ADC.c ****     
 191:.\Generated_Source\PSoC4/ADC.c ****     ADC_SAR_DFT_CTRL_REG = tmpRegVal;
 192:.\Generated_Source\PSoC4/ADC.c **** 
 193:.\Generated_Source\PSoC4/ADC.c ****     #if(ADC_MAX_RESOLUTION != ADC_RESOLUTION_12)
 194:.\Generated_Source\PSoC4/ADC.c ****         ADC_WOUNDING_REG = ADC_ALT_WOUNDING;
 195:.\Generated_Source\PSoC4/ADC.c ****     #endif /* ADC_MAX_RESOLUTION != ADC_RESOLUTION_12 */
 196:.\Generated_Source\PSoC4/ADC.c **** 
 197:.\Generated_Source\PSoC4/ADC.c ****     for(chNum = 0u; chNum < ADC_TOTAL_CHANNELS_NUM; chNum++)
 198:.\Generated_Source\PSoC4/ADC.c ****     {
 199:.\Generated_Source\PSoC4/ADC.c ****         tmpRegVal = (ADC_channelsConfig[chNum] & ADC_CHANNEL_CONFIG_MASK);
 200:.\Generated_Source\PSoC4/ADC.c ****         #if(ADC_TOTAL_CHANNELS_NUM > 1u)
 201:.\Generated_Source\PSoC4/ADC.c ****             tmpRegVal |= ADC_InputsPlacement[chNum];
 202:.\Generated_Source\PSoC4/ADC.c ****         #endif /* End ADC_TOTAL_CHANNELS_NUM > 1u */
 203:.\Generated_Source\PSoC4/ADC.c ****         
 204:.\Generated_Source\PSoC4/ADC.c ****         
 205:.\Generated_Source\PSoC4/ADC.c ****         /* When the part is limited to 10-bit then the SUB_RESOLUTION bit
 206:.\Generated_Source\PSoC4/ADC.c ****         *  will be ignored and the RESOLUTION bit selects between 10-bit
 207:.\Generated_Source\PSoC4/ADC.c ****         *  (0) and 8-bit (1) resolution.
 208:.\Generated_Source\PSoC4/ADC.c ****         */
 209:.\Generated_Source\PSoC4/ADC.c ****         #if((ADC_MAX_RESOLUTION != ADC_RESOLUTION_12) && \
 210:.\Generated_Source\PSoC4/ADC.c ****             (ADC_ALT_WOUNDING == ADC_WOUNDING_10BIT))
 211:.\Generated_Source\PSoC4/ADC.c ****             tmpRegVal &= (uint32)(~ADC_ALT_RESOLUTION_ON);
 212:.\Generated_Source\PSoC4/ADC.c ****         #endif /* ADC_MAX_RESOLUTION != ADC_RESOLUTION_12 */
 213:.\Generated_Source\PSoC4/ADC.c **** 
 214:.\Generated_Source\PSoC4/ADC.c ****         #if(ADC_INJ_CHANNEL_ENABLED)
 215:.\Generated_Source\PSoC4/ADC.c ****         if(chNum < ADC_SEQUENCED_CHANNELS_NUM)
 216:.\Generated_Source\PSoC4/ADC.c ****         #endif /* ADC_INJ_CHANNEL_ENABLED */
 217:.\Generated_Source\PSoC4/ADC.c ****         {
 218:.\Generated_Source\PSoC4/ADC.c ****             CY_SET_REG32((reg32 *)(ADC_SAR_CHAN_CONFIG_IND + (uint32)(chNum << 2)), tmpRegVal);
 219:.\Generated_Source\PSoC4/ADC.c **** 
 220:.\Generated_Source\PSoC4/ADC.c ****             if((ADC_channelsConfig[chNum] & ADC_IS_SATURATE_EN_MASK) != 0u)
 221:.\Generated_Source\PSoC4/ADC.c ****             {
 222:.\Generated_Source\PSoC4/ADC.c ****                 ADC_SAR_SATURATE_INTR_MASK_REG |= (uint16)((uint16)1 << chNum);
 223:.\Generated_Source\PSoC4/ADC.c ****             }
 224:.\Generated_Source\PSoC4/ADC.c **** 
 225:.\Generated_Source\PSoC4/ADC.c ****             if((ADC_channelsConfig[chNum] & ADC_IS_RANGE_CTRL_EN_MASK) != 0u)
 226:.\Generated_Source\PSoC4/ADC.c ****             {
 227:.\Generated_Source\PSoC4/ADC.c ****                 ADC_SAR_RANGE_INTR_MASK_REG |= (uint16)((uint16)1 << chNum);
 228:.\Generated_Source\PSoC4/ADC.c ****             }
ARM GAS  C:\Users\SNFU\AppData\Local\Temp\cccpROyA.s 			page 6


 229:.\Generated_Source\PSoC4/ADC.c ****         }
 230:.\Generated_Source\PSoC4/ADC.c ****         #if(ADC_INJ_CHANNEL_ENABLED)
 231:.\Generated_Source\PSoC4/ADC.c ****             else
 232:.\Generated_Source\PSoC4/ADC.c ****             {
 233:.\Generated_Source\PSoC4/ADC.c ****                 CY_SET_REG32(ADC_SAR_INJ_CHAN_CONFIG_PTR, tmpRegVal | ADC_INJ_TAILGATING);
 234:.\Generated_Source\PSoC4/ADC.c **** 
 235:.\Generated_Source\PSoC4/ADC.c ****                 if((ADC_channelsConfig[chNum] & ADC_IS_SATURATE_EN_MASK) != 0u)
 236:.\Generated_Source\PSoC4/ADC.c ****                 {
 237:.\Generated_Source\PSoC4/ADC.c ****                     ADC_SAR_INTR_MASK_REG |= ADC_INJ_SATURATE_MASK;
 238:.\Generated_Source\PSoC4/ADC.c ****                 }
 239:.\Generated_Source\PSoC4/ADC.c **** 
 240:.\Generated_Source\PSoC4/ADC.c ****                 if((ADC_channelsConfig[chNum] & ADC_IS_RANGE_CTRL_EN_MASK) != 0u)
 241:.\Generated_Source\PSoC4/ADC.c ****                 {
 242:.\Generated_Source\PSoC4/ADC.c ****                     ADC_SAR_INTR_MASK_REG |= ADC_INJ_RANGE_MASK;
 243:.\Generated_Source\PSoC4/ADC.c ****                 }
 244:.\Generated_Source\PSoC4/ADC.c ****             }
 245:.\Generated_Source\PSoC4/ADC.c ****         #endif /* ADC_INJ_CHANNEL_ENABLED */
 246:.\Generated_Source\PSoC4/ADC.c **** 
 247:.\Generated_Source\PSoC4/ADC.c ****         if((ADC_channelsConfig[chNum] & ADC_ALT_RESOLUTION_ON) != 0u)
 248:.\Generated_Source\PSoC4/ADC.c ****         {
 249:.\Generated_Source\PSoC4/ADC.c ****                counts = (int32)ADC_DEFAULT_MAX_WRK_ALT;
 250:.\Generated_Source\PSoC4/ADC.c ****         }
 251:.\Generated_Source\PSoC4/ADC.c ****         else
 252:.\Generated_Source\PSoC4/ADC.c ****         {
 253:.\Generated_Source\PSoC4/ADC.c ****                counts = (int32)ADC_SAR_WRK_MAX_12BIT;
 254:.\Generated_Source\PSoC4/ADC.c ****         }
 255:.\Generated_Source\PSoC4/ADC.c **** 
 256:.\Generated_Source\PSoC4/ADC.c ****         if((ADC_channelsConfig[chNum] & ADC_DIFFERENTIAL_EN) == 0u)
 257:.\Generated_Source\PSoC4/ADC.c ****         {
 258:.\Generated_Source\PSoC4/ADC.c ****             #if((ADC_DEFAULT_SE_RESULT_FORMAT_SEL == ADC__FSIGNED) && \
 259:.\Generated_Source\PSoC4/ADC.c ****                 (ADC_DEFAULT_NEG_INPUT_SEL == ADC__VREF))
 260:.\Generated_Source\PSoC4/ADC.c ****                 /* Set offset to the minus half scale to convert results to unsigned format */
 261:.\Generated_Source\PSoC4/ADC.c ****                 ADC_offset[chNum] = (int16)(counts / -2);
 262:.\Generated_Source\PSoC4/ADC.c ****             #else
 263:.\Generated_Source\PSoC4/ADC.c ****                 ADC_offset[chNum] = 0;
 264:.\Generated_Source\PSoC4/ADC.c ****             #endif /* end DEFAULT_SE_RESULT_FORMAT_SEL == ADC__FSIGNED */
 265:.\Generated_Source\PSoC4/ADC.c ****         }
 266:.\Generated_Source\PSoC4/ADC.c ****         else    /* Differential channel */
 267:.\Generated_Source\PSoC4/ADC.c ****         {
 268:.\Generated_Source\PSoC4/ADC.c ****             #if(ADC_DEFAULT_DIFF_RESULT_FORMAT_SEL == ADC__FUNSIGNED)
 269:.\Generated_Source\PSoC4/ADC.c ****                 /* Set offset to the half scale to convert results to signed format */
 270:.\Generated_Source\PSoC4/ADC.c ****                 ADC_offset[chNum] = (int16)(counts / 2);
 271:.\Generated_Source\PSoC4/ADC.c ****             #else
 272:.\Generated_Source\PSoC4/ADC.c ****                 ADC_offset[chNum] = 0;
 273:.\Generated_Source\PSoC4/ADC.c ****             #endif /* end ADC_DEFAULT_DIFF_RESULT_FORMAT_SEL == ADC__FUNSIGNED */
 274:.\Generated_Source\PSoC4/ADC.c ****         }
 275:.\Generated_Source\PSoC4/ADC.c ****         /* Calculate gain in counts per 10 volts with rounding */
 276:.\Generated_Source\PSoC4/ADC.c ****         ADC_countsPer10Volt[chNum] = (int16)(((counts * ADC_10MV_COUNTS) +
 277:.\Generated_Source\PSoC4/ADC.c ****                             ADC_DEFAULT_VREF_MV_VALUE) / (ADC_DEFAULT_VREF_MV_VALUE * 2));
 278:.\Generated_Source\PSoC4/ADC.c ****     }
 279:.\Generated_Source\PSoC4/ADC.c **** }
  56              		.loc 1 279 0
  57              		@ sp needed
 147:.\Generated_Source\PSoC4/ADC.c ****     ADC_SAR_SAMPLE_CTRL_REG = ADC_DEFAULT_SAMPLE_CTRL_REG_CFG;
  58              		.loc 1 147 0
  59 0024 1160     		str	r1, [r2]
 148:.\Generated_Source\PSoC4/ADC.c ****     ADC_SAR_RANGE_THRES_REG = ADC_DEFAULT_RANGE_THRES_REG_CFG;
ARM GAS  C:\Users\SNFU\AppData\Local\Temp\cccpROyA.s 			page 7


  60              		.loc 1 148 0
  61 0026 1A49     		ldr	r1, .L2+28
  62 0028 1A4A     		ldr	r2, .L2+32
  63 002a 1160     		str	r1, [r2]
 149:.\Generated_Source\PSoC4/ADC.c ****     ADC_SAR_RANGE_COND_REG  = ADC_COMPARE_MODE;
  64              		.loc 1 149 0
  65 002c 1A49     		ldr	r1, .L2+36
  66 002e 0022     		mov	r2, #0
  67 0030 0A60     		str	r2, [r1]
 150:.\Generated_Source\PSoC4/ADC.c ****     ADC_SAR_SAMPLE_TIME01_REG = ADC_DEFAULT_SAMPLE_TIME01_REG_CFG;
  68              		.loc 1 150 0
  69 0032 1A49     		ldr	r1, .L2+40
  70 0034 0160     		str	r1, [r0]
 151:.\Generated_Source\PSoC4/ADC.c ****     ADC_SAR_SAMPLE_TIME23_REG = ADC_DEFAULT_SAMPLE_TIME23_REG_CFG;
  71              		.loc 1 151 0
  72 0036 1A48     		ldr	r0, .L2+44
  73 0038 0160     		str	r1, [r0]
 162:.\Generated_Source\PSoC4/ADC.c ****     ADC_SAR_SATURATE_INTR_MASK_REG = 0u;
  74              		.loc 1 162 0
  75 003a 1A49     		ldr	r1, .L2+48
 172:.\Generated_Source\PSoC4/ADC.c ****     tmpRegVal &= (uint32)~ADC_DCEN;
  76              		.loc 1 172 0
  77 003c 1A48     		ldr	r0, .L2+52
 162:.\Generated_Source\PSoC4/ADC.c ****     ADC_SAR_SATURATE_INTR_MASK_REG = 0u;
  78              		.loc 1 162 0
  79 003e 0A60     		str	r2, [r1]
 163:.\Generated_Source\PSoC4/ADC.c ****     ADC_SAR_RANGE_INTR_MASK_REG = 0u;
  80              		.loc 1 163 0
  81 0040 1A49     		ldr	r1, .L2+56
  82 0042 0A60     		str	r2, [r1]
 164:.\Generated_Source\PSoC4/ADC.c ****     ADC_SAR_INTR_MASK_REG = ADC_SAR_INTR_MASK;
  83              		.loc 1 164 0
  84 0044 1A4A     		ldr	r2, .L2+60
 167:.\Generated_Source\PSoC4/ADC.c ****         ADC_ANA_TRIM_REG = ADC_TRIM_COEF;
  85              		.loc 1 167 0
  86 0046 1B49     		ldr	r1, .L2+64
 164:.\Generated_Source\PSoC4/ADC.c ****     ADC_SAR_INTR_MASK_REG = ADC_SAR_INTR_MASK;
  87              		.loc 1 164 0
  88 0048 1360     		str	r3, [r2]
 167:.\Generated_Source\PSoC4/ADC.c ****         ADC_ANA_TRIM_REG = ADC_TRIM_COEF;
  89              		.loc 1 167 0
  90 004a 0222     		mov	r2, #2
  91 004c 0A60     		str	r2, [r1]
 171:.\Generated_Source\PSoC4/ADC.c ****     tmpRegVal = ADC_SAR_DFT_CTRL_REG;
  92              		.loc 1 171 0
  93 004e 1A49     		ldr	r1, .L2+68
  94 0050 0C68     		ldr	r4, [r1]
  95              	.LVL2:
 172:.\Generated_Source\PSoC4/ADC.c ****     tmpRegVal &= (uint32)~ADC_DCEN;
  96              		.loc 1 172 0
  97 0052 2040     		and	r0, r4
  98              	.LVL3:
 178:.\Generated_Source\PSoC4/ADC.c ****             tmpRegVal |= ADC_DLY_INC;
  99              		.loc 1 178 0
 100 0054 0343     		orr	r3, r0
 101              	.LVL4:
 191:.\Generated_Source\PSoC4/ADC.c ****     ADC_SAR_DFT_CTRL_REG = tmpRegVal;
ARM GAS  C:\Users\SNFU\AppData\Local\Temp\cccpROyA.s 			page 8


 102              		.loc 1 191 0
 103 0056 0B60     		str	r3, [r1]
 194:.\Generated_Source\PSoC4/ADC.c ****         ADC_WOUNDING_REG = ADC_ALT_WOUNDING;
 104              		.loc 1 194 0
 105 0058 184B     		ldr	r3, .L2+72
 106              	.LVL5:
 107 005a 1A60     		str	r2, [r3]
 108              	.LVL6:
 218:.\Generated_Source\PSoC4/ADC.c ****             CY_SET_REG32((reg32 *)(ADC_SAR_CHAN_CONFIG_IND + (uint32)(chNum << 2)), tmpRegVal);
 109              		.loc 1 218 0
 110 005c 184B     		ldr	r3, .L2+76
 111 005e C022     		mov	r2, #192
 112 0060 9200     		lsl	r2, r2, #2
 113 0062 1A60     		str	r2, [r3]
 114              	.LVL7:
 270:.\Generated_Source\PSoC4/ADC.c ****                 ADC_offset[chNum] = (int16)(counts / 2);
 115              		.loc 1 270 0
 116 0064 174B     		ldr	r3, .L2+80
 117 0066 8022     		mov	r2, #128
 118 0068 1A80     		strh	r2, [r3]
 276:.\Generated_Source\PSoC4/ADC.c ****         ADC_countsPer10Volt[chNum] = (int16)(((counts * ADC_10MV_COUNTS) +
 119              		.loc 1 276 0
 120 006a 174B     		ldr	r3, .L2+84
 121 006c C222     		mov	r2, #194
 122 006e 5200     		lsl	r2, r2, #1
 123 0070 1A60     		str	r2, [r3]
 124              	.LVL8:
 125              		.loc 1 279 0
 126 0072 10BD     		pop	{r4, pc}
 127              	.L3:
 128              		.align	2
 129              	.L2:
 130 0074 00000000 		.word	ADC_ISR
 131 0078 20001A40 		.word	1075445792
 132 007c 70020053 		.word	1392509552
 133 0080 00001A40 		.word	1075445760
 134 0084 10001A40 		.word	1075445776
 135 0088 84000080 		.word	-2147483516
 136 008c 04001A40 		.word	1075445764
 137 0090 0000FF07 		.word	134152192
 138 0094 18001A40 		.word	1075445784
 139 0098 1C001A40 		.word	1075445788
 140 009c 02000200 		.word	131074
 141 00a0 14001A40 		.word	1075445780
 142 00a4 28021A40 		.word	1075446312
 143 00a8 FFFFFFDF 		.word	-536870913
 144 00ac 38021A40 		.word	1075446328
 145 00b0 18021A40 		.word	1075446296
 146 00b4 000F1A40 		.word	1075449600
 147 00b8 30001A40 		.word	1075445808
 148 00bc 040F1A40 		.word	1075449604
 149 00c0 80001A40 		.word	1075445888
 150 00c4 00000000 		.word	ADC_offset
 151 00c8 00000000 		.word	ADC_countsPer10Volt
 152              		.cfi_endproc
 153              	.LFE1:
 154              		.size	ADC_Init, .-ADC_Init
ARM GAS  C:\Users\SNFU\AppData\Local\Temp\cccpROyA.s 			page 9


 155              		.section	.text.ADC_Enable,"ax",%progbits
 156              		.align	1
 157              		.global	ADC_Enable
 158              		.code	16
 159              		.thumb_func
 160              		.type	ADC_Enable, %function
 161              	ADC_Enable:
 162              	.LFB2:
 280:.\Generated_Source\PSoC4/ADC.c **** 
 281:.\Generated_Source\PSoC4/ADC.c **** /*******************************************************************************
 282:.\Generated_Source\PSoC4/ADC.c **** * Function Name: ADC_SAR_1_Enable
 283:.\Generated_Source\PSoC4/ADC.c **** ********************************************************************************
 284:.\Generated_Source\PSoC4/ADC.c **** *
 285:.\Generated_Source\PSoC4/ADC.c **** * Summary:
 286:.\Generated_Source\PSoC4/ADC.c **** *  Enables the clock and analog power for SAR ADC.
 287:.\Generated_Source\PSoC4/ADC.c **** *
 288:.\Generated_Source\PSoC4/ADC.c **** * Parameters:
 289:.\Generated_Source\PSoC4/ADC.c **** *  None.
 290:.\Generated_Source\PSoC4/ADC.c **** *
 291:.\Generated_Source\PSoC4/ADC.c **** * Return:
 292:.\Generated_Source\PSoC4/ADC.c **** *  None.
 293:.\Generated_Source\PSoC4/ADC.c **** *
 294:.\Generated_Source\PSoC4/ADC.c **** *******************************************************************************/
 295:.\Generated_Source\PSoC4/ADC.c **** void ADC_Enable(void)
 296:.\Generated_Source\PSoC4/ADC.c **** {
 163              		.loc 1 296 0
 164              		.cfi_startproc
 165 0000 08B5     		push	{r3, lr}
 166              		.cfi_def_cfa_offset 8
 167              		.cfi_offset 3, -8
 168              		.cfi_offset 14, -4
 297:.\Generated_Source\PSoC4/ADC.c ****     if (0u == (ADC_SAR_CTRL_REG & ADC_ENABLE))
 169              		.loc 1 297 0
 170 0002 064B     		ldr	r3, .L7
 171 0004 1A68     		ldr	r2, [r3]
 172 0006 002A     		cmp	r2, #0
 173 0008 07DB     		blt	.L4
 298:.\Generated_Source\PSoC4/ADC.c ****     {
 299:.\Generated_Source\PSoC4/ADC.c ****         #if(ADC_CY_SAR_IP_VER != ADC_CY_SAR_IP_PSOC4)
 300:.\Generated_Source\PSoC4/ADC.c **** 
 301:.\Generated_Source\PSoC4/ADC.c ****             while (0u != (ADC_SAR_STATUS_REG & ADC_STATUS_BUSY))
 302:.\Generated_Source\PSoC4/ADC.c ****             {
 303:.\Generated_Source\PSoC4/ADC.c ****                 /* wait for SAR to go idle for to avoid deadlock */
 304:.\Generated_Source\PSoC4/ADC.c ****             }
 305:.\Generated_Source\PSoC4/ADC.c ****         #endif /* (ADC_CY_SAR_IP_VER != ADC_CY_SAR_IP_PSOC4) */
 306:.\Generated_Source\PSoC4/ADC.c ****         
 307:.\Generated_Source\PSoC4/ADC.c ****         ADC_SAR_CTRL_REG |= ADC_ENABLE;
 174              		.loc 1 307 0
 175 000a 1968     		ldr	r1, [r3]
 176 000c 8022     		mov	r2, #128
 177 000e 1206     		lsl	r2, r2, #24
 178 0010 0A43     		orr	r2, r1
 179 0012 1A60     		str	r2, [r3]
 308:.\Generated_Source\PSoC4/ADC.c ****         
 309:.\Generated_Source\PSoC4/ADC.c ****         /* The block is ready to use 10 us after the enable signal is set high. */
 310:.\Generated_Source\PSoC4/ADC.c ****         CyDelayUs(ADC_10US_DELAY);         
 180              		.loc 1 310 0
ARM GAS  C:\Users\SNFU\AppData\Local\Temp\cccpROyA.s 			page 10


 181 0014 0A20     		mov	r0, #10
 182 0016 FFF7FEFF 		bl	CyDelayUs
 183              	.LVL9:
 184              	.L4:
 311:.\Generated_Source\PSoC4/ADC.c ****     }
 312:.\Generated_Source\PSoC4/ADC.c **** }
 185              		.loc 1 312 0
 186              		@ sp needed
 187 001a 08BD     		pop	{r3, pc}
 188              	.L8:
 189              		.align	2
 190              	.L7:
 191 001c 00001A40 		.word	1075445760
 192              		.cfi_endproc
 193              	.LFE2:
 194              		.size	ADC_Enable, .-ADC_Enable
 195              		.section	.text.ADC_Start,"ax",%progbits
 196              		.align	1
 197              		.global	ADC_Start
 198              		.code	16
 199              		.thumb_func
 200              		.type	ADC_Start, %function
 201              	ADC_Start:
 202              	.LFB0:
  64:.\Generated_Source\PSoC4/ADC.c **** {
 203              		.loc 1 64 0
 204              		.cfi_startproc
 205 0000 10B5     		push	{r4, lr}
 206              		.cfi_def_cfa_offset 8
 207              		.cfi_offset 4, -8
 208              		.cfi_offset 14, -4
  66:.\Generated_Source\PSoC4/ADC.c ****     if(ADC_initVar == 0u)
 209              		.loc 1 66 0
 210 0002 054C     		ldr	r4, .L11
 211 0004 2378     		ldrb	r3, [r4]
 212 0006 002B     		cmp	r3, #0
 213 0008 03D1     		bne	.L10
  68:.\Generated_Source\PSoC4/ADC.c ****         ADC_Init();
 214              		.loc 1 68 0
 215 000a FFF7FEFF 		bl	ADC_Init
 216              	.LVL10:
  69:.\Generated_Source\PSoC4/ADC.c ****         ADC_initVar = 1u;
 217              		.loc 1 69 0
 218 000e 0123     		mov	r3, #1
 219 0010 2370     		strb	r3, [r4]
 220              	.L10:
  71:.\Generated_Source\PSoC4/ADC.c ****     ADC_Enable();
 221              		.loc 1 71 0
 222 0012 FFF7FEFF 		bl	ADC_Enable
 223              	.LVL11:
  72:.\Generated_Source\PSoC4/ADC.c **** }
 224              		.loc 1 72 0
 225              		@ sp needed
 226 0016 10BD     		pop	{r4, pc}
 227              	.L12:
 228              		.align	2
 229              	.L11:
ARM GAS  C:\Users\SNFU\AppData\Local\Temp\cccpROyA.s 			page 11


 230 0018 00000000 		.word	.LANCHOR0
 231              		.cfi_endproc
 232              	.LFE0:
 233              		.size	ADC_Start, .-ADC_Start
 234              		.section	.text.ADC_Stop,"ax",%progbits
 235              		.align	1
 236              		.global	ADC_Stop
 237              		.code	16
 238              		.thumb_func
 239              		.type	ADC_Stop, %function
 240              	ADC_Stop:
 241              	.LFB3:
 313:.\Generated_Source\PSoC4/ADC.c **** 
 314:.\Generated_Source\PSoC4/ADC.c **** 
 315:.\Generated_Source\PSoC4/ADC.c **** /*******************************************************************************
 316:.\Generated_Source\PSoC4/ADC.c **** * Function Name: ADC_Stop
 317:.\Generated_Source\PSoC4/ADC.c **** ********************************************************************************
 318:.\Generated_Source\PSoC4/ADC.c **** *
 319:.\Generated_Source\PSoC4/ADC.c **** * Summary:
 320:.\Generated_Source\PSoC4/ADC.c **** *  This function stops ADC conversions and puts the ADC into its lowest power
 321:.\Generated_Source\PSoC4/ADC.c **** *  mode.
 322:.\Generated_Source\PSoC4/ADC.c **** *
 323:.\Generated_Source\PSoC4/ADC.c **** * Parameters:
 324:.\Generated_Source\PSoC4/ADC.c **** *  None.
 325:.\Generated_Source\PSoC4/ADC.c **** *
 326:.\Generated_Source\PSoC4/ADC.c **** * Return:
 327:.\Generated_Source\PSoC4/ADC.c **** *  None.
 328:.\Generated_Source\PSoC4/ADC.c **** *
 329:.\Generated_Source\PSoC4/ADC.c **** *******************************************************************************/
 330:.\Generated_Source\PSoC4/ADC.c **** void ADC_Stop(void)
 331:.\Generated_Source\PSoC4/ADC.c **** {
 242              		.loc 1 331 0
 243              		.cfi_startproc
 332:.\Generated_Source\PSoC4/ADC.c ****     ADC_SAR_CTRL_REG &= (uint32)~ADC_ENABLE;
 244              		.loc 1 332 0
 245 0000 024B     		ldr	r3, .L14
 333:.\Generated_Source\PSoC4/ADC.c **** }
 246              		.loc 1 333 0
 247              		@ sp needed
 332:.\Generated_Source\PSoC4/ADC.c ****     ADC_SAR_CTRL_REG &= (uint32)~ADC_ENABLE;
 248              		.loc 1 332 0
 249 0002 1A68     		ldr	r2, [r3]
 250 0004 5200     		lsl	r2, r2, #1
 251 0006 5208     		lsr	r2, r2, #1
 252 0008 1A60     		str	r2, [r3]
 253              		.loc 1 333 0
 254 000a 7047     		bx	lr
 255              	.L15:
 256              		.align	2
 257              	.L14:
 258 000c 00001A40 		.word	1075445760
 259              		.cfi_endproc
 260              	.LFE3:
 261              		.size	ADC_Stop, .-ADC_Stop
 262              		.section	.text.ADC_StartConvert,"ax",%progbits
 263              		.align	1
 264              		.global	ADC_StartConvert
ARM GAS  C:\Users\SNFU\AppData\Local\Temp\cccpROyA.s 			page 12


 265              		.code	16
 266              		.thumb_func
 267              		.type	ADC_StartConvert, %function
 268              	ADC_StartConvert:
 269              	.LFB4:
 334:.\Generated_Source\PSoC4/ADC.c **** 
 335:.\Generated_Source\PSoC4/ADC.c **** 
 336:.\Generated_Source\PSoC4/ADC.c **** /*******************************************************************************
 337:.\Generated_Source\PSoC4/ADC.c **** * Function Name: ADC_StartConvert
 338:.\Generated_Source\PSoC4/ADC.c **** ********************************************************************************
 339:.\Generated_Source\PSoC4/ADC.c **** *
 340:.\Generated_Source\PSoC4/ADC.c **** * Summary:
 341:.\Generated_Source\PSoC4/ADC.c **** *  Description:
 342:.\Generated_Source\PSoC4/ADC.c **** *  For free running mode, this API starts the conversion process and it
 343:.\Generated_Source\PSoC4/ADC.c **** *  runs continuously.
 344:.\Generated_Source\PSoC4/ADC.c **** *
 345:.\Generated_Source\PSoC4/ADC.c **** *  In a triggered mode, this routine triggers every conversion by
 346:.\Generated_Source\PSoC4/ADC.c **** *  writing into the FW_TRIGGER bit in SAR_START_CTRL reg. In triggered mode,
 347:.\Generated_Source\PSoC4/ADC.c **** *  every conversion has to start by this API.
 348:.\Generated_Source\PSoC4/ADC.c **** *
 349:.\Generated_Source\PSoC4/ADC.c **** * Parameters:
 350:.\Generated_Source\PSoC4/ADC.c **** *  None.
 351:.\Generated_Source\PSoC4/ADC.c **** *
 352:.\Generated_Source\PSoC4/ADC.c **** * Return:
 353:.\Generated_Source\PSoC4/ADC.c **** *  None.
 354:.\Generated_Source\PSoC4/ADC.c **** *
 355:.\Generated_Source\PSoC4/ADC.c **** *******************************************************************************/
 356:.\Generated_Source\PSoC4/ADC.c **** void ADC_StartConvert(void)
 357:.\Generated_Source\PSoC4/ADC.c **** {
 270              		.loc 1 357 0
 271              		.cfi_startproc
 358:.\Generated_Source\PSoC4/ADC.c ****     #if(ADC_DEFAULT_SAMPLE_MODE_SEL == ADC__FREERUNNING)
 359:.\Generated_Source\PSoC4/ADC.c ****         ADC_SAR_SAMPLE_CTRL_REG |= ADC_CONTINUOUS_EN;
 272              		.loc 1 359 0
 273 0000 034B     		ldr	r3, .L17
 274 0002 8022     		mov	r2, #128
 275 0004 1968     		ldr	r1, [r3]
 276 0006 5202     		lsl	r2, r2, #9
 277 0008 0A43     		orr	r2, r1
 278 000a 1A60     		str	r2, [r3]
 360:.\Generated_Source\PSoC4/ADC.c ****     #else /* Firmware trigger */
 361:.\Generated_Source\PSoC4/ADC.c ****         ADC_SAR_START_CTRL_REG = ADC_FW_TRIGGER;
 362:.\Generated_Source\PSoC4/ADC.c ****     #endif /* End ADC_DEFAULT_SAMPLE_MODE == ADC__FREERUNNING */
 363:.\Generated_Source\PSoC4/ADC.c **** 
 364:.\Generated_Source\PSoC4/ADC.c **** }
 279              		.loc 1 364 0
 280              		@ sp needed
 281 000c 7047     		bx	lr
 282              	.L18:
 283 000e C046     		.align	2
 284              	.L17:
 285 0010 04001A40 		.word	1075445764
 286              		.cfi_endproc
 287              	.LFE4:
 288              		.size	ADC_StartConvert, .-ADC_StartConvert
 289              		.section	.text.ADC_StopConvert,"ax",%progbits
 290              		.align	1
ARM GAS  C:\Users\SNFU\AppData\Local\Temp\cccpROyA.s 			page 13


 291              		.global	ADC_StopConvert
 292              		.code	16
 293              		.thumb_func
 294              		.type	ADC_StopConvert, %function
 295              	ADC_StopConvert:
 296              	.LFB5:
 365:.\Generated_Source\PSoC4/ADC.c **** 
 366:.\Generated_Source\PSoC4/ADC.c **** 
 367:.\Generated_Source\PSoC4/ADC.c **** /*******************************************************************************
 368:.\Generated_Source\PSoC4/ADC.c **** * Function Name: ADC_StopConvert
 369:.\Generated_Source\PSoC4/ADC.c **** ********************************************************************************
 370:.\Generated_Source\PSoC4/ADC.c **** *
 371:.\Generated_Source\PSoC4/ADC.c **** * Summary:
 372:.\Generated_Source\PSoC4/ADC.c **** *  Forces the ADC to stop all conversions.
 373:.\Generated_Source\PSoC4/ADC.c **** *
 374:.\Generated_Source\PSoC4/ADC.c **** * Parameters:
 375:.\Generated_Source\PSoC4/ADC.c **** *  None.
 376:.\Generated_Source\PSoC4/ADC.c **** *
 377:.\Generated_Source\PSoC4/ADC.c **** * Return:
 378:.\Generated_Source\PSoC4/ADC.c **** *  None.
 379:.\Generated_Source\PSoC4/ADC.c **** *
 380:.\Generated_Source\PSoC4/ADC.c **** *******************************************************************************/
 381:.\Generated_Source\PSoC4/ADC.c **** void ADC_StopConvert(void)
 382:.\Generated_Source\PSoC4/ADC.c **** {
 297              		.loc 1 382 0
 298              		.cfi_startproc
 383:.\Generated_Source\PSoC4/ADC.c ****     #if(ADC_DEFAULT_SAMPLE_MODE_SEL == ADC__FREERUNNING)
 384:.\Generated_Source\PSoC4/ADC.c ****         ADC_SAR_SAMPLE_CTRL_REG &= (uint32)(~ADC_CONTINUOUS_EN);
 299              		.loc 1 384 0
 300 0000 024B     		ldr	r3, .L20
 301 0002 034A     		ldr	r2, .L20+4
 302 0004 1968     		ldr	r1, [r3]
 385:.\Generated_Source\PSoC4/ADC.c ****     #endif /* ADC_DEFAULT_SAMPLE_MODE == ADC__FREERUNNING */
 386:.\Generated_Source\PSoC4/ADC.c **** }
 303              		.loc 1 386 0
 304              		@ sp needed
 384:.\Generated_Source\PSoC4/ADC.c ****         ADC_SAR_SAMPLE_CTRL_REG &= (uint32)(~ADC_CONTINUOUS_EN);
 305              		.loc 1 384 0
 306 0006 0A40     		and	r2, r1
 307 0008 1A60     		str	r2, [r3]
 308              		.loc 1 386 0
 309 000a 7047     		bx	lr
 310              	.L21:
 311              		.align	2
 312              	.L20:
 313 000c 04001A40 		.word	1075445764
 314 0010 FFFFFEFF 		.word	-65537
 315              		.cfi_endproc
 316              	.LFE5:
 317              		.size	ADC_StopConvert, .-ADC_StopConvert
 318              		.section	.text.ADC_IsEndConversion,"ax",%progbits
 319              		.align	1
 320              		.global	ADC_IsEndConversion
 321              		.code	16
 322              		.thumb_func
 323              		.type	ADC_IsEndConversion, %function
 324              	ADC_IsEndConversion:
ARM GAS  C:\Users\SNFU\AppData\Local\Temp\cccpROyA.s 			page 14


 325              	.LFB6:
 387:.\Generated_Source\PSoC4/ADC.c **** 
 388:.\Generated_Source\PSoC4/ADC.c **** 
 389:.\Generated_Source\PSoC4/ADC.c **** /*******************************************************************************
 390:.\Generated_Source\PSoC4/ADC.c **** * Function Name: ADC_IsEndConversion
 391:.\Generated_Source\PSoC4/ADC.c **** ********************************************************************************
 392:.\Generated_Source\PSoC4/ADC.c **** *
 393:.\Generated_Source\PSoC4/ADC.c **** * Summary:
 394:.\Generated_Source\PSoC4/ADC.c **** *  Description: Checks for ADC end of conversion for the case one
 395:.\Generated_Source\PSoC4/ADC.c **** *  channel and end of scan for the case of multiple channels. It acts
 396:.\Generated_Source\PSoC4/ADC.c **** *  as a software version of the EOC. This function provides the
 397:.\Generated_Source\PSoC4/ADC.c **** *  programmer with two options. In one mode this function
 398:.\Generated_Source\PSoC4/ADC.c **** *  immediately returns with the conversion status. In the other mode,
 399:.\Generated_Source\PSoC4/ADC.c **** *  the function does not return (blocking) until the conversion has
 400:.\Generated_Source\PSoC4/ADC.c **** *  completed.
 401:.\Generated_Source\PSoC4/ADC.c **** *
 402:.\Generated_Source\PSoC4/ADC.c **** * Parameters:
 403:.\Generated_Source\PSoC4/ADC.c **** *  ADC_RETURN_STATUS        -> Immediately returns conversion result status
 404:.\Generated_Source\PSoC4/ADC.c **** *  ADC_WAIT_FOR_RESULT      -> Does not return until ADC complete
 405:.\Generated_Source\PSoC4/ADC.c **** *  ADC_RETURN_STATUS_INJ    -> Immediately returns conversion result status
 406:.\Generated_Source\PSoC4/ADC.c **** *                              for injection channel
 407:.\Generated_Source\PSoC4/ADC.c **** *  ADC_WAIT_FOR_RESULT_INJ  -> Does not return until ADC completes injection
 408:.\Generated_Source\PSoC4/ADC.c **** *                              channel conversion
 409:.\Generated_Source\PSoC4/ADC.c **** *
 410:.\Generated_Source\PSoC4/ADC.c **** * Return:
 411:.\Generated_Source\PSoC4/ADC.c **** *  If a non-zero value is returned, the last conversion or scan has completed.
 412:.\Generated_Source\PSoC4/ADC.c **** *  If the returned value is zero, the ADC is still in the process of a scan.
 413:.\Generated_Source\PSoC4/ADC.c **** *
 414:.\Generated_Source\PSoC4/ADC.c **** *******************************************************************************/
 415:.\Generated_Source\PSoC4/ADC.c **** uint32 ADC_IsEndConversion(uint32 retMode)
 416:.\Generated_Source\PSoC4/ADC.c **** {
 326              		.loc 1 416 0
 327              		.cfi_startproc
 328              	.LVL12:
 329              		.loc 1 416 0
 330 0000 011C     		mov	r1, r0
 417:.\Generated_Source\PSoC4/ADC.c ****     uint32 status = 0u;
 331              		.loc 1 417 0
 332 0002 0020     		mov	r0, #0
 333              	.LVL13:
 418:.\Generated_Source\PSoC4/ADC.c **** 
 419:.\Generated_Source\PSoC4/ADC.c ****     if((retMode & (ADC_RETURN_STATUS | ADC_WAIT_FOR_RESULT)) != 0u)
 334              		.loc 1 419 0
 335 0004 8B07     		lsl	r3, r1, #30
 336 0006 09D0     		beq	.L28
 337              	.LVL14:
 338              	.L25:
 420:.\Generated_Source\PSoC4/ADC.c ****     {
 421:.\Generated_Source\PSoC4/ADC.c ****         do
 422:.\Generated_Source\PSoC4/ADC.c ****         {
 423:.\Generated_Source\PSoC4/ADC.c ****             status = ADC_SAR_INTR_REG & ADC_EOS_MASK;
 339              		.loc 1 423 0
 340 0008 054A     		ldr	r2, .L32
 341 000a 0123     		mov	r3, #1
 342 000c 1068     		ldr	r0, [r2]
 343 000e 1840     		and	r0, r3
 344              	.LVL15:
ARM GAS  C:\Users\SNFU\AppData\Local\Temp\cccpROyA.s 			page 15


 424:.\Generated_Source\PSoC4/ADC.c ****         }while((status == 0u) && ((retMode & ADC_WAIT_FOR_RESULT) != 0u));
 345              		.loc 1 424 0
 346 0010 02D1     		bne	.L24
 347              		.loc 1 424 0 is_stmt 0 discriminator 1
 348 0012 8B07     		lsl	r3, r1, #30
 349 0014 F8D4     		bmi	.L25
 350 0016 01E0     		b	.L28
 351              	.L24:
 425:.\Generated_Source\PSoC4/ADC.c **** 
 426:.\Generated_Source\PSoC4/ADC.c ****         if(status != 0u)
 427:.\Generated_Source\PSoC4/ADC.c ****         {
 428:.\Generated_Source\PSoC4/ADC.c ****             /* Clear EOS bit */
 429:.\Generated_Source\PSoC4/ADC.c ****             ADC_SAR_INTR_REG = ADC_EOS_MASK;
 352              		.loc 1 429 0 is_stmt 1
 353 0018 1360     		str	r3, [r2]
 354 001a 181C     		mov	r0, r3
 355              	.LVL16:
 356              	.L28:
 430:.\Generated_Source\PSoC4/ADC.c ****         }
 431:.\Generated_Source\PSoC4/ADC.c ****     }
 432:.\Generated_Source\PSoC4/ADC.c **** 
 433:.\Generated_Source\PSoC4/ADC.c ****     #if(ADC_INJ_CHANNEL_ENABLED)
 434:.\Generated_Source\PSoC4/ADC.c ****         if((retMode & (ADC_RETURN_STATUS_INJ | ADC_WAIT_FOR_RESULT_INJ)) != 0u)
 435:.\Generated_Source\PSoC4/ADC.c ****         {
 436:.\Generated_Source\PSoC4/ADC.c ****             do
 437:.\Generated_Source\PSoC4/ADC.c ****             {
 438:.\Generated_Source\PSoC4/ADC.c ****                 status |= ADC_SAR_INTR_REG & ADC_INJ_EOC_MASK;
 439:.\Generated_Source\PSoC4/ADC.c ****             }while(((status & ADC_INJ_EOC_MASK) == 0u) &&
 440:.\Generated_Source\PSoC4/ADC.c ****                    ((retMode & ADC_WAIT_FOR_RESULT_INJ) != 0u));
 441:.\Generated_Source\PSoC4/ADC.c **** 
 442:.\Generated_Source\PSoC4/ADC.c ****             if((status & ADC_INJ_EOC_MASK) != 0u)
 443:.\Generated_Source\PSoC4/ADC.c ****             {
 444:.\Generated_Source\PSoC4/ADC.c ****                 /* Clear Injection EOS bit */
 445:.\Generated_Source\PSoC4/ADC.c ****                 ADC_SAR_INTR_REG = ADC_INJ_EOC_MASK;
 446:.\Generated_Source\PSoC4/ADC.c ****             }
 447:.\Generated_Source\PSoC4/ADC.c ****         }
 448:.\Generated_Source\PSoC4/ADC.c ****     #endif /* ADC_INJ_CHANNEL_ENABLED */
 449:.\Generated_Source\PSoC4/ADC.c **** 
 450:.\Generated_Source\PSoC4/ADC.c ****     return (status);
 451:.\Generated_Source\PSoC4/ADC.c **** }
 357              		.loc 1 451 0
 358              		@ sp needed
 359 001c 7047     		bx	lr
 360              	.L33:
 361 001e C046     		.align	2
 362              	.L32:
 363 0020 10021A40 		.word	1075446288
 364              		.cfi_endproc
 365              	.LFE6:
 366              		.size	ADC_IsEndConversion, .-ADC_IsEndConversion
 367              		.section	.text.ADC_GetResult16,"ax",%progbits
 368              		.align	1
 369              		.global	ADC_GetResult16
 370              		.code	16
 371              		.thumb_func
 372              		.type	ADC_GetResult16, %function
 373              	ADC_GetResult16:
ARM GAS  C:\Users\SNFU\AppData\Local\Temp\cccpROyA.s 			page 16


 374              	.LFB7:
 452:.\Generated_Source\PSoC4/ADC.c **** 
 453:.\Generated_Source\PSoC4/ADC.c **** 
 454:.\Generated_Source\PSoC4/ADC.c **** /*******************************************************************************
 455:.\Generated_Source\PSoC4/ADC.c **** * Function Name: ADC_GetResult16
 456:.\Generated_Source\PSoC4/ADC.c **** ********************************************************************************
 457:.\Generated_Source\PSoC4/ADC.c **** *
 458:.\Generated_Source\PSoC4/ADC.c **** * Summary:
 459:.\Generated_Source\PSoC4/ADC.c **** *  Gets the data available in the SAR DATA register.
 460:.\Generated_Source\PSoC4/ADC.c **** *
 461:.\Generated_Source\PSoC4/ADC.c **** * Parameters:
 462:.\Generated_Source\PSoC4/ADC.c **** *  chan: The ADC channel in which to return the result. The first channel
 463:.\Generated_Source\PSoC4/ADC.c **** *  is 0 and the injection channel if enabled is the number of valid channels.
 464:.\Generated_Source\PSoC4/ADC.c **** *
 465:.\Generated_Source\PSoC4/ADC.c **** * Return:
 466:.\Generated_Source\PSoC4/ADC.c **** *  Returns converted data as a signed 16-bit integer
 467:.\Generated_Source\PSoC4/ADC.c **** *
 468:.\Generated_Source\PSoC4/ADC.c **** *******************************************************************************/
 469:.\Generated_Source\PSoC4/ADC.c **** int16 ADC_GetResult16(uint32 chan)
 470:.\Generated_Source\PSoC4/ADC.c **** {
 375              		.loc 1 470 0
 376              		.cfi_startproc
 377              	.LVL17:
 378 0000 08B5     		push	{r3, lr}
 379              		.cfi_def_cfa_offset 8
 380              		.cfi_offset 3, -8
 381              		.cfi_offset 14, -4
 471:.\Generated_Source\PSoC4/ADC.c ****     uint32 result;
 472:.\Generated_Source\PSoC4/ADC.c **** 
 473:.\Generated_Source\PSoC4/ADC.c ****     /* Halt CPU in debug mode if channel is out of valid range */
 474:.\Generated_Source\PSoC4/ADC.c ****     CYASSERT(chan < ADC_TOTAL_CHANNELS_NUM);
 382              		.loc 1 474 0
 383 0002 0028     		cmp	r0, #0
 384 0004 05D0     		beq	.L35
 385              		.loc 1 474 0 is_stmt 0 discriminator 1
 386 0006 0020     		mov	r0, #0
 387              	.LVL18:
 388 0008 FFF7FEFF 		bl	CyHalt
 389              	.LVL19:
 475:.\Generated_Source\PSoC4/ADC.c **** 
 476:.\Generated_Source\PSoC4/ADC.c ****     if(chan < ADC_SEQUENCED_CHANNELS_NUM)
 477:.\Generated_Source\PSoC4/ADC.c ****     {
 478:.\Generated_Source\PSoC4/ADC.c ****         result = CY_GET_REG32((reg32 *)(ADC_SAR_CHAN_RESULT_IND + (uint32)(chan << 2u))) &
 479:.\Generated_Source\PSoC4/ADC.c ****                 ADC_RESULT_MASK;
 480:.\Generated_Source\PSoC4/ADC.c ****     }
 481:.\Generated_Source\PSoC4/ADC.c ****     else
 482:.\Generated_Source\PSoC4/ADC.c ****     {
 483:.\Generated_Source\PSoC4/ADC.c ****         #if(ADC_INJ_CHANNEL_ENABLED)
 484:.\Generated_Source\PSoC4/ADC.c ****             result = ADC_SAR_INJ_RESULT_REG & ADC_RESULT_MASK;
 485:.\Generated_Source\PSoC4/ADC.c ****         #else
 486:.\Generated_Source\PSoC4/ADC.c ****             result = 0u;
 390              		.loc 1 486 0 is_stmt 1 discriminator 1
 391 000c 0020     		mov	r0, #0
 392              	.L36:
 393              	.LVL20:
 487:.\Generated_Source\PSoC4/ADC.c ****         #endif /* ADC_INJ_CHANNEL_ENABLED */
 488:.\Generated_Source\PSoC4/ADC.c ****     }
ARM GAS  C:\Users\SNFU\AppData\Local\Temp\cccpROyA.s 			page 17


 489:.\Generated_Source\PSoC4/ADC.c **** 
 490:.\Generated_Source\PSoC4/ADC.c ****     return ( (int16)result );
 394              		.loc 1 490 0
 395 000e 00B2     		sxth	r0, r0
 396              	.LVL21:
 491:.\Generated_Source\PSoC4/ADC.c **** }
 397              		.loc 1 491 0
 398              		@ sp needed
 399 0010 08BD     		pop	{r3, pc}
 400              	.LVL22:
 401              	.L35:
 478:.\Generated_Source\PSoC4/ADC.c ****         result = CY_GET_REG32((reg32 *)(ADC_SAR_CHAN_RESULT_IND + (uint32)(chan << 2u))) &
 402              		.loc 1 478 0
 403 0012 024B     		ldr	r3, .L38
 404 0014 1868     		ldr	r0, [r3]
 405              	.LVL23:
 406 0016 80B2     		uxth	r0, r0
 407              	.LVL24:
 408 0018 F9E7     		b	.L36
 409              	.L39:
 410 001a C046     		.align	2
 411              	.L38:
 412 001c 80011A40 		.word	1075446144
 413              		.cfi_endproc
 414              	.LFE7:
 415              		.size	ADC_GetResult16, .-ADC_GetResult16
 416              		.section	.text.ADC_SetChanMask,"ax",%progbits
 417              		.align	1
 418              		.global	ADC_SetChanMask
 419              		.code	16
 420              		.thumb_func
 421              		.type	ADC_SetChanMask, %function
 422              	ADC_SetChanMask:
 423              	.LFB8:
 492:.\Generated_Source\PSoC4/ADC.c **** 
 493:.\Generated_Source\PSoC4/ADC.c **** 
 494:.\Generated_Source\PSoC4/ADC.c **** /*******************************************************************************
 495:.\Generated_Source\PSoC4/ADC.c **** * Function Name: ADC_SetChanMask
 496:.\Generated_Source\PSoC4/ADC.c **** ********************************************************************************
 497:.\Generated_Source\PSoC4/ADC.c **** *
 498:.\Generated_Source\PSoC4/ADC.c **** * Summary:
 499:.\Generated_Source\PSoC4/ADC.c **** *  Sets the channel enable mask.
 500:.\Generated_Source\PSoC4/ADC.c **** *
 501:.\Generated_Source\PSoC4/ADC.c **** * Parameters:
 502:.\Generated_Source\PSoC4/ADC.c **** *  mask: Sets which channels that will be
 503:.\Generated_Source\PSoC4/ADC.c **** *  scanned. Setting bits for channels that do not exist will have no
 504:.\Generated_Source\PSoC4/ADC.c **** *  effect. For example, if only 6 channels were enabled, setting a
 505:.\Generated_Source\PSoC4/ADC.c **** *  mask of 0x0103 would only enable the last two channels (0 and 1).
 506:.\Generated_Source\PSoC4/ADC.c **** *  This API will not enable the injection channel.
 507:.\Generated_Source\PSoC4/ADC.c **** *  Examples: If the component is setup to sequence through 8
 508:.\Generated_Source\PSoC4/ADC.c **** *  channels, a mask of 0x000F would enable channels 0, 1, 2, and 3.
 509:.\Generated_Source\PSoC4/ADC.c **** *
 510:.\Generated_Source\PSoC4/ADC.c **** * Return:
 511:.\Generated_Source\PSoC4/ADC.c **** *  None.
 512:.\Generated_Source\PSoC4/ADC.c **** *
 513:.\Generated_Source\PSoC4/ADC.c **** *******************************************************************************/
 514:.\Generated_Source\PSoC4/ADC.c **** void ADC_SetChanMask(uint32 mask)
ARM GAS  C:\Users\SNFU\AppData\Local\Temp\cccpROyA.s 			page 18


 515:.\Generated_Source\PSoC4/ADC.c **** {
 424              		.loc 1 515 0
 425              		.cfi_startproc
 426              	.LVL25:
 516:.\Generated_Source\PSoC4/ADC.c ****     ADC_SAR_CHAN_EN_REG = mask & ADC_MAX_CHANNELS_EN_MASK;
 427              		.loc 1 516 0
 428 0000 0123     		mov	r3, #1
 429 0002 1840     		and	r0, r3
 430              	.LVL26:
 431 0004 014B     		ldr	r3, .L41
 517:.\Generated_Source\PSoC4/ADC.c **** }
 432              		.loc 1 517 0
 433              		@ sp needed
 516:.\Generated_Source\PSoC4/ADC.c ****     ADC_SAR_CHAN_EN_REG = mask & ADC_MAX_CHANNELS_EN_MASK;
 434              		.loc 1 516 0
 435 0006 1860     		str	r0, [r3]
 436              		.loc 1 517 0
 437 0008 7047     		bx	lr
 438              	.L42:
 439 000a C046     		.align	2
 440              	.L41:
 441 000c 20001A40 		.word	1075445792
 442              		.cfi_endproc
 443              	.LFE8:
 444              		.size	ADC_SetChanMask, .-ADC_SetChanMask
 445              		.section	.text.ADC_SetLowLimit,"ax",%progbits
 446              		.align	1
 447              		.global	ADC_SetLowLimit
 448              		.code	16
 449              		.thumb_func
 450              		.type	ADC_SetLowLimit, %function
 451              	ADC_SetLowLimit:
 452              	.LFB9:
 518:.\Generated_Source\PSoC4/ADC.c **** 
 519:.\Generated_Source\PSoC4/ADC.c **** #if(ADC_INJ_CHANNEL_ENABLED)
 520:.\Generated_Source\PSoC4/ADC.c **** 
 521:.\Generated_Source\PSoC4/ADC.c **** 
 522:.\Generated_Source\PSoC4/ADC.c ****     /*******************************************************************************
 523:.\Generated_Source\PSoC4/ADC.c ****     * Function Name: ADC_EnableInjection
 524:.\Generated_Source\PSoC4/ADC.c ****     ********************************************************************************
 525:.\Generated_Source\PSoC4/ADC.c ****     *
 526:.\Generated_Source\PSoC4/ADC.c ****     * Summary:
 527:.\Generated_Source\PSoC4/ADC.c ****     *  Enables the injection channel for the next scan only.
 528:.\Generated_Source\PSoC4/ADC.c ****     *
 529:.\Generated_Source\PSoC4/ADC.c ****     * Parameters:
 530:.\Generated_Source\PSoC4/ADC.c ****     *  None.
 531:.\Generated_Source\PSoC4/ADC.c ****     *
 532:.\Generated_Source\PSoC4/ADC.c ****     * Return:
 533:.\Generated_Source\PSoC4/ADC.c ****     *  None.
 534:.\Generated_Source\PSoC4/ADC.c ****     *
 535:.\Generated_Source\PSoC4/ADC.c ****     *******************************************************************************/
 536:.\Generated_Source\PSoC4/ADC.c ****     void ADC_EnableInjection(void)
 537:.\Generated_Source\PSoC4/ADC.c ****     {
 538:.\Generated_Source\PSoC4/ADC.c ****         ADC_SAR_INJ_CHAN_CONFIG_REG |= ADC_INJ_CHAN_EN;
 539:.\Generated_Source\PSoC4/ADC.c ****     }
 540:.\Generated_Source\PSoC4/ADC.c **** 
 541:.\Generated_Source\PSoC4/ADC.c **** #endif /* ADC_INJ_CHANNEL_ENABLED */
ARM GAS  C:\Users\SNFU\AppData\Local\Temp\cccpROyA.s 			page 19


 542:.\Generated_Source\PSoC4/ADC.c **** 
 543:.\Generated_Source\PSoC4/ADC.c **** 
 544:.\Generated_Source\PSoC4/ADC.c **** /*******************************************************************************
 545:.\Generated_Source\PSoC4/ADC.c **** * Function Name: ADC_SetLowLimit
 546:.\Generated_Source\PSoC4/ADC.c **** ********************************************************************************
 547:.\Generated_Source\PSoC4/ADC.c **** *
 548:.\Generated_Source\PSoC4/ADC.c **** * Summary:
 549:.\Generated_Source\PSoC4/ADC.c **** *  Sets the low limit parameter for a limit condition.
 550:.\Generated_Source\PSoC4/ADC.c **** *
 551:.\Generated_Source\PSoC4/ADC.c **** * Parameters:
 552:.\Generated_Source\PSoC4/ADC.c **** *  lowLimit: The low limit for a limit condition.
 553:.\Generated_Source\PSoC4/ADC.c **** *
 554:.\Generated_Source\PSoC4/ADC.c **** * Return:
 555:.\Generated_Source\PSoC4/ADC.c **** *  None.
 556:.\Generated_Source\PSoC4/ADC.c **** *
 557:.\Generated_Source\PSoC4/ADC.c **** *******************************************************************************/
 558:.\Generated_Source\PSoC4/ADC.c **** void ADC_SetLowLimit(uint32 lowLimit)
 559:.\Generated_Source\PSoC4/ADC.c **** {
 453              		.loc 1 559 0
 454              		.cfi_startproc
 455              	.LVL27:
 560:.\Generated_Source\PSoC4/ADC.c ****     ADC_SAR_RANGE_THRES_REG &= (uint32)(~ADC_RANGE_LOW_MASK);
 456              		.loc 1 560 0
 457 0000 044B     		ldr	r3, .L44
 561:.\Generated_Source\PSoC4/ADC.c ****     ADC_SAR_RANGE_THRES_REG |= lowLimit & ADC_RANGE_LOW_MASK;
 458              		.loc 1 561 0
 459 0002 80B2     		uxth	r0, r0
 460              	.LVL28:
 560:.\Generated_Source\PSoC4/ADC.c ****     ADC_SAR_RANGE_THRES_REG &= (uint32)(~ADC_RANGE_LOW_MASK);
 461              		.loc 1 560 0
 462 0004 1A68     		ldr	r2, [r3]
 562:.\Generated_Source\PSoC4/ADC.c **** }
 463              		.loc 1 562 0
 464              		@ sp needed
 560:.\Generated_Source\PSoC4/ADC.c ****     ADC_SAR_RANGE_THRES_REG &= (uint32)(~ADC_RANGE_LOW_MASK);
 465              		.loc 1 560 0
 466 0006 120C     		lsr	r2, r2, #16
 467 0008 1204     		lsl	r2, r2, #16
 468 000a 1A60     		str	r2, [r3]
 561:.\Generated_Source\PSoC4/ADC.c ****     ADC_SAR_RANGE_THRES_REG |= lowLimit & ADC_RANGE_LOW_MASK;
 469              		.loc 1 561 0
 470 000c 1A68     		ldr	r2, [r3]
 471 000e 1043     		orr	r0, r2
 472 0010 1860     		str	r0, [r3]
 473              		.loc 1 562 0
 474 0012 7047     		bx	lr
 475              	.L45:
 476              		.align	2
 477              	.L44:
 478 0014 18001A40 		.word	1075445784
 479              		.cfi_endproc
 480              	.LFE9:
 481              		.size	ADC_SetLowLimit, .-ADC_SetLowLimit
 482              		.section	.text.ADC_SetHighLimit,"ax",%progbits
 483              		.align	1
 484              		.global	ADC_SetHighLimit
 485              		.code	16
ARM GAS  C:\Users\SNFU\AppData\Local\Temp\cccpROyA.s 			page 20


 486              		.thumb_func
 487              		.type	ADC_SetHighLimit, %function
 488              	ADC_SetHighLimit:
 489              	.LFB10:
 563:.\Generated_Source\PSoC4/ADC.c **** 
 564:.\Generated_Source\PSoC4/ADC.c **** 
 565:.\Generated_Source\PSoC4/ADC.c **** /*******************************************************************************
 566:.\Generated_Source\PSoC4/ADC.c **** * Function Name: ADC_SetHighLimit
 567:.\Generated_Source\PSoC4/ADC.c **** ********************************************************************************
 568:.\Generated_Source\PSoC4/ADC.c **** *
 569:.\Generated_Source\PSoC4/ADC.c **** * Summary:
 570:.\Generated_Source\PSoC4/ADC.c **** *  Sets the low limit parameter for a limit condition.
 571:.\Generated_Source\PSoC4/ADC.c **** *
 572:.\Generated_Source\PSoC4/ADC.c **** * Parameters:
 573:.\Generated_Source\PSoC4/ADC.c **** *  highLimit: The high limit for a limit condition.
 574:.\Generated_Source\PSoC4/ADC.c **** *
 575:.\Generated_Source\PSoC4/ADC.c **** * Return:
 576:.\Generated_Source\PSoC4/ADC.c **** *  None.
 577:.\Generated_Source\PSoC4/ADC.c **** *
 578:.\Generated_Source\PSoC4/ADC.c **** *******************************************************************************/
 579:.\Generated_Source\PSoC4/ADC.c **** void ADC_SetHighLimit(uint32 highLimit)
 580:.\Generated_Source\PSoC4/ADC.c **** {
 490              		.loc 1 580 0
 491              		.cfi_startproc
 492              	.LVL29:
 581:.\Generated_Source\PSoC4/ADC.c ****     ADC_SAR_RANGE_THRES_REG &= (uint32)(~ADC_RANGE_HIGH_MASK);
 493              		.loc 1 581 0
 494 0000 044B     		ldr	r3, .L47
 582:.\Generated_Source\PSoC4/ADC.c ****     ADC_SAR_RANGE_THRES_REG |= (uint32)(highLimit << ADC_RANGE_HIGH_OFFSET);
 495              		.loc 1 582 0
 496 0002 0004     		lsl	r0, r0, #16
 497              	.LVL30:
 581:.\Generated_Source\PSoC4/ADC.c ****     ADC_SAR_RANGE_THRES_REG &= (uint32)(~ADC_RANGE_HIGH_MASK);
 498              		.loc 1 581 0
 499 0004 1A68     		ldr	r2, [r3]
 583:.\Generated_Source\PSoC4/ADC.c **** }
 500              		.loc 1 583 0
 501              		@ sp needed
 581:.\Generated_Source\PSoC4/ADC.c ****     ADC_SAR_RANGE_THRES_REG &= (uint32)(~ADC_RANGE_HIGH_MASK);
 502              		.loc 1 581 0
 503 0006 92B2     		uxth	r2, r2
 504 0008 1A60     		str	r2, [r3]
 582:.\Generated_Source\PSoC4/ADC.c ****     ADC_SAR_RANGE_THRES_REG |= (uint32)(highLimit << ADC_RANGE_HIGH_OFFSET);
 505              		.loc 1 582 0
 506 000a 1A68     		ldr	r2, [r3]
 507 000c 1043     		orr	r0, r2
 508 000e 1860     		str	r0, [r3]
 509              		.loc 1 583 0
 510 0010 7047     		bx	lr
 511              	.L48:
 512 0012 C046     		.align	2
 513              	.L47:
 514 0014 18001A40 		.word	1075445784
 515              		.cfi_endproc
 516              	.LFE10:
 517              		.size	ADC_SetHighLimit, .-ADC_SetHighLimit
 518              		.section	.text.ADC_SetLimitMask,"ax",%progbits
ARM GAS  C:\Users\SNFU\AppData\Local\Temp\cccpROyA.s 			page 21


 519              		.align	1
 520              		.global	ADC_SetLimitMask
 521              		.code	16
 522              		.thumb_func
 523              		.type	ADC_SetLimitMask, %function
 524              	ADC_SetLimitMask:
 525              	.LFB11:
 584:.\Generated_Source\PSoC4/ADC.c **** 
 585:.\Generated_Source\PSoC4/ADC.c **** 
 586:.\Generated_Source\PSoC4/ADC.c **** /*******************************************************************************
 587:.\Generated_Source\PSoC4/ADC.c **** * Function Name: ADC_SetLimitMask
 588:.\Generated_Source\PSoC4/ADC.c **** ********************************************************************************
 589:.\Generated_Source\PSoC4/ADC.c **** *
 590:.\Generated_Source\PSoC4/ADC.c **** * Summary:
 591:.\Generated_Source\PSoC4/ADC.c **** *  Sets the channel limit condition mask.
 592:.\Generated_Source\PSoC4/ADC.c **** *
 593:.\Generated_Source\PSoC4/ADC.c **** * Parameters:
 594:.\Generated_Source\PSoC4/ADC.c **** *  mask: Sets which channels that may cause a
 595:.\Generated_Source\PSoC4/ADC.c **** *  limit condition interrupt. Setting bits for channels that do not exist
 596:.\Generated_Source\PSoC4/ADC.c **** *  will have no effect. For example, if only 6 channels were enabled,
 597:.\Generated_Source\PSoC4/ADC.c **** *  setting a mask of 0x0103 would only enable the last two channels (0 and 1).
 598:.\Generated_Source\PSoC4/ADC.c **** *
 599:.\Generated_Source\PSoC4/ADC.c **** * Return:
 600:.\Generated_Source\PSoC4/ADC.c **** *  None.
 601:.\Generated_Source\PSoC4/ADC.c **** *
 602:.\Generated_Source\PSoC4/ADC.c **** *******************************************************************************/
 603:.\Generated_Source\PSoC4/ADC.c **** void ADC_SetLimitMask(uint32 mask)
 604:.\Generated_Source\PSoC4/ADC.c **** {
 526              		.loc 1 604 0
 527              		.cfi_startproc
 528              	.LVL31:
 605:.\Generated_Source\PSoC4/ADC.c ****     ADC_SAR_RANGE_INTR_MASK_REG = mask & ADC_MAX_CHANNELS_EN_MASK;
 529              		.loc 1 605 0
 530 0000 0123     		mov	r3, #1
 531 0002 1840     		and	r0, r3
 532              	.LVL32:
 533 0004 014B     		ldr	r3, .L50
 606:.\Generated_Source\PSoC4/ADC.c **** }
 534              		.loc 1 606 0
 535              		@ sp needed
 605:.\Generated_Source\PSoC4/ADC.c ****     ADC_SAR_RANGE_INTR_MASK_REG = mask & ADC_MAX_CHANNELS_EN_MASK;
 536              		.loc 1 605 0
 537 0006 1860     		str	r0, [r3]
 538              		.loc 1 606 0
 539 0008 7047     		bx	lr
 540              	.L51:
 541 000a C046     		.align	2
 542              	.L50:
 543 000c 38021A40 		.word	1075446328
 544              		.cfi_endproc
 545              	.LFE11:
 546              		.size	ADC_SetLimitMask, .-ADC_SetLimitMask
 547              		.section	.text.ADC_SetSatMask,"ax",%progbits
 548              		.align	1
 549              		.global	ADC_SetSatMask
 550              		.code	16
 551              		.thumb_func
ARM GAS  C:\Users\SNFU\AppData\Local\Temp\cccpROyA.s 			page 22


 552              		.type	ADC_SetSatMask, %function
 553              	ADC_SetSatMask:
 554              	.LFB12:
 607:.\Generated_Source\PSoC4/ADC.c **** 
 608:.\Generated_Source\PSoC4/ADC.c **** 
 609:.\Generated_Source\PSoC4/ADC.c **** /*******************************************************************************
 610:.\Generated_Source\PSoC4/ADC.c **** * Function Name: ADC_SetSatMask
 611:.\Generated_Source\PSoC4/ADC.c **** ********************************************************************************
 612:.\Generated_Source\PSoC4/ADC.c **** *
 613:.\Generated_Source\PSoC4/ADC.c **** * Summary:
 614:.\Generated_Source\PSoC4/ADC.c **** *  Sets the channel saturation event mask.
 615:.\Generated_Source\PSoC4/ADC.c **** *
 616:.\Generated_Source\PSoC4/ADC.c **** * Parameters:
 617:.\Generated_Source\PSoC4/ADC.c **** *  mask: Sets which channels that may cause a
 618:.\Generated_Source\PSoC4/ADC.c **** *  saturation event interrupt. Setting bits for channels that do not exist
 619:.\Generated_Source\PSoC4/ADC.c **** *  will have no effect. For example, if only 8 channels were enabled,
 620:.\Generated_Source\PSoC4/ADC.c **** *  setting a mask of 0x01C0 would only enable two channels (6 and 7).
 621:.\Generated_Source\PSoC4/ADC.c **** *
 622:.\Generated_Source\PSoC4/ADC.c **** * Return:
 623:.\Generated_Source\PSoC4/ADC.c **** *  None.
 624:.\Generated_Source\PSoC4/ADC.c **** *
 625:.\Generated_Source\PSoC4/ADC.c **** *******************************************************************************/
 626:.\Generated_Source\PSoC4/ADC.c **** void ADC_SetSatMask(uint32 mask)
 627:.\Generated_Source\PSoC4/ADC.c **** {
 555              		.loc 1 627 0
 556              		.cfi_startproc
 557              	.LVL33:
 628:.\Generated_Source\PSoC4/ADC.c ****     ADC_SAR_SATURATE_INTR_MASK_REG = mask & ADC_MAX_CHANNELS_EN_MASK;
 558              		.loc 1 628 0
 559 0000 0123     		mov	r3, #1
 560 0002 1840     		and	r0, r3
 561              	.LVL34:
 562 0004 014B     		ldr	r3, .L53
 629:.\Generated_Source\PSoC4/ADC.c **** }
 563              		.loc 1 629 0
 564              		@ sp needed
 628:.\Generated_Source\PSoC4/ADC.c ****     ADC_SAR_SATURATE_INTR_MASK_REG = mask & ADC_MAX_CHANNELS_EN_MASK;
 565              		.loc 1 628 0
 566 0006 1860     		str	r0, [r3]
 567              		.loc 1 629 0
 568 0008 7047     		bx	lr
 569              	.L54:
 570 000a C046     		.align	2
 571              	.L53:
 572 000c 28021A40 		.word	1075446312
 573              		.cfi_endproc
 574              	.LFE12:
 575              		.size	ADC_SetSatMask, .-ADC_SetSatMask
 576              		.section	.text.ADC_SetOffset,"ax",%progbits
 577              		.align	1
 578              		.global	ADC_SetOffset
 579              		.code	16
 580              		.thumb_func
 581              		.type	ADC_SetOffset, %function
 582              	ADC_SetOffset:
 583              	.LFB13:
 630:.\Generated_Source\PSoC4/ADC.c **** 
ARM GAS  C:\Users\SNFU\AppData\Local\Temp\cccpROyA.s 			page 23


 631:.\Generated_Source\PSoC4/ADC.c **** 
 632:.\Generated_Source\PSoC4/ADC.c **** /*******************************************************************************
 633:.\Generated_Source\PSoC4/ADC.c **** * Function Name: ADC_SetOffset
 634:.\Generated_Source\PSoC4/ADC.c **** ********************************************************************************
 635:.\Generated_Source\PSoC4/ADC.c **** *
 636:.\Generated_Source\PSoC4/ADC.c **** * Summary:
 637:.\Generated_Source\PSoC4/ADC.c **** *   Description: Sets the ADC offset which is used by the functions
 638:.\Generated_Source\PSoC4/ADC.c **** *   ADC_CountsTo_uVolts, ADC_CountsTo_mVolts and ADC_CountsTo_Volts
 639:.\Generated_Source\PSoC4/ADC.c **** *   to substract the offset from the given reading
 640:.\Generated_Source\PSoC4/ADC.c **** *   before calculating the voltage conversion.
 641:.\Generated_Source\PSoC4/ADC.c **** *
 642:.\Generated_Source\PSoC4/ADC.c **** * Parameters:
 643:.\Generated_Source\PSoC4/ADC.c **** *  chan: ADC channel number.
 644:.\Generated_Source\PSoC4/ADC.c **** *  offset: This value is a measured value when the
 645:.\Generated_Source\PSoC4/ADC.c **** *          inputs are shorted or connected to the same input voltage.
 646:.\Generated_Source\PSoC4/ADC.c **** *
 647:.\Generated_Source\PSoC4/ADC.c **** * Return:
 648:.\Generated_Source\PSoC4/ADC.c **** *  None.
 649:.\Generated_Source\PSoC4/ADC.c **** *
 650:.\Generated_Source\PSoC4/ADC.c **** * Global variables:
 651:.\Generated_Source\PSoC4/ADC.c **** *  ADC_Offset:  Modified to set the user provided offset.
 652:.\Generated_Source\PSoC4/ADC.c **** *
 653:.\Generated_Source\PSoC4/ADC.c **** *******************************************************************************/
 654:.\Generated_Source\PSoC4/ADC.c **** void ADC_SetOffset(uint32 chan, int16 offset)
 655:.\Generated_Source\PSoC4/ADC.c **** {
 584              		.loc 1 655 0
 585              		.cfi_startproc
 586              	.LVL35:
 587 0000 38B5     		push	{r3, r4, r5, lr}
 588              		.cfi_def_cfa_offset 16
 589              		.cfi_offset 3, -16
 590              		.cfi_offset 4, -12
 591              		.cfi_offset 5, -8
 592              		.cfi_offset 14, -4
 593              		.loc 1 655 0
 594 0002 041C     		mov	r4, r0
 595 0004 0D1C     		mov	r5, r1
 656:.\Generated_Source\PSoC4/ADC.c ****     /* Halt CPU in debug mode if channel is out of valid range */
 657:.\Generated_Source\PSoC4/ADC.c ****     CYASSERT(chan < ADC_TOTAL_CHANNELS_NUM);
 596              		.loc 1 657 0
 597 0006 0028     		cmp	r0, #0
 598 0008 02D0     		beq	.L56
 599              		.loc 1 657 0 is_stmt 0 discriminator 1
 600 000a 0020     		mov	r0, #0
 601              	.LVL36:
 602 000c FFF7FEFF 		bl	CyHalt
 603              	.LVL37:
 604              	.L56:
 658:.\Generated_Source\PSoC4/ADC.c **** 
 659:.\Generated_Source\PSoC4/ADC.c ****     ADC_offset[chan] = offset;
 605              		.loc 1 659 0 is_stmt 1
 606 0010 014B     		ldr	r3, .L60
 607 0012 6400     		lsl	r4, r4, #1
 608              	.LVL38:
 609 0014 E552     		strh	r5, [r4, r3]
 660:.\Generated_Source\PSoC4/ADC.c **** }
 610              		.loc 1 660 0
ARM GAS  C:\Users\SNFU\AppData\Local\Temp\cccpROyA.s 			page 24


 611              		@ sp needed
 612 0016 38BD     		pop	{r3, r4, r5, pc}
 613              	.L61:
 614              		.align	2
 615              	.L60:
 616 0018 00000000 		.word	ADC_offset
 617              		.cfi_endproc
 618              	.LFE13:
 619              		.size	ADC_SetOffset, .-ADC_SetOffset
 620              		.section	.text.ADC_SetGain,"ax",%progbits
 621              		.align	1
 622              		.global	ADC_SetGain
 623              		.code	16
 624              		.thumb_func
 625              		.type	ADC_SetGain, %function
 626              	ADC_SetGain:
 627              	.LFB14:
 661:.\Generated_Source\PSoC4/ADC.c **** 
 662:.\Generated_Source\PSoC4/ADC.c **** 
 663:.\Generated_Source\PSoC4/ADC.c **** /*******************************************************************************
 664:.\Generated_Source\PSoC4/ADC.c **** * Function Name: ADC_SetGain
 665:.\Generated_Source\PSoC4/ADC.c **** ********************************************************************************
 666:.\Generated_Source\PSoC4/ADC.c **** *
 667:.\Generated_Source\PSoC4/ADC.c **** * Summary:
 668:.\Generated_Source\PSoC4/ADC.c **** *  Description: Sets the ADC gain in counts per 10 volt for the voltage
 669:.\Generated_Source\PSoC4/ADC.c **** *  conversion functions below. This value is set by default by the
 670:.\Generated_Source\PSoC4/ADC.c **** *  reference and input range settings. It should only be used to further
 671:.\Generated_Source\PSoC4/ADC.c **** *  calibrate the ADC with a known input or if an external reference is
 672:.\Generated_Source\PSoC4/ADC.c **** *  used. Affects the ADC_CountsTo_uVolts, ADC_CountsTo_mVolts
 673:.\Generated_Source\PSoC4/ADC.c **** *  and ADC_CountsTo_Volts functions by supplying the correct
 674:.\Generated_Source\PSoC4/ADC.c **** *  conversion between ADC counts and voltage.
 675:.\Generated_Source\PSoC4/ADC.c **** *
 676:.\Generated_Source\PSoC4/ADC.c **** * Parameters:
 677:.\Generated_Source\PSoC4/ADC.c **** *  chan: ADC channel number.
 678:.\Generated_Source\PSoC4/ADC.c **** *  adcGain: ADC gain in counts per 10 volts.
 679:.\Generated_Source\PSoC4/ADC.c **** *
 680:.\Generated_Source\PSoC4/ADC.c **** * Return:
 681:.\Generated_Source\PSoC4/ADC.c **** *  None.
 682:.\Generated_Source\PSoC4/ADC.c **** *
 683:.\Generated_Source\PSoC4/ADC.c **** * Global variables:
 684:.\Generated_Source\PSoC4/ADC.c **** *  ADC_CountsPer10Volt:  modified to set the ADC gain in counts
 685:.\Generated_Source\PSoC4/ADC.c **** *   per 10 volt.
 686:.\Generated_Source\PSoC4/ADC.c **** *
 687:.\Generated_Source\PSoC4/ADC.c **** *******************************************************************************/
 688:.\Generated_Source\PSoC4/ADC.c **** void ADC_SetGain(uint32 chan, int32 adcGain)
 689:.\Generated_Source\PSoC4/ADC.c **** {
 628              		.loc 1 689 0
 629              		.cfi_startproc
 630              	.LVL39:
 631 0000 38B5     		push	{r3, r4, r5, lr}
 632              		.cfi_def_cfa_offset 16
 633              		.cfi_offset 3, -16
 634              		.cfi_offset 4, -12
 635              		.cfi_offset 5, -8
 636              		.cfi_offset 14, -4
 637              		.loc 1 689 0
 638 0002 041C     		mov	r4, r0
ARM GAS  C:\Users\SNFU\AppData\Local\Temp\cccpROyA.s 			page 25


 639 0004 0D1C     		mov	r5, r1
 690:.\Generated_Source\PSoC4/ADC.c ****     /* Halt CPU in debug mode if channel is out of valid range */
 691:.\Generated_Source\PSoC4/ADC.c ****     CYASSERT(chan < ADC_TOTAL_CHANNELS_NUM);
 640              		.loc 1 691 0
 641 0006 0028     		cmp	r0, #0
 642 0008 02D0     		beq	.L63
 643              		.loc 1 691 0 is_stmt 0 discriminator 1
 644 000a 0020     		mov	r0, #0
 645              	.LVL40:
 646 000c FFF7FEFF 		bl	CyHalt
 647              	.LVL41:
 648              	.L63:
 692:.\Generated_Source\PSoC4/ADC.c **** 
 693:.\Generated_Source\PSoC4/ADC.c ****     ADC_countsPer10Volt[chan] = adcGain;
 649              		.loc 1 693 0 is_stmt 1
 650 0010 014B     		ldr	r3, .L67
 651 0012 A400     		lsl	r4, r4, #2
 652              	.LVL42:
 653 0014 E550     		str	r5, [r4, r3]
 694:.\Generated_Source\PSoC4/ADC.c **** }
 654              		.loc 1 694 0
 655              		@ sp needed
 656              	.LVL43:
 657 0016 38BD     		pop	{r3, r4, r5, pc}
 658              	.L68:
 659              		.align	2
 660              	.L67:
 661 0018 00000000 		.word	ADC_countsPer10Volt
 662              		.cfi_endproc
 663              	.LFE14:
 664              		.size	ADC_SetGain, .-ADC_SetGain
 665              		.global	__aeabi_idiv
 666              		.section	.text.ADC_CountsTo_mVolts,"ax",%progbits
 667              		.align	1
 668              		.global	ADC_CountsTo_mVolts
 669              		.code	16
 670              		.thumb_func
 671              		.type	ADC_CountsTo_mVolts, %function
 672              	ADC_CountsTo_mVolts:
 673              	.LFB15:
 695:.\Generated_Source\PSoC4/ADC.c **** 
 696:.\Generated_Source\PSoC4/ADC.c **** 
 697:.\Generated_Source\PSoC4/ADC.c **** #if(ADC_DEFAULT_JUSTIFICATION_SEL == ADC__RIGHT)
 698:.\Generated_Source\PSoC4/ADC.c **** 
 699:.\Generated_Source\PSoC4/ADC.c **** 
 700:.\Generated_Source\PSoC4/ADC.c ****     /*******************************************************************************
 701:.\Generated_Source\PSoC4/ADC.c ****     * Function Name: ADC_CountsTo_mVolts
 702:.\Generated_Source\PSoC4/ADC.c ****     ********************************************************************************
 703:.\Generated_Source\PSoC4/ADC.c ****     *
 704:.\Generated_Source\PSoC4/ADC.c ****     * Summary:
 705:.\Generated_Source\PSoC4/ADC.c ****     *  This function converts ADC counts to mVolts
 706:.\Generated_Source\PSoC4/ADC.c ****     *  This function is not available when left data format justification selected.
 707:.\Generated_Source\PSoC4/ADC.c ****     *
 708:.\Generated_Source\PSoC4/ADC.c ****     * Parameters:
 709:.\Generated_Source\PSoC4/ADC.c ****     *  chan: The ADC channel number.
 710:.\Generated_Source\PSoC4/ADC.c ****     *  adcCounts: Result from the ADC conversion
 711:.\Generated_Source\PSoC4/ADC.c ****     *
ARM GAS  C:\Users\SNFU\AppData\Local\Temp\cccpROyA.s 			page 26


 712:.\Generated_Source\PSoC4/ADC.c ****     * Return:
 713:.\Generated_Source\PSoC4/ADC.c ****     *  Results in mVolts
 714:.\Generated_Source\PSoC4/ADC.c ****     *
 715:.\Generated_Source\PSoC4/ADC.c ****     * Global variables:
 716:.\Generated_Source\PSoC4/ADC.c ****     *  ADC_countsPer10Volt:  used to convert ADC counts to mVolts.
 717:.\Generated_Source\PSoC4/ADC.c ****     *  ADC_Offset:  Used as the offset while converting ADC counts
 718:.\Generated_Source\PSoC4/ADC.c ****     *   to mVolts.
 719:.\Generated_Source\PSoC4/ADC.c ****     *
 720:.\Generated_Source\PSoC4/ADC.c ****     *******************************************************************************/
 721:.\Generated_Source\PSoC4/ADC.c ****     int16 ADC_CountsTo_mVolts(uint32 chan, int16 adcCounts)
 722:.\Generated_Source\PSoC4/ADC.c ****     {
 674              		.loc 1 722 0
 675              		.cfi_startproc
 676              	.LVL44:
 677 0000 38B5     		push	{r3, r4, r5, lr}
 678              		.cfi_def_cfa_offset 16
 679              		.cfi_offset 3, -16
 680              		.cfi_offset 4, -12
 681              		.cfi_offset 5, -8
 682              		.cfi_offset 14, -4
 683              		.loc 1 722 0
 684 0002 041C     		mov	r4, r0
 685 0004 0D1C     		mov	r5, r1
 723:.\Generated_Source\PSoC4/ADC.c ****         int16 mVolts;
 724:.\Generated_Source\PSoC4/ADC.c **** 
 725:.\Generated_Source\PSoC4/ADC.c ****         /* Halt CPU in debug mode if channel is out of valid range */
 726:.\Generated_Source\PSoC4/ADC.c ****         CYASSERT(chan < ADC_TOTAL_CHANNELS_NUM);
 686              		.loc 1 726 0
 687 0006 0028     		cmp	r0, #0
 688 0008 02D0     		beq	.L70
 689              		.loc 1 726 0 is_stmt 0 discriminator 1
 690 000a 0020     		mov	r0, #0
 691              	.LVL45:
 692 000c FFF7FEFF 		bl	CyHalt
 693              	.LVL46:
 694              	.L70:
 727:.\Generated_Source\PSoC4/ADC.c **** 
 728:.\Generated_Source\PSoC4/ADC.c ****         /* Divide the adcCount when accumulate averaging mode selected */
 729:.\Generated_Source\PSoC4/ADC.c ****         #if(ADC_DEFAULT_AVG_MODE == ADC__ACCUMULATE)
 730:.\Generated_Source\PSoC4/ADC.c ****             if((ADC_channelsConfig[chan] & ADC_AVERAGING_EN) != 0u)
 731:.\Generated_Source\PSoC4/ADC.c ****             {
 732:.\Generated_Source\PSoC4/ADC.c ****                 adcCounts /= ADC_DEFAULT_AVG_SAMPLES_DIV;
 733:.\Generated_Source\PSoC4/ADC.c ****             }
 734:.\Generated_Source\PSoC4/ADC.c ****         #endif /* ADC_DEFAULT_AVG_MODE == ADC__ACCUMULATE */
 735:.\Generated_Source\PSoC4/ADC.c **** 
 736:.\Generated_Source\PSoC4/ADC.c ****         /* Subtract ADC offset */
 737:.\Generated_Source\PSoC4/ADC.c ****         adcCounts -= ADC_offset[chan];
 695              		.loc 1 737 0 is_stmt 1
 696 0010 0D4B     		ldr	r3, .L76
 697 0012 6200     		lsl	r2, r4, #1
 698 0014 D15A     		ldrh	r1, [r2, r3]
 738:.\Generated_Source\PSoC4/ADC.c **** 
 739:.\Generated_Source\PSoC4/ADC.c ****         mVolts = (int16)((((int32)adcCounts * ADC_10MV_COUNTS) + ( (adcCounts > 0) ?
 699              		.loc 1 739 0
 700 0016 0D48     		ldr	r0, .L76+4
 737:.\Generated_Source\PSoC4/ADC.c ****         adcCounts -= ADC_offset[chan];
 701              		.loc 1 737 0
ARM GAS  C:\Users\SNFU\AppData\Local\Temp\cccpROyA.s 			page 27


 702 0018 691A     		sub	r1, r5, r1
 703 001a 09B2     		sxth	r1, r1
 704              	.LVL47:
 705              		.loc 1 739 0
 706 001c 4843     		mul	r0, r1
 707 001e 0C4B     		ldr	r3, .L76+8
 708 0020 A400     		lsl	r4, r4, #2
 709              	.LVL48:
 740:.\Generated_Source\PSoC4/ADC.c ****                  (ADC_countsPer10Volt[chan] / 2) : (-(ADC_countsPer10Volt[chan] / 2)) ))
 710              		.loc 1 740 0
 711 0022 0029     		cmp	r1, #0
 712 0024 04DD     		ble	.L71
 713              		.loc 1 740 0 is_stmt 0 discriminator 1
 714 0026 1959     		ldr	r1, [r3, r4]
 715              	.LVL49:
 716 0028 CA0F     		lsr	r2, r1, #31
 717 002a 5218     		add	r2, r2, r1
 718 002c 5210     		asr	r2, r2, #1
 719 002e 04E0     		b	.L72
 720              	.LVL50:
 721              	.L71:
 722              		.loc 1 740 0 discriminator 2
 723 0030 1959     		ldr	r1, [r3, r4]
 724              	.LVL51:
 725 0032 CA0F     		lsr	r2, r1, #31
 726 0034 5218     		add	r2, r2, r1
 727 0036 5210     		asr	r2, r2, #1
 728 0038 5242     		neg	r2, r2
 729              	.L72:
 741:.\Generated_Source\PSoC4/ADC.c ****                  / ADC_countsPer10Volt[chan]);
 730              		.loc 1 741 0 is_stmt 1
 731 003a 1959     		ldr	r1, [r3, r4]
 732              	.LVL52:
 739:.\Generated_Source\PSoC4/ADC.c ****         mVolts = (int16)((((int32)adcCounts * ADC_10MV_COUNTS) + ( (adcCounts > 0) ?
 733              		.loc 1 739 0
 734 003c 8018     		add	r0, r0, r2
 735              	.LVL53:
 736              		.loc 1 741 0
 737 003e FFF7FEFF 		bl	__aeabi_idiv
 738              	.LVL54:
 742:.\Generated_Source\PSoC4/ADC.c **** 
 743:.\Generated_Source\PSoC4/ADC.c ****         return( mVolts );
 744:.\Generated_Source\PSoC4/ADC.c ****     }
 739              		.loc 1 744 0
 740              		@ sp needed
 743:.\Generated_Source\PSoC4/ADC.c ****         return( mVolts );
 741              		.loc 1 743 0
 742 0042 00B2     		sxth	r0, r0
 743              		.loc 1 744 0
 744 0044 38BD     		pop	{r3, r4, r5, pc}
 745              	.L77:
 746 0046 C046     		.align	2
 747              	.L76:
 748 0048 00000000 		.word	ADC_offset
 749 004c 10270000 		.word	10000
 750 0050 00000000 		.word	ADC_countsPer10Volt
 751              		.cfi_endproc
ARM GAS  C:\Users\SNFU\AppData\Local\Temp\cccpROyA.s 			page 28


 752              	.LFE15:
 753              		.size	ADC_CountsTo_mVolts, .-ADC_CountsTo_mVolts
 754              		.global	__aeabi_lmul
 755              		.global	__aeabi_ldivmod
 756              		.section	.text.ADC_CountsTo_uVolts,"ax",%progbits
 757              		.align	1
 758              		.global	ADC_CountsTo_uVolts
 759              		.code	16
 760              		.thumb_func
 761              		.type	ADC_CountsTo_uVolts, %function
 762              	ADC_CountsTo_uVolts:
 763              	.LFB16:
 745:.\Generated_Source\PSoC4/ADC.c **** 
 746:.\Generated_Source\PSoC4/ADC.c **** 
 747:.\Generated_Source\PSoC4/ADC.c ****     /*******************************************************************************
 748:.\Generated_Source\PSoC4/ADC.c ****     * Function Name: ADC_CountsTo_uVolts
 749:.\Generated_Source\PSoC4/ADC.c ****     ********************************************************************************
 750:.\Generated_Source\PSoC4/ADC.c ****     *
 751:.\Generated_Source\PSoC4/ADC.c ****     * Summary:
 752:.\Generated_Source\PSoC4/ADC.c ****     *  This function converts ADC counts to micro Volts
 753:.\Generated_Source\PSoC4/ADC.c ****     *  This function is not available when left data format justification selected.
 754:.\Generated_Source\PSoC4/ADC.c ****     *
 755:.\Generated_Source\PSoC4/ADC.c ****     * Parameters:
 756:.\Generated_Source\PSoC4/ADC.c ****     *  chan: The ADC channel number.
 757:.\Generated_Source\PSoC4/ADC.c ****     *  adcCounts: Result from the ADC conversion
 758:.\Generated_Source\PSoC4/ADC.c ****     *
 759:.\Generated_Source\PSoC4/ADC.c ****     * Return:
 760:.\Generated_Source\PSoC4/ADC.c ****     *  Results in uVolts
 761:.\Generated_Source\PSoC4/ADC.c ****     *
 762:.\Generated_Source\PSoC4/ADC.c ****     * Global variables:
 763:.\Generated_Source\PSoC4/ADC.c ****     *  ADC_countsPer10Volt:  used to convert ADC counts to uVolts.
 764:.\Generated_Source\PSoC4/ADC.c ****     *  ADC_Offset:  Used as the offset while converting ADC counts
 765:.\Generated_Source\PSoC4/ADC.c ****     *   to mVolts.
 766:.\Generated_Source\PSoC4/ADC.c ****     *
 767:.\Generated_Source\PSoC4/ADC.c ****     * Theory:
 768:.\Generated_Source\PSoC4/ADC.c ****     *  Care must be taken to not exceed the maximum value for a 31 bit signed
 769:.\Generated_Source\PSoC4/ADC.c ****     *  number in the conversion to uVolts and at the same time not loose
 770:.\Generated_Source\PSoC4/ADC.c ****     *  resolution.
 771:.\Generated_Source\PSoC4/ADC.c ****     *  To convert adcCounts to microVolts it is required to be multiplied
 772:.\Generated_Source\PSoC4/ADC.c ****     *  on 10 million and later divide on gain in counts per 10V.
 773:.\Generated_Source\PSoC4/ADC.c ****     *
 774:.\Generated_Source\PSoC4/ADC.c ****     *******************************************************************************/
 775:.\Generated_Source\PSoC4/ADC.c ****     int32 ADC_CountsTo_uVolts(uint32 chan, int16 adcCounts)
 776:.\Generated_Source\PSoC4/ADC.c ****     {
 764              		.loc 1 776 0
 765              		.cfi_startproc
 766              	.LVL55:
 767 0000 38B5     		push	{r3, r4, r5, lr}
 768              		.cfi_def_cfa_offset 16
 769              		.cfi_offset 3, -16
 770              		.cfi_offset 4, -12
 771              		.cfi_offset 5, -8
 772              		.cfi_offset 14, -4
 773              		.loc 1 776 0
 774 0002 041C     		mov	r4, r0
 775 0004 0D1C     		mov	r5, r1
 777:.\Generated_Source\PSoC4/ADC.c ****         int64 uVolts;
ARM GAS  C:\Users\SNFU\AppData\Local\Temp\cccpROyA.s 			page 29


 778:.\Generated_Source\PSoC4/ADC.c **** 
 779:.\Generated_Source\PSoC4/ADC.c ****         /* Halt CPU in debug mode if channel is out of valid range */
 780:.\Generated_Source\PSoC4/ADC.c ****         CYASSERT(chan < ADC_TOTAL_CHANNELS_NUM);
 776              		.loc 1 780 0
 777 0006 0028     		cmp	r0, #0
 778 0008 02D0     		beq	.L79
 779              		.loc 1 780 0 is_stmt 0 discriminator 1
 780 000a 0020     		mov	r0, #0
 781              	.LVL56:
 782 000c FFF7FEFF 		bl	CyHalt
 783              	.LVL57:
 784              	.L79:
 781:.\Generated_Source\PSoC4/ADC.c **** 
 782:.\Generated_Source\PSoC4/ADC.c ****         /* Divide the adcCount when accumulate averaging mode selected */
 783:.\Generated_Source\PSoC4/ADC.c ****         #if(ADC_DEFAULT_AVG_MODE == ADC__ACCUMULATE)
 784:.\Generated_Source\PSoC4/ADC.c ****             if((ADC_channelsConfig[chan] & ADC_AVERAGING_EN) != 0u)
 785:.\Generated_Source\PSoC4/ADC.c ****             {
 786:.\Generated_Source\PSoC4/ADC.c ****                 adcCounts /= ADC_DEFAULT_AVG_SAMPLES_DIV;
 787:.\Generated_Source\PSoC4/ADC.c ****             }
 788:.\Generated_Source\PSoC4/ADC.c ****         #endif /* ADC_DEFAULT_AVG_MODE == ADC__ACCUMULATE */
 789:.\Generated_Source\PSoC4/ADC.c **** 
 790:.\Generated_Source\PSoC4/ADC.c ****         /* Subtract ADC offset */
 791:.\Generated_Source\PSoC4/ADC.c ****         adcCounts -= ADC_offset[chan];
 785              		.loc 1 791 0 is_stmt 1
 786 0010 0B4B     		ldr	r3, .L83+8
 787 0012 6200     		lsl	r2, r4, #1
 788 0014 D05A     		ldrh	r0, [r2, r3]
 792:.\Generated_Source\PSoC4/ADC.c **** 
 793:.\Generated_Source\PSoC4/ADC.c ****         uVolts = ((int64)adcCounts * ADC_10UV_COUNTS) / ADC_countsPer10Volt[chan];
 789              		.loc 1 793 0
 790 0016 0B4B     		ldr	r3, .L83+12
 791:.\Generated_Source\PSoC4/ADC.c ****         adcCounts -= ADC_offset[chan];
 791              		.loc 1 791 0
 792 0018 281A     		sub	r0, r5, r0
 793              	.LVL58:
 794              		.loc 1 793 0
 795 001a A400     		lsl	r4, r4, #2
 796              	.LVL59:
 797 001c E458     		ldr	r4, [r4, r3]
 798              	.LVL60:
 799 001e 00B2     		sxth	r0, r0
 800              	.LVL61:
 801 0020 064B     		ldr	r3, .L83+4
 802 0022 054A     		ldr	r2, .L83
 803 0024 C117     		asr	r1, r0, #31
 804 0026 FFF7FEFF 		bl	__aeabi_lmul
 805              	.LVL62:
 806 002a E317     		asr	r3, r4, #31
 807 002c 221C     		mov	r2, r4
 808 002e FFF7FEFF 		bl	__aeabi_ldivmod
 809              	.LVL63:
 794:.\Generated_Source\PSoC4/ADC.c **** 
 795:.\Generated_Source\PSoC4/ADC.c ****         return( (int32)uVolts );
 796:.\Generated_Source\PSoC4/ADC.c ****     }
 810              		.loc 1 796 0
 811              		@ sp needed
 812 0032 38BD     		pop	{r3, r4, r5, pc}
ARM GAS  C:\Users\SNFU\AppData\Local\Temp\cccpROyA.s 			page 30


 813              	.L84:
 814 0034 C046C046 		.align	3
 815              	.L83:
 816 0038 80969800 		.word	10000000
 817 003c 00000000 		.word	0
 818 0040 00000000 		.word	ADC_offset
 819 0044 00000000 		.word	ADC_countsPer10Volt
 820              		.cfi_endproc
 821              	.LFE16:
 822              		.size	ADC_CountsTo_uVolts, .-ADC_CountsTo_uVolts
 823              		.global	__aeabi_i2f
 824              		.global	__aeabi_fmul
 825              		.global	__aeabi_fdiv
 826              		.section	.text.ADC_CountsTo_Volts,"ax",%progbits
 827              		.align	1
 828              		.global	ADC_CountsTo_Volts
 829              		.code	16
 830              		.thumb_func
 831              		.type	ADC_CountsTo_Volts, %function
 832              	ADC_CountsTo_Volts:
 833              	.LFB17:
 797:.\Generated_Source\PSoC4/ADC.c **** 
 798:.\Generated_Source\PSoC4/ADC.c **** 
 799:.\Generated_Source\PSoC4/ADC.c ****     /*******************************************************************************
 800:.\Generated_Source\PSoC4/ADC.c ****     * Function Name: ADC_CountsTo_Volts
 801:.\Generated_Source\PSoC4/ADC.c ****     ********************************************************************************
 802:.\Generated_Source\PSoC4/ADC.c ****     *
 803:.\Generated_Source\PSoC4/ADC.c ****     * Summary:
 804:.\Generated_Source\PSoC4/ADC.c ****     *  Converts the ADC output to Volts as a floating point number.
 805:.\Generated_Source\PSoC4/ADC.c ****     *  This function is not available when left data format justification selected.
 806:.\Generated_Source\PSoC4/ADC.c ****     *
 807:.\Generated_Source\PSoC4/ADC.c ****     * Parameters:
 808:.\Generated_Source\PSoC4/ADC.c ****     *  chan: The ADC channel number.
 809:.\Generated_Source\PSoC4/ADC.c ****     *  Result from the ADC conversion
 810:.\Generated_Source\PSoC4/ADC.c ****     *
 811:.\Generated_Source\PSoC4/ADC.c ****     * Return:
 812:.\Generated_Source\PSoC4/ADC.c ****     *  Results in Volts
 813:.\Generated_Source\PSoC4/ADC.c ****     *
 814:.\Generated_Source\PSoC4/ADC.c ****     * Global variables:
 815:.\Generated_Source\PSoC4/ADC.c ****     *  ADC_countsPer10Volt:  used to convert ADC counts to Volts.
 816:.\Generated_Source\PSoC4/ADC.c ****     *  ADC_Offset:  Used as the offset while converting ADC counts
 817:.\Generated_Source\PSoC4/ADC.c ****     *   to mVolts.
 818:.\Generated_Source\PSoC4/ADC.c ****     *
 819:.\Generated_Source\PSoC4/ADC.c ****     *******************************************************************************/
 820:.\Generated_Source\PSoC4/ADC.c ****     float32 ADC_CountsTo_Volts(uint32 chan, int16 adcCounts)
 821:.\Generated_Source\PSoC4/ADC.c ****     {
 834              		.loc 1 821 0
 835              		.cfi_startproc
 836              	.LVL64:
 837 0000 38B5     		push	{r3, r4, r5, lr}
 838              		.cfi_def_cfa_offset 16
 839              		.cfi_offset 3, -16
 840              		.cfi_offset 4, -12
 841              		.cfi_offset 5, -8
 842              		.cfi_offset 14, -4
 843              		.loc 1 821 0
 844 0002 041C     		mov	r4, r0
ARM GAS  C:\Users\SNFU\AppData\Local\Temp\cccpROyA.s 			page 31


 845 0004 0D1C     		mov	r5, r1
 822:.\Generated_Source\PSoC4/ADC.c ****         float32 volts;
 823:.\Generated_Source\PSoC4/ADC.c **** 
 824:.\Generated_Source\PSoC4/ADC.c ****         /* Halt CPU in debug mode if channel is out of valid range */
 825:.\Generated_Source\PSoC4/ADC.c ****         CYASSERT(chan < ADC_TOTAL_CHANNELS_NUM);
 846              		.loc 1 825 0
 847 0006 0028     		cmp	r0, #0
 848 0008 02D0     		beq	.L86
 849              		.loc 1 825 0 is_stmt 0 discriminator 1
 850 000a 0020     		mov	r0, #0
 851              	.LVL65:
 852 000c FFF7FEFF 		bl	CyHalt
 853              	.LVL66:
 854              	.L86:
 826:.\Generated_Source\PSoC4/ADC.c **** 
 827:.\Generated_Source\PSoC4/ADC.c ****         /* Divide the adcCount when accumulate averaging mode selected */
 828:.\Generated_Source\PSoC4/ADC.c ****         #if(ADC_DEFAULT_AVG_MODE == ADC__ACCUMULATE)
 829:.\Generated_Source\PSoC4/ADC.c ****             if((ADC_channelsConfig[chan] & ADC_AVERAGING_EN) != 0u)
 830:.\Generated_Source\PSoC4/ADC.c ****             {
 831:.\Generated_Source\PSoC4/ADC.c ****                 adcCounts /= ADC_DEFAULT_AVG_SAMPLES_DIV;
 832:.\Generated_Source\PSoC4/ADC.c ****             }
 833:.\Generated_Source\PSoC4/ADC.c ****         #endif /* ADC_DEFAULT_AVG_MODE == ADC__ACCUMULATE */
 834:.\Generated_Source\PSoC4/ADC.c **** 
 835:.\Generated_Source\PSoC4/ADC.c ****         /* Subtract ADC offset */
 836:.\Generated_Source\PSoC4/ADC.c ****         adcCounts -= ADC_offset[chan];
 855              		.loc 1 836 0 is_stmt 1
 856 0010 0A4B     		ldr	r3, .L90
 857 0012 6200     		lsl	r2, r4, #1
 858 0014 D05A     		ldrh	r0, [r2, r3]
 837:.\Generated_Source\PSoC4/ADC.c **** 
 838:.\Generated_Source\PSoC4/ADC.c ****         volts = ((float32)adcCounts * ADC_10V_COUNTS) / (float32)ADC_countsPer10Volt[chan];
 859              		.loc 1 838 0
 860 0016 0A4B     		ldr	r3, .L90+4
 836:.\Generated_Source\PSoC4/ADC.c ****         adcCounts -= ADC_offset[chan];
 861              		.loc 1 836 0
 862 0018 281A     		sub	r0, r5, r0
 863              	.LVL67:
 864              		.loc 1 838 0
 865 001a A400     		lsl	r4, r4, #2
 866              	.LVL68:
 867 001c 00B2     		sxth	r0, r0
 868              	.LVL69:
 869 001e E558     		ldr	r5, [r4, r3]
 870 0020 FFF7FEFF 		bl	__aeabi_i2f
 871              	.LVL70:
 872 0024 0749     		ldr	r1, .L90+8
 873 0026 FFF7FEFF 		bl	__aeabi_fmul
 874              	.LVL71:
 875 002a 041C     		add	r4, r0, #0
 876 002c 281C     		mov	r0, r5
 877 002e FFF7FEFF 		bl	__aeabi_i2f
 878              	.LVL72:
 879 0032 011C     		add	r1, r0, #0
 880 0034 201C     		add	r0, r4, #0
 881 0036 FFF7FEFF 		bl	__aeabi_fdiv
 882              	.LVL73:
 839:.\Generated_Source\PSoC4/ADC.c **** 
ARM GAS  C:\Users\SNFU\AppData\Local\Temp\cccpROyA.s 			page 32


 840:.\Generated_Source\PSoC4/ADC.c ****         return( volts );
 841:.\Generated_Source\PSoC4/ADC.c ****     }
 883              		.loc 1 841 0
 884              		@ sp needed
 885 003a 38BD     		pop	{r3, r4, r5, pc}
 886              	.L91:
 887              		.align	2
 888              	.L90:
 889 003c 00000000 		.word	ADC_offset
 890 0040 00000000 		.word	ADC_countsPer10Volt
 891 0044 00002041 		.word	1092616192
 892              		.cfi_endproc
 893              	.LFE17:
 894              		.size	ADC_CountsTo_Volts, .-ADC_CountsTo_Volts
 895              		.comm	ADC_countsPer10Volt,4,4
 896              		.comm	ADC_offset,2,2
 897              		.global	ADC_initVar
 898              		.bss
 899              		.set	.LANCHOR0,. + 0
 900              		.type	ADC_initVar, %object
 901              		.size	ADC_initVar, 1
 902              	ADC_initVar:
 903 0000 00       		.space	1
 904              		.text
 905              	.Letext0:
 906              		.file 2 ".\\Generated_Source\\PSoC4\\cytypes.h"
 907              		.file 3 ".\\Generated_Source\\PSoC4\\CyLib.h"