ARM GAS  C:\Users\Sven\AppData\Local\Temp\ccu4WhjJ.s 			page 1


   1              		.cpu cortex-m0
   2              		.fpu softvfp
   3              		.eabi_attribute 20, 1
   4              		.eabi_attribute 21, 1
   5              		.eabi_attribute 23, 3
   6              		.eabi_attribute 24, 1
   7              		.eabi_attribute 25, 1
   8              		.eabi_attribute 26, 1
   9              		.eabi_attribute 30, 4
  10              		.eabi_attribute 34, 0
  11              		.eabi_attribute 18, 4
  12              		.code	16
  13              		.file	"Baro.c"
  14              		.text
  15              	.Ltext0:
  16              		.cfi_sections	.debug_frame
  17              		.section	.text.read_BMP180_registry,"ax",%progbits
  18              		.align	1
  19              		.global	read_BMP180_registry
  20              		.code	16
  21              		.thumb_func
  22              		.type	read_BMP180_registry, %function
  23              	read_BMP180_registry:
  24              	.LFB33:
  25              		.file 1 ".\\Baro.c"
   1:.\Baro.c      **** /* ========================================
   2:.\Baro.c      ****  *
   3:.\Baro.c      ****  * Copyright YOUR COMPANY, THE YEAR
   4:.\Baro.c      ****  * All Rights Reserved
   5:.\Baro.c      ****  * UNPUBLISHED, LICENSED SOFTWARE.
   6:.\Baro.c      ****  *
   7:.\Baro.c      ****  * CONFIDENTIAL AND PROPRIETARY INFORMATION
   8:.\Baro.c      ****  * WHICH IS THE PROPERTY OF your company.
   9:.\Baro.c      ****  *
  10:.\Baro.c      ****  * ========================================
  11:.\Baro.c      **** */
  12:.\Baro.c      **** 
  13:.\Baro.c      **** #include <baro.h>
  14:.\Baro.c      **** 
  15:.\Baro.c      **** #define READ    1
  16:.\Baro.c      **** #define WRITE   0
  17:.\Baro.c      **** #define ACK     0
  18:.\Baro.c      **** #define NACK    1
  19:.\Baro.c      **** 
  20:.\Baro.c      **** /* Altitude value */
  21:.\Baro.c      **** //extern int32_t alt;     /* from main.c file */
  22:.\Baro.c      **** 
  23:.\Baro.c      **** //uint8_t cnt_baro  = 0;  /* baro counter */
  24:.\Baro.c      **** //int32_t temp = 0;   // temperature reading by BMP180
  25:.\Baro.c      **** //int32_t press = 0;   // pressure reading by BMP180
  26:.\Baro.c      **** 
  27:.\Baro.c      **** /* Calibration Values required for calculation of pressure and temperature */
  28:.\Baro.c      ****     int16_t AC1, AC2, AC3 = 0;
  29:.\Baro.c      ****     uint16_t AC4, AC5, AC6 = 0;
  30:.\Baro.c      ****     int16_t B1, B2, B5, MB, MC, MD = 0;
  31:.\Baro.c      ****     
  32:.\Baro.c      **** extern void UART_1_UartPutNum();
ARM GAS  C:\Users\Sven\AppData\Local\Temp\ccu4WhjJ.s 			page 2


  33:.\Baro.c      **** 
  34:.\Baro.c      **** // function to read 16 bit registry
  35:.\Baro.c      **** uint16_t read_BMP180_registry(uint8_t registry)
  36:.\Baro.c      **** {
  26              		.loc 1 36 0
  27              		.cfi_startproc
  28              	.LVL0:
  29 0000 10B5     		push	{r4, lr}
  30              		.cfi_def_cfa_offset 8
  31              		.cfi_offset 4, -8
  32              		.cfi_offset 14, -4
  37:.\Baro.c      ****     I2CM_I2CMasterSendStart(BMP180_ADDR, WRITE);
  33              		.loc 1 37 0
  34 0002 0021     		mov	r1, #0
  36:.\Baro.c      **** {
  35              		.loc 1 36 0
  36 0004 041C     		mov	r4, r0
  37              		.loc 1 37 0
  38 0006 7720     		mov	r0, #119
  39              	.LVL1:
  40 0008 FFF7FEFF 		bl	I2CM_I2CMasterSendStart
  41              	.LVL2:
  38:.\Baro.c      **** 	CyDelay(1);
  42              		.loc 1 38 0
  43 000c 0120     		mov	r0, #1
  44 000e FFF7FEFF 		bl	CyDelay
  45              	.LVL3:
  39:.\Baro.c      ****     I2CM_I2CMasterWriteByte(registry);
  46              		.loc 1 39 0
  47 0012 201C     		mov	r0, r4
  48 0014 FFF7FEFF 		bl	I2CM_I2CMasterWriteByte
  49              	.LVL4:
  40:.\Baro.c      **** 	I2CM_I2CMasterSendRestart(BMP180_ADDR, READ);
  50              		.loc 1 40 0
  51 0018 0121     		mov	r1, #1
  52 001a 7720     		mov	r0, #119
  53 001c FFF7FEFF 		bl	I2CM_I2CMasterSendRestart
  54              	.LVL5:
  41:.\Baro.c      **** 	uint8_t reg_h = I2CM_I2CMasterReadByte(ACK);
  55              		.loc 1 41 0
  56 0020 0020     		mov	r0, #0
  57 0022 FFF7FEFF 		bl	I2CM_I2CMasterReadByte
  58              	.LVL6:
  59 0026 041C     		mov	r4, r0
  60              	.LVL7:
  42:.\Baro.c      **** 	uint8_t reg_l = I2CM_I2CMasterReadByte(NACK);
  61              		.loc 1 42 0
  62 0028 0120     		mov	r0, #1
  63              	.LVL8:
  64 002a FFF7FEFF 		bl	I2CM_I2CMasterReadByte
  65              	.LVL9:
  43:.\Baro.c      ****     I2CM_I2C_MASTER_GENERATE_STOP;
  66              		.loc 1 43 0
  67 002e 064B     		ldr	r3, .L6
  42:.\Baro.c      **** 	uint8_t reg_l = I2CM_I2CMasterReadByte(NACK);
  68              		.loc 1 42 0
  69 0030 C2B2     		uxtb	r2, r0
ARM GAS  C:\Users\Sven\AppData\Local\Temp\ccu4WhjJ.s 			page 3


  70              	.LVL10:
  71              		.loc 1 43 0
  72 0032 1968     		ldr	r1, [r3]
  73 0034 1023     		mov	r3, #16
  74 0036 8806     		lsl	r0, r1, #26
  75 0038 00D5     		bpl	.L2
  76              	.LVL11:
  77 003a 1823     		mov	r3, #24
  78              	.L2:
  79              		.loc 1 43 0 is_stmt 0 discriminator 3
  80 003c 0349     		ldr	r1, .L6+4
  81 003e E0B2     		uxtb	r0, r4
  44:.\Baro.c      ****     uint16_t reg_value = ((reg_h << 8) | (reg_l));    
  82              		.loc 1 44 0 is_stmt 1 discriminator 3
  83 0040 0002     		lsl	r0, r0, #8
  45:.\Baro.c      ****     return(reg_value);
  84              		.loc 1 45 0 discriminator 3
  85 0042 1043     		orr	r0, r2
  43:.\Baro.c      ****     I2CM_I2C_MASTER_GENERATE_STOP;
  86              		.loc 1 43 0 discriminator 3
  87 0044 0B60     		str	r3, [r1]
  88              	.LVL12:
  46:.\Baro.c      **** }
  89              		.loc 1 46 0 discriminator 3
  90              		@ sp needed
  91              	.LVL13:
  92 0046 10BD     		pop	{r4, pc}
  93              	.L7:
  94              		.align	2
  95              	.L6:
  96 0048 64000740 		.word	1074200676
  97 004c 68000740 		.word	1074200680
  98              		.cfi_endproc
  99              	.LFE33:
 100              		.size	read_BMP180_registry, .-read_BMP180_registry
 101              		.section	.text.write_BMP180_registry,"ax",%progbits
 102              		.align	1
 103              		.global	write_BMP180_registry
 104              		.code	16
 105              		.thumb_func
 106              		.type	write_BMP180_registry, %function
 107              	write_BMP180_registry:
 108              	.LFB34:
  47:.\Baro.c      **** 
  48:.\Baro.c      **** void write_BMP180_registry(uint8_t registry, uint8_t data)
  49:.\Baro.c      **** {
 109              		.loc 1 49 0
 110              		.cfi_startproc
 111              	.LVL14:
 112 0000 38B5     		push	{r3, r4, r5, lr}
 113              		.cfi_def_cfa_offset 16
 114              		.cfi_offset 3, -16
 115              		.cfi_offset 4, -12
 116              		.cfi_offset 5, -8
 117              		.cfi_offset 14, -4
 118              		.loc 1 49 0
 119 0002 051C     		mov	r5, r0
ARM GAS  C:\Users\Sven\AppData\Local\Temp\ccu4WhjJ.s 			page 4


 120 0004 0C1C     		mov	r4, r1
  50:.\Baro.c      ****     I2CM_I2CMasterSendStart(BMP180_ADDR, WRITE);
 121              		.loc 1 50 0
 122 0006 7720     		mov	r0, #119
 123              	.LVL15:
 124 0008 0021     		mov	r1, #0
 125              	.LVL16:
 126 000a FFF7FEFF 		bl	I2CM_I2CMasterSendStart
 127              	.LVL17:
  51:.\Baro.c      **** 	CyDelay(1);
 128              		.loc 1 51 0
 129 000e 0120     		mov	r0, #1
 130 0010 FFF7FEFF 		bl	CyDelay
 131              	.LVL18:
  52:.\Baro.c      ****     I2CM_I2CMasterWriteByte(registry);
 132              		.loc 1 52 0
 133 0014 281C     		mov	r0, r5
 134 0016 FFF7FEFF 		bl	I2CM_I2CMasterWriteByte
 135              	.LVL19:
  53:.\Baro.c      ****     I2CM_I2CMasterWriteByte(data);
 136              		.loc 1 53 0
 137 001a 201C     		mov	r0, r4
 138 001c FFF7FEFF 		bl	I2CM_I2CMasterWriteByte
 139              	.LVL20:
  54:.\Baro.c      ****     I2CM_I2C_MASTER_GENERATE_STOP;
 140              		.loc 1 54 0
 141 0020 044B     		ldr	r3, .L12
 142 0022 1A68     		ldr	r2, [r3]
 143 0024 1023     		mov	r3, #16
 144 0026 9106     		lsl	r1, r2, #26
 145 0028 00D5     		bpl	.L9
 146 002a 1823     		mov	r3, #24
 147              	.L9:
 148              		.loc 1 54 0 is_stmt 0 discriminator 3
 149 002c 024A     		ldr	r2, .L12+4
  55:.\Baro.c      **** }
 150              		.loc 1 55 0 is_stmt 1 discriminator 3
 151              		@ sp needed
  54:.\Baro.c      ****     I2CM_I2C_MASTER_GENERATE_STOP;
 152              		.loc 1 54 0 discriminator 3
 153 002e 1360     		str	r3, [r2]
 154              		.loc 1 55 0 discriminator 3
 155 0030 38BD     		pop	{r3, r4, r5, pc}
 156              	.L13:
 157 0032 C046     		.align	2
 158              	.L12:
 159 0034 64000740 		.word	1074200676
 160 0038 68000740 		.word	1074200680
 161              		.cfi_endproc
 162              	.LFE34:
 163              		.size	write_BMP180_registry, .-write_BMP180_registry
 164              		.section	.text.BMP180_baro_init,"ax",%progbits
 165              		.align	1
 166              		.global	BMP180_baro_init
 167              		.code	16
 168              		.thumb_func
 169              		.type	BMP180_baro_init, %function
ARM GAS  C:\Users\Sven\AppData\Local\Temp\ccu4WhjJ.s 			page 5


 170              	BMP180_baro_init:
 171              	.LFB35:
  56:.\Baro.c      **** 
  57:.\Baro.c      **** void BMP180_baro_init(void)
  58:.\Baro.c      **** {
 172              		.loc 1 58 0
 173              		.cfi_startproc
 174 0000 38B5     		push	{r3, r4, r5, lr}
 175              		.cfi_def_cfa_offset 16
 176              		.cfi_offset 3, -16
 177              		.cfi_offset 4, -12
 178              		.cfi_offset 5, -8
 179              		.cfi_offset 14, -4
  59:.\Baro.c      ****     /* Reading the values of the registers and calculate pressure*/
  60:.\Baro.c      ****     AC1 = read_BMP180_registry(0xAA);
 180              		.loc 1 60 0
 181 0002 AA20     		mov	r0, #170
 182 0004 FFF7FEFF 		bl	read_BMP180_registry
 183              	.LVL21:
 184 0008 4F4B     		ldr	r3, .L15
 185 000a 80B2     		uxth	r0, r0
 186 000c 1880     		strh	r0, [r3]
  61:.\Baro.c      ****     UART_1_UartPutNum(AC1);
 187              		.loc 1 61 0
 188 000e 00B2     		sxth	r0, r0
 189 0010 FFF7FEFF 		bl	UART_1_UartPutNum
 190              	.LVL22:
  62:.\Baro.c      ****     UART_1_UartPutString("\r\n");
 191              		.loc 1 62 0
 192 0014 4D4C     		ldr	r4, .L15+4
  63:.\Baro.c      ****     CyDelay(1);
  64:.\Baro.c      ****     
  65:.\Baro.c      ****     AC2 = read_BMP180_registry(0xAC);
  66:.\Baro.c      ****     UART_1_UartPutNum(AC2);
  67:.\Baro.c      ****     UART_1_UartPutString("\r\n");
  68:.\Baro.c      ****     CyDelay(1);
  69:.\Baro.c      ****     
  70:.\Baro.c      ****     AC3 = read_BMP180_registry(0xAE);
  71:.\Baro.c      ****     UART_1_UartPutNum(AC3);
  72:.\Baro.c      ****     UART_1_UartPutString("\r\n");
  73:.\Baro.c      ****     CyDelay(1);
  74:.\Baro.c      ****     
  75:.\Baro.c      ****     AC4 = read_BMP180_registry(0xB0);
  76:.\Baro.c      ****     UART_1_UartPutNum(AC4);
  77:.\Baro.c      ****     UART_1_UartPutString("\r\n");
  78:.\Baro.c      ****     CyDelay(1);
  79:.\Baro.c      ****     
  80:.\Baro.c      ****     AC5 = read_BMP180_registry(0xB2);
  81:.\Baro.c      ****     UART_1_UartPutNum(AC5);
  82:.\Baro.c      ****     UART_1_UartPutString("\r\n");
  83:.\Baro.c      ****     CyDelay(1);
  84:.\Baro.c      ****     
  85:.\Baro.c      ****     AC6 = read_BMP180_registry(0xB4);
  86:.\Baro.c      ****     UART_1_UartPutNum(AC6);
  87:.\Baro.c      ****     UART_1_UartPutString("\r\n");
  88:.\Baro.c      ****     CyDelay(1);
  89:.\Baro.c      ****     
ARM GAS  C:\Users\Sven\AppData\Local\Temp\ccu4WhjJ.s 			page 6


  90:.\Baro.c      ****     B1 = read_BMP180_registry(0xB6);
  91:.\Baro.c      ****     UART_1_UartPutNum(B1);
  92:.\Baro.c      ****     UART_1_UartPutString("\r\n");
  93:.\Baro.c      ****     CyDelay(1);
  94:.\Baro.c      ****     
  95:.\Baro.c      ****     B2 = read_BMP180_registry(0xB8);
  96:.\Baro.c      ****     UART_1_UartPutNum(B2);
  97:.\Baro.c      ****     UART_1_UartPutString("\r\n");
  98:.\Baro.c      ****     CyDelay(1);
  99:.\Baro.c      ****     
 100:.\Baro.c      ****     MB = read_BMP180_registry(0xBA);
 101:.\Baro.c      ****     UART_1_UartPutNum(MB);
 102:.\Baro.c      ****     UART_1_UartPutString("\r\n");
 103:.\Baro.c      ****     CyDelay(1);
 104:.\Baro.c      ****     
 105:.\Baro.c      ****     MC = read_BMP180_registry(0xBC);
 106:.\Baro.c      ****     UART_1_UartPutNum(MC);
 107:.\Baro.c      ****     UART_1_UartPutString("\r\n");
 108:.\Baro.c      ****     CyDelay(1);
 109:.\Baro.c      ****     
 110:.\Baro.c      ****     MD = read_BMP180_registry(0xBE);
 111:.\Baro.c      ****     UART_1_UartPutNum(MD);
 112:.\Baro.c      ****     UART_1_UartPutString("\r\n");
 113:.\Baro.c      ****     CyDelay(1);
 114:.\Baro.c      ****     UART_1_UartPutString("BARO INIT COMPLETE\r\n");
 115:.\Baro.c      **** }
 193              		.loc 1 115 0
 194              		@ sp needed
  62:.\Baro.c      ****     UART_1_UartPutString("\r\n");
 195              		.loc 1 62 0
 196 0016 201C     		mov	r0, r4
 197 0018 FFF7FEFF 		bl	UART_1_UartPutString
 198              	.LVL23:
  63:.\Baro.c      ****     CyDelay(1);
 199              		.loc 1 63 0
 200 001c 0120     		mov	r0, #1
 201 001e FFF7FEFF 		bl	CyDelay
 202              	.LVL24:
  65:.\Baro.c      ****     AC2 = read_BMP180_registry(0xAC);
 203              		.loc 1 65 0
 204 0022 AC20     		mov	r0, #172
 205 0024 FFF7FEFF 		bl	read_BMP180_registry
 206              	.LVL25:
 207 0028 494B     		ldr	r3, .L15+8
 208 002a 80B2     		uxth	r0, r0
 209 002c 1880     		strh	r0, [r3]
  66:.\Baro.c      ****     UART_1_UartPutNum(AC2);
 210              		.loc 1 66 0
 211 002e 00B2     		sxth	r0, r0
 212 0030 FFF7FEFF 		bl	UART_1_UartPutNum
 213              	.LVL26:
  67:.\Baro.c      ****     UART_1_UartPutString("\r\n");
 214              		.loc 1 67 0
 215 0034 201C     		mov	r0, r4
 216 0036 FFF7FEFF 		bl	UART_1_UartPutString
 217              	.LVL27:
  68:.\Baro.c      ****     CyDelay(1);
ARM GAS  C:\Users\Sven\AppData\Local\Temp\ccu4WhjJ.s 			page 7


 218              		.loc 1 68 0
 219 003a 0120     		mov	r0, #1
 220 003c FFF7FEFF 		bl	CyDelay
 221              	.LVL28:
  70:.\Baro.c      ****     AC3 = read_BMP180_registry(0xAE);
 222              		.loc 1 70 0
 223 0040 AE20     		mov	r0, #174
 224 0042 FFF7FEFF 		bl	read_BMP180_registry
 225              	.LVL29:
 226 0046 434D     		ldr	r5, .L15+12
 227 0048 80B2     		uxth	r0, r0
 228 004a 2880     		strh	r0, [r5]
  71:.\Baro.c      ****     UART_1_UartPutNum(AC3);
 229              		.loc 1 71 0
 230 004c 00B2     		sxth	r0, r0
 231 004e FFF7FEFF 		bl	UART_1_UartPutNum
 232              	.LVL30:
  72:.\Baro.c      ****     UART_1_UartPutString("\r\n");
 233              		.loc 1 72 0
 234 0052 201C     		mov	r0, r4
 235 0054 FFF7FEFF 		bl	UART_1_UartPutString
 236              	.LVL31:
  73:.\Baro.c      ****     CyDelay(1);
 237              		.loc 1 73 0
 238 0058 0120     		mov	r0, #1
 239 005a FFF7FEFF 		bl	CyDelay
 240              	.LVL32:
  75:.\Baro.c      ****     AC4 = read_BMP180_registry(0xB0);
 241              		.loc 1 75 0
 242 005e B020     		mov	r0, #176
 243 0060 FFF7FEFF 		bl	read_BMP180_registry
 244              	.LVL33:
 245 0064 3C4B     		ldr	r3, .L15+16
 246 0066 1880     		strh	r0, [r3]
  76:.\Baro.c      ****     UART_1_UartPutNum(AC4);
 247              		.loc 1 76 0
 248 0068 FFF7FEFF 		bl	UART_1_UartPutNum
 249              	.LVL34:
  77:.\Baro.c      ****     UART_1_UartPutString("\r\n");
 250              		.loc 1 77 0
 251 006c 201C     		mov	r0, r4
 252 006e FFF7FEFF 		bl	UART_1_UartPutString
 253              	.LVL35:
  78:.\Baro.c      ****     CyDelay(1);
 254              		.loc 1 78 0
 255 0072 0120     		mov	r0, #1
 256 0074 FFF7FEFF 		bl	CyDelay
 257              	.LVL36:
  80:.\Baro.c      ****     AC5 = read_BMP180_registry(0xB2);
 258              		.loc 1 80 0
 259 0078 B220     		mov	r0, #178
 260 007a FFF7FEFF 		bl	read_BMP180_registry
 261              	.LVL37:
 262 007e 374B     		ldr	r3, .L15+20
 263 0080 1880     		strh	r0, [r3]
  81:.\Baro.c      ****     UART_1_UartPutNum(AC5);
 264              		.loc 1 81 0
ARM GAS  C:\Users\Sven\AppData\Local\Temp\ccu4WhjJ.s 			page 8


 265 0082 FFF7FEFF 		bl	UART_1_UartPutNum
 266              	.LVL38:
  82:.\Baro.c      ****     UART_1_UartPutString("\r\n");
 267              		.loc 1 82 0
 268 0086 201C     		mov	r0, r4
 269 0088 FFF7FEFF 		bl	UART_1_UartPutString
 270              	.LVL39:
  83:.\Baro.c      ****     CyDelay(1);
 271              		.loc 1 83 0
 272 008c 0120     		mov	r0, #1
 273 008e FFF7FEFF 		bl	CyDelay
 274              	.LVL40:
  85:.\Baro.c      ****     AC6 = read_BMP180_registry(0xB4);
 275              		.loc 1 85 0
 276 0092 B420     		mov	r0, #180
 277 0094 FFF7FEFF 		bl	read_BMP180_registry
 278              	.LVL41:
 279 0098 6880     		strh	r0, [r5, #2]
  86:.\Baro.c      ****     UART_1_UartPutNum(AC6);
 280              		.loc 1 86 0
 281 009a FFF7FEFF 		bl	UART_1_UartPutNum
 282              	.LVL42:
  87:.\Baro.c      ****     UART_1_UartPutString("\r\n");
 283              		.loc 1 87 0
 284 009e 201C     		mov	r0, r4
 285 00a0 FFF7FEFF 		bl	UART_1_UartPutString
 286              	.LVL43:
  88:.\Baro.c      ****     CyDelay(1);
 287              		.loc 1 88 0
 288 00a4 0120     		mov	r0, #1
 289 00a6 FFF7FEFF 		bl	CyDelay
 290              	.LVL44:
  90:.\Baro.c      ****     B1 = read_BMP180_registry(0xB6);
 291              		.loc 1 90 0
 292 00aa B620     		mov	r0, #182
 293 00ac FFF7FEFF 		bl	read_BMP180_registry
 294              	.LVL45:
 295 00b0 2B4B     		ldr	r3, .L15+24
 296 00b2 80B2     		uxth	r0, r0
 297 00b4 1880     		strh	r0, [r3]
  91:.\Baro.c      ****     UART_1_UartPutNum(B1);
 298              		.loc 1 91 0
 299 00b6 00B2     		sxth	r0, r0
 300 00b8 FFF7FEFF 		bl	UART_1_UartPutNum
 301              	.LVL46:
  92:.\Baro.c      ****     UART_1_UartPutString("\r\n");
 302              		.loc 1 92 0
 303 00bc 201C     		mov	r0, r4
 304 00be FFF7FEFF 		bl	UART_1_UartPutString
 305              	.LVL47:
  93:.\Baro.c      ****     CyDelay(1);
 306              		.loc 1 93 0
 307 00c2 0120     		mov	r0, #1
 308 00c4 FFF7FEFF 		bl	CyDelay
 309              	.LVL48:
  95:.\Baro.c      ****     B2 = read_BMP180_registry(0xB8);
 310              		.loc 1 95 0
ARM GAS  C:\Users\Sven\AppData\Local\Temp\ccu4WhjJ.s 			page 9


 311 00c8 B820     		mov	r0, #184
 312 00ca FFF7FEFF 		bl	read_BMP180_registry
 313              	.LVL49:
 314 00ce 254B     		ldr	r3, .L15+28
 315 00d0 80B2     		uxth	r0, r0
 316 00d2 1880     		strh	r0, [r3]
  96:.\Baro.c      ****     UART_1_UartPutNum(B2);
 317              		.loc 1 96 0
 318 00d4 00B2     		sxth	r0, r0
 319 00d6 FFF7FEFF 		bl	UART_1_UartPutNum
 320              	.LVL50:
  97:.\Baro.c      ****     UART_1_UartPutString("\r\n");
 321              		.loc 1 97 0
 322 00da 201C     		mov	r0, r4
 323 00dc FFF7FEFF 		bl	UART_1_UartPutString
 324              	.LVL51:
  98:.\Baro.c      ****     CyDelay(1);
 325              		.loc 1 98 0
 326 00e0 0120     		mov	r0, #1
 327 00e2 FFF7FEFF 		bl	CyDelay
 328              	.LVL52:
 100:.\Baro.c      ****     MB = read_BMP180_registry(0xBA);
 329              		.loc 1 100 0
 330 00e6 BA20     		mov	r0, #186
 331 00e8 FFF7FEFF 		bl	read_BMP180_registry
 332              	.LVL53:
 333 00ec 1E4B     		ldr	r3, .L15+32
 334 00ee 80B2     		uxth	r0, r0
 335 00f0 1880     		strh	r0, [r3]
 101:.\Baro.c      ****     UART_1_UartPutNum(MB);
 336              		.loc 1 101 0
 337 00f2 00B2     		sxth	r0, r0
 338 00f4 FFF7FEFF 		bl	UART_1_UartPutNum
 339              	.LVL54:
 102:.\Baro.c      ****     UART_1_UartPutString("\r\n");
 340              		.loc 1 102 0
 341 00f8 201C     		mov	r0, r4
 342 00fa FFF7FEFF 		bl	UART_1_UartPutString
 343              	.LVL55:
 103:.\Baro.c      ****     CyDelay(1);
 344              		.loc 1 103 0
 345 00fe 0120     		mov	r0, #1
 346 0100 FFF7FEFF 		bl	CyDelay
 347              	.LVL56:
 105:.\Baro.c      ****     MC = read_BMP180_registry(0xBC);
 348              		.loc 1 105 0
 349 0104 BC20     		mov	r0, #188
 350 0106 FFF7FEFF 		bl	read_BMP180_registry
 351              	.LVL57:
 352 010a 184B     		ldr	r3, .L15+36
 353 010c 80B2     		uxth	r0, r0
 354 010e 1880     		strh	r0, [r3]
 106:.\Baro.c      ****     UART_1_UartPutNum(MC);
 355              		.loc 1 106 0
 356 0110 00B2     		sxth	r0, r0
 357 0112 FFF7FEFF 		bl	UART_1_UartPutNum
 358              	.LVL58:
ARM GAS  C:\Users\Sven\AppData\Local\Temp\ccu4WhjJ.s 			page 10


 107:.\Baro.c      ****     UART_1_UartPutString("\r\n");
 359              		.loc 1 107 0
 360 0116 201C     		mov	r0, r4
 361 0118 FFF7FEFF 		bl	UART_1_UartPutString
 362              	.LVL59:
 108:.\Baro.c      ****     CyDelay(1);
 363              		.loc 1 108 0
 364 011c 0120     		mov	r0, #1
 365 011e FFF7FEFF 		bl	CyDelay
 366              	.LVL60:
 110:.\Baro.c      ****     MD = read_BMP180_registry(0xBE);
 367              		.loc 1 110 0
 368 0122 BE20     		mov	r0, #190
 369 0124 FFF7FEFF 		bl	read_BMP180_registry
 370              	.LVL61:
 371 0128 80B2     		uxth	r0, r0
 372 012a A880     		strh	r0, [r5, #4]
 111:.\Baro.c      ****     UART_1_UartPutNum(MD);
 373              		.loc 1 111 0
 374 012c 00B2     		sxth	r0, r0
 375 012e FFF7FEFF 		bl	UART_1_UartPutNum
 376              	.LVL62:
 112:.\Baro.c      ****     UART_1_UartPutString("\r\n");
 377              		.loc 1 112 0
 378 0132 201C     		mov	r0, r4
 379 0134 FFF7FEFF 		bl	UART_1_UartPutString
 380              	.LVL63:
 113:.\Baro.c      ****     CyDelay(1);
 381              		.loc 1 113 0
 382 0138 0120     		mov	r0, #1
 383 013a FFF7FEFF 		bl	CyDelay
 384              	.LVL64:
 114:.\Baro.c      ****     UART_1_UartPutString("BARO INIT COMPLETE\r\n");
 385              		.loc 1 114 0
 386 013e 0C48     		ldr	r0, .L15+40
 387 0140 FFF7FEFF 		bl	UART_1_UartPutString
 388              	.LVL65:
 389              		.loc 1 115 0
 390 0144 38BD     		pop	{r3, r4, r5, pc}
 391              	.L16:
 392 0146 C046     		.align	2
 393              	.L15:
 394 0148 00000000 		.word	AC1
 395 014c 00000000 		.word	.LC1
 396 0150 00000000 		.word	AC2
 397 0154 00000000 		.word	.LANCHOR0
 398 0158 00000000 		.word	AC4
 399 015c 00000000 		.word	AC5
 400 0160 00000000 		.word	B1
 401 0164 00000000 		.word	B2
 402 0168 00000000 		.word	MB
 403 016c 00000000 		.word	MC
 404 0170 03000000 		.word	.LC11
 405              		.cfi_endproc
 406              	.LFE35:
 407              		.size	BMP180_baro_init, .-BMP180_baro_init
 408              		.section	.text.BMP180_baro_trigger_temp,"ax",%progbits
ARM GAS  C:\Users\Sven\AppData\Local\Temp\ccu4WhjJ.s 			page 11


 409              		.align	1
 410              		.global	BMP180_baro_trigger_temp
 411              		.code	16
 412              		.thumb_func
 413              		.type	BMP180_baro_trigger_temp, %function
 414              	BMP180_baro_trigger_temp:
 415              	.LFB36:
 116:.\Baro.c      **** 
 117:.\Baro.c      **** void BMP180_baro_trigger_temp(void)
 118:.\Baro.c      **** {
 416              		.loc 1 118 0
 417              		.cfi_startproc
 418 0000 08B5     		push	{r3, lr}
 419              		.cfi_def_cfa_offset 8
 420              		.cfi_offset 3, -8
 421              		.cfi_offset 14, -4
 119:.\Baro.c      ****     write_BMP180_registry(BMP180_REG_CONTROL, BMP180_COMMAND_TEMPERATURE);
 422              		.loc 1 119 0
 423 0002 F420     		mov	r0, #244
 424 0004 2E21     		mov	r1, #46
 425 0006 FFF7FEFF 		bl	write_BMP180_registry
 426              	.LVL66:
 120:.\Baro.c      **** }
 427              		.loc 1 120 0
 428              		@ sp needed
 429 000a 08BD     		pop	{r3, pc}
 430              		.cfi_endproc
 431              	.LFE36:
 432              		.size	BMP180_baro_trigger_temp, .-BMP180_baro_trigger_temp
 433              		.global	__aeabi_idiv
 434              		.section	.text.BMP180_baro_read_temp,"ax",%progbits
 435              		.align	1
 436              		.global	BMP180_baro_read_temp
 437              		.code	16
 438              		.thumb_func
 439              		.type	BMP180_baro_read_temp, %function
 440              	BMP180_baro_read_temp:
 441              	.LFB37:
 121:.\Baro.c      **** 
 122:.\Baro.c      **** int32_t BMP180_baro_read_temp(void)
 123:.\Baro.c      **** {
 442              		.loc 1 123 0
 443              		.cfi_startproc
 444 0000 10B5     		push	{r4, lr}
 445              		.cfi_def_cfa_offset 8
 446              		.cfi_offset 4, -8
 447              		.cfi_offset 14, -4
 124:.\Baro.c      ****         int16_t t_raw = (int16_t) read_BMP180_registry(BMP180_REG_RESULT);
 448              		.loc 1 124 0
 449 0002 F620     		mov	r0, #246
 450 0004 FFF7FEFF 		bl	read_BMP180_registry
 451              	.LVL67:
 125:.\Baro.c      ****         //UART_1_UartPutString("\r\nT RAW: ");
 126:.\Baro.c      ****         //UART_1_UartPutNum(t_raw);
 127:.\Baro.c      ****         int32_t x1 = (t_raw-AC6)*AC5/(32768); // 2^15 = 32768
 452              		.loc 1 127 0
 453 0008 0F4B     		ldr	r3, .L19
ARM GAS  C:\Users\Sven\AppData\Local\Temp\ccu4WhjJ.s 			page 12


 454 000a 02B2     		sxth	r2, r0
 455 000c 5988     		ldrh	r1, [r3, #2]
 128:.\Baro.c      ****         //UART_1_UartPutString("\r\nT_x1: ");
 129:.\Baro.c      ****         //UART_1_UartPutNum(x1);
 130:.\Baro.c      ****         
 131:.\Baro.c      ****         int32_t x2 = (MC*2048)/(x1+MD);       // 2^11 = 2048
 132:.\Baro.c      ****         //UART_1_UartPutString("\r\nT_x2: ");
 133:.\Baro.c      ****         //UART_1_UartPutNum(x2);
 134:.\Baro.c      ****         
 135:.\Baro.c      ****         B5 = x1+x2;   // B5 is also used for the pressure reading
 136:.\Baro.c      ****         //UART_1_UartPutString("\r\nB5: ");
 137:.\Baro.c      ****         //UART_1_UartPutNum(B5);
 138:.\Baro.c      ****         int32_t t_true = ((B5+8)/16)/10;      // by 10 for degC (check datasheet page 15)
 139:.\Baro.c      ****         return t_true;
 140:.\Baro.c      **** }
 456              		.loc 1 140 0
 457              		@ sp needed
 127:.\Baro.c      ****         int32_t x1 = (t_raw-AC6)*AC5/(32768); // 2^15 = 32768
 458              		.loc 1 127 0
 459 000e 521A     		sub	r2, r2, r1
 460 0010 0E49     		ldr	r1, .L19+4
 461 0012 0C88     		ldrh	r4, [r1]
 462 0014 6243     		mul	r2, r4
 463 0016 D417     		asr	r4, r2, #31
 464 0018 640C     		lsr	r4, r4, #17
 465 001a A418     		add	r4, r4, r2
 131:.\Baro.c      ****         int32_t x2 = (MC*2048)/(x1+MD);       // 2^11 = 2048
 466              		.loc 1 131 0
 467 001c 0C4A     		ldr	r2, .L19+8
 127:.\Baro.c      ****         int32_t x1 = (t_raw-AC6)*AC5/(32768); // 2^15 = 32768
 468              		.loc 1 127 0
 469 001e E413     		asr	r4, r4, #15
 470              	.LVL68:
 131:.\Baro.c      ****         int32_t x2 = (MC*2048)/(x1+MD);       // 2^11 = 2048
 471              		.loc 1 131 0
 472 0020 0021     		mov	r1, #0
 473 0022 505E     		ldrsh	r0, [r2, r1]
 474              	.LVL69:
 475 0024 0422     		mov	r2, #4
 476 0026 995E     		ldrsh	r1, [r3, r2]
 477              	.LVL70:
 478 0028 C002     		lsl	r0, r0, #11
 479 002a 6118     		add	r1, r4, r1
 480 002c FFF7FEFF 		bl	__aeabi_idiv
 481              	.LVL71:
 135:.\Baro.c      ****         B5 = x1+x2;   // B5 is also used for the pressure reading
 482              		.loc 1 135 0
 483 0030 084B     		ldr	r3, .L19+12
 484 0032 0419     		add	r4, r0, r4
 485              	.LVL72:
 486 0034 A4B2     		uxth	r4, r4
 487 0036 1C80     		strh	r4, [r3]
 488              	.LVL73:
 138:.\Baro.c      ****         int32_t t_true = ((B5+8)/16)/10;      // by 10 for degC (check datasheet page 15)
 489              		.loc 1 138 0
 490 0038 24B2     		sxth	r4, r4
 491              	.LVL74:
ARM GAS  C:\Users\Sven\AppData\Local\Temp\ccu4WhjJ.s 			page 13


 492 003a 201C     		mov	r0, r4
 493 003c A021     		mov	r1, #160
 494 003e 0830     		add	r0, r0, #8
 495 0040 FFF7FEFF 		bl	__aeabi_idiv
 496              	.LVL75:
 497              		.loc 1 140 0
 498 0044 10BD     		pop	{r4, pc}
 499              	.L20:
 500 0046 C046     		.align	2
 501              	.L19:
 502 0048 00000000 		.word	.LANCHOR0
 503 004c 00000000 		.word	AC5
 504 0050 00000000 		.word	MC
 505 0054 00000000 		.word	B5
 506              		.cfi_endproc
 507              	.LFE37:
 508              		.size	BMP180_baro_read_temp, .-BMP180_baro_read_temp
 509              		.section	.text.BMP180_baro_trigger_pressure,"ax",%progbits
 510              		.align	1
 511              		.global	BMP180_baro_trigger_pressure
 512              		.code	16
 513              		.thumb_func
 514              		.type	BMP180_baro_trigger_pressure, %function
 515              	BMP180_baro_trigger_pressure:
 516              	.LFB38:
 141:.\Baro.c      **** 
 142:.\Baro.c      **** void BMP180_baro_trigger_pressure(void)
 143:.\Baro.c      **** {
 517              		.loc 1 143 0
 518              		.cfi_startproc
 519 0000 08B5     		push	{r3, lr}
 520              		.cfi_def_cfa_offset 8
 521              		.cfi_offset 3, -8
 522              		.cfi_offset 14, -4
 144:.\Baro.c      ****     // Using Ultra Low Power Mode with 4.5ms conversion time
 145:.\Baro.c      ****     write_BMP180_registry(BMP180_REG_CONTROL, BMP180_COMMAND_PRESSURE0);
 523              		.loc 1 145 0
 524 0002 F420     		mov	r0, #244
 525 0004 3421     		mov	r1, #52
 526 0006 FFF7FEFF 		bl	write_BMP180_registry
 527              	.LVL76:
 146:.\Baro.c      **** }
 528              		.loc 1 146 0
 529              		@ sp needed
 530 000a 08BD     		pop	{r3, pc}
 531              		.cfi_endproc
 532              	.LFE38:
 533              		.size	BMP180_baro_trigger_pressure, .-BMP180_baro_trigger_pressure
 534              		.global	__aeabi_uidiv
 535              		.section	.text.BMP180_baro_read_pressure,"ax",%progbits
 536              		.align	1
 537              		.global	BMP180_baro_read_pressure
 538              		.code	16
 539              		.thumb_func
 540              		.type	BMP180_baro_read_pressure, %function
 541              	BMP180_baro_read_pressure:
 542              	.LFB39:
ARM GAS  C:\Users\Sven\AppData\Local\Temp\ccu4WhjJ.s 			page 14


 147:.\Baro.c      **** 
 148:.\Baro.c      **** int32_t BMP180_baro_read_pressure(void)
 149:.\Baro.c      **** {
 543              		.loc 1 149 0
 544              		.cfi_startproc
 545 0000 70B5     		push	{r4, r5, r6, lr}
 546              		.cfi_def_cfa_offset 16
 547              		.cfi_offset 4, -16
 548              		.cfi_offset 5, -12
 549              		.cfi_offset 6, -8
 550              		.cfi_offset 14, -4
 150:.\Baro.c      ****         uint16_t p_raw = (uint16_t)read_BMP180_registry(BMP180_REG_RESULT);
 551              		.loc 1 150 0
 552 0002 F620     		mov	r0, #246
 553 0004 FFF7FEFF 		bl	read_BMP180_registry
 554              	.LVL77:
 151:.\Baro.c      ****         //UART_1_UartPutString("\r\nP RAW: ");
 152:.\Baro.c      ****         //UART_1_UartPutNum(p_raw);
 153:.\Baro.c      ****         
 154:.\Baro.c      ****         int32_t B6 = B5-4000;
 555              		.loc 1 154 0
 556 0008 344B     		ldr	r3, .L25
 557 000a 354C     		ldr	r4, .L25+4
 558 000c 0022     		mov	r2, #0
 559 000e 9B5E     		ldrsh	r3, [r3, r2]
 560 0010 1B19     		add	r3, r3, r4
 561              	.LVL78:
 155:.\Baro.c      ****         //UART_1_UartPutString("\r\nB6: ");
 156:.\Baro.c      ****         //UART_1_UartPutNum(B6);
 157:.\Baro.c      ****         
 158:.\Baro.c      ****         int32_t x1 = (B2*((B6*B6)/4096))/2048;
 562              		.loc 1 158 0
 563 0012 191C     		mov	r1, r3
 564 0014 5943     		mul	r1, r3
 565 0016 CA17     		asr	r2, r1, #31
 566 0018 120D     		lsr	r2, r2, #20
 567 001a 5218     		add	r2, r2, r1
 159:.\Baro.c      ****         //UART_1_UartPutString("\r\nx1: ");
 160:.\Baro.c      ****         //UART_1_UartPutNum(x1);
 161:.\Baro.c      ****         
 162:.\Baro.c      ****         int32_t x2 = AC2*B6 / 2048;
 163:.\Baro.c      ****         //UART_1_UartPutString("\r\nx2: ");
 164:.\Baro.c      ****         //UART_1_UartPutNum(x2);
 165:.\Baro.c      ****         int32_t x3 = x1+x2;
 166:.\Baro.c      ****         //UART_1_UartPutString("\r\nx3: ");
 167:.\Baro.c      ****         //UART_1_UartPutNum(x3);
 168:.\Baro.c      ****         
 169:.\Baro.c      ****         int32_t B3 = ((AC1*4+x3)+2)/4;
 170:.\Baro.c      ****         //UART_1_UartPutString("\r\nB3: ");
 171:.\Baro.c      ****         //UART_1_UartPutNum(B3);
 172:.\Baro.c      ****         
 173:.\Baro.c      ****         x1 = AC3 * B6 / 8192;
 568              		.loc 1 173 0
 569 001c 3149     		ldr	r1, .L25+8
 158:.\Baro.c      ****         int32_t x1 = (B2*((B6*B6)/4096))/2048;
 570              		.loc 1 158 0
 571 001e 1213     		asr	r2, r2, #12
ARM GAS  C:\Users\Sven\AppData\Local\Temp\ccu4WhjJ.s 			page 15


 572              	.LVL79:
 573              		.loc 1 173 0
 574 0020 0025     		mov	r5, #0
 575 0022 4C5F     		ldrsh	r4, [r1, r5]
 174:.\Baro.c      ****         //UART_1_UartPutString("\r\nP_x1: ");
 175:.\Baro.c      ****         //UART_1_UartPutNum(x1);
 176:.\Baro.c      ****         
 177:.\Baro.c      ****         x2 = (B1*(B6*B6/4096))/65536;
 576              		.loc 1 177 0
 577 0024 3049     		ldr	r1, .L25+12
 578              	.LVL80:
 173:.\Baro.c      ****         x1 = AC3 * B6 / 8192;
 579              		.loc 1 173 0
 580 0026 5C43     		mul	r4, r3
 581              	.LVL81:
 582 0028 E517     		asr	r5, r4, #31
 583 002a ED0C     		lsr	r5, r5, #19
 584 002c 2C19     		add	r4, r5, r4
 585              	.LVL82:
 586 002e 6513     		asr	r5, r4, #13
 587              		.loc 1 177 0
 588 0030 0026     		mov	r6, #0
 589 0032 8C5F     		ldrsh	r4, [r1, r6]
 590 0034 5443     		mul	r4, r2
 591              	.LVL83:
 592 0036 E117     		asr	r1, r4, #31
 593              	.LVL84:
 594 0038 090C     		lsr	r1, r1, #16
 595 003a 0919     		add	r1, r1, r4
 596 003c 0914     		asr	r1, r1, #16
 178:.\Baro.c      ****         //UART_1_UartPutString("\r\nP_x2: ");
 179:.\Baro.c      ****         //UART_1_UartPutNum(x2);
 180:.\Baro.c      ****         
 181:.\Baro.c      ****         x3 = ((x1+x2)+2)/4;
 597              		.loc 1 181 0
 598 003e 6918     		add	r1, r5, r1
 599 0040 0231     		add	r1, r1, #2
 600 0042 CC17     		asr	r4, r1, #31
 601              	.LVL85:
 602 0044 A40F     		lsr	r4, r4, #30
 603 0046 6118     		add	r1, r4, r1
 182:.\Baro.c      ****         //UART_1_UartPutString("\r\nP_x3: ");
 183:.\Baro.c      ****         //UART_1_UartPutNum(x3);
 184:.\Baro.c      ****         
 185:.\Baro.c      ****         uint32_t B4 = AC4*(uint32_t)(x3+32768)/32768;
 604              		.loc 1 185 0
 605 0048 8024     		mov	r4, #128
 606 004a 2402     		lsl	r4, r4, #8
 181:.\Baro.c      ****         x3 = ((x1+x2)+2)/4;
 607              		.loc 1 181 0
 608 004c 8910     		asr	r1, r1, #2
 609              		.loc 1 185 0
 610 004e 0919     		add	r1, r1, r4
 611 0050 264C     		ldr	r4, .L25+16
 612 0052 2488     		ldrh	r4, [r4]
 613 0054 6143     		mul	r1, r4
 169:.\Baro.c      ****         int32_t B3 = ((AC1*4+x3)+2)/4;
ARM GAS  C:\Users\Sven\AppData\Local\Temp\ccu4WhjJ.s 			page 16


 614              		.loc 1 169 0
 615 0056 264C     		ldr	r4, .L25+20
 616              	.LVL86:
 617              		.loc 1 185 0
 618 0058 C90B     		lsr	r1, r1, #15
 619              	.LVL87:
 169:.\Baro.c      ****         int32_t B3 = ((AC1*4+x3)+2)/4;
 620              		.loc 1 169 0
 621 005a 0025     		mov	r5, #0
 622 005c 645F     		ldrsh	r4, [r4, r5]
 623              	.LVL88:
 158:.\Baro.c      ****         int32_t x1 = (B2*((B6*B6)/4096))/2048;
 624              		.loc 1 158 0
 625 005e 254D     		ldr	r5, .L25+24
 626              	.LVL89:
 169:.\Baro.c      ****         int32_t B3 = ((AC1*4+x3)+2)/4;
 627              		.loc 1 169 0
 628 0060 A400     		lsl	r4, r4, #2
 629              	.LVL90:
 158:.\Baro.c      ****         int32_t x1 = (B2*((B6*B6)/4096))/2048;
 630              		.loc 1 158 0
 631 0062 0026     		mov	r6, #0
 632 0064 AD5F     		ldrsh	r5, [r5, r6]
 633              	.LVL91:
 634 0066 6A43     		mul	r2, r5
 635              	.LVL92:
 636 0068 D517     		asr	r5, r2, #31
 637 006a 6D0D     		lsr	r5, r5, #21
 638 006c AA18     		add	r2, r5, r2
 162:.\Baro.c      ****         int32_t x2 = AC2*B6 / 2048;
 639              		.loc 1 162 0
 640 006e 224D     		ldr	r5, .L25+28
 641              	.LVL93:
 158:.\Baro.c      ****         int32_t x1 = (B2*((B6*B6)/4096))/2048;
 642              		.loc 1 158 0
 643 0070 D212     		asr	r2, r2, #11
 162:.\Baro.c      ****         int32_t x2 = AC2*B6 / 2048;
 644              		.loc 1 162 0
 645 0072 0026     		mov	r6, #0
 646 0074 AD5F     		ldrsh	r5, [r5, r6]
 647              	.LVL94:
 648 0076 6B43     		mul	r3, r5
 649              	.LVL95:
 650 0078 DD17     		asr	r5, r3, #31
 651 007a 6D0D     		lsr	r5, r5, #21
 652 007c EB18     		add	r3, r5, r3
 653              	.LVL96:
 654 007e DB12     		asr	r3, r3, #11
 165:.\Baro.c      ****         int32_t x3 = x1+x2;
 655              		.loc 1 165 0
 656 0080 D318     		add	r3, r2, r3
 169:.\Baro.c      ****         int32_t B3 = ((AC1*4+x3)+2)/4;
 657              		.loc 1 169 0
 658 0082 E318     		add	r3, r4, r3
 659 0084 0233     		add	r3, r3, #2
 660 0086 DA17     		asr	r2, r3, #31
 661 0088 920F     		lsr	r2, r2, #30
ARM GAS  C:\Users\Sven\AppData\Local\Temp\ccu4WhjJ.s 			page 17


 662 008a D318     		add	r3, r2, r3
 663 008c 9B10     		asr	r3, r3, #2
 186:.\Baro.c      ****         //UART_1_UartPutString("\r\nB4: ");
 187:.\Baro.c      ****         //UART_1_UartPutNum(B4);
 188:.\Baro.c      ****         
 189:.\Baro.c      ****         uint32_t B7 = ((uint32_t)p_raw - B3) * (50000);
 664              		.loc 1 189 0
 665 008e C01A     		sub	r0, r0, r3
 666              	.LVL97:
 667 0090 1A4B     		ldr	r3, .L25+32
 668 0092 5843     		mul	r0, r3
 669              	.LVL98:
 190:.\Baro.c      ****         //UART_1_UartPutString("\r\nB7: ");
 191:.\Baro.c      ****         //UART_1_UartPutNum(B7);
 192:.\Baro.c      ****         
 193:.\Baro.c      ****         int32_t p_true = 0;
 194:.\Baro.c      ****         if(B7 < 0x80000000)
 670              		.loc 1 194 0
 671 0094 0028     		cmp	r0, #0
 672 0096 03DB     		blt	.L23
 195:.\Baro.c      ****         {
 196:.\Baro.c      ****             p_true = B7*2/B4;    
 673              		.loc 1 196 0
 674 0098 4000     		lsl	r0, r0, #1
 675              	.LVL99:
 676 009a FFF7FEFF 		bl	__aeabi_uidiv
 677              	.LVL100:
 678 009e 02E0     		b	.L24
 679              	.LVL101:
 680              	.L23:
 197:.\Baro.c      ****         }
 198:.\Baro.c      ****         else p_true = (B7/B4)*2;
 681              		.loc 1 198 0
 682 00a0 FFF7FEFF 		bl	__aeabi_uidiv
 683              	.LVL102:
 684 00a4 4000     		lsl	r0, r0, #1
 685              	.LVL103:
 686              	.L24:
 199:.\Baro.c      ****         //UART_1_UartPutString("\r\nP: ");
 200:.\Baro.c      ****         //UART_1_UartPutNum(p_true);
 201:.\Baro.c      ****         
 202:.\Baro.c      ****         x1 = (p_true / 256)*(p_true / 256);
 687              		.loc 1 202 0
 688 00a6 C217     		asr	r2, r0, #31
 689 00a8 120E     		lsr	r2, r2, #24
 690 00aa 1218     		add	r2, r2, r0
 691 00ac 1212     		asr	r2, r2, #8
 692              	.LVL104:
 693 00ae 5243     		mul	r2, r2
 694              	.LVL105:
 203:.\Baro.c      ****                 //UART_1_UartPutString("\r\nP_x1: ");
 204:.\Baro.c      ****         //UART_1_UartPutNum(x1);
 205:.\Baro.c      ****         
 206:.\Baro.c      ****         x1 = (x1*3038)/65536;
 695              		.loc 1 206 0
 696 00b0 134B     		ldr	r3, .L25+36
 207:.\Baro.c      ****                         //UART_1_UartPutString("\r\nP_x1: ");
ARM GAS  C:\Users\Sven\AppData\Local\Temp\ccu4WhjJ.s 			page 18


 208:.\Baro.c      ****         //UART_1_UartPutNum(x1);
 209:.\Baro.c      ****         
 210:.\Baro.c      ****         x2 = (-7357*p_true)/65536;
 211:.\Baro.c      ****                 //UART_1_UartPutString("\r\nP_x2: ");
 212:.\Baro.c      ****         //UART_1_UartPutNum(x2);
 213:.\Baro.c      ****         p_true = p_true + ((x1+x2+3791)/16);
 214:.\Baro.c      ****                          //UART_1_UartPutString("\r\nP_TRUE: ");
 215:.\Baro.c      ****         //UART_1_UartPutNum(p_true);               
 216:.\Baro.c      ****         // by 10 for degC (check datasheet page 15)
 217:.\Baro.c      ****         return p_true;
 218:.\Baro.c      **** }
 697              		.loc 1 218 0
 698              		@ sp needed
 206:.\Baro.c      ****         x1 = (x1*3038)/65536;
 699              		.loc 1 206 0
 700 00b2 5A43     		mul	r2, r3
 701              	.LVL106:
 702 00b4 D117     		asr	r1, r2, #31
 703 00b6 090C     		lsr	r1, r1, #16
 704 00b8 8A18     		add	r2, r1, r2
 705              	.LVL107:
 706 00ba 1114     		asr	r1, r2, #16
 210:.\Baro.c      ****         x2 = (-7357*p_true)/65536;
 707              		.loc 1 210 0
 708 00bc 114A     		ldr	r2, .L25+40
 709 00be 4243     		mul	r2, r0
 710 00c0 D317     		asr	r3, r2, #31
 711              	.LVL108:
 712 00c2 1B0C     		lsr	r3, r3, #16
 713 00c4 9B18     		add	r3, r3, r2
 714 00c6 1B14     		asr	r3, r3, #16
 213:.\Baro.c      ****         p_true = p_true + ((x1+x2+3791)/16);
 715              		.loc 1 213 0
 716 00c8 0F4A     		ldr	r2, .L25+44
 717 00ca CB18     		add	r3, r1, r3
 718 00cc 9B18     		add	r3, r3, r2
 719 00ce DA17     		asr	r2, r3, #31
 720 00d0 120F     		lsr	r2, r2, #28
 721 00d2 D318     		add	r3, r2, r3
 722 00d4 1B11     		asr	r3, r3, #4
 723              	.LVL109:
 724 00d6 C018     		add	r0, r0, r3
 725              	.LVL110:
 726              		.loc 1 218 0
 727 00d8 70BD     		pop	{r4, r5, r6, pc}
 728              	.L26:
 729 00da C046     		.align	2
 730              	.L25:
 731 00dc 00000000 		.word	B5
 732 00e0 60F0FFFF 		.word	-4000
 733 00e4 00000000 		.word	.LANCHOR0
 734 00e8 00000000 		.word	B1
 735 00ec 00000000 		.word	AC4
 736 00f0 00000000 		.word	AC1
 737 00f4 00000000 		.word	B2
 738 00f8 00000000 		.word	AC2
 739 00fc 50C30000 		.word	50000
ARM GAS  C:\Users\Sven\AppData\Local\Temp\ccu4WhjJ.s 			page 19


 740 0100 DE0B0000 		.word	3038
 741 0104 43E3FFFF 		.word	-7357
 742 0108 CF0E0000 		.word	3791
 743              		.cfi_endproc
 744              	.LFE39:
 745              		.size	BMP180_baro_read_pressure, .-BMP180_baro_read_pressure
 746              		.global	MD
 747              		.comm	MC,2,2
 748              		.comm	MB,2,2
 749              		.comm	B5,2,2
 750              		.comm	B2,2,2
 751              		.comm	B1,2,2
 752              		.global	AC6
 753              		.comm	AC5,2,2
 754              		.comm	AC4,2,2
 755              		.global	AC3
 756              		.comm	AC2,2,2
 757              		.comm	AC1,2,2
 758              		.section	.rodata.str1.1,"aMS",%progbits,1
 759              	.LC1:
 760 0000 0D0A00   		.ascii	"\015\012\000"
 761              	.LC11:
 762 0003 4241524F 		.ascii	"BARO INIT COMPLETE\015\012\000"
 762      20494E49 
 762      5420434F 
 762      4D504C45 
 762      54450D0A 
 763              		.bss
 764              		.align	1
 765              		.set	.LANCHOR0,. + 0
 766              		.type	AC3, %object
 767              		.size	AC3, 2
 768              	AC3:
 769 0000 0000     		.space	2
 770              		.type	AC6, %object
 771              		.size	AC6, 2
 772              	AC6:
 773 0002 0000     		.space	2
 774              		.type	MD, %object
 775              		.size	MD, 2
 776              	MD:
 777 0004 0000     		.space	2
 778              		.text
 779              	.Letext0:
 780              		.file 2 "e:\\program files (x86)\\cypress\\psoc creator\\3.1\\psoc creator\\import\\gnu_cs\\arm\\4
 781              		.file 3 "e:\\program files (x86)\\cypress\\psoc creator\\3.1\\psoc creator\\import\\gnu_cs\\arm\\4
 782              		.file 4 ".\\Generated_Source\\PSoC4/cytypes.h"
 783              		.file 5 ".\\Generated_Source\\PSoC4/I2CM_I2C.h"
 784              		.file 6 ".\\Generated_Source\\PSoC4/CyLib.h"
 785              		.file 7 ".\\Generated_Source\\PSoC4/UART_1_SPI_UART.h"