ARM GAS  C:\Users\Sven\AppData\Local\Temp\ccLmNdIP.s 			page 1


   1              		.cpu cortex-m0
   2              		.fpu softvfp
   3              		.eabi_attribute 20, 1
   4              		.eabi_attribute 21, 1
   5              		.eabi_attribute 23, 3
   6              		.eabi_attribute 24, 1
   7              		.eabi_attribute 25, 1
   8              		.eabi_attribute 26, 1
   9              		.eabi_attribute 30, 4
  10              		.eabi_attribute 34, 0
  11              		.eabi_attribute 18, 4
  12              		.code	16
  13              		.file	"BootISR.c"
  14              		.text
  15              	.Ltext0:
  16              		.cfi_sections	.debug_frame
  17              		.section	.text.BootISR_Interrupt,"ax",%progbits
  18              		.align	1
  19              		.global	BootISR_Interrupt
  20              		.code	16
  21              		.thumb_func
  22              		.type	BootISR_Interrupt, %function
  23              	BootISR_Interrupt:
  24              	.LFB36:
  25              		.file 1 ".\\Generated_Source\\PSoC4\\BootISR.c"
   1:.\Generated_Source\PSoC4/BootISR.c **** /*******************************************************************************
   2:.\Generated_Source\PSoC4/BootISR.c **** * File Name: BootISR.c  
   3:.\Generated_Source\PSoC4/BootISR.c **** * Version 1.70
   4:.\Generated_Source\PSoC4/BootISR.c **** *
   5:.\Generated_Source\PSoC4/BootISR.c **** *  Description:
   6:.\Generated_Source\PSoC4/BootISR.c **** *   API for controlling the state of an interrupt.
   7:.\Generated_Source\PSoC4/BootISR.c **** *
   8:.\Generated_Source\PSoC4/BootISR.c **** *
   9:.\Generated_Source\PSoC4/BootISR.c **** *  Note:
  10:.\Generated_Source\PSoC4/BootISR.c **** *
  11:.\Generated_Source\PSoC4/BootISR.c **** ********************************************************************************
  12:.\Generated_Source\PSoC4/BootISR.c **** * Copyright 2008-2012, Cypress Semiconductor Corporation.  All rights reserved.
  13:.\Generated_Source\PSoC4/BootISR.c **** * You may use this file only in accordance with the license, terms, conditions, 
  14:.\Generated_Source\PSoC4/BootISR.c **** * disclaimers, and limitations in the end user license agreement accompanying 
  15:.\Generated_Source\PSoC4/BootISR.c **** * the software package with which this file was provided.
  16:.\Generated_Source\PSoC4/BootISR.c **** *******************************************************************************/
  17:.\Generated_Source\PSoC4/BootISR.c **** 
  18:.\Generated_Source\PSoC4/BootISR.c **** 
  19:.\Generated_Source\PSoC4/BootISR.c **** #include <cydevice_trm.h>
  20:.\Generated_Source\PSoC4/BootISR.c **** #include <CyLib.h>
  21:.\Generated_Source\PSoC4/BootISR.c **** #include <BootISR.h>
  22:.\Generated_Source\PSoC4/BootISR.c **** 
  23:.\Generated_Source\PSoC4/BootISR.c **** #if !defined(BootISR__REMOVED) /* Check for removal by optimization */
  24:.\Generated_Source\PSoC4/BootISR.c **** 
  25:.\Generated_Source\PSoC4/BootISR.c **** /*******************************************************************************
  26:.\Generated_Source\PSoC4/BootISR.c **** *  Place your includes, defines and code here 
  27:.\Generated_Source\PSoC4/BootISR.c **** ********************************************************************************/
  28:.\Generated_Source\PSoC4/BootISR.c **** /* `#START BootISR_intc` */
  29:.\Generated_Source\PSoC4/BootISR.c **** #include <project.h>
  30:.\Generated_Source\PSoC4/BootISR.c **** /* `#END` */
  31:.\Generated_Source\PSoC4/BootISR.c **** 
  32:.\Generated_Source\PSoC4/BootISR.c **** extern cyisraddress CyRamVectors[CYINT_IRQ_BASE + CY_NUM_INTERRUPTS];
ARM GAS  C:\Users\Sven\AppData\Local\Temp\ccLmNdIP.s 			page 2


  33:.\Generated_Source\PSoC4/BootISR.c **** 
  34:.\Generated_Source\PSoC4/BootISR.c **** /* Declared in startup, used to set unused interrupts to. */
  35:.\Generated_Source\PSoC4/BootISR.c **** CY_ISR_PROTO(IntDefaultHandler);
  36:.\Generated_Source\PSoC4/BootISR.c **** 
  37:.\Generated_Source\PSoC4/BootISR.c **** 
  38:.\Generated_Source\PSoC4/BootISR.c **** /*******************************************************************************
  39:.\Generated_Source\PSoC4/BootISR.c **** * Function Name: BootISR_Start
  40:.\Generated_Source\PSoC4/BootISR.c **** ********************************************************************************
  41:.\Generated_Source\PSoC4/BootISR.c **** *
  42:.\Generated_Source\PSoC4/BootISR.c **** * Summary:
  43:.\Generated_Source\PSoC4/BootISR.c **** *  Set up the interrupt and enable it.
  44:.\Generated_Source\PSoC4/BootISR.c **** *
  45:.\Generated_Source\PSoC4/BootISR.c **** * Parameters:  
  46:.\Generated_Source\PSoC4/BootISR.c **** *   None
  47:.\Generated_Source\PSoC4/BootISR.c **** *
  48:.\Generated_Source\PSoC4/BootISR.c **** * Return:
  49:.\Generated_Source\PSoC4/BootISR.c **** *   None
  50:.\Generated_Source\PSoC4/BootISR.c **** *
  51:.\Generated_Source\PSoC4/BootISR.c **** *******************************************************************************/
  52:.\Generated_Source\PSoC4/BootISR.c **** void BootISR_Start(void)
  53:.\Generated_Source\PSoC4/BootISR.c **** {
  54:.\Generated_Source\PSoC4/BootISR.c ****     /* For all we know the interrupt is active. */
  55:.\Generated_Source\PSoC4/BootISR.c ****     BootISR_Disable();
  56:.\Generated_Source\PSoC4/BootISR.c **** 
  57:.\Generated_Source\PSoC4/BootISR.c ****     /* Set the ISR to point to the BootISR Interrupt. */
  58:.\Generated_Source\PSoC4/BootISR.c ****     BootISR_SetVector(&BootISR_Interrupt);
  59:.\Generated_Source\PSoC4/BootISR.c **** 
  60:.\Generated_Source\PSoC4/BootISR.c ****     /* Set the priority. */
  61:.\Generated_Source\PSoC4/BootISR.c ****     BootISR_SetPriority((uint8)BootISR_INTC_PRIOR_NUMBER);
  62:.\Generated_Source\PSoC4/BootISR.c **** 
  63:.\Generated_Source\PSoC4/BootISR.c ****     /* Enable it. */
  64:.\Generated_Source\PSoC4/BootISR.c ****     BootISR_Enable();
  65:.\Generated_Source\PSoC4/BootISR.c **** }
  66:.\Generated_Source\PSoC4/BootISR.c **** 
  67:.\Generated_Source\PSoC4/BootISR.c **** 
  68:.\Generated_Source\PSoC4/BootISR.c **** /*******************************************************************************
  69:.\Generated_Source\PSoC4/BootISR.c **** * Function Name: BootISR_StartEx
  70:.\Generated_Source\PSoC4/BootISR.c **** ********************************************************************************
  71:.\Generated_Source\PSoC4/BootISR.c **** *
  72:.\Generated_Source\PSoC4/BootISR.c **** * Summary:
  73:.\Generated_Source\PSoC4/BootISR.c **** *  Set up the interrupt and enable it.
  74:.\Generated_Source\PSoC4/BootISR.c **** *
  75:.\Generated_Source\PSoC4/BootISR.c **** * Parameters:  
  76:.\Generated_Source\PSoC4/BootISR.c **** *   address: Address of the ISR to set in the interrupt vector table.
  77:.\Generated_Source\PSoC4/BootISR.c **** *
  78:.\Generated_Source\PSoC4/BootISR.c **** * Return:
  79:.\Generated_Source\PSoC4/BootISR.c **** *   None
  80:.\Generated_Source\PSoC4/BootISR.c **** *
  81:.\Generated_Source\PSoC4/BootISR.c **** *******************************************************************************/
  82:.\Generated_Source\PSoC4/BootISR.c **** void BootISR_StartEx(cyisraddress address)
  83:.\Generated_Source\PSoC4/BootISR.c **** {
  84:.\Generated_Source\PSoC4/BootISR.c ****     /* For all we know the interrupt is active. */
  85:.\Generated_Source\PSoC4/BootISR.c ****     BootISR_Disable();
  86:.\Generated_Source\PSoC4/BootISR.c **** 
  87:.\Generated_Source\PSoC4/BootISR.c ****     /* Set the ISR to point to the BootISR Interrupt. */
  88:.\Generated_Source\PSoC4/BootISR.c ****     BootISR_SetVector(address);
  89:.\Generated_Source\PSoC4/BootISR.c **** 
ARM GAS  C:\Users\Sven\AppData\Local\Temp\ccLmNdIP.s 			page 3


  90:.\Generated_Source\PSoC4/BootISR.c ****     /* Set the priority. */
  91:.\Generated_Source\PSoC4/BootISR.c ****     BootISR_SetPriority((uint8)BootISR_INTC_PRIOR_NUMBER);
  92:.\Generated_Source\PSoC4/BootISR.c **** 
  93:.\Generated_Source\PSoC4/BootISR.c ****     /* Enable it. */
  94:.\Generated_Source\PSoC4/BootISR.c ****     BootISR_Enable();
  95:.\Generated_Source\PSoC4/BootISR.c **** }
  96:.\Generated_Source\PSoC4/BootISR.c **** 
  97:.\Generated_Source\PSoC4/BootISR.c **** 
  98:.\Generated_Source\PSoC4/BootISR.c **** /*******************************************************************************
  99:.\Generated_Source\PSoC4/BootISR.c **** * Function Name: BootISR_Stop
 100:.\Generated_Source\PSoC4/BootISR.c **** ********************************************************************************
 101:.\Generated_Source\PSoC4/BootISR.c **** *
 102:.\Generated_Source\PSoC4/BootISR.c **** * Summary:
 103:.\Generated_Source\PSoC4/BootISR.c **** *   Disables and removes the interrupt.
 104:.\Generated_Source\PSoC4/BootISR.c **** *
 105:.\Generated_Source\PSoC4/BootISR.c **** * Parameters:  
 106:.\Generated_Source\PSoC4/BootISR.c **** *
 107:.\Generated_Source\PSoC4/BootISR.c **** * Return:
 108:.\Generated_Source\PSoC4/BootISR.c **** *   None
 109:.\Generated_Source\PSoC4/BootISR.c **** *
 110:.\Generated_Source\PSoC4/BootISR.c **** *******************************************************************************/
 111:.\Generated_Source\PSoC4/BootISR.c **** void BootISR_Stop(void)
 112:.\Generated_Source\PSoC4/BootISR.c **** {
 113:.\Generated_Source\PSoC4/BootISR.c ****     /* Disable this interrupt. */
 114:.\Generated_Source\PSoC4/BootISR.c ****     BootISR_Disable();
 115:.\Generated_Source\PSoC4/BootISR.c **** 
 116:.\Generated_Source\PSoC4/BootISR.c ****     /* Set the ISR to point to the passive one. */
 117:.\Generated_Source\PSoC4/BootISR.c ****     BootISR_SetVector(&IntDefaultHandler);
 118:.\Generated_Source\PSoC4/BootISR.c **** }
 119:.\Generated_Source\PSoC4/BootISR.c **** 
 120:.\Generated_Source\PSoC4/BootISR.c **** 
 121:.\Generated_Source\PSoC4/BootISR.c **** /*******************************************************************************
 122:.\Generated_Source\PSoC4/BootISR.c **** * Function Name: BootISR_Interrupt
 123:.\Generated_Source\PSoC4/BootISR.c **** ********************************************************************************
 124:.\Generated_Source\PSoC4/BootISR.c **** *
 125:.\Generated_Source\PSoC4/BootISR.c **** * Summary:
 126:.\Generated_Source\PSoC4/BootISR.c **** *   The default Interrupt Service Routine for BootISR.
 127:.\Generated_Source\PSoC4/BootISR.c **** *
 128:.\Generated_Source\PSoC4/BootISR.c **** *   Add custom code between the coments to keep the next version of this file
 129:.\Generated_Source\PSoC4/BootISR.c **** *   from over writting your code.
 130:.\Generated_Source\PSoC4/BootISR.c **** *
 131:.\Generated_Source\PSoC4/BootISR.c **** * Parameters:  
 132:.\Generated_Source\PSoC4/BootISR.c **** *   None
 133:.\Generated_Source\PSoC4/BootISR.c **** *
 134:.\Generated_Source\PSoC4/BootISR.c **** * Return:
 135:.\Generated_Source\PSoC4/BootISR.c **** *   None
 136:.\Generated_Source\PSoC4/BootISR.c **** *
 137:.\Generated_Source\PSoC4/BootISR.c **** *******************************************************************************/
 138:.\Generated_Source\PSoC4/BootISR.c **** CY_ISR(BootISR_Interrupt)
 139:.\Generated_Source\PSoC4/BootISR.c **** {
  26              		.loc 1 139 0
  27              		.cfi_startproc
  28 0000 08B5     		push	{r3, lr}
  29              		.cfi_def_cfa_offset 8
  30              		.cfi_offset 3, -8
  31              		.cfi_offset 14, -4
 140:.\Generated_Source\PSoC4/BootISR.c ****     /*  Place your Interrupt code here. */
ARM GAS  C:\Users\Sven\AppData\Local\Temp\ccLmNdIP.s 			page 4


 141:.\Generated_Source\PSoC4/BootISR.c ****     /* `#START BootISR_Interrupt` */
 142:.\Generated_Source\PSoC4/BootISR.c ****     SW1_ClearInterrupt();
  32              		.loc 1 142 0
  33 0002 FFF7FEFF 		bl	SW1_ClearInterrupt
  34              	.LVL0:
 143:.\Generated_Source\PSoC4/BootISR.c ****     UART_1_UartPutString("Boot\r\n");
  35              		.loc 1 143 0
  36 0006 0448     		ldr	r0, .L2
  37 0008 FFF7FEFF 		bl	UART_1_UartPutString
  38              	.LVL1:
 144:.\Generated_Source\PSoC4/BootISR.c ****     CyDelay(100);    
  39              		.loc 1 144 0
  40 000c 6420     		mov	r0, #100
  41 000e FFF7FEFF 		bl	CyDelay
  42              	.LVL2:
 145:.\Generated_Source\PSoC4/BootISR.c ****     Bootloadable_1_Load();
 146:.\Generated_Source\PSoC4/BootISR.c ****     /* `#END` */
 147:.\Generated_Source\PSoC4/BootISR.c **** }
  43              		.loc 1 147 0
  44              		@ sp needed
 145:.\Generated_Source\PSoC4/BootISR.c ****     Bootloadable_1_Load();
  45              		.loc 1 145 0
  46 0012 FFF7FEFF 		bl	Bootloadable_1_Load
  47              	.LVL3:
  48              		.loc 1 147 0
  49 0016 08BD     		pop	{r3, pc}
  50              	.L3:
  51              		.align	2
  52              	.L2:
  53 0018 00000000 		.word	.LC0
  54              		.cfi_endproc
  55              	.LFE36:
  56              		.size	BootISR_Interrupt, .-BootISR_Interrupt
  57              		.section	.text.BootISR_Stop,"ax",%progbits
  58              		.align	1
  59              		.global	BootISR_Stop
  60              		.code	16
  61              		.thumb_func
  62              		.type	BootISR_Stop, %function
  63              	BootISR_Stop:
  64              	.LFB35:
 112:.\Generated_Source\PSoC4/BootISR.c **** {
  65              		.loc 1 112 0
  66              		.cfi_startproc
  67              	.LBB18:
  68              	.LBB19:
 148:.\Generated_Source\PSoC4/BootISR.c **** 
 149:.\Generated_Source\PSoC4/BootISR.c **** 
 150:.\Generated_Source\PSoC4/BootISR.c **** /*******************************************************************************
 151:.\Generated_Source\PSoC4/BootISR.c **** * Function Name: BootISR_SetVector
 152:.\Generated_Source\PSoC4/BootISR.c **** ********************************************************************************
 153:.\Generated_Source\PSoC4/BootISR.c **** *
 154:.\Generated_Source\PSoC4/BootISR.c **** * Summary:
 155:.\Generated_Source\PSoC4/BootISR.c **** *   Change the ISR vector for the Interrupt. Note calling BootISR_Start
 156:.\Generated_Source\PSoC4/BootISR.c **** *   will override any effect this method would have had. To set the vector 
 157:.\Generated_Source\PSoC4/BootISR.c **** *   before the component has been started use BootISR_StartEx instead.
 158:.\Generated_Source\PSoC4/BootISR.c **** *
ARM GAS  C:\Users\Sven\AppData\Local\Temp\ccLmNdIP.s 			page 5


 159:.\Generated_Source\PSoC4/BootISR.c **** * Parameters:
 160:.\Generated_Source\PSoC4/BootISR.c **** *   address: Address of the ISR to set in the interrupt vector table.
 161:.\Generated_Source\PSoC4/BootISR.c **** *
 162:.\Generated_Source\PSoC4/BootISR.c **** * Return:
 163:.\Generated_Source\PSoC4/BootISR.c **** *   None
 164:.\Generated_Source\PSoC4/BootISR.c **** *
 165:.\Generated_Source\PSoC4/BootISR.c **** *******************************************************************************/
 166:.\Generated_Source\PSoC4/BootISR.c **** void BootISR_SetVector(cyisraddress address)
 167:.\Generated_Source\PSoC4/BootISR.c **** {
 168:.\Generated_Source\PSoC4/BootISR.c ****     CyRamVectors[CYINT_IRQ_BASE + BootISR__INTC_NUMBER] = address;
 169:.\Generated_Source\PSoC4/BootISR.c **** }
 170:.\Generated_Source\PSoC4/BootISR.c **** 
 171:.\Generated_Source\PSoC4/BootISR.c **** 
 172:.\Generated_Source\PSoC4/BootISR.c **** /*******************************************************************************
 173:.\Generated_Source\PSoC4/BootISR.c **** * Function Name: BootISR_GetVector
 174:.\Generated_Source\PSoC4/BootISR.c **** ********************************************************************************
 175:.\Generated_Source\PSoC4/BootISR.c **** *
 176:.\Generated_Source\PSoC4/BootISR.c **** * Summary:
 177:.\Generated_Source\PSoC4/BootISR.c **** *   Gets the "address" of the current ISR vector for the Interrupt.
 178:.\Generated_Source\PSoC4/BootISR.c **** *
 179:.\Generated_Source\PSoC4/BootISR.c **** * Parameters:
 180:.\Generated_Source\PSoC4/BootISR.c **** *   None
 181:.\Generated_Source\PSoC4/BootISR.c **** *
 182:.\Generated_Source\PSoC4/BootISR.c **** * Return:
 183:.\Generated_Source\PSoC4/BootISR.c **** *   Address of the ISR in the interrupt vector table.
 184:.\Generated_Source\PSoC4/BootISR.c **** *
 185:.\Generated_Source\PSoC4/BootISR.c **** *******************************************************************************/
 186:.\Generated_Source\PSoC4/BootISR.c **** cyisraddress BootISR_GetVector(void)
 187:.\Generated_Source\PSoC4/BootISR.c **** {
 188:.\Generated_Source\PSoC4/BootISR.c ****     return CyRamVectors[CYINT_IRQ_BASE + BootISR__INTC_NUMBER];
 189:.\Generated_Source\PSoC4/BootISR.c **** }
 190:.\Generated_Source\PSoC4/BootISR.c **** 
 191:.\Generated_Source\PSoC4/BootISR.c **** 
 192:.\Generated_Source\PSoC4/BootISR.c **** /*******************************************************************************
 193:.\Generated_Source\PSoC4/BootISR.c **** * Function Name: BootISR_SetPriority
 194:.\Generated_Source\PSoC4/BootISR.c **** ********************************************************************************
 195:.\Generated_Source\PSoC4/BootISR.c **** *
 196:.\Generated_Source\PSoC4/BootISR.c **** * Summary:
 197:.\Generated_Source\PSoC4/BootISR.c **** *   Sets the Priority of the Interrupt. Note calling BootISR_Start
 198:.\Generated_Source\PSoC4/BootISR.c **** *   or BootISR_StartEx will override any effect this method would 
 199:.\Generated_Source\PSoC4/BootISR.c **** *   have had. This method should only be called after BootISR_Start or 
 200:.\Generated_Source\PSoC4/BootISR.c **** *   BootISR_StartEx has been called. To set the initial
 201:.\Generated_Source\PSoC4/BootISR.c **** *   priority for the component use the cydwr file in the tool.
 202:.\Generated_Source\PSoC4/BootISR.c **** *
 203:.\Generated_Source\PSoC4/BootISR.c **** * Parameters:
 204:.\Generated_Source\PSoC4/BootISR.c **** *   priority: Priority of the interrupt. 0 - 3, 0 being the highest.
 205:.\Generated_Source\PSoC4/BootISR.c **** *
 206:.\Generated_Source\PSoC4/BootISR.c **** * Return:
 207:.\Generated_Source\PSoC4/BootISR.c **** *   None
 208:.\Generated_Source\PSoC4/BootISR.c **** *
 209:.\Generated_Source\PSoC4/BootISR.c **** *******************************************************************************/
 210:.\Generated_Source\PSoC4/BootISR.c **** void BootISR_SetPriority(uint8 priority)
 211:.\Generated_Source\PSoC4/BootISR.c **** {
 212:.\Generated_Source\PSoC4/BootISR.c **** 	uint8 interruptState;
 213:.\Generated_Source\PSoC4/BootISR.c ****     uint32 priorityOffset = ((BootISR__INTC_NUMBER % 4u) * 8u) + 6u;
 214:.\Generated_Source\PSoC4/BootISR.c ****     
 215:.\Generated_Source\PSoC4/BootISR.c **** 	interruptState = CyEnterCriticalSection();
ARM GAS  C:\Users\Sven\AppData\Local\Temp\ccLmNdIP.s 			page 6


 216:.\Generated_Source\PSoC4/BootISR.c ****     *BootISR_INTC_PRIOR = (*BootISR_INTC_PRIOR & (uint32)(~BootISR__INTC_PRIOR_MASK)) |
 217:.\Generated_Source\PSoC4/BootISR.c ****                                     ((uint32)priority << priorityOffset);
 218:.\Generated_Source\PSoC4/BootISR.c **** 	CyExitCriticalSection(interruptState);
 219:.\Generated_Source\PSoC4/BootISR.c **** }
 220:.\Generated_Source\PSoC4/BootISR.c **** 
 221:.\Generated_Source\PSoC4/BootISR.c **** 
 222:.\Generated_Source\PSoC4/BootISR.c **** /*******************************************************************************
 223:.\Generated_Source\PSoC4/BootISR.c **** * Function Name: BootISR_GetPriority
 224:.\Generated_Source\PSoC4/BootISR.c **** ********************************************************************************
 225:.\Generated_Source\PSoC4/BootISR.c **** *
 226:.\Generated_Source\PSoC4/BootISR.c **** * Summary:
 227:.\Generated_Source\PSoC4/BootISR.c **** *   Gets the Priority of the Interrupt.
 228:.\Generated_Source\PSoC4/BootISR.c **** *
 229:.\Generated_Source\PSoC4/BootISR.c **** * Parameters:
 230:.\Generated_Source\PSoC4/BootISR.c **** *   None
 231:.\Generated_Source\PSoC4/BootISR.c **** *
 232:.\Generated_Source\PSoC4/BootISR.c **** * Return:
 233:.\Generated_Source\PSoC4/BootISR.c **** *   Priority of the interrupt. 0 - 3, 0 being the highest.
 234:.\Generated_Source\PSoC4/BootISR.c **** *
 235:.\Generated_Source\PSoC4/BootISR.c **** *******************************************************************************/
 236:.\Generated_Source\PSoC4/BootISR.c **** uint8 BootISR_GetPriority(void)
 237:.\Generated_Source\PSoC4/BootISR.c **** {
 238:.\Generated_Source\PSoC4/BootISR.c ****     uint32 priority;
 239:.\Generated_Source\PSoC4/BootISR.c **** 	uint32 priorityOffset = ((BootISR__INTC_NUMBER % 4u) * 8u) + 6u;
 240:.\Generated_Source\PSoC4/BootISR.c **** 
 241:.\Generated_Source\PSoC4/BootISR.c ****     priority = (*BootISR_INTC_PRIOR & BootISR__INTC_PRIOR_MASK) >> priorityOffset;
 242:.\Generated_Source\PSoC4/BootISR.c **** 
 243:.\Generated_Source\PSoC4/BootISR.c ****     return (uint8)priority;
 244:.\Generated_Source\PSoC4/BootISR.c **** }
 245:.\Generated_Source\PSoC4/BootISR.c **** 
 246:.\Generated_Source\PSoC4/BootISR.c **** 
 247:.\Generated_Source\PSoC4/BootISR.c **** /*******************************************************************************
 248:.\Generated_Source\PSoC4/BootISR.c **** * Function Name: BootISR_Enable
 249:.\Generated_Source\PSoC4/BootISR.c **** ********************************************************************************
 250:.\Generated_Source\PSoC4/BootISR.c **** *
 251:.\Generated_Source\PSoC4/BootISR.c **** * Summary:
 252:.\Generated_Source\PSoC4/BootISR.c **** *   Enables the interrupt.
 253:.\Generated_Source\PSoC4/BootISR.c **** *
 254:.\Generated_Source\PSoC4/BootISR.c **** * Parameters:
 255:.\Generated_Source\PSoC4/BootISR.c **** *   None
 256:.\Generated_Source\PSoC4/BootISR.c **** *
 257:.\Generated_Source\PSoC4/BootISR.c **** * Return:
 258:.\Generated_Source\PSoC4/BootISR.c **** *   None
 259:.\Generated_Source\PSoC4/BootISR.c **** *
 260:.\Generated_Source\PSoC4/BootISR.c **** *******************************************************************************/
 261:.\Generated_Source\PSoC4/BootISR.c **** void BootISR_Enable(void)
 262:.\Generated_Source\PSoC4/BootISR.c **** {
 263:.\Generated_Source\PSoC4/BootISR.c ****     /* Enable the general interrupt. */
 264:.\Generated_Source\PSoC4/BootISR.c ****     *BootISR_INTC_SET_EN = BootISR__INTC_MASK;
 265:.\Generated_Source\PSoC4/BootISR.c **** }
 266:.\Generated_Source\PSoC4/BootISR.c **** 
 267:.\Generated_Source\PSoC4/BootISR.c **** 
 268:.\Generated_Source\PSoC4/BootISR.c **** /*******************************************************************************
 269:.\Generated_Source\PSoC4/BootISR.c **** * Function Name: BootISR_GetState
 270:.\Generated_Source\PSoC4/BootISR.c **** ********************************************************************************
 271:.\Generated_Source\PSoC4/BootISR.c **** *
 272:.\Generated_Source\PSoC4/BootISR.c **** * Summary:
ARM GAS  C:\Users\Sven\AppData\Local\Temp\ccLmNdIP.s 			page 7


 273:.\Generated_Source\PSoC4/BootISR.c **** *   Gets the state (enabled, disabled) of the Interrupt.
 274:.\Generated_Source\PSoC4/BootISR.c **** *
 275:.\Generated_Source\PSoC4/BootISR.c **** * Parameters:
 276:.\Generated_Source\PSoC4/BootISR.c **** *   None
 277:.\Generated_Source\PSoC4/BootISR.c **** *
 278:.\Generated_Source\PSoC4/BootISR.c **** * Return:
 279:.\Generated_Source\PSoC4/BootISR.c **** *   1 if enabled, 0 if disabled.
 280:.\Generated_Source\PSoC4/BootISR.c **** *
 281:.\Generated_Source\PSoC4/BootISR.c **** *******************************************************************************/
 282:.\Generated_Source\PSoC4/BootISR.c **** uint8 BootISR_GetState(void)
 283:.\Generated_Source\PSoC4/BootISR.c **** {
 284:.\Generated_Source\PSoC4/BootISR.c ****     /* Get the state of the general interrupt. */
 285:.\Generated_Source\PSoC4/BootISR.c ****     return ((*BootISR_INTC_SET_EN & (uint32)BootISR__INTC_MASK) != 0u) ? 1u:0u;
 286:.\Generated_Source\PSoC4/BootISR.c **** }
 287:.\Generated_Source\PSoC4/BootISR.c **** 
 288:.\Generated_Source\PSoC4/BootISR.c **** 
 289:.\Generated_Source\PSoC4/BootISR.c **** /*******************************************************************************
 290:.\Generated_Source\PSoC4/BootISR.c **** * Function Name: BootISR_Disable
 291:.\Generated_Source\PSoC4/BootISR.c **** ********************************************************************************
 292:.\Generated_Source\PSoC4/BootISR.c **** *
 293:.\Generated_Source\PSoC4/BootISR.c **** * Summary:
 294:.\Generated_Source\PSoC4/BootISR.c **** *   Disables the Interrupt.
 295:.\Generated_Source\PSoC4/BootISR.c **** *
 296:.\Generated_Source\PSoC4/BootISR.c **** * Parameters:
 297:.\Generated_Source\PSoC4/BootISR.c **** *   None
 298:.\Generated_Source\PSoC4/BootISR.c **** *
 299:.\Generated_Source\PSoC4/BootISR.c **** * Return:
 300:.\Generated_Source\PSoC4/BootISR.c **** *   None
 301:.\Generated_Source\PSoC4/BootISR.c **** *
 302:.\Generated_Source\PSoC4/BootISR.c **** *******************************************************************************/
 303:.\Generated_Source\PSoC4/BootISR.c **** void BootISR_Disable(void)
 304:.\Generated_Source\PSoC4/BootISR.c **** {
 305:.\Generated_Source\PSoC4/BootISR.c ****     /* Disable the general interrupt. */
 306:.\Generated_Source\PSoC4/BootISR.c ****     *BootISR_INTC_CLR_EN = BootISR__INTC_MASK;
  69              		.loc 1 306 0
  70 0000 034B     		ldr	r3, .L5
  71 0002 0122     		mov	r2, #1
  72 0004 1A60     		str	r2, [r3]
  73              	.LVL4:
  74              	.LBE19:
  75              	.LBE18:
  76              	.LBB20:
  77              	.LBB21:
 168:.\Generated_Source\PSoC4/BootISR.c ****     CyRamVectors[CYINT_IRQ_BASE + BootISR__INTC_NUMBER] = address;
  78              		.loc 1 168 0
  79 0006 034A     		ldr	r2, .L5+4
  80 0008 034B     		ldr	r3, .L5+8
  81              	.LBE21:
  82              	.LBE20:
 118:.\Generated_Source\PSoC4/BootISR.c **** }
  83              		.loc 1 118 0
  84              		@ sp needed
  85              	.LBB23:
  86              	.LBB22:
 168:.\Generated_Source\PSoC4/BootISR.c ****     CyRamVectors[CYINT_IRQ_BASE + BootISR__INTC_NUMBER] = address;
  87              		.loc 1 168 0
  88 000a 1A64     		str	r2, [r3, #64]
ARM GAS  C:\Users\Sven\AppData\Local\Temp\ccLmNdIP.s 			page 8


  89              	.LBE22:
  90              	.LBE23:
 118:.\Generated_Source\PSoC4/BootISR.c **** }
  91              		.loc 1 118 0
  92 000c 7047     		bx	lr
  93              	.L6:
  94 000e C046     		.align	2
  95              	.L5:
  96 0010 80E100E0 		.word	-536813184
  97 0014 00000000 		.word	IntDefaultHandler
  98 0018 00000000 		.word	CyRamVectors
  99              		.cfi_endproc
 100              	.LFE35:
 101              		.size	BootISR_Stop, .-BootISR_Stop
 102              		.section	.text.BootISR_SetVector,"ax",%progbits
 103              		.align	1
 104              		.global	BootISR_SetVector
 105              		.code	16
 106              		.thumb_func
 107              		.type	BootISR_SetVector, %function
 108              	BootISR_SetVector:
 109              	.LFB37:
 167:.\Generated_Source\PSoC4/BootISR.c **** {
 110              		.loc 1 167 0
 111              		.cfi_startproc
 112              	.LVL5:
 168:.\Generated_Source\PSoC4/BootISR.c ****     CyRamVectors[CYINT_IRQ_BASE + BootISR__INTC_NUMBER] = address;
 113              		.loc 1 168 0
 114 0000 014B     		ldr	r3, .L8
 169:.\Generated_Source\PSoC4/BootISR.c **** }
 115              		.loc 1 169 0
 116              		@ sp needed
 168:.\Generated_Source\PSoC4/BootISR.c ****     CyRamVectors[CYINT_IRQ_BASE + BootISR__INTC_NUMBER] = address;
 117              		.loc 1 168 0
 118 0002 1864     		str	r0, [r3, #64]
 169:.\Generated_Source\PSoC4/BootISR.c **** }
 119              		.loc 1 169 0
 120 0004 7047     		bx	lr
 121              	.L9:
 122 0006 C046     		.align	2
 123              	.L8:
 124 0008 00000000 		.word	CyRamVectors
 125              		.cfi_endproc
 126              	.LFE37:
 127              		.size	BootISR_SetVector, .-BootISR_SetVector
 128              		.section	.text.BootISR_GetVector,"ax",%progbits
 129              		.align	1
 130              		.global	BootISR_GetVector
 131              		.code	16
 132              		.thumb_func
 133              		.type	BootISR_GetVector, %function
 134              	BootISR_GetVector:
 135              	.LFB38:
 187:.\Generated_Source\PSoC4/BootISR.c **** {
 136              		.loc 1 187 0
 137              		.cfi_startproc
 188:.\Generated_Source\PSoC4/BootISR.c ****     return CyRamVectors[CYINT_IRQ_BASE + BootISR__INTC_NUMBER];
ARM GAS  C:\Users\Sven\AppData\Local\Temp\ccLmNdIP.s 			page 9


 138              		.loc 1 188 0
 139 0000 014B     		ldr	r3, .L11
 189:.\Generated_Source\PSoC4/BootISR.c **** }
 140              		.loc 1 189 0
 141              		@ sp needed
 188:.\Generated_Source\PSoC4/BootISR.c ****     return CyRamVectors[CYINT_IRQ_BASE + BootISR__INTC_NUMBER];
 142              		.loc 1 188 0
 143 0002 186C     		ldr	r0, [r3, #64]
 189:.\Generated_Source\PSoC4/BootISR.c **** }
 144              		.loc 1 189 0
 145 0004 7047     		bx	lr
 146              	.L12:
 147 0006 C046     		.align	2
 148              	.L11:
 149 0008 00000000 		.word	CyRamVectors
 150              		.cfi_endproc
 151              	.LFE38:
 152              		.size	BootISR_GetVector, .-BootISR_GetVector
 153              		.section	.text.BootISR_SetPriority,"ax",%progbits
 154              		.align	1
 155              		.global	BootISR_SetPriority
 156              		.code	16
 157              		.thumb_func
 158              		.type	BootISR_SetPriority, %function
 159              	BootISR_SetPriority:
 160              	.LFB39:
 211:.\Generated_Source\PSoC4/BootISR.c **** {
 161              		.loc 1 211 0
 162              		.cfi_startproc
 163              	.LVL6:
 164 0000 10B5     		push	{r4, lr}
 165              		.cfi_def_cfa_offset 8
 166              		.cfi_offset 4, -8
 167              		.cfi_offset 14, -4
 211:.\Generated_Source\PSoC4/BootISR.c **** {
 168              		.loc 1 211 0
 169 0002 041C     		mov	r4, r0
 215:.\Generated_Source\PSoC4/BootISR.c **** 	interruptState = CyEnterCriticalSection();
 170              		.loc 1 215 0
 171 0004 FFF7FEFF 		bl	CyEnterCriticalSection
 172              	.LVL7:
 216:.\Generated_Source\PSoC4/BootISR.c ****     *BootISR_INTC_PRIOR = (*BootISR_INTC_PRIOR & (uint32)(~BootISR__INTC_PRIOR_MASK)) |
 173              		.loc 1 216 0
 174 0008 054B     		ldr	r3, .L14
 217:.\Generated_Source\PSoC4/BootISR.c ****                                     ((uint32)priority << priorityOffset);
 175              		.loc 1 217 0
 176 000a A201     		lsl	r2, r4, #6
 216:.\Generated_Source\PSoC4/BootISR.c ****     *BootISR_INTC_PRIOR = (*BootISR_INTC_PRIOR & (uint32)(~BootISR__INTC_PRIOR_MASK)) |
 177              		.loc 1 216 0
 178 000c 1968     		ldr	r1, [r3]
 179 000e C024     		mov	r4, #192
 180 0010 A143     		bic	r1, r4
 181 0012 0C1C     		mov	r4, r1
 182 0014 1443     		orr	r4, r2
 183 0016 1C60     		str	r4, [r3]
 218:.\Generated_Source\PSoC4/BootISR.c **** 	CyExitCriticalSection(interruptState);
 184              		.loc 1 218 0
ARM GAS  C:\Users\Sven\AppData\Local\Temp\ccLmNdIP.s 			page 10


 185 0018 FFF7FEFF 		bl	CyExitCriticalSection
 186              	.LVL8:
 219:.\Generated_Source\PSoC4/BootISR.c **** }
 187              		.loc 1 219 0
 188              		@ sp needed
 189 001c 10BD     		pop	{r4, pc}
 190              	.L15:
 191 001e C046     		.align	2
 192              	.L14:
 193 0020 00E400E0 		.word	-536812544
 194              		.cfi_endproc
 195              	.LFE39:
 196              		.size	BootISR_SetPriority, .-BootISR_SetPriority
 197              		.section	.text.BootISR_Start,"ax",%progbits
 198              		.align	1
 199              		.global	BootISR_Start
 200              		.code	16
 201              		.thumb_func
 202              		.type	BootISR_Start, %function
 203              	BootISR_Start:
 204              	.LFB33:
  53:.\Generated_Source\PSoC4/BootISR.c **** {
 205              		.loc 1 53 0
 206              		.cfi_startproc
 207              	.LBB24:
 208              	.LBB25:
 209              		.loc 1 306 0
 210 0000 064B     		ldr	r3, .L17
 211              	.LBE25:
 212              	.LBE24:
  53:.\Generated_Source\PSoC4/BootISR.c **** {
 213              		.loc 1 53 0
 214 0002 10B5     		push	{r4, lr}
 215              		.cfi_def_cfa_offset 8
 216              		.cfi_offset 4, -8
 217              		.cfi_offset 14, -4
 218              	.LBB27:
 219              	.LBB26:
 220              		.loc 1 306 0
 221 0004 0124     		mov	r4, #1
 222 0006 1C60     		str	r4, [r3]
 223              	.LVL9:
 224              	.LBE26:
 225              	.LBE27:
 226              	.LBB28:
 227              	.LBB29:
 168:.\Generated_Source\PSoC4/BootISR.c ****     CyRamVectors[CYINT_IRQ_BASE + BootISR__INTC_NUMBER] = address;
 228              		.loc 1 168 0
 229 0008 054A     		ldr	r2, .L17+4
 230 000a 064B     		ldr	r3, .L17+8
 231              	.LBE29:
 232              	.LBE28:
  61:.\Generated_Source\PSoC4/BootISR.c ****     BootISR_SetPriority((uint8)BootISR_INTC_PRIOR_NUMBER);
 233              		.loc 1 61 0
 234 000c 0320     		mov	r0, #3
 235              	.LBB31:
 236              	.LBB30:
ARM GAS  C:\Users\Sven\AppData\Local\Temp\ccLmNdIP.s 			page 11


 168:.\Generated_Source\PSoC4/BootISR.c ****     CyRamVectors[CYINT_IRQ_BASE + BootISR__INTC_NUMBER] = address;
 237              		.loc 1 168 0
 238 000e 1A64     		str	r2, [r3, #64]
 239              	.LBE30:
 240              	.LBE31:
  61:.\Generated_Source\PSoC4/BootISR.c ****     BootISR_SetPriority((uint8)BootISR_INTC_PRIOR_NUMBER);
 241              		.loc 1 61 0
 242 0010 FFF7FEFF 		bl	BootISR_SetPriority
 243              	.LVL10:
 244              	.LBB32:
 245              	.LBB33:
 264:.\Generated_Source\PSoC4/BootISR.c ****     *BootISR_INTC_SET_EN = BootISR__INTC_MASK;
 246              		.loc 1 264 0
 247 0014 044B     		ldr	r3, .L17+12
 248              	.LBE33:
 249              	.LBE32:
  65:.\Generated_Source\PSoC4/BootISR.c **** }
 250              		.loc 1 65 0
 251              		@ sp needed
 252              	.LBB35:
 253              	.LBB34:
 264:.\Generated_Source\PSoC4/BootISR.c ****     *BootISR_INTC_SET_EN = BootISR__INTC_MASK;
 254              		.loc 1 264 0
 255 0016 1C60     		str	r4, [r3]
 256              	.LBE34:
 257              	.LBE35:
  65:.\Generated_Source\PSoC4/BootISR.c **** }
 258              		.loc 1 65 0
 259 0018 10BD     		pop	{r4, pc}
 260              	.L18:
 261 001a C046     		.align	2
 262              	.L17:
 263 001c 80E100E0 		.word	-536813184
 264 0020 00000000 		.word	BootISR_Interrupt
 265 0024 00000000 		.word	CyRamVectors
 266 0028 00E100E0 		.word	-536813312
 267              		.cfi_endproc
 268              	.LFE33:
 269              		.size	BootISR_Start, .-BootISR_Start
 270              		.section	.text.BootISR_StartEx,"ax",%progbits
 271              		.align	1
 272              		.global	BootISR_StartEx
 273              		.code	16
 274              		.thumb_func
 275              		.type	BootISR_StartEx, %function
 276              	BootISR_StartEx:
 277              	.LFB34:
  83:.\Generated_Source\PSoC4/BootISR.c **** {
 278              		.loc 1 83 0
 279              		.cfi_startproc
 280              	.LVL11:
 281              	.LBB36:
 282              	.LBB37:
 283              		.loc 1 306 0
 284 0000 054B     		ldr	r3, .L20
 285              	.LBE37:
 286              	.LBE36:
ARM GAS  C:\Users\Sven\AppData\Local\Temp\ccLmNdIP.s 			page 12


  83:.\Generated_Source\PSoC4/BootISR.c **** {
 287              		.loc 1 83 0
 288 0002 10B5     		push	{r4, lr}
 289              		.cfi_def_cfa_offset 8
 290              		.cfi_offset 4, -8
 291              		.cfi_offset 14, -4
 292              	.LBB39:
 293              	.LBB38:
 294              		.loc 1 306 0
 295 0004 0124     		mov	r4, #1
 296 0006 1C60     		str	r4, [r3]
 297              	.LVL12:
 298              	.LBE38:
 299              	.LBE39:
 300              	.LBB40:
 301              	.LBB41:
 168:.\Generated_Source\PSoC4/BootISR.c ****     CyRamVectors[CYINT_IRQ_BASE + BootISR__INTC_NUMBER] = address;
 302              		.loc 1 168 0
 303 0008 044B     		ldr	r3, .L20+4
 304              	.LBE41:
 305              	.LBE40:
  95:.\Generated_Source\PSoC4/BootISR.c **** }
 306              		.loc 1 95 0
 307              		@ sp needed
 308              	.LBB43:
 309              	.LBB42:
 168:.\Generated_Source\PSoC4/BootISR.c ****     CyRamVectors[CYINT_IRQ_BASE + BootISR__INTC_NUMBER] = address;
 310              		.loc 1 168 0
 311 000a 1864     		str	r0, [r3, #64]
 312              	.LBE42:
 313              	.LBE43:
  91:.\Generated_Source\PSoC4/BootISR.c ****     BootISR_SetPriority((uint8)BootISR_INTC_PRIOR_NUMBER);
 314              		.loc 1 91 0
 315 000c 0320     		mov	r0, #3
 316              	.LVL13:
 317 000e FFF7FEFF 		bl	BootISR_SetPriority
 318              	.LVL14:
 319              	.LBB44:
 320              	.LBB45:
 264:.\Generated_Source\PSoC4/BootISR.c ****     *BootISR_INTC_SET_EN = BootISR__INTC_MASK;
 321              		.loc 1 264 0
 322 0012 034B     		ldr	r3, .L20+8
 323 0014 1C60     		str	r4, [r3]
 324              	.LBE45:
 325              	.LBE44:
  95:.\Generated_Source\PSoC4/BootISR.c **** }
 326              		.loc 1 95 0
 327 0016 10BD     		pop	{r4, pc}
 328              	.L21:
 329              		.align	2
 330              	.L20:
 331 0018 80E100E0 		.word	-536813184
 332 001c 00000000 		.word	CyRamVectors
 333 0020 00E100E0 		.word	-536813312
 334              		.cfi_endproc
 335              	.LFE34:
 336              		.size	BootISR_StartEx, .-BootISR_StartEx
ARM GAS  C:\Users\Sven\AppData\Local\Temp\ccLmNdIP.s 			page 13


 337              		.section	.text.BootISR_GetPriority,"ax",%progbits
 338              		.align	1
 339              		.global	BootISR_GetPriority
 340              		.code	16
 341              		.thumb_func
 342              		.type	BootISR_GetPriority, %function
 343              	BootISR_GetPriority:
 344              	.LFB40:
 237:.\Generated_Source\PSoC4/BootISR.c **** {
 345              		.loc 1 237 0
 346              		.cfi_startproc
 347              	.LVL15:
 241:.\Generated_Source\PSoC4/BootISR.c ****     priority = (*BootISR_INTC_PRIOR & BootISR__INTC_PRIOR_MASK) >> priorityOffset;
 348              		.loc 1 241 0
 349 0000 024B     		ldr	r3, .L23
 244:.\Generated_Source\PSoC4/BootISR.c **** }
 350              		.loc 1 244 0
 351              		@ sp needed
 241:.\Generated_Source\PSoC4/BootISR.c ****     priority = (*BootISR_INTC_PRIOR & BootISR__INTC_PRIOR_MASK) >> priorityOffset;
 352              		.loc 1 241 0
 353 0002 1868     		ldr	r0, [r3]
 354              	.LVL16:
 355 0004 0006     		lsl	r0, r0, #24
 356              	.LVL17:
 243:.\Generated_Source\PSoC4/BootISR.c ****     return (uint8)priority;
 357              		.loc 1 243 0
 358 0006 800F     		lsr	r0, r0, #30
 244:.\Generated_Source\PSoC4/BootISR.c **** }
 359              		.loc 1 244 0
 360 0008 7047     		bx	lr
 361              	.L24:
 362 000a C046     		.align	2
 363              	.L23:
 364 000c 00E400E0 		.word	-536812544
 365              		.cfi_endproc
 366              	.LFE40:
 367              		.size	BootISR_GetPriority, .-BootISR_GetPriority
 368              		.section	.text.BootISR_Enable,"ax",%progbits
 369              		.align	1
 370              		.global	BootISR_Enable
 371              		.code	16
 372              		.thumb_func
 373              		.type	BootISR_Enable, %function
 374              	BootISR_Enable:
 375              	.LFB41:
 262:.\Generated_Source\PSoC4/BootISR.c **** {
 376              		.loc 1 262 0
 377              		.cfi_startproc
 264:.\Generated_Source\PSoC4/BootISR.c ****     *BootISR_INTC_SET_EN = BootISR__INTC_MASK;
 378              		.loc 1 264 0
 379 0000 014B     		ldr	r3, .L26
 380 0002 0122     		mov	r2, #1
 381 0004 1A60     		str	r2, [r3]
 265:.\Generated_Source\PSoC4/BootISR.c **** }
 382              		.loc 1 265 0
 383              		@ sp needed
 384 0006 7047     		bx	lr
ARM GAS  C:\Users\Sven\AppData\Local\Temp\ccLmNdIP.s 			page 14


 385              	.L27:
 386              		.align	2
 387              	.L26:
 388 0008 00E100E0 		.word	-536813312
 389              		.cfi_endproc
 390              	.LFE41:
 391              		.size	BootISR_Enable, .-BootISR_Enable
 392              		.section	.text.BootISR_GetState,"ax",%progbits
 393              		.align	1
 394              		.global	BootISR_GetState
 395              		.code	16
 396              		.thumb_func
 397              		.type	BootISR_GetState, %function
 398              	BootISR_GetState:
 399              	.LFB42:
 283:.\Generated_Source\PSoC4/BootISR.c **** {
 400              		.loc 1 283 0
 401              		.cfi_startproc
 285:.\Generated_Source\PSoC4/BootISR.c ****     return ((*BootISR_INTC_SET_EN & (uint32)BootISR__INTC_MASK) != 0u) ? 1u:0u;
 402              		.loc 1 285 0
 403 0000 024B     		ldr	r3, .L29
 286:.\Generated_Source\PSoC4/BootISR.c **** }
 404              		.loc 1 286 0
 405              		@ sp needed
 285:.\Generated_Source\PSoC4/BootISR.c ****     return ((*BootISR_INTC_SET_EN & (uint32)BootISR__INTC_MASK) != 0u) ? 1u:0u;
 406              		.loc 1 285 0
 407 0002 1868     		ldr	r0, [r3]
 408 0004 0123     		mov	r3, #1
 409 0006 1840     		and	r0, r3
 286:.\Generated_Source\PSoC4/BootISR.c **** }
 410              		.loc 1 286 0
 411 0008 7047     		bx	lr
 412              	.L30:
 413 000a C046     		.align	2
 414              	.L29:
 415 000c 00E100E0 		.word	-536813312
 416              		.cfi_endproc
 417              	.LFE42:
 418              		.size	BootISR_GetState, .-BootISR_GetState
 419              		.section	.text.BootISR_Disable,"ax",%progbits
 420              		.align	1
 421              		.global	BootISR_Disable
 422              		.code	16
 423              		.thumb_func
 424              		.type	BootISR_Disable, %function
 425              	BootISR_Disable:
 426              	.LFB43:
 304:.\Generated_Source\PSoC4/BootISR.c **** {
 427              		.loc 1 304 0
 428              		.cfi_startproc
 429              		.loc 1 306 0
 430 0000 014B     		ldr	r3, .L32
 431 0002 0122     		mov	r2, #1
 432 0004 1A60     		str	r2, [r3]
 307:.\Generated_Source\PSoC4/BootISR.c **** }
 433              		.loc 1 307 0
 434              		@ sp needed
ARM GAS  C:\Users\Sven\AppData\Local\Temp\ccLmNdIP.s 			page 15


 435 0006 7047     		bx	lr
 436              	.L33:
 437              		.align	2
 438              	.L32:
 439 0008 80E100E0 		.word	-536813184
 440              		.cfi_endproc
 441              	.LFE43:
 442              		.size	BootISR_Disable, .-BootISR_Disable
 443              		.section	.text.BootISR_SetPending,"ax",%progbits
 444              		.align	1
 445              		.global	BootISR_SetPending
 446              		.code	16
 447              		.thumb_func
 448              		.type	BootISR_SetPending, %function
 449              	BootISR_SetPending:
 450              	.LFB44:
 308:.\Generated_Source\PSoC4/BootISR.c **** 
 309:.\Generated_Source\PSoC4/BootISR.c **** 
 310:.\Generated_Source\PSoC4/BootISR.c **** /*******************************************************************************
 311:.\Generated_Source\PSoC4/BootISR.c **** * Function Name: BootISR_SetPending
 312:.\Generated_Source\PSoC4/BootISR.c **** ********************************************************************************
 313:.\Generated_Source\PSoC4/BootISR.c **** *
 314:.\Generated_Source\PSoC4/BootISR.c **** * Summary:
 315:.\Generated_Source\PSoC4/BootISR.c **** *   Causes the Interrupt to enter the pending state, a software method of
 316:.\Generated_Source\PSoC4/BootISR.c **** *   generating the interrupt.
 317:.\Generated_Source\PSoC4/BootISR.c **** *
 318:.\Generated_Source\PSoC4/BootISR.c **** * Parameters:
 319:.\Generated_Source\PSoC4/BootISR.c **** *   None
 320:.\Generated_Source\PSoC4/BootISR.c **** *
 321:.\Generated_Source\PSoC4/BootISR.c **** * Return:
 322:.\Generated_Source\PSoC4/BootISR.c **** *   None
 323:.\Generated_Source\PSoC4/BootISR.c **** *
 324:.\Generated_Source\PSoC4/BootISR.c **** *******************************************************************************/
 325:.\Generated_Source\PSoC4/BootISR.c **** void BootISR_SetPending(void)
 326:.\Generated_Source\PSoC4/BootISR.c **** {
 451              		.loc 1 326 0
 452              		.cfi_startproc
 327:.\Generated_Source\PSoC4/BootISR.c ****     *BootISR_INTC_SET_PD = BootISR__INTC_MASK;
 453              		.loc 1 327 0
 454 0000 014B     		ldr	r3, .L35
 455 0002 0122     		mov	r2, #1
 456 0004 1A60     		str	r2, [r3]
 328:.\Generated_Source\PSoC4/BootISR.c **** }
 457              		.loc 1 328 0
 458              		@ sp needed
 459 0006 7047     		bx	lr
 460              	.L36:
 461              		.align	2
 462              	.L35:
 463 0008 00E200E0 		.word	-536813056
 464              		.cfi_endproc
 465              	.LFE44:
 466              		.size	BootISR_SetPending, .-BootISR_SetPending
 467              		.section	.text.BootISR_ClearPending,"ax",%progbits
 468              		.align	1
 469              		.global	BootISR_ClearPending
 470              		.code	16
ARM GAS  C:\Users\Sven\AppData\Local\Temp\ccLmNdIP.s 			page 16


 471              		.thumb_func
 472              		.type	BootISR_ClearPending, %function
 473              	BootISR_ClearPending:
 474              	.LFB45:
 329:.\Generated_Source\PSoC4/BootISR.c **** 
 330:.\Generated_Source\PSoC4/BootISR.c **** 
 331:.\Generated_Source\PSoC4/BootISR.c **** /*******************************************************************************
 332:.\Generated_Source\PSoC4/BootISR.c **** * Function Name: BootISR_ClearPending
 333:.\Generated_Source\PSoC4/BootISR.c **** ********************************************************************************
 334:.\Generated_Source\PSoC4/BootISR.c **** *
 335:.\Generated_Source\PSoC4/BootISR.c **** * Summary:
 336:.\Generated_Source\PSoC4/BootISR.c **** *   Clears a pending interrupt.
 337:.\Generated_Source\PSoC4/BootISR.c **** *
 338:.\Generated_Source\PSoC4/BootISR.c **** * Parameters:
 339:.\Generated_Source\PSoC4/BootISR.c **** *   None
 340:.\Generated_Source\PSoC4/BootISR.c **** *
 341:.\Generated_Source\PSoC4/BootISR.c **** * Return:
 342:.\Generated_Source\PSoC4/BootISR.c **** *   None
 343:.\Generated_Source\PSoC4/BootISR.c **** *
 344:.\Generated_Source\PSoC4/BootISR.c **** *******************************************************************************/
 345:.\Generated_Source\PSoC4/BootISR.c **** void BootISR_ClearPending(void)
 346:.\Generated_Source\PSoC4/BootISR.c **** {
 475              		.loc 1 346 0
 476              		.cfi_startproc
 347:.\Generated_Source\PSoC4/BootISR.c ****     *BootISR_INTC_CLR_PD = BootISR__INTC_MASK;
 477              		.loc 1 347 0
 478 0000 014B     		ldr	r3, .L38
 479 0002 0122     		mov	r2, #1
 480 0004 1A60     		str	r2, [r3]
 348:.\Generated_Source\PSoC4/BootISR.c **** }
 481              		.loc 1 348 0
 482              		@ sp needed
 483 0006 7047     		bx	lr
 484              	.L39:
 485              		.align	2
 486              	.L38:
 487 0008 80E200E0 		.word	-536812928
 488              		.cfi_endproc
 489              	.LFE45:
 490              		.size	BootISR_ClearPending, .-BootISR_ClearPending
 491              		.section	.rodata.str1.1,"aMS",%progbits,1
 492              	.LC0:
 493 0000 426F6F74 		.ascii	"Boot\015\012\000"
 493      0D0A00
 494              		.text
 495              	.Letext0:
 496              		.file 2 ".\\Generated_Source\\PSoC4/cytypes.h"
 497              		.file 3 ".\\Generated_Source\\PSoC4/UART_1_SPI_UART.h"
 498              		.file 4 ".\\Generated_Source\\PSoC4/CyLib.h"
 499              		.file 5 ".\\Generated_Source\\PSoC4/Bootloadable_1.h"
 500              		.file 6 ".\\Generated_Source\\PSoC4/SW1.h"