ARM GAS  C:\Users\SNFU\AppData\Local\Temp\ccQc6wyh.s 			page 1


   1              		.cpu cortex-m0
   2              		.fpu softvfp
   3              		.eabi_attribute 20, 1
   4              		.eabi_attribute 21, 1
   5              		.eabi_attribute 23, 3
   6              		.eabi_attribute 24, 1
   7              		.eabi_attribute 25, 1
   8              		.eabi_attribute 26, 1
   9              		.eabi_attribute 30, 4
  10              		.eabi_attribute 34, 0
  11              		.eabi_attribute 18, 4
  12              		.code	16
  13              		.file	"cyfitter_cfg.c"
  14              		.text
  15              	.Ltext0:
  16              		.cfi_sections	.debug_frame
  17              		.section	.psocinit,"ax",%progbits
  18              		.align	1
  19              		.global	cyfitter_cfg
  20              		.code	16
  21              		.thumb_func
  22              		.type	cyfitter_cfg, %function
  23              	cyfitter_cfg:
  24              	.LFB7:
  25              		.file 1 ".\\Generated_Source\\PSoC4\\cyfitter_cfg.c"
   1:.\Generated_Source\PSoC4/cyfitter_cfg.c **** /*******************************************************************************
   2:.\Generated_Source\PSoC4/cyfitter_cfg.c **** * FILENAME: cyfitter_cfg.c
   3:.\Generated_Source\PSoC4/cyfitter_cfg.c **** * PSoC Creator  3.1 SP1
   4:.\Generated_Source\PSoC4/cyfitter_cfg.c **** *
   5:.\Generated_Source\PSoC4/cyfitter_cfg.c **** * Description:
   6:.\Generated_Source\PSoC4/cyfitter_cfg.c **** * This file is automatically generated by PSoC Creator with device 
   7:.\Generated_Source\PSoC4/cyfitter_cfg.c **** * initialization code.  Except for the user defined sections in
   8:.\Generated_Source\PSoC4/cyfitter_cfg.c **** * CyClockStartupError(), this file should not be modified.
   9:.\Generated_Source\PSoC4/cyfitter_cfg.c **** *
  10:.\Generated_Source\PSoC4/cyfitter_cfg.c **** ********************************************************************************
  11:.\Generated_Source\PSoC4/cyfitter_cfg.c **** * Copyright 2013, Cypress Semiconductor Corporation.  All rights reserved.
  12:.\Generated_Source\PSoC4/cyfitter_cfg.c **** * You may use this file only in accordance with the license, terms, conditions, 
  13:.\Generated_Source\PSoC4/cyfitter_cfg.c **** * disclaimers, and limitations in the end user license agreement accompanying 
  14:.\Generated_Source\PSoC4/cyfitter_cfg.c **** * the software package with which this file was provided.
  15:.\Generated_Source\PSoC4/cyfitter_cfg.c **** ********************************************************************************/
  16:.\Generated_Source\PSoC4/cyfitter_cfg.c **** 
  17:.\Generated_Source\PSoC4/cyfitter_cfg.c **** #include <string.h>
  18:.\Generated_Source\PSoC4/cyfitter_cfg.c **** #include <cytypes.h>
  19:.\Generated_Source\PSoC4/cyfitter_cfg.c **** #include <cydevice_trm.h>
  20:.\Generated_Source\PSoC4/cyfitter_cfg.c **** #include <cyfitter.h>
  21:.\Generated_Source\PSoC4/cyfitter_cfg.c **** #include <CyLib.h>
  22:.\Generated_Source\PSoC4/cyfitter_cfg.c **** #include <cyfitter_cfg.h>
  23:.\Generated_Source\PSoC4/cyfitter_cfg.c **** 
  24:.\Generated_Source\PSoC4/cyfitter_cfg.c **** 
  25:.\Generated_Source\PSoC4/cyfitter_cfg.c **** #if defined(__GNUC__) || defined(__ARMCC_VERSION)
  26:.\Generated_Source\PSoC4/cyfitter_cfg.c ****     #define CYPACKED 
  27:.\Generated_Source\PSoC4/cyfitter_cfg.c ****     #define CYPACKED_ATTR __attribute__ ((packed))
  28:.\Generated_Source\PSoC4/cyfitter_cfg.c ****     #define CYALIGNED __attribute__ ((aligned))
  29:.\Generated_Source\PSoC4/cyfitter_cfg.c ****     #define CY_CFG_UNUSED __attribute__ ((unused))
  30:.\Generated_Source\PSoC4/cyfitter_cfg.c ****     #define CY_CFG_SECTION __attribute__ ((section(".psocinit")))
  31:.\Generated_Source\PSoC4/cyfitter_cfg.c ****     
  32:.\Generated_Source\PSoC4/cyfitter_cfg.c ****     #if defined(__ARMCC_VERSION)
ARM GAS  C:\Users\SNFU\AppData\Local\Temp\ccQc6wyh.s 			page 2


  33:.\Generated_Source\PSoC4/cyfitter_cfg.c ****         #define CY_CFG_MEMORY_BARRIER() __memory_changed()
  34:.\Generated_Source\PSoC4/cyfitter_cfg.c ****     #else
  35:.\Generated_Source\PSoC4/cyfitter_cfg.c ****         #define CY_CFG_MEMORY_BARRIER() __sync_synchronize()
  36:.\Generated_Source\PSoC4/cyfitter_cfg.c ****     #endif
  37:.\Generated_Source\PSoC4/cyfitter_cfg.c ****     
  38:.\Generated_Source\PSoC4/cyfitter_cfg.c **** #elif defined(__ICCARM__)
  39:.\Generated_Source\PSoC4/cyfitter_cfg.c ****     #include <intrinsics.h>
  40:.\Generated_Source\PSoC4/cyfitter_cfg.c **** 
  41:.\Generated_Source\PSoC4/cyfitter_cfg.c ****     #define CYPACKED __packed
  42:.\Generated_Source\PSoC4/cyfitter_cfg.c ****     #define CYPACKED_ATTR 
  43:.\Generated_Source\PSoC4/cyfitter_cfg.c ****     #define CYALIGNED _Pragma("data_alignment=4")
  44:.\Generated_Source\PSoC4/cyfitter_cfg.c ****     #define CY_CFG_UNUSED _Pragma("diag_suppress=Pe177")
  45:.\Generated_Source\PSoC4/cyfitter_cfg.c ****     #define CY_CFG_SECTION _Pragma("location=\".psocinit\"")
  46:.\Generated_Source\PSoC4/cyfitter_cfg.c ****     
  47:.\Generated_Source\PSoC4/cyfitter_cfg.c ****     #define CY_CFG_MEMORY_BARRIER() __DMB()
  48:.\Generated_Source\PSoC4/cyfitter_cfg.c ****     
  49:.\Generated_Source\PSoC4/cyfitter_cfg.c **** #else
  50:.\Generated_Source\PSoC4/cyfitter_cfg.c ****     #error Unsupported toolchain
  51:.\Generated_Source\PSoC4/cyfitter_cfg.c **** #endif
  52:.\Generated_Source\PSoC4/cyfitter_cfg.c **** 
  53:.\Generated_Source\PSoC4/cyfitter_cfg.c **** 
  54:.\Generated_Source\PSoC4/cyfitter_cfg.c **** CY_CFG_UNUSED
  55:.\Generated_Source\PSoC4/cyfitter_cfg.c **** static void CYMEMZERO(void *s, size_t n);
  56:.\Generated_Source\PSoC4/cyfitter_cfg.c **** CY_CFG_UNUSED
  57:.\Generated_Source\PSoC4/cyfitter_cfg.c **** static void CYMEMZERO(void *s, size_t n)
  58:.\Generated_Source\PSoC4/cyfitter_cfg.c **** {
  59:.\Generated_Source\PSoC4/cyfitter_cfg.c **** 	(void)memset(s, 0, n);
  60:.\Generated_Source\PSoC4/cyfitter_cfg.c **** }
  61:.\Generated_Source\PSoC4/cyfitter_cfg.c **** CY_CFG_UNUSED
  62:.\Generated_Source\PSoC4/cyfitter_cfg.c **** static void CYCONFIGCPY(void *dest, const void *src, size_t n);
  63:.\Generated_Source\PSoC4/cyfitter_cfg.c **** CY_CFG_UNUSED
  64:.\Generated_Source\PSoC4/cyfitter_cfg.c **** static void CYCONFIGCPY(void *dest, const void *src, size_t n)
  65:.\Generated_Source\PSoC4/cyfitter_cfg.c **** {
  66:.\Generated_Source\PSoC4/cyfitter_cfg.c **** 	(void)memcpy(dest, src, n);
  67:.\Generated_Source\PSoC4/cyfitter_cfg.c **** }
  68:.\Generated_Source\PSoC4/cyfitter_cfg.c **** CY_CFG_UNUSED
  69:.\Generated_Source\PSoC4/cyfitter_cfg.c **** static void CYCONFIGCPYCODE(void *dest, const void *src, size_t n);
  70:.\Generated_Source\PSoC4/cyfitter_cfg.c **** CY_CFG_UNUSED
  71:.\Generated_Source\PSoC4/cyfitter_cfg.c **** static void CYCONFIGCPYCODE(void *dest, const void *src, size_t n)
  72:.\Generated_Source\PSoC4/cyfitter_cfg.c **** {
  73:.\Generated_Source\PSoC4/cyfitter_cfg.c **** 	(void)memcpy(dest, src, n);
  74:.\Generated_Source\PSoC4/cyfitter_cfg.c **** }
  75:.\Generated_Source\PSoC4/cyfitter_cfg.c **** 
  76:.\Generated_Source\PSoC4/cyfitter_cfg.c **** 
  77:.\Generated_Source\PSoC4/cyfitter_cfg.c **** 
  78:.\Generated_Source\PSoC4/cyfitter_cfg.c **** /* Clock startup error codes                                                   */
  79:.\Generated_Source\PSoC4/cyfitter_cfg.c **** #define CYCLOCKSTART_NO_ERROR    0u
  80:.\Generated_Source\PSoC4/cyfitter_cfg.c **** #define CYCLOCKSTART_XTAL_ERROR  1u
  81:.\Generated_Source\PSoC4/cyfitter_cfg.c **** #define CYCLOCKSTART_32KHZ_ERROR 2u
  82:.\Generated_Source\PSoC4/cyfitter_cfg.c **** #define CYCLOCKSTART_PLL_ERROR   3u
  83:.\Generated_Source\PSoC4/cyfitter_cfg.c **** 
  84:.\Generated_Source\PSoC4/cyfitter_cfg.c **** #ifdef CY_NEED_CYCLOCKSTARTUPERROR
  85:.\Generated_Source\PSoC4/cyfitter_cfg.c **** /*******************************************************************************
  86:.\Generated_Source\PSoC4/cyfitter_cfg.c **** * Function Name: CyClockStartupError
  87:.\Generated_Source\PSoC4/cyfitter_cfg.c **** ********************************************************************************
  88:.\Generated_Source\PSoC4/cyfitter_cfg.c **** * Summary:
  89:.\Generated_Source\PSoC4/cyfitter_cfg.c **** *  If an error is encountered during clock configuration (crystal startup error,
ARM GAS  C:\Users\SNFU\AppData\Local\Temp\ccQc6wyh.s 			page 3


  90:.\Generated_Source\PSoC4/cyfitter_cfg.c **** *  PLL lock error, etc.), the system will end up here.  Unless reimplemented by
  91:.\Generated_Source\PSoC4/cyfitter_cfg.c **** *  the customer, this function will stop in an infinite loop.
  92:.\Generated_Source\PSoC4/cyfitter_cfg.c **** *
  93:.\Generated_Source\PSoC4/cyfitter_cfg.c **** * Parameters:
  94:.\Generated_Source\PSoC4/cyfitter_cfg.c **** *   void
  95:.\Generated_Source\PSoC4/cyfitter_cfg.c **** *
  96:.\Generated_Source\PSoC4/cyfitter_cfg.c **** * Return:
  97:.\Generated_Source\PSoC4/cyfitter_cfg.c **** *   void
  98:.\Generated_Source\PSoC4/cyfitter_cfg.c **** *
  99:.\Generated_Source\PSoC4/cyfitter_cfg.c **** *******************************************************************************/
 100:.\Generated_Source\PSoC4/cyfitter_cfg.c **** CY_CFG_UNUSED
 101:.\Generated_Source\PSoC4/cyfitter_cfg.c **** static void CyClockStartupError(uint8 errorCode);
 102:.\Generated_Source\PSoC4/cyfitter_cfg.c **** CY_CFG_UNUSED
 103:.\Generated_Source\PSoC4/cyfitter_cfg.c **** static void CyClockStartupError(uint8 errorCode)
 104:.\Generated_Source\PSoC4/cyfitter_cfg.c **** {
 105:.\Generated_Source\PSoC4/cyfitter_cfg.c ****     /* To remove the compiler warning if errorCode not used.                */
 106:.\Generated_Source\PSoC4/cyfitter_cfg.c ****     errorCode = errorCode;
 107:.\Generated_Source\PSoC4/cyfitter_cfg.c **** 
 108:.\Generated_Source\PSoC4/cyfitter_cfg.c ****     /* `#START CyClockStartupError` */
 109:.\Generated_Source\PSoC4/cyfitter_cfg.c **** 
 110:.\Generated_Source\PSoC4/cyfitter_cfg.c ****     /* If we have a clock startup error (bad MHz crystal, PLL lock, etc.),  */
 111:.\Generated_Source\PSoC4/cyfitter_cfg.c ****     /* we will end up here to allow the customer to implement something to  */
 112:.\Generated_Source\PSoC4/cyfitter_cfg.c ****     /* deal with the clock condition.                                       */
 113:.\Generated_Source\PSoC4/cyfitter_cfg.c **** 
 114:.\Generated_Source\PSoC4/cyfitter_cfg.c ****     /* `#END` */
 115:.\Generated_Source\PSoC4/cyfitter_cfg.c **** 
 116:.\Generated_Source\PSoC4/cyfitter_cfg.c ****     /* If nothing else, stop here since the clocks have not started         */
 117:.\Generated_Source\PSoC4/cyfitter_cfg.c ****     /* correctly.                                                           */
 118:.\Generated_Source\PSoC4/cyfitter_cfg.c ****     while(1) {}
 119:.\Generated_Source\PSoC4/cyfitter_cfg.c **** }
 120:.\Generated_Source\PSoC4/cyfitter_cfg.c **** #endif
 121:.\Generated_Source\PSoC4/cyfitter_cfg.c **** 
 122:.\Generated_Source\PSoC4/cyfitter_cfg.c **** #define CY_CFG_BASE_ADDR_COUNT 8u
 123:.\Generated_Source\PSoC4/cyfitter_cfg.c **** CYPACKED typedef struct
 124:.\Generated_Source\PSoC4/cyfitter_cfg.c **** {
 125:.\Generated_Source\PSoC4/cyfitter_cfg.c **** 	uint8 offset;
 126:.\Generated_Source\PSoC4/cyfitter_cfg.c **** 	uint8 value;
 127:.\Generated_Source\PSoC4/cyfitter_cfg.c **** } CYPACKED_ATTR cy_cfg_addrvalue_t;
 128:.\Generated_Source\PSoC4/cyfitter_cfg.c **** 
 129:.\Generated_Source\PSoC4/cyfitter_cfg.c **** 
 130:.\Generated_Source\PSoC4/cyfitter_cfg.c **** 
 131:.\Generated_Source\PSoC4/cyfitter_cfg.c **** /*******************************************************************************
 132:.\Generated_Source\PSoC4/cyfitter_cfg.c **** * Function Name: cfg_write_bytes32
 133:.\Generated_Source\PSoC4/cyfitter_cfg.c **** ********************************************************************************
 134:.\Generated_Source\PSoC4/cyfitter_cfg.c **** * Summary:
 135:.\Generated_Source\PSoC4/cyfitter_cfg.c **** *  This function is used for setting up the chip configuration areas that
 136:.\Generated_Source\PSoC4/cyfitter_cfg.c **** *  contain relatively sparse data.
 137:.\Generated_Source\PSoC4/cyfitter_cfg.c **** *
 138:.\Generated_Source\PSoC4/cyfitter_cfg.c **** * Parameters:
 139:.\Generated_Source\PSoC4/cyfitter_cfg.c **** *   void
 140:.\Generated_Source\PSoC4/cyfitter_cfg.c **** *
 141:.\Generated_Source\PSoC4/cyfitter_cfg.c **** * Return:
 142:.\Generated_Source\PSoC4/cyfitter_cfg.c **** *   void
 143:.\Generated_Source\PSoC4/cyfitter_cfg.c **** *
 144:.\Generated_Source\PSoC4/cyfitter_cfg.c **** *******************************************************************************/
 145:.\Generated_Source\PSoC4/cyfitter_cfg.c **** static void cfg_write_bytes32(const uint32 addr_table[], const cy_cfg_addrvalue_t data_table[]);
 146:.\Generated_Source\PSoC4/cyfitter_cfg.c **** static void cfg_write_bytes32(const uint32 addr_table[], const cy_cfg_addrvalue_t data_table[])
ARM GAS  C:\Users\SNFU\AppData\Local\Temp\ccQc6wyh.s 			page 4


 147:.\Generated_Source\PSoC4/cyfitter_cfg.c **** {
 148:.\Generated_Source\PSoC4/cyfitter_cfg.c **** 	/* For 32-bit little-endian architectures */
 149:.\Generated_Source\PSoC4/cyfitter_cfg.c **** 	uint32 i, j = 0u;
 150:.\Generated_Source\PSoC4/cyfitter_cfg.c **** 	for (i = 0u; i < CY_CFG_BASE_ADDR_COUNT; i++)
 151:.\Generated_Source\PSoC4/cyfitter_cfg.c **** 	{
 152:.\Generated_Source\PSoC4/cyfitter_cfg.c **** 		uint32 baseAddr = addr_table[i];
 153:.\Generated_Source\PSoC4/cyfitter_cfg.c **** 		uint8 count = (uint8)baseAddr;
 154:.\Generated_Source\PSoC4/cyfitter_cfg.c **** 		baseAddr &= 0xFFFFFF00u;
 155:.\Generated_Source\PSoC4/cyfitter_cfg.c **** 		while (count != 0u)
 156:.\Generated_Source\PSoC4/cyfitter_cfg.c **** 		{
 157:.\Generated_Source\PSoC4/cyfitter_cfg.c **** 			CY_SET_XTND_REG8((void CYFAR *)(baseAddr + data_table[j].offset), data_table[j].value);
 158:.\Generated_Source\PSoC4/cyfitter_cfg.c **** 			j++;
 159:.\Generated_Source\PSoC4/cyfitter_cfg.c **** 			count--;
 160:.\Generated_Source\PSoC4/cyfitter_cfg.c **** 		}
 161:.\Generated_Source\PSoC4/cyfitter_cfg.c **** 	}
 162:.\Generated_Source\PSoC4/cyfitter_cfg.c **** }
 163:.\Generated_Source\PSoC4/cyfitter_cfg.c **** 
 164:.\Generated_Source\PSoC4/cyfitter_cfg.c **** /*******************************************************************************
 165:.\Generated_Source\PSoC4/cyfitter_cfg.c **** * Function Name: SetIMOBGTrims
 166:.\Generated_Source\PSoC4/cyfitter_cfg.c **** ********************************************************************************
 167:.\Generated_Source\PSoC4/cyfitter_cfg.c **** *
 168:.\Generated_Source\PSoC4/cyfitter_cfg.c **** * Summary:
 169:.\Generated_Source\PSoC4/cyfitter_cfg.c **** *   Performs the configuration of the bandgap trim for the IMO based on the given
 170:.\Generated_Source\PSoC4/cyfitter_cfg.c **** *   expected frequency of the IMO. 
 171:.\Generated_Source\PSoC4/cyfitter_cfg.c **** *
 172:.\Generated_Source\PSoC4/cyfitter_cfg.c **** * Parameters:
 173:.\Generated_Source\PSoC4/cyfitter_cfg.c **** *   imoFreq: Frequency for operation of the IMO.
 174:.\Generated_Source\PSoC4/cyfitter_cfg.c **** *
 175:.\Generated_Source\PSoC4/cyfitter_cfg.c **** * Return:
 176:.\Generated_Source\PSoC4/cyfitter_cfg.c **** *   void
 177:.\Generated_Source\PSoC4/cyfitter_cfg.c **** *
 178:.\Generated_Source\PSoC4/cyfitter_cfg.c **** *******************************************************************************/
 179:.\Generated_Source\PSoC4/cyfitter_cfg.c **** static void SetIMOBGTrims(uint8 imoFreq);
 180:.\Generated_Source\PSoC4/cyfitter_cfg.c **** CY_CFG_SECTION
 181:.\Generated_Source\PSoC4/cyfitter_cfg.c **** static void SetIMOBGTrims(uint8 imoFreq)
 182:.\Generated_Source\PSoC4/cyfitter_cfg.c **** {
 183:.\Generated_Source\PSoC4/cyfitter_cfg.c **** 	CYPACKED typedef struct {
 184:.\Generated_Source\PSoC4/cyfitter_cfg.c **** 		uint8 freq;
 185:.\Generated_Source\PSoC4/cyfitter_cfg.c **** 		uint8 absolute;
 186:.\Generated_Source\PSoC4/cyfitter_cfg.c **** 		uint8 tmpco;
 187:.\Generated_Source\PSoC4/cyfitter_cfg.c **** 	} CYPACKED_ATTR imo_trim_entry_t;
 188:.\Generated_Source\PSoC4/cyfitter_cfg.c **** 
 189:.\Generated_Source\PSoC4/cyfitter_cfg.c **** 	CYPACKED typedef struct {
 190:.\Generated_Source\PSoC4/cyfitter_cfg.c **** 		imo_trim_entry_t entries[4];
 191:.\Generated_Source\PSoC4/cyfitter_cfg.c **** 	} CYPACKED_ATTR imo_trim_table_t;
 192:.\Generated_Source\PSoC4/cyfitter_cfg.c **** 
 193:.\Generated_Source\PSoC4/cyfitter_cfg.c **** 	static const imo_trim_table_t *imo_trim_table = (const imo_trim_table_t *)CYREG_SFLASH_IMO_MAXF0;
 194:.\Generated_Source\PSoC4/cyfitter_cfg.c **** 	static const uint32 IMO_TRIM_FREQ_TABLE_ENTRIES = sizeof(imo_trim_table->entries)/sizeof(imo_trim_
 195:.\Generated_Source\PSoC4/cyfitter_cfg.c **** 
 196:.\Generated_Source\PSoC4/cyfitter_cfg.c **** 	int32 imoTrimIndex;
 197:.\Generated_Source\PSoC4/cyfitter_cfg.c **** 	uint8 setAbs;
 198:.\Generated_Source\PSoC4/cyfitter_cfg.c **** 	uint8 setTmpCo;
 199:.\Generated_Source\PSoC4/cyfitter_cfg.c **** 
 200:.\Generated_Source\PSoC4/cyfitter_cfg.c **** 	/* Traverse the SFLASH IMO frequency-dependent bandgap trim table to
 201:.\Generated_Source\PSoC4/cyfitter_cfg.c **** 	 * locate the appropriate value to trim the IMO bandgap based on freq. */
 202:.\Generated_Source\PSoC4/cyfitter_cfg.c **** 	setAbs = CY_GET_REG8((const void *)CYREG_SFLASH_IMO_ABS4);
 203:.\Generated_Source\PSoC4/cyfitter_cfg.c **** 	setTmpCo = CY_GET_REG8((const void *)CYREG_SFLASH_IMO_TMPCO4);
ARM GAS  C:\Users\SNFU\AppData\Local\Temp\ccQc6wyh.s 			page 5


 204:.\Generated_Source\PSoC4/cyfitter_cfg.c **** 	for (imoTrimIndex = ((int32)IMO_TRIM_FREQ_TABLE_ENTRIES)-1;
 205:.\Generated_Source\PSoC4/cyfitter_cfg.c **** 	     (imoTrimIndex >= 0) && (imoFreq <= imo_trim_table->entries[imoTrimIndex].freq);
 206:.\Generated_Source\PSoC4/cyfitter_cfg.c **** 	     imoTrimIndex--)
 207:.\Generated_Source\PSoC4/cyfitter_cfg.c **** 	{
 208:.\Generated_Source\PSoC4/cyfitter_cfg.c **** 		setAbs = imo_trim_table->entries[imoTrimIndex].absolute;
 209:.\Generated_Source\PSoC4/cyfitter_cfg.c **** 		setTmpCo = imo_trim_table->entries[imoTrimIndex].tmpco;
 210:.\Generated_Source\PSoC4/cyfitter_cfg.c **** 	}
 211:.\Generated_Source\PSoC4/cyfitter_cfg.c **** 
 212:.\Generated_Source\PSoC4/cyfitter_cfg.c **** 	CY_SET_REG32((void *)CYREG_PWR_BG_TRIM4, setAbs);
 213:.\Generated_Source\PSoC4/cyfitter_cfg.c **** 	CY_SET_REG32((void *)CYREG_PWR_BG_TRIM5, setTmpCo);
 214:.\Generated_Source\PSoC4/cyfitter_cfg.c **** }
 215:.\Generated_Source\PSoC4/cyfitter_cfg.c **** 
 216:.\Generated_Source\PSoC4/cyfitter_cfg.c **** 
 217:.\Generated_Source\PSoC4/cyfitter_cfg.c **** 
 218:.\Generated_Source\PSoC4/cyfitter_cfg.c **** /*******************************************************************************
 219:.\Generated_Source\PSoC4/cyfitter_cfg.c **** * Function Name: ClockSetup
 220:.\Generated_Source\PSoC4/cyfitter_cfg.c **** ********************************************************************************
 221:.\Generated_Source\PSoC4/cyfitter_cfg.c **** *
 222:.\Generated_Source\PSoC4/cyfitter_cfg.c **** * Summary:
 223:.\Generated_Source\PSoC4/cyfitter_cfg.c **** *   Performs the initialization of all of the clocks in the device based on the
 224:.\Generated_Source\PSoC4/cyfitter_cfg.c **** *   settings in the Clock tab of the DWR.  This includes enabling the requested
 225:.\Generated_Source\PSoC4/cyfitter_cfg.c **** *   clocks and setting the necessary dividers to produce the desired frequency. 
 226:.\Generated_Source\PSoC4/cyfitter_cfg.c **** *
 227:.\Generated_Source\PSoC4/cyfitter_cfg.c **** * Parameters:
 228:.\Generated_Source\PSoC4/cyfitter_cfg.c **** *   void
 229:.\Generated_Source\PSoC4/cyfitter_cfg.c **** *
 230:.\Generated_Source\PSoC4/cyfitter_cfg.c **** * Return:
 231:.\Generated_Source\PSoC4/cyfitter_cfg.c **** *   void
 232:.\Generated_Source\PSoC4/cyfitter_cfg.c **** *
 233:.\Generated_Source\PSoC4/cyfitter_cfg.c **** *******************************************************************************/
 234:.\Generated_Source\PSoC4/cyfitter_cfg.c **** static void ClockSetup(void);
 235:.\Generated_Source\PSoC4/cyfitter_cfg.c **** CY_CFG_SECTION
 236:.\Generated_Source\PSoC4/cyfitter_cfg.c **** static void ClockSetup(void)
 237:.\Generated_Source\PSoC4/cyfitter_cfg.c **** {
 238:.\Generated_Source\PSoC4/cyfitter_cfg.c **** 	/* Enable HALF_EN before trimming for the flash accelerator. */
 239:.\Generated_Source\PSoC4/cyfitter_cfg.c **** 	CY_SET_REG32((void CYXDATA *)(CYREG_CLK_SELECT), (CY_GET_REG32((void *)CYREG_CLK_SELECT) | 0x00040
 240:.\Generated_Source\PSoC4/cyfitter_cfg.c **** 
 241:.\Generated_Source\PSoC4/cyfitter_cfg.c **** 	/* Trim IMO BG based on desired frequency. */
 242:.\Generated_Source\PSoC4/cyfitter_cfg.c **** 	SetIMOBGTrims(24u);
 243:.\Generated_Source\PSoC4/cyfitter_cfg.c **** 
 244:.\Generated_Source\PSoC4/cyfitter_cfg.c **** 	/* Going less than or equal to 24MHz, so update the clock speed then adjust trim value. */
 245:.\Generated_Source\PSoC4/cyfitter_cfg.c **** 	CY_SET_REG32((void CYXDATA *)(CYREG_CLK_IMO_TRIM2), (25u));
 246:.\Generated_Source\PSoC4/cyfitter_cfg.c **** 	CyDelayCycles(5u);
 247:.\Generated_Source\PSoC4/cyfitter_cfg.c **** 	CY_SET_REG32((void CYXDATA *)(CYREG_CLK_IMO_TRIM1), (CY_GET_REG8((void *)CYREG_SFLASH_IMO_TRIM21))
 248:.\Generated_Source\PSoC4/cyfitter_cfg.c **** 	CyDelayUs(5u);
 249:.\Generated_Source\PSoC4/cyfitter_cfg.c **** 
 250:.\Generated_Source\PSoC4/cyfitter_cfg.c **** 	/* Disable HALF_EN since it is not required at this IMO frequency. */
 251:.\Generated_Source\PSoC4/cyfitter_cfg.c **** 	CY_SET_REG32((void CYXDATA *)(CYREG_CLK_SELECT), (CY_GET_REG32((void *)CYREG_CLK_SELECT) & 0xFFFBF
 252:.\Generated_Source\PSoC4/cyfitter_cfg.c **** 	/* CYDEV_CLK_ILO_CONFIG Starting address: CYDEV_CLK_ILO_CONFIG */
 253:.\Generated_Source\PSoC4/cyfitter_cfg.c **** 	CY_SET_XTND_REG32((void CYFAR *)(CYREG_CLK_ILO_CONFIG), 0x80000006u);
 254:.\Generated_Source\PSoC4/cyfitter_cfg.c **** 
 255:.\Generated_Source\PSoC4/cyfitter_cfg.c **** 
 256:.\Generated_Source\PSoC4/cyfitter_cfg.c **** 	/* CYDEV_CLK_SELECT00 Starting address: CYDEV_CLK_SELECT00 */
 257:.\Generated_Source\PSoC4/cyfitter_cfg.c **** 	CY_SET_XTND_REG32((void CYFAR *)(CYREG_CLK_SELECT02), 0x00000021u);
 258:.\Generated_Source\PSoC4/cyfitter_cfg.c **** 	CY_SET_XTND_REG32((void CYFAR *)(CYREG_CLK_SELECT03), 0x00000010u);
 259:.\Generated_Source\PSoC4/cyfitter_cfg.c **** 	CY_SET_XTND_REG32((void CYFAR *)(CYREG_CLK_SELECT08), 0x00000030u);
 260:.\Generated_Source\PSoC4/cyfitter_cfg.c **** 	CY_SET_XTND_REG32((void CYFAR *)(CYREG_CLK_SELECT09), 0x00000011u);
ARM GAS  C:\Users\SNFU\AppData\Local\Temp\ccQc6wyh.s 			page 6


 261:.\Generated_Source\PSoC4/cyfitter_cfg.c **** 	CY_SET_XTND_REG32((void CYFAR *)(CYREG_CLK_SELECT10), 0x00000020u);
 262:.\Generated_Source\PSoC4/cyfitter_cfg.c **** 	CY_SET_XTND_REG32((void CYFAR *)(CYREG_CLK_SELECT11), 0x00000011u);
 263:.\Generated_Source\PSoC4/cyfitter_cfg.c **** 	CY_SET_XTND_REG32((void CYFAR *)(CYREG_CLK_SELECT12), 0x00000031u);
 264:.\Generated_Source\PSoC4/cyfitter_cfg.c **** 
 265:.\Generated_Source\PSoC4/cyfitter_cfg.c **** 	/* CYDEV_CLK_IMO_CONFIG Starting address: CYDEV_CLK_IMO_CONFIG */
 266:.\Generated_Source\PSoC4/cyfitter_cfg.c **** 	CY_SET_XTND_REG32((void CYFAR *)(CYREG_CLK_IMO_CONFIG), 0x80000000u);
 267:.\Generated_Source\PSoC4/cyfitter_cfg.c **** 
 268:.\Generated_Source\PSoC4/cyfitter_cfg.c **** 	/* CYDEV_CLK_DIVIDER_A00 Starting address: CYDEV_CLK_DIVIDER_A00 */
 269:.\Generated_Source\PSoC4/cyfitter_cfg.c **** 	CY_SET_XTND_REG32((void CYFAR *)(CYREG_CLK_DIVIDER_A00), 0x80000003u);
 270:.\Generated_Source\PSoC4/cyfitter_cfg.c **** 
 271:.\Generated_Source\PSoC4/cyfitter_cfg.c **** 	/* CYDEV_CLK_DIVIDER_B00 Starting address: CYDEV_CLK_DIVIDER_B00 */
 272:.\Generated_Source\PSoC4/cyfitter_cfg.c **** 	CY_SET_XTND_REG32((void CYFAR *)(CYREG_CLK_DIVIDER_B00), 0x80000017u);
 273:.\Generated_Source\PSoC4/cyfitter_cfg.c **** 
 274:.\Generated_Source\PSoC4/cyfitter_cfg.c **** 	/* CYDEV_CLK_DIVIDER_C00 Starting address: CYDEV_CLK_DIVIDER_C00 */
 275:.\Generated_Source\PSoC4/cyfitter_cfg.c **** 	CY_SET_XTND_REG32((void CYFAR *)(CYREG_CLK_DIVIDER_C00), 0x80000017u);
 276:.\Generated_Source\PSoC4/cyfitter_cfg.c **** 
 277:.\Generated_Source\PSoC4/cyfitter_cfg.c **** 	/* CYDEV_CLK_DIVIDER_A01 Starting address: CYDEV_CLK_DIVIDER_A01 */
 278:.\Generated_Source\PSoC4/cyfitter_cfg.c **** 	CY_SET_XTND_REG32((void CYFAR *)(CYREG_CLK_DIVIDER_A01), 0x80000017u);
 279:.\Generated_Source\PSoC4/cyfitter_cfg.c **** 
 280:.\Generated_Source\PSoC4/cyfitter_cfg.c **** 	/* CYDEV_CLK_DIVIDER_B01 Starting address: CYDEV_CLK_DIVIDER_B01 */
 281:.\Generated_Source\PSoC4/cyfitter_cfg.c **** 	CY_SET_XTND_REG32((void CYFAR *)(CYREG_CLK_DIVIDER_B01), 0x80000022u);
 282:.\Generated_Source\PSoC4/cyfitter_cfg.c **** 
 283:.\Generated_Source\PSoC4/cyfitter_cfg.c **** 	/* CYDEV_CLK_DIVIDER_C01 Starting address: CYDEV_CLK_DIVIDER_C01 */
 284:.\Generated_Source\PSoC4/cyfitter_cfg.c **** 	CY_SET_XTND_REG32((void CYFAR *)(CYREG_CLK_DIVIDER_C01), 0x80000138u);
 285:.\Generated_Source\PSoC4/cyfitter_cfg.c **** 
 286:.\Generated_Source\PSoC4/cyfitter_cfg.c **** }
 287:.\Generated_Source\PSoC4/cyfitter_cfg.c **** 
 288:.\Generated_Source\PSoC4/cyfitter_cfg.c **** 
 289:.\Generated_Source\PSoC4/cyfitter_cfg.c **** /* Analog API Functions */
 290:.\Generated_Source\PSoC4/cyfitter_cfg.c **** 
 291:.\Generated_Source\PSoC4/cyfitter_cfg.c **** 
 292:.\Generated_Source\PSoC4/cyfitter_cfg.c **** /*******************************************************************************
 293:.\Generated_Source\PSoC4/cyfitter_cfg.c **** * Function Name: AnalogSetDefault
 294:.\Generated_Source\PSoC4/cyfitter_cfg.c **** ********************************************************************************
 295:.\Generated_Source\PSoC4/cyfitter_cfg.c **** *
 296:.\Generated_Source\PSoC4/cyfitter_cfg.c **** * Summary:
 297:.\Generated_Source\PSoC4/cyfitter_cfg.c **** *  Sets up the analog portions of the chip to default values based on chip
 298:.\Generated_Source\PSoC4/cyfitter_cfg.c **** *  configuration options from the project.
 299:.\Generated_Source\PSoC4/cyfitter_cfg.c **** *
 300:.\Generated_Source\PSoC4/cyfitter_cfg.c **** * Parameters:
 301:.\Generated_Source\PSoC4/cyfitter_cfg.c **** *  void
 302:.\Generated_Source\PSoC4/cyfitter_cfg.c **** *
 303:.\Generated_Source\PSoC4/cyfitter_cfg.c **** * Return:
 304:.\Generated_Source\PSoC4/cyfitter_cfg.c **** *  void
 305:.\Generated_Source\PSoC4/cyfitter_cfg.c **** *
 306:.\Generated_Source\PSoC4/cyfitter_cfg.c **** *******************************************************************************/
 307:.\Generated_Source\PSoC4/cyfitter_cfg.c **** static void AnalogSetDefault(void);
 308:.\Generated_Source\PSoC4/cyfitter_cfg.c **** static void AnalogSetDefault(void)
 309:.\Generated_Source\PSoC4/cyfitter_cfg.c **** {
 310:.\Generated_Source\PSoC4/cyfitter_cfg.c **** }
 311:.\Generated_Source\PSoC4/cyfitter_cfg.c **** 
 312:.\Generated_Source\PSoC4/cyfitter_cfg.c **** #define CY_AMUX_UNUSED CYREG_CM0_ROM_DWT
 313:.\Generated_Source\PSoC4/cyfitter_cfg.c **** 
 314:.\Generated_Source\PSoC4/cyfitter_cfg.c **** 
 315:.\Generated_Source\PSoC4/cyfitter_cfg.c **** /*******************************************************************************
 316:.\Generated_Source\PSoC4/cyfitter_cfg.c **** * Function Name: cyfitter_cfg
 317:.\Generated_Source\PSoC4/cyfitter_cfg.c **** ********************************************************************************
ARM GAS  C:\Users\SNFU\AppData\Local\Temp\ccQc6wyh.s 			page 7


 318:.\Generated_Source\PSoC4/cyfitter_cfg.c **** * Summary:
 319:.\Generated_Source\PSoC4/cyfitter_cfg.c **** *  This function is called by the start-up code for the selected device. It
 320:.\Generated_Source\PSoC4/cyfitter_cfg.c **** *  performs all of the necessary device configuration based on the design
 321:.\Generated_Source\PSoC4/cyfitter_cfg.c **** *  settings.  This includes settings from the Design Wide Resources (DWR) such
 322:.\Generated_Source\PSoC4/cyfitter_cfg.c **** *  as Clocks and Pins as well as any component configuration that is necessary.
 323:.\Generated_Source\PSoC4/cyfitter_cfg.c **** *
 324:.\Generated_Source\PSoC4/cyfitter_cfg.c **** * Parameters:  
 325:.\Generated_Source\PSoC4/cyfitter_cfg.c **** *   void
 326:.\Generated_Source\PSoC4/cyfitter_cfg.c **** *
 327:.\Generated_Source\PSoC4/cyfitter_cfg.c **** * Return:
 328:.\Generated_Source\PSoC4/cyfitter_cfg.c **** *   void
 329:.\Generated_Source\PSoC4/cyfitter_cfg.c **** *
 330:.\Generated_Source\PSoC4/cyfitter_cfg.c **** *******************************************************************************/
 331:.\Generated_Source\PSoC4/cyfitter_cfg.c **** CY_CFG_SECTION
 332:.\Generated_Source\PSoC4/cyfitter_cfg.c **** void cyfitter_cfg(void)
 333:.\Generated_Source\PSoC4/cyfitter_cfg.c **** {
  26              		.loc 1 333 0
  27              		.cfi_startproc
  28 0000 F7B5     		push	{r0, r1, r2, r4, r5, r6, r7, lr}
  29              		.cfi_def_cfa_offset 32
  30              		.cfi_offset 0, -32
  31              		.cfi_offset 1, -28
  32              		.cfi_offset 2, -24
  33              		.cfi_offset 4, -20
  34              		.cfi_offset 5, -16
  35              		.cfi_offset 6, -12
  36              		.cfi_offset 7, -8
  37              		.cfi_offset 14, -4
 334:.\Generated_Source\PSoC4/cyfitter_cfg.c **** 	/* Disable interrupts by default. Let user enable if/when they want. */
 335:.\Generated_Source\PSoC4/cyfitter_cfg.c **** 	CyGlobalIntDisable;
  38              		.loc 1 335 0
  39              	@ 335 ".\Generated_Source\PSoC4\cyfitter_cfg.c" 1
  40 0002 72B6     		CPSID   i
  41              	@ 0 "" 2
 336:.\Generated_Source\PSoC4/cyfitter_cfg.c **** 
 337:.\Generated_Source\PSoC4/cyfitter_cfg.c **** 	/* Enable the clock in the interrupt controller for the routed interrupts */
 338:.\Generated_Source\PSoC4/cyfitter_cfg.c **** 	CY_SET_REG8((void *)CYREG_UDB_UDBIF_INT_CLK_CTL, 0x01u);
  42              		.loc 1 338 0
  43              		.code	16
  44 0004 764B     		ldr	r3, .L11
  45 0006 0122     		mov	r2, #1
  46 0008 1A70     		strb	r2, [r3]
  47              	.LVL0:
  48              	.LBB18:
  49              	.LBB19:
  50              	.LBB20:
  51              	.LBB21:
  59:.\Generated_Source\PSoC4/cyfitter_cfg.c **** 	(void)memset(s, 0, n);
  52              		.loc 1 59 0
  53 000a 8022     		mov	r2, #128
  54 000c 0021     		mov	r1, #0
  55 000e D200     		lsl	r2, r2, #3
  56 0010 7448     		ldr	r0, .L11+4
  57 0012 FFF7FEFF 		bl	memset
  58              	.LVL1:
  59 0016 8022     		mov	r2, #128
  60 0018 0021     		mov	r1, #0
ARM GAS  C:\Users\SNFU\AppData\Local\Temp\ccQc6wyh.s 			page 8


  61 001a 7348     		ldr	r0, .L11+8
  62 001c D200     		lsl	r2, r2, #3
  63 001e FFF7FEFF 		bl	memset
  64              	.LVL2:
  65 0022 0023     		mov	r3, #0
  66 0024 191C     		mov	r1, r3
  67              	.LVL3:
  68              	.L5:
  69              	.LBE21:
  70              	.LBE20:
  71              	.LBE19:
  72              	.LBB22:
  73              	.LBB23:
  74              	.LBB24:
 152:.\Generated_Source\PSoC4/cyfitter_cfg.c **** 		uint32 baseAddr = addr_table[i];
  75              		.loc 1 152 0
  76 0026 714C     		ldr	r4, .L11+12
  77 0028 1859     		ldr	r0, [r3, r4]
  78              	.LVL4:
  79 002a 2034     		add	r4, r4, #32
 153:.\Generated_Source\PSoC4/cyfitter_cfg.c **** 		uint8 count = (uint8)baseAddr;
  80              		.loc 1 153 0
  81 002c C2B2     		uxtb	r2, r0
  82 002e 0192     		str	r2, [sp, #4]
  83              	.LVL5:
 154:.\Generated_Source\PSoC4/cyfitter_cfg.c **** 		baseAddr &= 0xFFFFFF00u;
  84              		.loc 1 154 0
  85 0030 071C     		mov	r7, r0
  86 0032 FF22     		mov	r2, #255
  87 0034 9743     		bic	r7, r2
  88              	.LVL6:
  89 0036 4A00     		lsl	r2, r1, #1
  90 0038 A418     		add	r4, r4, r2
  91 003a 0022     		mov	r2, #0
  92              	.LVL7:
  93              	.L2:
 155:.\Generated_Source\PSoC4/cyfitter_cfg.c **** 		while (count != 0u)
  94              		.loc 1 155 0
  95 003c 019E     		ldr	r6, [sp, #4]
  96 003e D5B2     		uxtb	r5, r2
  97 0040 AE42     		cmp	r6, r5
  98 0042 09D0     		beq	.L10
  99 0044 5500     		lsl	r5, r2, #1
 157:.\Generated_Source\PSoC4/cyfitter_cfg.c **** 			CY_SET_XTND_REG8((void CYFAR *)(baseAddr + data_table[j].offset), data_table[j].value);
 100              		.loc 1 157 0
 101 0046 665D     		ldrb	r6, [r4, r5]
 102 0048 6519     		add	r5, r4, r5
 103 004a B446     		mov	ip, r6
 104 004c BC44     		add	ip, ip, r7
 105 004e 6D78     		ldrb	r5, [r5, #1]
 106 0050 6646     		mov	r6, ip
 107 0052 3570     		strb	r5, [r6]
 108              	.LVL8:
 109 0054 0132     		add	r2, r2, #1
 110              	.LVL9:
 111 0056 F1E7     		b	.L2
 112              	.LVL10:
ARM GAS  C:\Users\SNFU\AppData\Local\Temp\ccQc6wyh.s 			page 9


 113              	.L10:
 114 0058 C0B2     		uxtb	r0, r0
 115              	.LVL11:
 116 005a 0433     		add	r3, r3, #4
 117              	.LVL12:
 118 005c 0918     		add	r1, r1, r0
 119              	.LVL13:
 120              	.LBE24:
 150:.\Generated_Source\PSoC4/cyfitter_cfg.c **** 	for (i = 0u; i < CY_CFG_BASE_ADDR_COUNT; i++)
 121              		.loc 1 150 0
 122 005e 202B     		cmp	r3, #32
 123 0060 E1D1     		bne	.L5
 124              	.LBE23:
 125              	.LBE22:
 339:.\Generated_Source\PSoC4/cyfitter_cfg.c **** 	{
 340:.\Generated_Source\PSoC4/cyfitter_cfg.c **** 		static const uint32 CYCODE cy_cfg_addr_table[] = {
 341:.\Generated_Source\PSoC4/cyfitter_cfg.c **** 			0x400F0001u, /* Base address: 0x400F0000 Count: 1 */
 342:.\Generated_Source\PSoC4/cyfitter_cfg.c **** 			0x400F325Eu, /* Base address: 0x400F3200 Count: 94 */
 343:.\Generated_Source\PSoC4/cyfitter_cfg.c **** 			0x400F3337u, /* Base address: 0x400F3300 Count: 55 */
 344:.\Generated_Source\PSoC4/cyfitter_cfg.c **** 			0x400F4002u, /* Base address: 0x400F4000 Count: 2 */
 345:.\Generated_Source\PSoC4/cyfitter_cfg.c **** 			0x400F4106u, /* Base address: 0x400F4100 Count: 6 */
 346:.\Generated_Source\PSoC4/cyfitter_cfg.c **** 			0x400F4204u, /* Base address: 0x400F4200 Count: 4 */
 347:.\Generated_Source\PSoC4/cyfitter_cfg.c **** 			0x400F430Cu, /* Base address: 0x400F4300 Count: 12 */
 348:.\Generated_Source\PSoC4/cyfitter_cfg.c **** 			0x400F6002u, /* Base address: 0x400F6000 Count: 2 */
 349:.\Generated_Source\PSoC4/cyfitter_cfg.c **** 		};
 350:.\Generated_Source\PSoC4/cyfitter_cfg.c **** 
 351:.\Generated_Source\PSoC4/cyfitter_cfg.c **** 		static const cy_cfg_addrvalue_t CYCODE cy_cfg_data_table[] = {
 352:.\Generated_Source\PSoC4/cyfitter_cfg.c **** 			{0x82u, 0x0Fu},
 353:.\Generated_Source\PSoC4/cyfitter_cfg.c **** 			{0x01u, 0x01u},
 354:.\Generated_Source\PSoC4/cyfitter_cfg.c **** 			{0x05u, 0x38u},
 355:.\Generated_Source\PSoC4/cyfitter_cfg.c **** 			{0x06u, 0x02u},
 356:.\Generated_Source\PSoC4/cyfitter_cfg.c **** 			{0x07u, 0x04u},
 357:.\Generated_Source\PSoC4/cyfitter_cfg.c **** 			{0x08u, 0x01u},
 358:.\Generated_Source\PSoC4/cyfitter_cfg.c **** 			{0x0Eu, 0x02u},
 359:.\Generated_Source\PSoC4/cyfitter_cfg.c **** 			{0x11u, 0x18u},
 360:.\Generated_Source\PSoC4/cyfitter_cfg.c **** 			{0x13u, 0x22u},
 361:.\Generated_Source\PSoC4/cyfitter_cfg.c **** 			{0x15u, 0x20u},
 362:.\Generated_Source\PSoC4/cyfitter_cfg.c **** 			{0x17u, 0x18u},
 363:.\Generated_Source\PSoC4/cyfitter_cfg.c **** 			{0x1Au, 0x02u},
 364:.\Generated_Source\PSoC4/cyfitter_cfg.c **** 			{0x1Fu, 0x06u},
 365:.\Generated_Source\PSoC4/cyfitter_cfg.c **** 			{0x20u, 0x02u},
 366:.\Generated_Source\PSoC4/cyfitter_cfg.c **** 			{0x21u, 0x12u},
 367:.\Generated_Source\PSoC4/cyfitter_cfg.c **** 			{0x23u, 0x20u},
 368:.\Generated_Source\PSoC4/cyfitter_cfg.c **** 			{0x27u, 0x20u},
 369:.\Generated_Source\PSoC4/cyfitter_cfg.c **** 			{0x28u, 0x02u},
 370:.\Generated_Source\PSoC4/cyfitter_cfg.c **** 			{0x29u, 0x28u},
 371:.\Generated_Source\PSoC4/cyfitter_cfg.c **** 			{0x30u, 0x02u},
 372:.\Generated_Source\PSoC4/cyfitter_cfg.c **** 			{0x31u, 0x3Eu},
 373:.\Generated_Source\PSoC4/cyfitter_cfg.c **** 			{0x32u, 0x01u},
 374:.\Generated_Source\PSoC4/cyfitter_cfg.c **** 			{0x35u, 0x01u},
 375:.\Generated_Source\PSoC4/cyfitter_cfg.c **** 			{0x36u, 0x01u},
 376:.\Generated_Source\PSoC4/cyfitter_cfg.c **** 			{0x3Eu, 0x05u},
 377:.\Generated_Source\PSoC4/cyfitter_cfg.c **** 			{0x3Fu, 0x10u},
 378:.\Generated_Source\PSoC4/cyfitter_cfg.c **** 			{0x40u, 0x23u},
 379:.\Generated_Source\PSoC4/cyfitter_cfg.c **** 			{0x41u, 0x04u},
 380:.\Generated_Source\PSoC4/cyfitter_cfg.c **** 			{0x45u, 0xECu},
 381:.\Generated_Source\PSoC4/cyfitter_cfg.c **** 			{0x46u, 0xC0u},
ARM GAS  C:\Users\SNFU\AppData\Local\Temp\ccQc6wyh.s 			page 10


 382:.\Generated_Source\PSoC4/cyfitter_cfg.c **** 			{0x47u, 0x0Bu},
 383:.\Generated_Source\PSoC4/cyfitter_cfg.c **** 			{0x48u, 0x1Bu},
 384:.\Generated_Source\PSoC4/cyfitter_cfg.c **** 			{0x49u, 0xFFu},
 385:.\Generated_Source\PSoC4/cyfitter_cfg.c **** 			{0x4Au, 0xFFu},
 386:.\Generated_Source\PSoC4/cyfitter_cfg.c **** 			{0x4Bu, 0xFFu},
 387:.\Generated_Source\PSoC4/cyfitter_cfg.c **** 			{0x4Eu, 0xF0u},
 388:.\Generated_Source\PSoC4/cyfitter_cfg.c **** 			{0x4Fu, 0x44u},
 389:.\Generated_Source\PSoC4/cyfitter_cfg.c **** 			{0x50u, 0x0Cu},
 390:.\Generated_Source\PSoC4/cyfitter_cfg.c **** 			{0x54u, 0x01u},
 391:.\Generated_Source\PSoC4/cyfitter_cfg.c **** 			{0x58u, 0x04u},
 392:.\Generated_Source\PSoC4/cyfitter_cfg.c **** 			{0x59u, 0x04u},
 393:.\Generated_Source\PSoC4/cyfitter_cfg.c **** 			{0x5Au, 0x04u},
 394:.\Generated_Source\PSoC4/cyfitter_cfg.c **** 			{0x5Bu, 0x04u},
 395:.\Generated_Source\PSoC4/cyfitter_cfg.c **** 			{0x5Fu, 0x01u},
 396:.\Generated_Source\PSoC4/cyfitter_cfg.c **** 			{0x66u, 0xC0u},
 397:.\Generated_Source\PSoC4/cyfitter_cfg.c **** 			{0x6Au, 0x40u},
 398:.\Generated_Source\PSoC4/cyfitter_cfg.c **** 			{0x6Bu, 0x02u},
 399:.\Generated_Source\PSoC4/cyfitter_cfg.c **** 			{0x84u, 0x0Cu},
 400:.\Generated_Source\PSoC4/cyfitter_cfg.c **** 			{0x85u, 0x49u},
 401:.\Generated_Source\PSoC4/cyfitter_cfg.c **** 			{0x86u, 0x01u},
 402:.\Generated_Source\PSoC4/cyfitter_cfg.c **** 			{0x88u, 0x04u},
 403:.\Generated_Source\PSoC4/cyfitter_cfg.c **** 			{0x89u, 0x03u},
 404:.\Generated_Source\PSoC4/cyfitter_cfg.c **** 			{0x8Bu, 0x04u},
 405:.\Generated_Source\PSoC4/cyfitter_cfg.c **** 			{0x8Du, 0x03u},
 406:.\Generated_Source\PSoC4/cyfitter_cfg.c **** 			{0x8Fu, 0x64u},
 407:.\Generated_Source\PSoC4/cyfitter_cfg.c **** 			{0x95u, 0x03u},
 408:.\Generated_Source\PSoC4/cyfitter_cfg.c **** 			{0x97u, 0x2Cu},
 409:.\Generated_Source\PSoC4/cyfitter_cfg.c **** 			{0x9Du, 0x10u},
 410:.\Generated_Source\PSoC4/cyfitter_cfg.c **** 			{0x9Eu, 0x17u},
 411:.\Generated_Source\PSoC4/cyfitter_cfg.c **** 			{0xA0u, 0x19u},
 412:.\Generated_Source\PSoC4/cyfitter_cfg.c **** 			{0xA2u, 0x06u},
 413:.\Generated_Source\PSoC4/cyfitter_cfg.c **** 			{0xA5u, 0x40u},
 414:.\Generated_Source\PSoC4/cyfitter_cfg.c **** 			{0xA8u, 0x19u},
 415:.\Generated_Source\PSoC4/cyfitter_cfg.c **** 			{0xAAu, 0x02u},
 416:.\Generated_Source\PSoC4/cyfitter_cfg.c **** 			{0xAFu, 0x6Eu},
 417:.\Generated_Source\PSoC4/cyfitter_cfg.c **** 			{0xB3u, 0x0Fu},
 418:.\Generated_Source\PSoC4/cyfitter_cfg.c **** 			{0xB4u, 0x07u},
 419:.\Generated_Source\PSoC4/cyfitter_cfg.c **** 			{0xB5u, 0x10u},
 420:.\Generated_Source\PSoC4/cyfitter_cfg.c **** 			{0xB6u, 0x18u},
 421:.\Generated_Source\PSoC4/cyfitter_cfg.c **** 			{0xB7u, 0x68u},
 422:.\Generated_Source\PSoC4/cyfitter_cfg.c **** 			{0xB8u, 0x80u},
 423:.\Generated_Source\PSoC4/cyfitter_cfg.c **** 			{0xBAu, 0x20u},
 424:.\Generated_Source\PSoC4/cyfitter_cfg.c **** 			{0xBBu, 0x88u},
 425:.\Generated_Source\PSoC4/cyfitter_cfg.c **** 			{0xBEu, 0x40u},
 426:.\Generated_Source\PSoC4/cyfitter_cfg.c **** 			{0xBFu, 0x10u},
 427:.\Generated_Source\PSoC4/cyfitter_cfg.c **** 			{0xC0u, 0x01u},
 428:.\Generated_Source\PSoC4/cyfitter_cfg.c **** 			{0xC6u, 0x10u},
 429:.\Generated_Source\PSoC4/cyfitter_cfg.c **** 			{0xC7u, 0x05u},
 430:.\Generated_Source\PSoC4/cyfitter_cfg.c **** 			{0xC8u, 0x18u},
 431:.\Generated_Source\PSoC4/cyfitter_cfg.c **** 			{0xC9u, 0xFFu},
 432:.\Generated_Source\PSoC4/cyfitter_cfg.c **** 			{0xCAu, 0x07u},
 433:.\Generated_Source\PSoC4/cyfitter_cfg.c **** 			{0xCBu, 0xFFu},
 434:.\Generated_Source\PSoC4/cyfitter_cfg.c **** 			{0xCCu, 0x40u},
 435:.\Generated_Source\PSoC4/cyfitter_cfg.c **** 			{0xCDu, 0x20u},
 436:.\Generated_Source\PSoC4/cyfitter_cfg.c **** 			{0xCEu, 0xF0u},
 437:.\Generated_Source\PSoC4/cyfitter_cfg.c **** 			{0xCFu, 0x05u},
 438:.\Generated_Source\PSoC4/cyfitter_cfg.c **** 			{0xD0u, 0x08u},
ARM GAS  C:\Users\SNFU\AppData\Local\Temp\ccQc6wyh.s 			page 11


 439:.\Generated_Source\PSoC4/cyfitter_cfg.c **** 			{0xD8u, 0x04u},
 440:.\Generated_Source\PSoC4/cyfitter_cfg.c **** 			{0xD9u, 0x04u},
 441:.\Generated_Source\PSoC4/cyfitter_cfg.c **** 			{0xDAu, 0x04u},
 442:.\Generated_Source\PSoC4/cyfitter_cfg.c **** 			{0xDFu, 0x01u},
 443:.\Generated_Source\PSoC4/cyfitter_cfg.c **** 			{0xE0u, 0x40u},
 444:.\Generated_Source\PSoC4/cyfitter_cfg.c **** 			{0xE1u, 0xA8u},
 445:.\Generated_Source\PSoC4/cyfitter_cfg.c **** 			{0xE2u, 0x40u},
 446:.\Generated_Source\PSoC4/cyfitter_cfg.c **** 			{0xE3u, 0x20u},
 447:.\Generated_Source\PSoC4/cyfitter_cfg.c **** 			{0x00u, 0x04u},
 448:.\Generated_Source\PSoC4/cyfitter_cfg.c **** 			{0x02u, 0x04u},
 449:.\Generated_Source\PSoC4/cyfitter_cfg.c **** 			{0x04u, 0x24u},
 450:.\Generated_Source\PSoC4/cyfitter_cfg.c **** 			{0x05u, 0x40u},
 451:.\Generated_Source\PSoC4/cyfitter_cfg.c **** 			{0x0Au, 0x01u},
 452:.\Generated_Source\PSoC4/cyfitter_cfg.c **** 			{0x0Fu, 0x08u},
 453:.\Generated_Source\PSoC4/cyfitter_cfg.c **** 			{0x12u, 0x08u},
 454:.\Generated_Source\PSoC4/cyfitter_cfg.c **** 			{0x13u, 0x02u},
 455:.\Generated_Source\PSoC4/cyfitter_cfg.c **** 			{0x17u, 0x22u},
 456:.\Generated_Source\PSoC4/cyfitter_cfg.c **** 			{0x18u, 0x05u},
 457:.\Generated_Source\PSoC4/cyfitter_cfg.c **** 			{0x1Du, 0x48u},
 458:.\Generated_Source\PSoC4/cyfitter_cfg.c **** 			{0x1Eu, 0x41u},
 459:.\Generated_Source\PSoC4/cyfitter_cfg.c **** 			{0x21u, 0x40u},
 460:.\Generated_Source\PSoC4/cyfitter_cfg.c **** 			{0x22u, 0x18u},
 461:.\Generated_Source\PSoC4/cyfitter_cfg.c **** 			{0x23u, 0x22u},
 462:.\Generated_Source\PSoC4/cyfitter_cfg.c **** 			{0x27u, 0xC8u},
 463:.\Generated_Source\PSoC4/cyfitter_cfg.c **** 			{0x28u, 0x10u},
 464:.\Generated_Source\PSoC4/cyfitter_cfg.c **** 			{0x29u, 0x40u},
 465:.\Generated_Source\PSoC4/cyfitter_cfg.c **** 			{0x2Au, 0x04u},
 466:.\Generated_Source\PSoC4/cyfitter_cfg.c **** 			{0x2Cu, 0x10u},
 467:.\Generated_Source\PSoC4/cyfitter_cfg.c **** 			{0x2Eu, 0x01u},
 468:.\Generated_Source\PSoC4/cyfitter_cfg.c **** 			{0x2Fu, 0x08u},
 469:.\Generated_Source\PSoC4/cyfitter_cfg.c **** 			{0x32u, 0x08u},
 470:.\Generated_Source\PSoC4/cyfitter_cfg.c **** 			{0x33u, 0x40u},
 471:.\Generated_Source\PSoC4/cyfitter_cfg.c **** 			{0x36u, 0x08u},
 472:.\Generated_Source\PSoC4/cyfitter_cfg.c **** 			{0x37u, 0x82u},
 473:.\Generated_Source\PSoC4/cyfitter_cfg.c **** 			{0x38u, 0x04u},
 474:.\Generated_Source\PSoC4/cyfitter_cfg.c **** 			{0x39u, 0x80u},
 475:.\Generated_Source\PSoC4/cyfitter_cfg.c **** 			{0x3Au, 0x10u},
 476:.\Generated_Source\PSoC4/cyfitter_cfg.c **** 			{0x3Cu, 0x04u},
 477:.\Generated_Source\PSoC4/cyfitter_cfg.c **** 			{0x3Du, 0x01u},
 478:.\Generated_Source\PSoC4/cyfitter_cfg.c **** 			{0x40u, 0x01u},
 479:.\Generated_Source\PSoC4/cyfitter_cfg.c **** 			{0x45u, 0x08u},
 480:.\Generated_Source\PSoC4/cyfitter_cfg.c **** 			{0x47u, 0x22u},
 481:.\Generated_Source\PSoC4/cyfitter_cfg.c **** 			{0x4Du, 0x01u},
 482:.\Generated_Source\PSoC4/cyfitter_cfg.c **** 			{0x4Fu, 0x08u},
 483:.\Generated_Source\PSoC4/cyfitter_cfg.c **** 			{0x50u, 0x10u},
 484:.\Generated_Source\PSoC4/cyfitter_cfg.c **** 			{0x52u, 0x04u},
 485:.\Generated_Source\PSoC4/cyfitter_cfg.c **** 			{0x56u, 0x10u},
 486:.\Generated_Source\PSoC4/cyfitter_cfg.c **** 			{0x57u, 0x18u},
 487:.\Generated_Source\PSoC4/cyfitter_cfg.c **** 			{0x5Du, 0x01u},
 488:.\Generated_Source\PSoC4/cyfitter_cfg.c **** 			{0x5Eu, 0x40u},
 489:.\Generated_Source\PSoC4/cyfitter_cfg.c **** 			{0x5Fu, 0x18u},
 490:.\Generated_Source\PSoC4/cyfitter_cfg.c **** 			{0x63u, 0x30u},
 491:.\Generated_Source\PSoC4/cyfitter_cfg.c **** 			{0x82u, 0x10u},
 492:.\Generated_Source\PSoC4/cyfitter_cfg.c **** 			{0xC0u, 0xE6u},
 493:.\Generated_Source\PSoC4/cyfitter_cfg.c **** 			{0xC2u, 0x41u},
 494:.\Generated_Source\PSoC4/cyfitter_cfg.c **** 			{0xC4u, 0x5Au},
 495:.\Generated_Source\PSoC4/cyfitter_cfg.c **** 			{0xCAu, 0xEAu},
ARM GAS  C:\Users\SNFU\AppData\Local\Temp\ccQc6wyh.s 			page 12


 496:.\Generated_Source\PSoC4/cyfitter_cfg.c **** 			{0xCCu, 0xDAu},
 497:.\Generated_Source\PSoC4/cyfitter_cfg.c **** 			{0xCEu, 0xCEu},
 498:.\Generated_Source\PSoC4/cyfitter_cfg.c **** 			{0xD0u, 0xE8u},
 499:.\Generated_Source\PSoC4/cyfitter_cfg.c **** 			{0xD6u, 0xF0u},
 500:.\Generated_Source\PSoC4/cyfitter_cfg.c **** 			{0xE2u, 0x80u},
 501:.\Generated_Source\PSoC4/cyfitter_cfg.c **** 			{0xE4u, 0x04u},
 502:.\Generated_Source\PSoC4/cyfitter_cfg.c **** 			{0x6Fu, 0x10u},
 503:.\Generated_Source\PSoC4/cyfitter_cfg.c **** 			{0xDAu, 0x80u},
 504:.\Generated_Source\PSoC4/cyfitter_cfg.c **** 			{0x27u, 0x10u},
 505:.\Generated_Source\PSoC4/cyfitter_cfg.c **** 			{0x67u, 0x08u},
 506:.\Generated_Source\PSoC4/cyfitter_cfg.c **** 			{0x8Bu, 0x04u},
 507:.\Generated_Source\PSoC4/cyfitter_cfg.c **** 			{0x9Fu, 0x10u},
 508:.\Generated_Source\PSoC4/cyfitter_cfg.c **** 			{0xC8u, 0x80u},
 509:.\Generated_Source\PSoC4/cyfitter_cfg.c **** 			{0xD8u, 0x80u},
 510:.\Generated_Source\PSoC4/cyfitter_cfg.c **** 			{0x0Au, 0x04u},
 511:.\Generated_Source\PSoC4/cyfitter_cfg.c **** 			{0x50u, 0x04u},
 512:.\Generated_Source\PSoC4/cyfitter_cfg.c **** 			{0xC2u, 0x02u},
 513:.\Generated_Source\PSoC4/cyfitter_cfg.c **** 			{0xD4u, 0x04u},
 514:.\Generated_Source\PSoC4/cyfitter_cfg.c **** 			{0x18u, 0x08u},
 515:.\Generated_Source\PSoC4/cyfitter_cfg.c **** 			{0x19u, 0x40u},
 516:.\Generated_Source\PSoC4/cyfitter_cfg.c **** 			{0x64u, 0x08u},
 517:.\Generated_Source\PSoC4/cyfitter_cfg.c **** 			{0x72u, 0x04u},
 518:.\Generated_Source\PSoC4/cyfitter_cfg.c **** 			{0x80u, 0x08u},
 519:.\Generated_Source\PSoC4/cyfitter_cfg.c **** 			{0x89u, 0x40u},
 520:.\Generated_Source\PSoC4/cyfitter_cfg.c **** 			{0x92u, 0x04u},
 521:.\Generated_Source\PSoC4/cyfitter_cfg.c **** 			{0x94u, 0x08u},
 522:.\Generated_Source\PSoC4/cyfitter_cfg.c **** 			{0xC6u, 0x02u},
 523:.\Generated_Source\PSoC4/cyfitter_cfg.c **** 			{0xD8u, 0x01u},
 524:.\Generated_Source\PSoC4/cyfitter_cfg.c **** 			{0xDCu, 0x04u},
 525:.\Generated_Source\PSoC4/cyfitter_cfg.c **** 			{0xE2u, 0x01u},
 526:.\Generated_Source\PSoC4/cyfitter_cfg.c **** 			{0x10u, 0x01u},
 527:.\Generated_Source\PSoC4/cyfitter_cfg.c **** 			{0x11u, 0x01u},
 528:.\Generated_Source\PSoC4/cyfitter_cfg.c **** 		};
 529:.\Generated_Source\PSoC4/cyfitter_cfg.c **** 
 530:.\Generated_Source\PSoC4/cyfitter_cfg.c **** 
 531:.\Generated_Source\PSoC4/cyfitter_cfg.c **** 
 532:.\Generated_Source\PSoC4/cyfitter_cfg.c **** 		CYPACKED typedef struct {
 533:.\Generated_Source\PSoC4/cyfitter_cfg.c **** 			void CYFAR *address;
 534:.\Generated_Source\PSoC4/cyfitter_cfg.c **** 			uint16 size;
 535:.\Generated_Source\PSoC4/cyfitter_cfg.c **** 		} CYPACKED_ATTR cfg_memset_t;
 536:.\Generated_Source\PSoC4/cyfitter_cfg.c **** 
 537:.\Generated_Source\PSoC4/cyfitter_cfg.c **** 		static const cfg_memset_t CYCODE cfg_memset_list [] = {
 538:.\Generated_Source\PSoC4/cyfitter_cfg.c **** 			/* address, size */
 539:.\Generated_Source\PSoC4/cyfitter_cfg.c **** 			{(void CYFAR *)(CYDEV_UDB_P0_U0_BASE), 1024u},
 540:.\Generated_Source\PSoC4/cyfitter_cfg.c **** 			{(void CYFAR *)(CYDEV_UDB_DSI0_BASE), 1024u},
 541:.\Generated_Source\PSoC4/cyfitter_cfg.c **** 		};
 542:.\Generated_Source\PSoC4/cyfitter_cfg.c **** 
 543:.\Generated_Source\PSoC4/cyfitter_cfg.c **** 		uint8 CYDATA i;
 544:.\Generated_Source\PSoC4/cyfitter_cfg.c **** 
 545:.\Generated_Source\PSoC4/cyfitter_cfg.c **** 		/* Zero out critical memory blocks before beginning configuration */
 546:.\Generated_Source\PSoC4/cyfitter_cfg.c **** 		for (i = 0u; i < (sizeof(cfg_memset_list)/sizeof(cfg_memset_list[0])); i++)
 547:.\Generated_Source\PSoC4/cyfitter_cfg.c **** 		{
 548:.\Generated_Source\PSoC4/cyfitter_cfg.c **** 			const cfg_memset_t CYCODE * CYDATA ms = &cfg_memset_list[i];
 549:.\Generated_Source\PSoC4/cyfitter_cfg.c **** 			CYMEMZERO(ms->address, (size_t)(uint32)(ms->size));
 550:.\Generated_Source\PSoC4/cyfitter_cfg.c **** 		}
 551:.\Generated_Source\PSoC4/cyfitter_cfg.c **** 
 552:.\Generated_Source\PSoC4/cyfitter_cfg.c **** 		cfg_write_bytes32(cy_cfg_addr_table, cy_cfg_data_table);
ARM GAS  C:\Users\SNFU\AppData\Local\Temp\ccQc6wyh.s 			page 13


 553:.\Generated_Source\PSoC4/cyfitter_cfg.c **** 
 554:.\Generated_Source\PSoC4/cyfitter_cfg.c **** 		/* Perform normal device configuration. Order is not critical for these items. */
 555:.\Generated_Source\PSoC4/cyfitter_cfg.c **** 		CY_SET_XTND_REG16((void CYFAR *)(CYREG_UDB_BCTL0_DRV), 0x0100u);
 126              		.loc 1 555 0
 127 0062 634B     		ldr	r3, .L11+16
 128              	.LVL14:
 129 0064 8022     		mov	r2, #128
 130 0066 5200     		lsl	r2, r2, #1
 131 0068 1A80     		strh	r2, [r3]
 556:.\Generated_Source\PSoC4/cyfitter_cfg.c **** 		CY_SET_XTND_REG8((void CYFAR *)(CYREG_UDB_BCTL0_DRV + 0x2u), 0x01u);
 132              		.loc 1 556 0
 133 006a 624B     		ldr	r3, .L11+20
 134 006c 0122     		mov	r2, #1
 135 006e 1A70     		strb	r2, [r3]
 557:.\Generated_Source\PSoC4/cyfitter_cfg.c **** 
 558:.\Generated_Source\PSoC4/cyfitter_cfg.c **** 		/* HSIOM Starting address: CYDEV_HSIOM_BASE */
 559:.\Generated_Source\PSoC4/cyfitter_cfg.c **** 		CY_SET_XTND_REG32((void CYFAR *)(CYREG_HSIOM_PORT_SEL1), 0x03000000u);
 136              		.loc 1 559 0
 137 0070 C021     		mov	r1, #192
 138              	.LVL15:
 139 0072 614B     		ldr	r3, .L11+24
 140 0074 8904     		lsl	r1, r1, #18
 141 0076 1960     		str	r1, [r3]
 560:.\Generated_Source\PSoC4/cyfitter_cfg.c **** 		CY_SET_XTND_REG32((void CYFAR *)(CYREG_HSIOM_PORT_SEL2), 0x00000330u);
 142              		.loc 1 560 0
 143 0078 CC22     		mov	r2, #204
 144 007a 604B     		ldr	r3, .L11+28
 145 007c 9200     		lsl	r2, r2, #2
 146 007e 1A60     		str	r2, [r3]
 561:.\Generated_Source\PSoC4/cyfitter_cfg.c **** 		CY_SET_XTND_REG32((void CYFAR *)(CYREG_HSIOM_PORT_SEL3), 0x0003EEEEu);
 147              		.loc 1 561 0
 148 0080 5F4A     		ldr	r2, .L11+32
 149 0082 604B     		ldr	r3, .L11+36
 562:.\Generated_Source\PSoC4/cyfitter_cfg.c **** 		CY_SET_XTND_REG32((void CYFAR *)(CYREG_HSIOM_PORT_SEL4), 0x00000099u);
 563:.\Generated_Source\PSoC4/cyfitter_cfg.c **** 
 564:.\Generated_Source\PSoC4/cyfitter_cfg.c **** 		/* IOPINS0_0 Starting address: CYDEV_PRT0_DR */
 565:.\Generated_Source\PSoC4/cyfitter_cfg.c **** 		CY_SET_XTND_REG32((void CYFAR *)(CYREG_PRT0_DR), 0x00000080u);
 566:.\Generated_Source\PSoC4/cyfitter_cfg.c **** 		CY_SET_XTND_REG32((void CYFAR *)(CYREG_PRT0_PC), 0x005B6DB6u);
 567:.\Generated_Source\PSoC4/cyfitter_cfg.c **** 		CY_SET_XTND_REG32((void CYFAR *)(CYREG_PRT0_INTCFG), 0x00008000u);
 568:.\Generated_Source\PSoC4/cyfitter_cfg.c **** 
 569:.\Generated_Source\PSoC4/cyfitter_cfg.c **** 		/* IOPINS0_1 Starting address: CYDEV_PRT1_DR */
 570:.\Generated_Source\PSoC4/cyfitter_cfg.c **** 		CY_SET_XTND_REG32((void CYFAR *)(CYREG_PRT1_DR), 0x00000040u);
 571:.\Generated_Source\PSoC4/cyfitter_cfg.c **** 		CY_SET_XTND_REG32((void CYFAR *)(CYREG_PRT1_PC), 0x00180006u);
 572:.\Generated_Source\PSoC4/cyfitter_cfg.c **** 
 573:.\Generated_Source\PSoC4/cyfitter_cfg.c **** 		/* IOPINS0_2 Starting address: CYDEV_PRT2_DR */
 574:.\Generated_Source\PSoC4/cyfitter_cfg.c **** 		CY_SET_XTND_REG32((void CYFAR *)(CYREG_PRT2_DR), 0x00000006u);
 575:.\Generated_Source\PSoC4/cyfitter_cfg.c **** 		CY_SET_XTND_REG32((void CYFAR *)(CYREG_PRT2_PC), 0x000F6DB6u);
 576:.\Generated_Source\PSoC4/cyfitter_cfg.c **** 
 577:.\Generated_Source\PSoC4/cyfitter_cfg.c **** 		/* IOPINS0_3 Starting address: CYDEV_PRT3_DR */
 578:.\Generated_Source\PSoC4/cyfitter_cfg.c **** 		CY_SET_XTND_REG32((void CYFAR *)(CYREG_PRT3_DR), 0x00000013u);
 579:.\Generated_Source\PSoC4/cyfitter_cfg.c **** 		CY_SET_XTND_REG32((void CYFAR *)(CYREG_PRT3_PC), 0x00DB6DA4u);
 580:.\Generated_Source\PSoC4/cyfitter_cfg.c **** 
 581:.\Generated_Source\PSoC4/cyfitter_cfg.c **** 		/* IOPINS0_4 Starting address: CYDEV_PRT4_DR */
 582:.\Generated_Source\PSoC4/cyfitter_cfg.c **** 		CY_SET_XTND_REG32((void CYFAR *)(CYREG_PRT4_DR), 0x00000002u);
 583:.\Generated_Source\PSoC4/cyfitter_cfg.c **** 		CY_SET_XTND_REG32((void CYFAR *)(CYREG_PRT4_PC), 0x00000DB1u);
 150              		.loc 1 583 0
 151 0084 6048     		ldr	r0, .L11+40
ARM GAS  C:\Users\SNFU\AppData\Local\Temp\ccQc6wyh.s 			page 14


 561:.\Generated_Source\PSoC4/cyfitter_cfg.c **** 		CY_SET_XTND_REG32((void CYFAR *)(CYREG_HSIOM_PORT_SEL3), 0x0003EEEEu);
 152              		.loc 1 561 0
 153 0086 1A60     		str	r2, [r3]
 562:.\Generated_Source\PSoC4/cyfitter_cfg.c **** 		CY_SET_XTND_REG32((void CYFAR *)(CYREG_HSIOM_PORT_SEL4), 0x00000099u);
 154              		.loc 1 562 0
 155 0088 604B     		ldr	r3, .L11+44
 156 008a 9922     		mov	r2, #153
 157 008c 1A60     		str	r2, [r3]
 565:.\Generated_Source\PSoC4/cyfitter_cfg.c **** 		CY_SET_XTND_REG32((void CYFAR *)(CYREG_PRT0_DR), 0x00000080u);
 158              		.loc 1 565 0
 159 008e 604B     		ldr	r3, .L11+48
 160 0090 8022     		mov	r2, #128
 161 0092 1A60     		str	r2, [r3]
 566:.\Generated_Source\PSoC4/cyfitter_cfg.c **** 		CY_SET_XTND_REG32((void CYFAR *)(CYREG_PRT0_PC), 0x005B6DB6u);
 162              		.loc 1 566 0
 163 0094 5F4A     		ldr	r2, .L11+52
 164 0096 604B     		ldr	r3, .L11+56
 584:.\Generated_Source\PSoC4/cyfitter_cfg.c **** 		CY_SET_XTND_REG32((void CYFAR *)(CYREG_PRT4_PC2), 0x00000002u);
 585:.\Generated_Source\PSoC4/cyfitter_cfg.c **** 
 586:.\Generated_Source\PSoC4/cyfitter_cfg.c **** 		/* UDB_PA_0 Starting address: CYDEV_UDB_PA0_BASE */
 587:.\Generated_Source\PSoC4/cyfitter_cfg.c **** 		CY_SET_XTND_REG32((void CYFAR *)(CYDEV_UDB_PA0_BASE), 0x00990000u);
 588:.\Generated_Source\PSoC4/cyfitter_cfg.c **** 		CY_SET_XTND_REG32((void CYFAR *)(CYREG_UDB_PA0_CFG4), 0x80000000u);
 165              		.loc 1 588 0
 166 0098 8024     		mov	r4, #128
 566:.\Generated_Source\PSoC4/cyfitter_cfg.c **** 		CY_SET_XTND_REG32((void CYFAR *)(CYREG_PRT0_PC), 0x005B6DB6u);
 167              		.loc 1 566 0
 168 009a 1A60     		str	r2, [r3]
 567:.\Generated_Source\PSoC4/cyfitter_cfg.c **** 		CY_SET_XTND_REG32((void CYFAR *)(CYREG_PRT0_INTCFG), 0x00008000u);
 169              		.loc 1 567 0
 170 009c 5F4B     		ldr	r3, .L11+60
 171 009e 8022     		mov	r2, #128
 172 00a0 1202     		lsl	r2, r2, #8
 173 00a2 1A60     		str	r2, [r3]
 570:.\Generated_Source\PSoC4/cyfitter_cfg.c **** 		CY_SET_XTND_REG32((void CYFAR *)(CYREG_PRT1_DR), 0x00000040u);
 174              		.loc 1 570 0
 175 00a4 5E4B     		ldr	r3, .L11+64
 176 00a6 4022     		mov	r2, #64
 177 00a8 1A60     		str	r2, [r3]
 571:.\Generated_Source\PSoC4/cyfitter_cfg.c **** 		CY_SET_XTND_REG32((void CYFAR *)(CYREG_PRT1_PC), 0x00180006u);
 178              		.loc 1 571 0
 179 00aa 5E4A     		ldr	r2, .L11+68
 180 00ac 5E4B     		ldr	r3, .L11+72
 181              		.loc 1 588 0
 182 00ae 2406     		lsl	r4, r4, #24
 571:.\Generated_Source\PSoC4/cyfitter_cfg.c **** 		CY_SET_XTND_REG32((void CYFAR *)(CYREG_PRT1_PC), 0x00180006u);
 183              		.loc 1 571 0
 184 00b0 1A60     		str	r2, [r3]
 574:.\Generated_Source\PSoC4/cyfitter_cfg.c **** 		CY_SET_XTND_REG32((void CYFAR *)(CYREG_PRT2_DR), 0x00000006u);
 185              		.loc 1 574 0
 186 00b2 5E4B     		ldr	r3, .L11+76
 187 00b4 0622     		mov	r2, #6
 188 00b6 1A60     		str	r2, [r3]
 575:.\Generated_Source\PSoC4/cyfitter_cfg.c **** 		CY_SET_XTND_REG32((void CYFAR *)(CYREG_PRT2_PC), 0x000F6DB6u);
 189              		.loc 1 575 0
 190 00b8 5D4A     		ldr	r2, .L11+80
 191 00ba 5E4B     		ldr	r3, .L11+84
 192 00bc 1A60     		str	r2, [r3]
ARM GAS  C:\Users\SNFU\AppData\Local\Temp\ccQc6wyh.s 			page 15


 578:.\Generated_Source\PSoC4/cyfitter_cfg.c **** 		CY_SET_XTND_REG32((void CYFAR *)(CYREG_PRT3_DR), 0x00000013u);
 193              		.loc 1 578 0
 194 00be 5E4B     		ldr	r3, .L11+88
 195 00c0 1322     		mov	r2, #19
 196 00c2 1A60     		str	r2, [r3]
 579:.\Generated_Source\PSoC4/cyfitter_cfg.c **** 		CY_SET_XTND_REG32((void CYFAR *)(CYREG_PRT3_PC), 0x00DB6DA4u);
 197              		.loc 1 579 0
 198 00c4 5D4A     		ldr	r2, .L11+92
 199 00c6 5E4B     		ldr	r3, .L11+96
 200 00c8 1A60     		str	r2, [r3]
 582:.\Generated_Source\PSoC4/cyfitter_cfg.c **** 		CY_SET_XTND_REG32((void CYFAR *)(CYREG_PRT4_DR), 0x00000002u);
 201              		.loc 1 582 0
 202 00ca 5E4B     		ldr	r3, .L11+100
 203 00cc 0222     		mov	r2, #2
 204 00ce 1A60     		str	r2, [r3]
 583:.\Generated_Source\PSoC4/cyfitter_cfg.c **** 		CY_SET_XTND_REG32((void CYFAR *)(CYREG_PRT4_PC), 0x00000DB1u);
 205              		.loc 1 583 0
 206 00d0 5D4B     		ldr	r3, .L11+104
 207 00d2 1860     		str	r0, [r3]
 584:.\Generated_Source\PSoC4/cyfitter_cfg.c **** 		CY_SET_XTND_REG32((void CYFAR *)(CYREG_PRT4_PC2), 0x00000002u);
 208              		.loc 1 584 0
 209 00d4 5D4B     		ldr	r3, .L11+108
 587:.\Generated_Source\PSoC4/cyfitter_cfg.c **** 		CY_SET_XTND_REG32((void CYFAR *)(CYDEV_UDB_PA0_BASE), 0x00990000u);
 210              		.loc 1 587 0
 211 00d6 5E48     		ldr	r0, .L11+112
 584:.\Generated_Source\PSoC4/cyfitter_cfg.c **** 		CY_SET_XTND_REG32((void CYFAR *)(CYREG_PRT4_PC2), 0x00000002u);
 212              		.loc 1 584 0
 213 00d8 1A60     		str	r2, [r3]
 587:.\Generated_Source\PSoC4/cyfitter_cfg.c **** 		CY_SET_XTND_REG32((void CYFAR *)(CYDEV_UDB_PA0_BASE), 0x00990000u);
 214              		.loc 1 587 0
 215 00da 9923     		mov	r3, #153
 216 00dc 1B04     		lsl	r3, r3, #16
 217 00de 0360     		str	r3, [r0]
 218              		.loc 1 588 0
 219 00e0 5C48     		ldr	r0, .L11+116
 220 00e2 0460     		str	r4, [r0]
 589:.\Generated_Source\PSoC4/cyfitter_cfg.c **** 
 590:.\Generated_Source\PSoC4/cyfitter_cfg.c **** 		/* UDB_PA_1 Starting address: CYDEV_UDB_PA1_BASE */
 591:.\Generated_Source\PSoC4/cyfitter_cfg.c **** 		CY_SET_XTND_REG32((void CYFAR *)(CYDEV_UDB_PA1_BASE), 0x00990000u);
 221              		.loc 1 591 0
 222 00e4 5C48     		ldr	r0, .L11+120
 592:.\Generated_Source\PSoC4/cyfitter_cfg.c **** 		CY_SET_XTND_REG32((void CYFAR *)(CYREG_UDB_PA1_CFG8), 0x30000000u);
 223              		.loc 1 592 0
 224 00e6 C024     		mov	r4, #192
 591:.\Generated_Source\PSoC4/cyfitter_cfg.c **** 		CY_SET_XTND_REG32((void CYFAR *)(CYDEV_UDB_PA1_BASE), 0x00990000u);
 225              		.loc 1 591 0
 226 00e8 0360     		str	r3, [r0]
 227              		.loc 1 592 0
 228 00ea 5C48     		ldr	r0, .L11+124
 229 00ec A405     		lsl	r4, r4, #22
 230 00ee 0460     		str	r4, [r0]
 593:.\Generated_Source\PSoC4/cyfitter_cfg.c **** 
 594:.\Generated_Source\PSoC4/cyfitter_cfg.c **** 		/* UDB_PA_2 Starting address: CYDEV_UDB_PA2_BASE */
 595:.\Generated_Source\PSoC4/cyfitter_cfg.c **** 		CY_SET_XTND_REG32((void CYFAR *)(CYDEV_UDB_PA2_BASE), 0x00990004u);
 231              		.loc 1 595 0
 232 00f0 5B4C     		ldr	r4, .L11+128
 233 00f2 5C48     		ldr	r0, .L11+132
ARM GAS  C:\Users\SNFU\AppData\Local\Temp\ccQc6wyh.s 			page 16


 234 00f4 0460     		str	r4, [r0]
 596:.\Generated_Source\PSoC4/cyfitter_cfg.c **** 		CY_SET_XTND_REG32((void CYFAR *)(CYREG_UDB_PA2_CFG4), 0x20000000u);
 235              		.loc 1 596 0
 236 00f6 5C48     		ldr	r0, .L11+136
 237 00f8 8024     		mov	r4, #128
 238 00fa A405     		lsl	r4, r4, #22
 239 00fc 0460     		str	r4, [r0]
 597:.\Generated_Source\PSoC4/cyfitter_cfg.c **** 
 598:.\Generated_Source\PSoC4/cyfitter_cfg.c **** 		/* UDB_PA_3 Starting address: CYDEV_UDB_PA3_BASE */
 599:.\Generated_Source\PSoC4/cyfitter_cfg.c **** 		CY_SET_XTND_REG32((void CYFAR *)(CYDEV_UDB_PA3_BASE), 0x00990000u);
 240              		.loc 1 599 0
 241 00fe 5B48     		ldr	r0, .L11+140
 600:.\Generated_Source\PSoC4/cyfitter_cfg.c **** 		CY_SET_XTND_REG32((void CYFAR *)(CYREG_UDB_PA3_CFG8), 0x03000000u);
 601:.\Generated_Source\PSoC4/cyfitter_cfg.c **** 
 602:.\Generated_Source\PSoC4/cyfitter_cfg.c **** 		/* TCPWM_CNT3 Starting address: CYDEV_TCPWM_CNT3_TR_CTRL0 */
 603:.\Generated_Source\PSoC4/cyfitter_cfg.c **** 		CY_SET_XTND_REG32((void CYFAR *)(CYREG_TCPWM_CNT3_TR_CTRL0), 0x00000014u);
 604:.\Generated_Source\PSoC4/cyfitter_cfg.c **** 
 605:.\Generated_Source\PSoC4/cyfitter_cfg.c **** 		/* INT_SELECT Starting address: CYDEV_CPUSS_INTR_SELECT */
 606:.\Generated_Source\PSoC4/cyfitter_cfg.c **** 		CY_SET_XTND_REG32((void CYFAR *)(CYREG_CPUSS_INTR_SELECT), 0x00000002u);
 607:.\Generated_Source\PSoC4/cyfitter_cfg.c **** 
 608:.\Generated_Source\PSoC4/cyfitter_cfg.c **** 		/* Enable digital routing */
 609:.\Generated_Source\PSoC4/cyfitter_cfg.c **** 		CY_SET_XTND_REG8((void *)CYREG_UDB_UDBIF_BANK_CTL, CY_GET_XTND_REG8((void *)CYREG_UDB_UDBIF_BANK_
 610:.\Generated_Source\PSoC4/cyfitter_cfg.c **** 
 611:.\Generated_Source\PSoC4/cyfitter_cfg.c **** 		/* Enable UDB array */
 612:.\Generated_Source\PSoC4/cyfitter_cfg.c **** 		CY_SET_XTND_REG8((void *)CYREG_UDB_UDBIF_WAIT_CFG, (uint8)((CY_GET_XTND_REG8((void *)CYREG_UDB_UD
 242              		.loc 1 612 0
 243 0100 3C24     		mov	r4, #60
 599:.\Generated_Source\PSoC4/cyfitter_cfg.c **** 		CY_SET_XTND_REG32((void CYFAR *)(CYDEV_UDB_PA3_BASE), 0x00990000u);
 244              		.loc 1 599 0
 245 0102 0360     		str	r3, [r0]
 600:.\Generated_Source\PSoC4/cyfitter_cfg.c **** 		CY_SET_XTND_REG32((void CYFAR *)(CYREG_UDB_PA3_CFG8), 0x03000000u);
 246              		.loc 1 600 0
 247 0104 5A4B     		ldr	r3, .L11+144
 248 0106 1960     		str	r1, [r3]
 603:.\Generated_Source\PSoC4/cyfitter_cfg.c **** 		CY_SET_XTND_REG32((void CYFAR *)(CYREG_TCPWM_CNT3_TR_CTRL0), 0x00000014u);
 249              		.loc 1 603 0
 250 0108 5A4B     		ldr	r3, .L11+148
 251 010a 1421     		mov	r1, #20
 252 010c 1960     		str	r1, [r3]
 606:.\Generated_Source\PSoC4/cyfitter_cfg.c **** 		CY_SET_XTND_REG32((void CYFAR *)(CYREG_CPUSS_INTR_SELECT), 0x00000002u);
 253              		.loc 1 606 0
 254 010e 5A4B     		ldr	r3, .L11+152
 255 0110 1A60     		str	r2, [r3]
 609:.\Generated_Source\PSoC4/cyfitter_cfg.c **** 		CY_SET_XTND_REG8((void *)CYREG_UDB_UDBIF_BANK_CTL, CY_GET_XTND_REG8((void *)CYREG_UDB_UDBIF_BANK_
 256              		.loc 1 609 0
 257 0112 5A4B     		ldr	r3, .L11+156
 258 0114 1878     		ldrb	r0, [r3]
 259 0116 0243     		orr	r2, r0
 260 0118 1A70     		strb	r2, [r3]
 261              		.loc 1 612 0
 262 011a 594A     		ldr	r2, .L11+160
 263 011c 1078     		ldrb	r0, [r2]
 264 011e A043     		bic	r0, r4
 265 0120 0143     		orr	r1, r0
 266 0122 1170     		strb	r1, [r2]
 613:.\Generated_Source\PSoC4/cyfitter_cfg.c **** 		CY_SET_XTND_REG8((void *)CYREG_UDB_UDBIF_BANK_CTL, (uint8)(CY_GET_XTND_REG8((void *)CYREG_UDB_UDB
 267              		.loc 1 613 0
ARM GAS  C:\Users\SNFU\AppData\Local\Temp\ccQc6wyh.s 			page 17


 268 0124 1A78     		ldrb	r2, [r3]
 269 0126 1621     		mov	r1, #22
 270 0128 0A43     		orr	r2, r1
 271 012a 1A70     		strb	r2, [r3]
 272              	.LBE18:
 273              	.LBB25:
 274              	.LBB26:
 239:.\Generated_Source\PSoC4/cyfitter_cfg.c **** 	CY_SET_REG32((void CYXDATA *)(CYREG_CLK_SELECT), (CY_GET_REG32((void *)CYREG_CLK_SELECT) | 0x00040
 275              		.loc 1 239 0
 276 012c 554A     		ldr	r2, .L11+164
 277 012e 8023     		mov	r3, #128
 278 0130 1168     		ldr	r1, [r2]
 279 0132 DB02     		lsl	r3, r3, #11
 280 0134 0B43     		orr	r3, r1
 281 0136 1360     		str	r3, [r2]
 282              	.LVL16:
 283              	.LBB27:
 284              	.LBB28:
 202:.\Generated_Source\PSoC4/cyfitter_cfg.c **** 	setAbs = CY_GET_REG8((const void *)CYREG_SFLASH_IMO_ABS4);
 285              		.loc 1 202 0
 286 0138 534B     		ldr	r3, .L11+168
 287 013a 141C     		mov	r4, r2
 288 013c 1878     		ldrb	r0, [r3]
 203:.\Generated_Source\PSoC4/cyfitter_cfg.c **** 	setTmpCo = CY_GET_REG8((const void *)CYREG_SFLASH_IMO_TMPCO4);
 289              		.loc 1 203 0
 290 013e 534B     		ldr	r3, .L11+172
 202:.\Generated_Source\PSoC4/cyfitter_cfg.c **** 	setAbs = CY_GET_REG8((const void *)CYREG_SFLASH_IMO_ABS4);
 291              		.loc 1 202 0
 292 0140 C0B2     		uxtb	r0, r0
 293              	.LVL17:
 203:.\Generated_Source\PSoC4/cyfitter_cfg.c **** 	setTmpCo = CY_GET_REG8((const void *)CYREG_SFLASH_IMO_TMPCO4);
 294              		.loc 1 203 0
 295 0142 1978     		ldrb	r1, [r3]
 296 0144 524B     		ldr	r3, .L11+176
 297 0146 C9B2     		uxtb	r1, r1
 298              	.LVL18:
 299              	.L6:
 205:.\Generated_Source\PSoC4/cyfitter_cfg.c **** 	     (imoTrimIndex >= 0) && (imoFreq <= imo_trim_table->entries[imoTrimIndex].freq);
 300              		.loc 1 205 0
 301 0148 1A78     		ldrb	r2, [r3]
 302 014a 172A     		cmp	r2, #23
 303 014c 05D9     		bls	.L7
 204:.\Generated_Source\PSoC4/cyfitter_cfg.c **** 	for (imoTrimIndex = ((int32)IMO_TRIM_FREQ_TABLE_ENTRIES)-1;
 304              		.loc 1 204 0
 305 014e 514A     		ldr	r2, .L11+180
 208:.\Generated_Source\PSoC4/cyfitter_cfg.c **** 		setAbs = imo_trim_table->entries[imoTrimIndex].absolute;
 306              		.loc 1 208 0
 307 0150 5878     		ldrb	r0, [r3, #1]
 308              	.LVL19:
 209:.\Generated_Source\PSoC4/cyfitter_cfg.c **** 		setTmpCo = imo_trim_table->entries[imoTrimIndex].tmpco;
 309              		.loc 1 209 0
 310 0152 9978     		ldrb	r1, [r3, #2]
 311              	.LVL20:
 312 0154 033B     		sub	r3, r3, #3
 313              	.LVL21:
 204:.\Generated_Source\PSoC4/cyfitter_cfg.c **** 	for (imoTrimIndex = ((int32)IMO_TRIM_FREQ_TABLE_ENTRIES)-1;
 314              		.loc 1 204 0
ARM GAS  C:\Users\SNFU\AppData\Local\Temp\ccQc6wyh.s 			page 18


 315 0156 9342     		cmp	r3, r2
 316 0158 F6D1     		bne	.L6
 317              	.LVL22:
 318              	.L7:
 212:.\Generated_Source\PSoC4/cyfitter_cfg.c **** 	CY_SET_REG32((void *)CYREG_PWR_BG_TRIM4, setAbs);
 319              		.loc 1 212 0
 320 015a 4F4B     		ldr	r3, .L11+184
 321              	.LBE28:
 322              	.LBE27:
 245:.\Generated_Source\PSoC4/cyfitter_cfg.c **** 	CY_SET_REG32((void CYXDATA *)(CYREG_CLK_IMO_TRIM2), (25u));
 323              		.loc 1 245 0
 324 015c 1922     		mov	r2, #25
 325              	.LBB31:
 326              	.LBB29:
 212:.\Generated_Source\PSoC4/cyfitter_cfg.c **** 	CY_SET_REG32((void *)CYREG_PWR_BG_TRIM4, setAbs);
 327              		.loc 1 212 0
 328 015e 1860     		str	r0, [r3]
 213:.\Generated_Source\PSoC4/cyfitter_cfg.c **** 	CY_SET_REG32((void *)CYREG_PWR_BG_TRIM5, setTmpCo);
 329              		.loc 1 213 0
 330 0160 4E4B     		ldr	r3, .L11+188
 331              	.LBE29:
 332              	.LBE31:
 246:.\Generated_Source\PSoC4/cyfitter_cfg.c **** 	CyDelayCycles(5u);
 333              		.loc 1 246 0
 334 0162 0520     		mov	r0, #5
 335              	.LBB32:
 336              	.LBB30:
 213:.\Generated_Source\PSoC4/cyfitter_cfg.c **** 	CY_SET_REG32((void *)CYREG_PWR_BG_TRIM5, setTmpCo);
 337              		.loc 1 213 0
 338 0164 1960     		str	r1, [r3]
 339              	.LBE30:
 340              	.LBE32:
 245:.\Generated_Source\PSoC4/cyfitter_cfg.c **** 	CY_SET_REG32((void CYXDATA *)(CYREG_CLK_IMO_TRIM2), (25u));
 341              		.loc 1 245 0
 342 0166 4E4B     		ldr	r3, .L11+192
 343              	.LBE26:
 344              	.LBE25:
 614:.\Generated_Source\PSoC4/cyfitter_cfg.c **** 	}
 615:.\Generated_Source\PSoC4/cyfitter_cfg.c **** 
 616:.\Generated_Source\PSoC4/cyfitter_cfg.c **** 	/* Setup clocks based on selections from Clock DWR */
 617:.\Generated_Source\PSoC4/cyfitter_cfg.c **** 	ClockSetup();
 618:.\Generated_Source\PSoC4/cyfitter_cfg.c **** 
 619:.\Generated_Source\PSoC4/cyfitter_cfg.c **** 	/* Perform basic analog initialization to defaults */
 620:.\Generated_Source\PSoC4/cyfitter_cfg.c **** 	AnalogSetDefault();
 621:.\Generated_Source\PSoC4/cyfitter_cfg.c **** 
 622:.\Generated_Source\PSoC4/cyfitter_cfg.c **** }
 345              		.loc 1 622 0
 346              		@ sp needed
 347              	.LBB34:
 348              	.LBB33:
 245:.\Generated_Source\PSoC4/cyfitter_cfg.c **** 	CY_SET_REG32((void CYXDATA *)(CYREG_CLK_IMO_TRIM2), (25u));
 349              		.loc 1 245 0
 350 0168 1A60     		str	r2, [r3]
 246:.\Generated_Source\PSoC4/cyfitter_cfg.c **** 	CyDelayCycles(5u);
 351              		.loc 1 246 0
 352 016a FFF7FEFF 		bl	CyDelayCycles
 353              	.LVL23:
ARM GAS  C:\Users\SNFU\AppData\Local\Temp\ccQc6wyh.s 			page 19


 247:.\Generated_Source\PSoC4/cyfitter_cfg.c **** 	CY_SET_REG32((void CYXDATA *)(CYREG_CLK_IMO_TRIM1), (CY_GET_REG8((void *)CYREG_SFLASH_IMO_TRIM21))
 354              		.loc 1 247 0
 355 016e 4D4B     		ldr	r3, .L11+196
 248:.\Generated_Source\PSoC4/cyfitter_cfg.c **** 	CyDelayUs(5u);
 356              		.loc 1 248 0
 357 0170 0520     		mov	r0, #5
 247:.\Generated_Source\PSoC4/cyfitter_cfg.c **** 	CY_SET_REG32((void CYXDATA *)(CYREG_CLK_IMO_TRIM1), (CY_GET_REG8((void *)CYREG_SFLASH_IMO_TRIM21))
 358              		.loc 1 247 0
 359 0172 1A78     		ldrb	r2, [r3]
 360 0174 4C4B     		ldr	r3, .L11+200
 361 0176 D2B2     		uxtb	r2, r2
 362 0178 1A60     		str	r2, [r3]
 248:.\Generated_Source\PSoC4/cyfitter_cfg.c **** 	CyDelayUs(5u);
 363              		.loc 1 248 0
 364 017a FFF7FEFF 		bl	CyDelayUs
 365              	.LVL24:
 251:.\Generated_Source\PSoC4/cyfitter_cfg.c **** 	CY_SET_REG32((void CYXDATA *)(CYREG_CLK_SELECT), (CY_GET_REG32((void *)CYREG_CLK_SELECT) & 0xFFFBF
 366              		.loc 1 251 0
 367 017e 2268     		ldr	r2, [r4]
 368 0180 4A4B     		ldr	r3, .L11+204
 261:.\Generated_Source\PSoC4/cyfitter_cfg.c **** 	CY_SET_XTND_REG32((void CYFAR *)(CYREG_CLK_SELECT10), 0x00000020u);
 369              		.loc 1 261 0
 370 0182 2021     		mov	r1, #32
 251:.\Generated_Source\PSoC4/cyfitter_cfg.c **** 	CY_SET_REG32((void CYXDATA *)(CYREG_CLK_SELECT), (CY_GET_REG32((void *)CYREG_CLK_SELECT) & 0xFFFBF
 371              		.loc 1 251 0
 372 0184 1340     		and	r3, r2
 373 0186 2360     		str	r3, [r4]
 253:.\Generated_Source\PSoC4/cyfitter_cfg.c **** 	CY_SET_XTND_REG32((void CYFAR *)(CYREG_CLK_ILO_CONFIG), 0x80000006u);
 374              		.loc 1 253 0
 375 0188 494A     		ldr	r2, .L11+208
 376 018a 4A4B     		ldr	r3, .L11+212
 377 018c 1A60     		str	r2, [r3]
 257:.\Generated_Source\PSoC4/cyfitter_cfg.c **** 	CY_SET_XTND_REG32((void CYFAR *)(CYREG_CLK_SELECT02), 0x00000021u);
 378              		.loc 1 257 0
 379 018e 4A4B     		ldr	r3, .L11+216
 380 0190 2122     		mov	r2, #33
 381 0192 1A60     		str	r2, [r3]
 258:.\Generated_Source\PSoC4/cyfitter_cfg.c **** 	CY_SET_XTND_REG32((void CYFAR *)(CYREG_CLK_SELECT03), 0x00000010u);
 382              		.loc 1 258 0
 383 0194 494B     		ldr	r3, .L11+220
 384 0196 1022     		mov	r2, #16
 385 0198 1A60     		str	r2, [r3]
 259:.\Generated_Source\PSoC4/cyfitter_cfg.c **** 	CY_SET_XTND_REG32((void CYFAR *)(CYREG_CLK_SELECT08), 0x00000030u);
 386              		.loc 1 259 0
 387 019a 494B     		ldr	r3, .L11+224
 388 019c 3022     		mov	r2, #48
 389 019e 1A60     		str	r2, [r3]
 260:.\Generated_Source\PSoC4/cyfitter_cfg.c **** 	CY_SET_XTND_REG32((void CYFAR *)(CYREG_CLK_SELECT09), 0x00000011u);
 390              		.loc 1 260 0
 391 01a0 484A     		ldr	r2, .L11+228
 392 01a2 1123     		mov	r3, #17
 393 01a4 1360     		str	r3, [r2]
 261:.\Generated_Source\PSoC4/cyfitter_cfg.c **** 	CY_SET_XTND_REG32((void CYFAR *)(CYREG_CLK_SELECT10), 0x00000020u);
 394              		.loc 1 261 0
 395 01a6 484A     		ldr	r2, .L11+232
 396 01a8 1160     		str	r1, [r2]
 262:.\Generated_Source\PSoC4/cyfitter_cfg.c **** 	CY_SET_XTND_REG32((void CYFAR *)(CYREG_CLK_SELECT11), 0x00000011u);
ARM GAS  C:\Users\SNFU\AppData\Local\Temp\ccQc6wyh.s 			page 20


 397              		.loc 1 262 0
 398 01aa 484A     		ldr	r2, .L11+236
 399 01ac 1360     		str	r3, [r2]
 263:.\Generated_Source\PSoC4/cyfitter_cfg.c **** 	CY_SET_XTND_REG32((void CYFAR *)(CYREG_CLK_SELECT12), 0x00000031u);
 400              		.loc 1 263 0
 401 01ae 484B     		ldr	r3, .L11+240
 402 01b0 3122     		mov	r2, #49
 403 01b2 1A60     		str	r2, [r3]
 266:.\Generated_Source\PSoC4/cyfitter_cfg.c **** 	CY_SET_XTND_REG32((void CYFAR *)(CYREG_CLK_IMO_CONFIG), 0x80000000u);
 404              		.loc 1 266 0
 405 01b4 474B     		ldr	r3, .L11+244
 406 01b6 8022     		mov	r2, #128
 407 01b8 1206     		lsl	r2, r2, #24
 408 01ba 1A60     		str	r2, [r3]
 269:.\Generated_Source\PSoC4/cyfitter_cfg.c **** 	CY_SET_XTND_REG32((void CYFAR *)(CYREG_CLK_DIVIDER_A00), 0x80000003u);
 409              		.loc 1 269 0
 410 01bc 464A     		ldr	r2, .L11+248
 411 01be 474B     		ldr	r3, .L11+252
 412 01c0 1A60     		str	r2, [r3]
 272:.\Generated_Source\PSoC4/cyfitter_cfg.c **** 	CY_SET_XTND_REG32((void CYFAR *)(CYREG_CLK_DIVIDER_B00), 0x80000017u);
 413              		.loc 1 272 0
 414 01c2 474B     		ldr	r3, .L11+256
 415 01c4 474A     		ldr	r2, .L11+260
 416 01c6 1360     		str	r3, [r2]
 275:.\Generated_Source\PSoC4/cyfitter_cfg.c **** 	CY_SET_XTND_REG32((void CYFAR *)(CYREG_CLK_DIVIDER_C00), 0x80000017u);
 417              		.loc 1 275 0
 418 01c8 474A     		ldr	r2, .L11+264
 419 01ca 1360     		str	r3, [r2]
 278:.\Generated_Source\PSoC4/cyfitter_cfg.c **** 	CY_SET_XTND_REG32((void CYFAR *)(CYREG_CLK_DIVIDER_A01), 0x80000017u);
 420              		.loc 1 278 0
 421 01cc 474A     		ldr	r2, .L11+268
 422 01ce 1360     		str	r3, [r2]
 281:.\Generated_Source\PSoC4/cyfitter_cfg.c **** 	CY_SET_XTND_REG32((void CYFAR *)(CYREG_CLK_DIVIDER_B01), 0x80000022u);
 423              		.loc 1 281 0
 424 01d0 474A     		ldr	r2, .L11+272
 425 01d2 484B     		ldr	r3, .L11+276
 426 01d4 1A60     		str	r2, [r3]
 284:.\Generated_Source\PSoC4/cyfitter_cfg.c **** 	CY_SET_XTND_REG32((void CYFAR *)(CYREG_CLK_DIVIDER_C01), 0x80000138u);
 427              		.loc 1 284 0
 428 01d6 484A     		ldr	r2, .L11+280
 429 01d8 484B     		ldr	r3, .L11+284
 430 01da 1A60     		str	r2, [r3]
 431              	.LVL25:
 432              	.LBE33:
 433              	.LBE34:
 434              		.loc 1 622 0
 435 01dc F7BD     		pop	{r0, r1, r2, r4, r5, r6, r7, pc}
 436              	.L12:
 437 01de C046     		.align	2
 438              	.L11:
 439 01e0 1C700F40 		.word	1074753564
 440 01e4 00300F40 		.word	1074737152
 441 01e8 00400F40 		.word	1074741248
 442 01ec 00000000 		.word	.LANCHOR0
 443 01f0 00600F40 		.word	1074749440
 444 01f4 02600F40 		.word	1074749442
 445 01f8 04000140 		.word	1073807364
ARM GAS  C:\Users\SNFU\AppData\Local\Temp\ccQc6wyh.s 			page 21


 446 01fc 08000140 		.word	1073807368
 447 0200 EEEE0300 		.word	257774
 448 0204 0C000140 		.word	1073807372
 449 0208 B10D0000 		.word	3505
 450 020c 10000140 		.word	1073807376
 451 0210 00000440 		.word	1074003968
 452 0214 B66D5B00 		.word	5991862
 453 0218 08000440 		.word	1074003976
 454 021c 0C000440 		.word	1074003980
 455 0220 00010440 		.word	1074004224
 456 0224 06001800 		.word	1572870
 457 0228 08010440 		.word	1074004232
 458 022c 00020440 		.word	1074004480
 459 0230 B66D0F00 		.word	1011126
 460 0234 08020440 		.word	1074004488
 461 0238 00030440 		.word	1074004736
 462 023c A46DDB00 		.word	14380452
 463 0240 08030440 		.word	1074004744
 464 0244 00040440 		.word	1074004992
 465 0248 08040440 		.word	1074005000
 466 024c 18040440 		.word	1074005016
 467 0250 00500F40 		.word	1074745344
 468 0254 04500F40 		.word	1074745348
 469 0258 10500F40 		.word	1074745360
 470 025c 18500F40 		.word	1074745368
 471 0260 04009900 		.word	10027012
 472 0264 20500F40 		.word	1074745376
 473 0268 24500F40 		.word	1074745380
 474 026c 30500F40 		.word	1074745392
 475 0270 38500F40 		.word	1074745400
 476 0274 E0010540 		.word	1074069984
 477 0278 20000040 		.word	1073741856
 478 027c 00700F40 		.word	1074753536
 479 0280 01700F40 		.word	1074753537
 480 0284 00010B40 		.word	1074462976
 481 0288 CCF1FF0F 		.word	268431820
 482 028c CDF1FF0F 		.word	268431821
 483 0290 C9F1FF0F 		.word	268431817
 484 0294 BDF1FF0F 		.word	268431805
 485 0298 1CFF0B40 		.word	1074528028
 486 029c 20FF0B40 		.word	1074528032
 487 02a0 2CFF0B40 		.word	1074528044
 488 02a4 E5F1FF0F 		.word	268431845
 489 02a8 28FF0B40 		.word	1074528040
 490 02ac FFFFFBFF 		.word	-262145
 491 02b0 06000080 		.word	-2147483642
 492 02b4 04010B40 		.word	1074462980
 493 02b8 08020240 		.word	1073873416
 494 02bc 0C020240 		.word	1073873420
 495 02c0 20020240 		.word	1073873440
 496 02c4 24020240 		.word	1073873444
 497 02c8 28020240 		.word	1073873448
 498 02cc 2C020240 		.word	1073873452
 499 02d0 30020240 		.word	1073873456
 500 02d4 08010B40 		.word	1074462984
 501 02d8 03000080 		.word	-2147483645
 502 02dc 00000240 		.word	1073872896
ARM GAS  C:\Users\SNFU\AppData\Local\Temp\ccQc6wyh.s 			page 22


 503 02e0 17000080 		.word	-2147483625
 504 02e4 40000240 		.word	1073872960
 505 02e8 80000240 		.word	1073873024
 506 02ec 04000240 		.word	1073872900
 507 02f0 22000080 		.word	-2147483614
 508 02f4 44000240 		.word	1073872964
 509 02f8 38010080 		.word	-2147483336
 510 02fc 84000240 		.word	1073873028
 511              		.cfi_endproc
 512              	.LFE7:
 513              		.size	cyfitter_cfg, .-cyfitter_cfg
 514              		.section	.rodata
 515              		.align	2
 516              		.set	.LANCHOR0,. + 0
 517              		.type	cy_cfg_addr_table.4729, %object
 518              		.size	cy_cfg_addr_table.4729, 32
 519              	cy_cfg_addr_table.4729:
 520 0000 01000F40 		.word	1074724865
 521 0004 5E320F40 		.word	1074737758
 522 0008 37330F40 		.word	1074737975
 523 000c 02400F40 		.word	1074741250
 524 0010 06410F40 		.word	1074741510
 525 0014 04420F40 		.word	1074741764
 526 0018 0C430F40 		.word	1074742028
 527 001c 02600F40 		.word	1074749442
 528              		.type	cy_cfg_data_table.4730, %object
 529              		.size	cy_cfg_data_table.4730, 352
 530              	cy_cfg_data_table.4730:
 531 0020 82       		.byte	-126
 532 0021 0F       		.byte	15
 533 0022 01       		.byte	1
 534 0023 01       		.byte	1
 535 0024 05       		.byte	5
 536 0025 38       		.byte	56
 537 0026 06       		.byte	6
 538 0027 02       		.byte	2
 539 0028 07       		.byte	7
 540 0029 04       		.byte	4
 541 002a 08       		.byte	8
 542 002b 01       		.byte	1
 543 002c 0E       		.byte	14
 544 002d 02       		.byte	2
 545 002e 11       		.byte	17
 546 002f 18       		.byte	24
 547 0030 13       		.byte	19
 548 0031 22       		.byte	34
 549 0032 15       		.byte	21
 550 0033 20       		.byte	32
 551 0034 17       		.byte	23
 552 0035 18       		.byte	24
 553 0036 1A       		.byte	26
 554 0037 02       		.byte	2
 555 0038 1F       		.byte	31
 556 0039 06       		.byte	6
 557 003a 20       		.byte	32
 558 003b 02       		.byte	2
 559 003c 21       		.byte	33
ARM GAS  C:\Users\SNFU\AppData\Local\Temp\ccQc6wyh.s 			page 23


 560 003d 12       		.byte	18
 561 003e 23       		.byte	35
 562 003f 20       		.byte	32
 563 0040 27       		.byte	39
 564 0041 20       		.byte	32
 565 0042 28       		.byte	40
 566 0043 02       		.byte	2
 567 0044 29       		.byte	41
 568 0045 28       		.byte	40
 569 0046 30       		.byte	48
 570 0047 02       		.byte	2
 571 0048 31       		.byte	49
 572 0049 3E       		.byte	62
 573 004a 32       		.byte	50
 574 004b 01       		.byte	1
 575 004c 35       		.byte	53
 576 004d 01       		.byte	1
 577 004e 36       		.byte	54
 578 004f 01       		.byte	1
 579 0050 3E       		.byte	62
 580 0051 05       		.byte	5
 581 0052 3F       		.byte	63
 582 0053 10       		.byte	16
 583 0054 40       		.byte	64
 584 0055 23       		.byte	35
 585 0056 41       		.byte	65
 586 0057 04       		.byte	4
 587 0058 45       		.byte	69
 588 0059 EC       		.byte	-20
 589 005a 46       		.byte	70
 590 005b C0       		.byte	-64
 591 005c 47       		.byte	71
 592 005d 0B       		.byte	11
 593 005e 48       		.byte	72
 594 005f 1B       		.byte	27
 595 0060 49       		.byte	73
 596 0061 FF       		.byte	-1
 597 0062 4A       		.byte	74
 598 0063 FF       		.byte	-1
 599 0064 4B       		.byte	75
 600 0065 FF       		.byte	-1
 601 0066 4E       		.byte	78
 602 0067 F0       		.byte	-16
 603 0068 4F       		.byte	79
 604 0069 44       		.byte	68
 605 006a 50       		.byte	80
 606 006b 0C       		.byte	12
 607 006c 54       		.byte	84
 608 006d 01       		.byte	1
 609 006e 58       		.byte	88
 610 006f 04       		.byte	4
 611 0070 59       		.byte	89
 612 0071 04       		.byte	4
 613 0072 5A       		.byte	90
 614 0073 04       		.byte	4
 615 0074 5B       		.byte	91
 616 0075 04       		.byte	4
ARM GAS  C:\Users\SNFU\AppData\Local\Temp\ccQc6wyh.s 			page 24


 617 0076 5F       		.byte	95
 618 0077 01       		.byte	1
 619 0078 66       		.byte	102
 620 0079 C0       		.byte	-64
 621 007a 6A       		.byte	106
 622 007b 40       		.byte	64
 623 007c 6B       		.byte	107
 624 007d 02       		.byte	2
 625 007e 84       		.byte	-124
 626 007f 0C       		.byte	12
 627 0080 85       		.byte	-123
 628 0081 49       		.byte	73
 629 0082 86       		.byte	-122
 630 0083 01       		.byte	1
 631 0084 88       		.byte	-120
 632 0085 04       		.byte	4
 633 0086 89       		.byte	-119
 634 0087 03       		.byte	3
 635 0088 8B       		.byte	-117
 636 0089 04       		.byte	4
 637 008a 8D       		.byte	-115
 638 008b 03       		.byte	3
 639 008c 8F       		.byte	-113
 640 008d 64       		.byte	100
 641 008e 95       		.byte	-107
 642 008f 03       		.byte	3
 643 0090 97       		.byte	-105
 644 0091 2C       		.byte	44
 645 0092 9D       		.byte	-99
 646 0093 10       		.byte	16
 647 0094 9E       		.byte	-98
 648 0095 17       		.byte	23
 649 0096 A0       		.byte	-96
 650 0097 19       		.byte	25
 651 0098 A2       		.byte	-94
 652 0099 06       		.byte	6
 653 009a A5       		.byte	-91
 654 009b 40       		.byte	64
 655 009c A8       		.byte	-88
 656 009d 19       		.byte	25
 657 009e AA       		.byte	-86
 658 009f 02       		.byte	2
 659 00a0 AF       		.byte	-81
 660 00a1 6E       		.byte	110
 661 00a2 B3       		.byte	-77
 662 00a3 0F       		.byte	15
 663 00a4 B4       		.byte	-76
 664 00a5 07       		.byte	7
 665 00a6 B5       		.byte	-75
 666 00a7 10       		.byte	16
 667 00a8 B6       		.byte	-74
 668 00a9 18       		.byte	24
 669 00aa B7       		.byte	-73
 670 00ab 68       		.byte	104
 671 00ac B8       		.byte	-72
 672 00ad 80       		.byte	-128
 673 00ae BA       		.byte	-70
ARM GAS  C:\Users\SNFU\AppData\Local\Temp\ccQc6wyh.s 			page 25


 674 00af 20       		.byte	32
 675 00b0 BB       		.byte	-69
 676 00b1 88       		.byte	-120
 677 00b2 BE       		.byte	-66
 678 00b3 40       		.byte	64
 679 00b4 BF       		.byte	-65
 680 00b5 10       		.byte	16
 681 00b6 C0       		.byte	-64
 682 00b7 01       		.byte	1
 683 00b8 C6       		.byte	-58
 684 00b9 10       		.byte	16
 685 00ba C7       		.byte	-57
 686 00bb 05       		.byte	5
 687 00bc C8       		.byte	-56
 688 00bd 18       		.byte	24
 689 00be C9       		.byte	-55
 690 00bf FF       		.byte	-1
 691 00c0 CA       		.byte	-54
 692 00c1 07       		.byte	7
 693 00c2 CB       		.byte	-53
 694 00c3 FF       		.byte	-1
 695 00c4 CC       		.byte	-52
 696 00c5 40       		.byte	64
 697 00c6 CD       		.byte	-51
 698 00c7 20       		.byte	32
 699 00c8 CE       		.byte	-50
 700 00c9 F0       		.byte	-16
 701 00ca CF       		.byte	-49
 702 00cb 05       		.byte	5
 703 00cc D0       		.byte	-48
 704 00cd 08       		.byte	8
 705 00ce D8       		.byte	-40
 706 00cf 04       		.byte	4
 707 00d0 D9       		.byte	-39
 708 00d1 04       		.byte	4
 709 00d2 DA       		.byte	-38
 710 00d3 04       		.byte	4
 711 00d4 DF       		.byte	-33
 712 00d5 01       		.byte	1
 713 00d6 E0       		.byte	-32
 714 00d7 40       		.byte	64
 715 00d8 E1       		.byte	-31
 716 00d9 A8       		.byte	-88
 717 00da E2       		.byte	-30
 718 00db 40       		.byte	64
 719 00dc E3       		.byte	-29
 720 00dd 20       		.byte	32
 721 00de 00       		.byte	0
 722 00df 04       		.byte	4
 723 00e0 02       		.byte	2
 724 00e1 04       		.byte	4
 725 00e2 04       		.byte	4
 726 00e3 24       		.byte	36
 727 00e4 05       		.byte	5
 728 00e5 40       		.byte	64
 729 00e6 0A       		.byte	10
 730 00e7 01       		.byte	1
ARM GAS  C:\Users\SNFU\AppData\Local\Temp\ccQc6wyh.s 			page 26


 731 00e8 0F       		.byte	15
 732 00e9 08       		.byte	8
 733 00ea 12       		.byte	18
 734 00eb 08       		.byte	8
 735 00ec 13       		.byte	19
 736 00ed 02       		.byte	2
 737 00ee 17       		.byte	23
 738 00ef 22       		.byte	34
 739 00f0 18       		.byte	24
 740 00f1 05       		.byte	5
 741 00f2 1D       		.byte	29
 742 00f3 48       		.byte	72
 743 00f4 1E       		.byte	30
 744 00f5 41       		.byte	65
 745 00f6 21       		.byte	33
 746 00f7 40       		.byte	64
 747 00f8 22       		.byte	34
 748 00f9 18       		.byte	24
 749 00fa 23       		.byte	35
 750 00fb 22       		.byte	34
 751 00fc 27       		.byte	39
 752 00fd C8       		.byte	-56
 753 00fe 28       		.byte	40
 754 00ff 10       		.byte	16
 755 0100 29       		.byte	41
 756 0101 40       		.byte	64
 757 0102 2A       		.byte	42
 758 0103 04       		.byte	4
 759 0104 2C       		.byte	44
 760 0105 10       		.byte	16
 761 0106 2E       		.byte	46
 762 0107 01       		.byte	1
 763 0108 2F       		.byte	47
 764 0109 08       		.byte	8
 765 010a 32       		.byte	50
 766 010b 08       		.byte	8
 767 010c 33       		.byte	51
 768 010d 40       		.byte	64
 769 010e 36       		.byte	54
 770 010f 08       		.byte	8
 771 0110 37       		.byte	55
 772 0111 82       		.byte	-126
 773 0112 38       		.byte	56
 774 0113 04       		.byte	4
 775 0114 39       		.byte	57
 776 0115 80       		.byte	-128
 777 0116 3A       		.byte	58
 778 0117 10       		.byte	16
 779 0118 3C       		.byte	60
 780 0119 04       		.byte	4
 781 011a 3D       		.byte	61
 782 011b 01       		.byte	1
 783 011c 40       		.byte	64
 784 011d 01       		.byte	1
 785 011e 45       		.byte	69
 786 011f 08       		.byte	8
 787 0120 47       		.byte	71
ARM GAS  C:\Users\SNFU\AppData\Local\Temp\ccQc6wyh.s 			page 27


 788 0121 22       		.byte	34
 789 0122 4D       		.byte	77
 790 0123 01       		.byte	1
 791 0124 4F       		.byte	79
 792 0125 08       		.byte	8
 793 0126 50       		.byte	80
 794 0127 10       		.byte	16
 795 0128 52       		.byte	82
 796 0129 04       		.byte	4
 797 012a 56       		.byte	86
 798 012b 10       		.byte	16
 799 012c 57       		.byte	87
 800 012d 18       		.byte	24
 801 012e 5D       		.byte	93
 802 012f 01       		.byte	1
 803 0130 5E       		.byte	94
 804 0131 40       		.byte	64
 805 0132 5F       		.byte	95
 806 0133 18       		.byte	24
 807 0134 63       		.byte	99
 808 0135 30       		.byte	48
 809 0136 82       		.byte	-126
 810 0137 10       		.byte	16
 811 0138 C0       		.byte	-64
 812 0139 E6       		.byte	-26
 813 013a C2       		.byte	-62
 814 013b 41       		.byte	65
 815 013c C4       		.byte	-60
 816 013d 5A       		.byte	90
 817 013e CA       		.byte	-54
 818 013f EA       		.byte	-22
 819 0140 CC       		.byte	-52
 820 0141 DA       		.byte	-38
 821 0142 CE       		.byte	-50
 822 0143 CE       		.byte	-50
 823 0144 D0       		.byte	-48
 824 0145 E8       		.byte	-24
 825 0146 D6       		.byte	-42
 826 0147 F0       		.byte	-16
 827 0148 E2       		.byte	-30
 828 0149 80       		.byte	-128
 829 014a E4       		.byte	-28
 830 014b 04       		.byte	4
 831 014c 6F       		.byte	111
 832 014d 10       		.byte	16
 833 014e DA       		.byte	-38
 834 014f 80       		.byte	-128
 835 0150 27       		.byte	39
 836 0151 10       		.byte	16
 837 0152 67       		.byte	103
 838 0153 08       		.byte	8
 839 0154 8B       		.byte	-117
 840 0155 04       		.byte	4
 841 0156 9F       		.byte	-97
 842 0157 10       		.byte	16
 843 0158 C8       		.byte	-56
 844 0159 80       		.byte	-128
ARM GAS  C:\Users\SNFU\AppData\Local\Temp\ccQc6wyh.s 			page 28


 845 015a D8       		.byte	-40
 846 015b 80       		.byte	-128
 847 015c 0A       		.byte	10
 848 015d 04       		.byte	4
 849 015e 50       		.byte	80
 850 015f 04       		.byte	4
 851 0160 C2       		.byte	-62
 852 0161 02       		.byte	2
 853 0162 D4       		.byte	-44
 854 0163 04       		.byte	4
 855 0164 18       		.byte	24
 856 0165 08       		.byte	8
 857 0166 19       		.byte	25
 858 0167 40       		.byte	64
 859 0168 64       		.byte	100
 860 0169 08       		.byte	8
 861 016a 72       		.byte	114
 862 016b 04       		.byte	4
 863 016c 80       		.byte	-128
 864 016d 08       		.byte	8
 865 016e 89       		.byte	-119
 866 016f 40       		.byte	64
 867 0170 92       		.byte	-110
 868 0171 04       		.byte	4
 869 0172 94       		.byte	-108
 870 0173 08       		.byte	8
 871 0174 C6       		.byte	-58
 872 0175 02       		.byte	2
 873 0176 D8       		.byte	-40
 874 0177 01       		.byte	1
 875 0178 DC       		.byte	-36
 876 0179 04       		.byte	4
 877 017a E2       		.byte	-30
 878 017b 01       		.byte	1
 879 017c 10       		.byte	16
 880 017d 01       		.byte	1
 881 017e 11       		.byte	17
 882 017f 01       		.byte	1
 883              		.text
 884              	.Letext0:
 885              		.file 2 "c:\\program files\\cypress\\psoc creator\\3.1\\psoc creator\\import\\gnu_cs\\arm\\4.8.4\\
 886              		.file 3 ".\\Generated_Source\\PSoC4/cytypes.h"
 887              		.file 4 ".\\Generated_Source\\PSoC4/CyLib.h"