ARM GAS  C:\Users\Sven\AppData\Local\Temp\ccWiejl2.s 			page 1


   1              		.cpu cortex-m0
   2              		.fpu softvfp
   3              		.eabi_attribute 20, 1
   4              		.eabi_attribute 21, 1
   5              		.eabi_attribute 23, 3
   6              		.eabi_attribute 24, 1
   7              		.eabi_attribute 25, 1
   8              		.eabi_attribute 26, 1
   9              		.eabi_attribute 30, 4
  10              		.eabi_attribute 34, 0
  11              		.eabi_attribute 18, 4
  12              		.code	16
  13              		.file	"EEPROM.c"
  14              		.text
  15              	.Ltext0:
  16              		.cfi_sections	.debug_frame
  17              		.section	.text.EEPROM_write,"ax",%progbits
  18              		.align	1
  19              		.global	EEPROM_write
  20              		.code	16
  21              		.thumb_func
  22              		.type	EEPROM_write, %function
  23              	EEPROM_write:
  24              	.LFB33:
  25              		.file 1 ".\\EEPROM.c"
   1:.\EEPROM.c    **** /* ========================================
   2:.\EEPROM.c    ****  *
   3:.\EEPROM.c    ****  * Copyright YOUR COMPANY, THE YEAR
   4:.\EEPROM.c    ****  * All Rights Reserved
   5:.\EEPROM.c    ****  * UNPUBLISHED, LICENSED SOFTWARE.
   6:.\EEPROM.c    ****  *
   7:.\EEPROM.c    ****  * CONFIDENTIAL AND PROPRIETARY INFORMATION
   8:.\EEPROM.c    ****  * WHICH IS THE PROPERTY OF your company.
   9:.\EEPROM.c    ****  *
  10:.\EEPROM.c    ****  * ========================================
  11:.\EEPROM.c    **** */
  12:.\EEPROM.c    **** 
  13:.\EEPROM.c    **** /* EEPROM Handling */
  14:.\EEPROM.c    **** 
  15:.\EEPROM.c    **** #include <EEPROM.h>
  16:.\EEPROM.c    **** 
  17:.\EEPROM.c    **** extern uint8_t eeprom_conn;
  18:.\EEPROM.c    **** 
  19:.\EEPROM.c    **** void EEPROM_write(uint16_t mem_address, uint8_t value)
  20:.\EEPROM.c    **** {
  26              		.loc 1 20 0
  27              		.cfi_startproc
  28              	.LVL0:
  29 0000 F7B5     		push	{r0, r1, r2, r4, r5, r6, r7, lr}
  30              		.cfi_def_cfa_offset 32
  31              		.cfi_offset 0, -32
  32              		.cfi_offset 1, -28
  33              		.cfi_offset 2, -24
  34              		.cfi_offset 4, -20
  35              		.cfi_offset 5, -16
  36              		.cfi_offset 6, -12
  37              		.cfi_offset 7, -8
ARM GAS  C:\Users\Sven\AppData\Local\Temp\ccWiejl2.s 			page 2


  38              		.cfi_offset 14, -4
  39              		.loc 1 20 0
  40 0002 061C     		mov	r6, r0
  41 0004 0191     		str	r1, [sp, #4]
  21:.\EEPROM.c    ****     if(I2CM_I2CMasterSendStart(EEPROM_ID, WRITE)==0)
  42              		.loc 1 21 0
  43 0006 5020     		mov	r0, #80
  44              	.LVL1:
  45 0008 0021     		mov	r1, #0
  46              	.LVL2:
  47 000a FFF7FEFF 		bl	I2CM_I2CMasterSendStart
  48              	.LVL3:
  49 000e 104D     		ldr	r5, .L11
  50 0010 104C     		ldr	r4, .L11+4
  51 0012 114F     		ldr	r7, .L11+8
  52 0014 0028     		cmp	r0, #0
  53 0016 11D1     		bne	.L2
  22:.\EEPROM.c    ****     {
  23:.\EEPROM.c    ****         I2CM_I2CMasterWriteByte(mem_address>>8);
  54              		.loc 1 23 0
  55 0018 300A     		lsr	r0, r6, #8
  56 001a FFF7FEFF 		bl	I2CM_I2CMasterWriteByte
  57              	.LVL4:
  24:.\EEPROM.c    ****         I2CM_I2CMasterWriteByte(mem_address);
  58              		.loc 1 24 0
  59 001e 301C     		mov	r0, r6
  60 0020 FFF7FEFF 		bl	I2CM_I2CMasterWriteByte
  61              	.LVL5:
  25:.\EEPROM.c    ****         I2CM_I2CMasterWriteByte(value);
  62              		.loc 1 25 0
  63 0024 0198     		ldr	r0, [sp, #4]
  64 0026 FFF7FEFF 		bl	I2CM_I2CMasterWriteByte
  65              	.LVL6:
  26:.\EEPROM.c    ****         I2CM_I2C_MASTER_GENERATE_STOP;
  66              		.loc 1 26 0
  67 002a 2A68     		ldr	r2, [r5]
  68 002c 1023     		mov	r3, #16
  69 002e 9106     		lsl	r1, r2, #26
  70 0030 00D5     		bpl	.L3
  71 0032 1823     		mov	r3, #24
  72              	.L3:
  73              		.loc 1 26 0 is_stmt 0 discriminator 1
  74 0034 2360     		str	r3, [r4]
  27:.\EEPROM.c    ****         eeprom_conn = 1;
  75              		.loc 1 27 0 is_stmt 1 discriminator 1
  76 0036 0123     		mov	r3, #1
  77 0038 3B70     		strb	r3, [r7]
  78 003a 07E0     		b	.L1
  79              	.L2:
  28:.\EEPROM.c    ****     }
  29:.\EEPROM.c    ****     else 
  30:.\EEPROM.c    ****     {
  31:.\EEPROM.c    ****         eeprom_conn = 0;
  80              		.loc 1 31 0
  81 003c 0023     		mov	r3, #0
  82 003e 3B70     		strb	r3, [r7]
  32:.\EEPROM.c    ****         I2CM_I2C_MASTER_GENERATE_STOP;
ARM GAS  C:\Users\Sven\AppData\Local\Temp\ccWiejl2.s 			page 3


  83              		.loc 1 32 0
  84 0040 2A68     		ldr	r2, [r5]
  85 0042 1023     		mov	r3, #16
  86 0044 9106     		lsl	r1, r2, #26
  87 0046 00D5     		bpl	.L5
  88 0048 1823     		mov	r3, #24
  89              	.L5:
  90              		.loc 1 32 0 is_stmt 0 discriminator 3
  91 004a 2360     		str	r3, [r4]
  92              	.L1:
  33:.\EEPROM.c    ****     }
  34:.\EEPROM.c    **** }
  93              		.loc 1 34 0 is_stmt 1
  94              		@ sp needed
  95 004c F7BD     		pop	{r0, r1, r2, r4, r5, r6, r7, pc}
  96              	.L12:
  97 004e C046     		.align	2
  98              	.L11:
  99 0050 64000740 		.word	1074200676
 100 0054 68000740 		.word	1074200680
 101 0058 00000000 		.word	eeprom_conn
 102              		.cfi_endproc
 103              	.LFE33:
 104              		.size	EEPROM_write, .-EEPROM_write
 105              		.section	.text.EEPROM_read,"ax",%progbits
 106              		.align	1
 107              		.global	EEPROM_read
 108              		.code	16
 109              		.thumb_func
 110              		.type	EEPROM_read, %function
 111              	EEPROM_read:
 112              	.LFB34:
  35:.\EEPROM.c    **** 
  36:.\EEPROM.c    **** uint8_t EEPROM_read(uint16_t mem_address)
  37:.\EEPROM.c    **** {
 113              		.loc 1 37 0
 114              		.cfi_startproc
 115              	.LVL7:
 116 0000 F8B5     		push	{r3, r4, r5, r6, r7, lr}
 117              		.cfi_def_cfa_offset 24
 118              		.cfi_offset 3, -24
 119              		.cfi_offset 4, -20
 120              		.cfi_offset 5, -16
 121              		.cfi_offset 6, -12
 122              		.cfi_offset 7, -8
 123              		.cfi_offset 14, -4
  38:.\EEPROM.c    ****     uint8_t buf = 0;
  39:.\EEPROM.c    ****     if(I2CM_I2CMasterSendStart(EEPROM_ID, WRITE)==0)
 124              		.loc 1 39 0
 125 0002 0021     		mov	r1, #0
  37:.\EEPROM.c    **** {
 126              		.loc 1 37 0
 127 0004 071C     		mov	r7, r0
 128              		.loc 1 39 0
 129 0006 5020     		mov	r0, #80
 130              	.LVL8:
 131 0008 FFF7FEFF 		bl	I2CM_I2CMasterSendStart
ARM GAS  C:\Users\Sven\AppData\Local\Temp\ccWiejl2.s 			page 4


 132              	.LVL9:
 133 000c 124D     		ldr	r5, .L22
 134 000e 134C     		ldr	r4, .L22+4
 135 0010 134E     		ldr	r6, .L22+8
 136 0012 0028     		cmp	r0, #0
 137 0014 16D1     		bne	.L14
  40:.\EEPROM.c    ****     {
  41:.\EEPROM.c    ****         //UART_1_UartPutString("Start OK ");
  42:.\EEPROM.c    ****         I2CM_I2CMasterWriteByte(mem_address>>8);
 138              		.loc 1 42 0
 139 0016 380A     		lsr	r0, r7, #8
 140 0018 FFF7FEFF 		bl	I2CM_I2CMasterWriteByte
 141              	.LVL10:
  43:.\EEPROM.c    ****         //UART_1_UartPutString("Mem H ");
  44:.\EEPROM.c    ****         I2CM_I2CMasterWriteByte(mem_address);
 142              		.loc 1 44 0
 143 001c 381C     		mov	r0, r7
 144 001e FFF7FEFF 		bl	I2CM_I2CMasterWriteByte
 145              	.LVL11:
  45:.\EEPROM.c    ****         //UART_1_UartPutString("Mem L ");
  46:.\EEPROM.c    ****         I2CM_I2CMasterSendRestart(EEPROM_ID, READ);
 146              		.loc 1 46 0
 147 0022 0121     		mov	r1, #1
 148 0024 5020     		mov	r0, #80
 149 0026 FFF7FEFF 		bl	I2CM_I2CMasterSendRestart
 150              	.LVL12:
  47:.\EEPROM.c    ****         //UART_1_UartPutString("Rst ");
  48:.\EEPROM.c    ****         buf = I2CM_I2CMasterReadByte(NACK);
 151              		.loc 1 48 0
 152 002a 0120     		mov	r0, #1
 153 002c FFF7FEFF 		bl	I2CM_I2CMasterReadByte
 154              	.LVL13:
  49:.\EEPROM.c    ****         I2CM_I2C_MASTER_GENERATE_STOP;
 155              		.loc 1 49 0
 156 0030 2A68     		ldr	r2, [r5]
  48:.\EEPROM.c    ****         buf = I2CM_I2CMasterReadByte(NACK);
 157              		.loc 1 48 0
 158 0032 C0B2     		uxtb	r0, r0
 159              	.LVL14:
 160              		.loc 1 49 0
 161 0034 1023     		mov	r3, #16
 162 0036 9106     		lsl	r1, r2, #26
 163 0038 00D5     		bpl	.L15
 164 003a 1823     		mov	r3, #24
 165              	.L15:
 166              		.loc 1 49 0 is_stmt 0 discriminator 1
 167 003c 2360     		str	r3, [r4]
  50:.\EEPROM.c    ****         eeprom_conn = 1;
 168              		.loc 1 50 0 is_stmt 1 discriminator 1
 169 003e 0123     		mov	r3, #1
 170 0040 3370     		strb	r3, [r6]
 171 0042 08E0     		b	.L16
 172              	.LVL15:
 173              	.L14:
  51:.\EEPROM.c    ****     } 
  52:.\EEPROM.c    ****     else 
  53:.\EEPROM.c    ****     {
ARM GAS  C:\Users\Sven\AppData\Local\Temp\ccWiejl2.s 			page 5


  54:.\EEPROM.c    ****         eeprom_conn = 0;
 174              		.loc 1 54 0
 175 0044 0023     		mov	r3, #0
 176 0046 3370     		strb	r3, [r6]
  55:.\EEPROM.c    ****         I2CM_I2C_MASTER_GENERATE_STOP;
 177              		.loc 1 55 0
 178 0048 2A68     		ldr	r2, [r5]
 179 004a 1023     		mov	r3, #16
 180 004c 9106     		lsl	r1, r2, #26
 181 004e 00D5     		bpl	.L17
 182 0050 1823     		mov	r3, #24
 183              	.L17:
 184              		.loc 1 55 0 is_stmt 0 discriminator 3
 185 0052 2360     		str	r3, [r4]
  38:.\EEPROM.c    ****     uint8_t buf = 0;
 186              		.loc 1 38 0 is_stmt 1 discriminator 3
 187 0054 0020     		mov	r0, #0
 188              	.LVL16:
 189              	.L16:
  56:.\EEPROM.c    ****     }
  57:.\EEPROM.c    ****     return buf;
  58:.\EEPROM.c    **** }
 190              		.loc 1 58 0
 191              		@ sp needed
 192 0056 F8BD     		pop	{r3, r4, r5, r6, r7, pc}
 193              	.L23:
 194              		.align	2
 195              	.L22:
 196 0058 64000740 		.word	1074200676
 197 005c 68000740 		.word	1074200680
 198 0060 00000000 		.word	eeprom_conn
 199              		.cfi_endproc
 200              	.LFE34:
 201              		.size	EEPROM_read, .-EEPROM_read
 202              		.text
 203              	.Letext0:
 204              		.file 2 "e:\\program files (x86)\\cypress\\psoc creator\\3.1\\psoc creator\\import\\gnu_cs\\arm\\4
 205              		.file 3 "e:\\program files (x86)\\cypress\\psoc creator\\3.1\\psoc creator\\import\\gnu_cs\\arm\\4
 206              		.file 4 ".\\Generated_Source\\PSoC4/cytypes.h"
 207              		.file 5 ".\\Generated_Source\\PSoC4/I2CM_I2C.h"