ARM GAS  C:\Users\Sven\AppData\Local\Temp\ccMLFpsa.s 			page 1


   1              		.cpu cortex-m0
   2              		.fpu softvfp
   3              		.eabi_attribute 20, 1
   4              		.eabi_attribute 21, 1
   5              		.eabi_attribute 23, 3
   6              		.eabi_attribute 24, 1
   7              		.eabi_attribute 25, 1
   8              		.eabi_attribute 26, 1
   9              		.eabi_attribute 30, 4
  10              		.eabi_attribute 34, 0
  11              		.eabi_attribute 18, 4
  12              		.code	16
  13              		.file	"I2CM.c"
  14              		.text
  15              	.Ltext0:
  16              		.cfi_sections	.debug_frame
  17              		.section	.text.I2CM_Init,"ax",%progbits
  18              		.align	1
  19              		.global	I2CM_Init
  20              		.code	16
  21              		.thumb_func
  22              		.type	I2CM_Init, %function
  23              	I2CM_Init:
  24              	.LFB0:
  25              		.file 1 ".\\Generated_Source\\PSoC4\\I2CM.c"
   1:.\Generated_Source\PSoC4/I2CM.c **** /*******************************************************************************
   2:.\Generated_Source\PSoC4/I2CM.c **** * File Name: I2CM.c
   3:.\Generated_Source\PSoC4/I2CM.c **** * Version 2.0
   4:.\Generated_Source\PSoC4/I2CM.c **** *
   5:.\Generated_Source\PSoC4/I2CM.c **** * Description:
   6:.\Generated_Source\PSoC4/I2CM.c **** *  This file provides the source code to the API for the SCB Component.
   7:.\Generated_Source\PSoC4/I2CM.c **** *
   8:.\Generated_Source\PSoC4/I2CM.c **** * Note:
   9:.\Generated_Source\PSoC4/I2CM.c **** *
  10:.\Generated_Source\PSoC4/I2CM.c **** *******************************************************************************
  11:.\Generated_Source\PSoC4/I2CM.c **** * Copyright 2013-2014, Cypress Semiconductor Corporation.  All rights reserved.
  12:.\Generated_Source\PSoC4/I2CM.c **** * You may use this file only in accordance with the license, terms, conditions,
  13:.\Generated_Source\PSoC4/I2CM.c **** * disclaimers, and limitations in the end user license agreement accompanying
  14:.\Generated_Source\PSoC4/I2CM.c **** * the software package with which this file was provided.
  15:.\Generated_Source\PSoC4/I2CM.c **** *******************************************************************************/
  16:.\Generated_Source\PSoC4/I2CM.c **** 
  17:.\Generated_Source\PSoC4/I2CM.c **** #include "I2CM_PVT.h"
  18:.\Generated_Source\PSoC4/I2CM.c **** 
  19:.\Generated_Source\PSoC4/I2CM.c **** #if(I2CM_SCB_MODE_I2C_INC)
  20:.\Generated_Source\PSoC4/I2CM.c ****     #include "I2CM_I2C_PVT.h"
  21:.\Generated_Source\PSoC4/I2CM.c **** #endif /* (I2CM_SCB_MODE_I2C_INC) */
  22:.\Generated_Source\PSoC4/I2CM.c **** 
  23:.\Generated_Source\PSoC4/I2CM.c **** #if(I2CM_SCB_MODE_EZI2C_INC)
  24:.\Generated_Source\PSoC4/I2CM.c ****     #include "I2CM_EZI2C_PVT.h"
  25:.\Generated_Source\PSoC4/I2CM.c **** #endif /* (I2CM_SCB_MODE_EZI2C_INC) */
  26:.\Generated_Source\PSoC4/I2CM.c **** 
  27:.\Generated_Source\PSoC4/I2CM.c **** #if(I2CM_SCB_MODE_SPI_INC || I2CM_SCB_MODE_UART_INC)
  28:.\Generated_Source\PSoC4/I2CM.c ****     #include "I2CM_SPI_UART_PVT.h"
  29:.\Generated_Source\PSoC4/I2CM.c **** #endif /* (I2CM_SCB_MODE_SPI_INC || I2CM_SCB_MODE_UART_INC) */
  30:.\Generated_Source\PSoC4/I2CM.c **** 
  31:.\Generated_Source\PSoC4/I2CM.c **** 
  32:.\Generated_Source\PSoC4/I2CM.c **** /***************************************
ARM GAS  C:\Users\Sven\AppData\Local\Temp\ccMLFpsa.s 			page 2


  33:.\Generated_Source\PSoC4/I2CM.c **** *    Run Time Configuration Vars
  34:.\Generated_Source\PSoC4/I2CM.c **** ***************************************/
  35:.\Generated_Source\PSoC4/I2CM.c **** 
  36:.\Generated_Source\PSoC4/I2CM.c **** /* Stores internal component configuration for Unconfigured mode */
  37:.\Generated_Source\PSoC4/I2CM.c **** #if(I2CM_SCB_MODE_UNCONFIG_CONST_CFG)
  38:.\Generated_Source\PSoC4/I2CM.c ****     /* Common configuration variables */
  39:.\Generated_Source\PSoC4/I2CM.c ****     uint8 I2CM_scbMode = I2CM_SCB_MODE_UNCONFIG;
  40:.\Generated_Source\PSoC4/I2CM.c ****     uint8 I2CM_scbEnableWake;
  41:.\Generated_Source\PSoC4/I2CM.c ****     uint8 I2CM_scbEnableIntr;
  42:.\Generated_Source\PSoC4/I2CM.c **** 
  43:.\Generated_Source\PSoC4/I2CM.c ****     /* I2C configuration variables */
  44:.\Generated_Source\PSoC4/I2CM.c ****     uint8 I2CM_mode;
  45:.\Generated_Source\PSoC4/I2CM.c ****     uint8 I2CM_acceptAddr;
  46:.\Generated_Source\PSoC4/I2CM.c **** 
  47:.\Generated_Source\PSoC4/I2CM.c ****     /* SPI/UART configuration variables */
  48:.\Generated_Source\PSoC4/I2CM.c ****     volatile uint8 * I2CM_rxBuffer;
  49:.\Generated_Source\PSoC4/I2CM.c ****     uint8  I2CM_rxDataBits;
  50:.\Generated_Source\PSoC4/I2CM.c ****     uint32 I2CM_rxBufferSize;
  51:.\Generated_Source\PSoC4/I2CM.c **** 
  52:.\Generated_Source\PSoC4/I2CM.c ****     volatile uint8 * I2CM_txBuffer;
  53:.\Generated_Source\PSoC4/I2CM.c ****     uint8  I2CM_txDataBits;
  54:.\Generated_Source\PSoC4/I2CM.c ****     uint32 I2CM_txBufferSize;
  55:.\Generated_Source\PSoC4/I2CM.c **** 
  56:.\Generated_Source\PSoC4/I2CM.c ****     /* EZI2C configuration variables */
  57:.\Generated_Source\PSoC4/I2CM.c ****     uint8 I2CM_numberOfAddr;
  58:.\Generated_Source\PSoC4/I2CM.c ****     uint8 I2CM_subAddrSize;
  59:.\Generated_Source\PSoC4/I2CM.c **** #endif /* (I2CM_SCB_MODE_UNCONFIG_CONST_CFG) */
  60:.\Generated_Source\PSoC4/I2CM.c **** 
  61:.\Generated_Source\PSoC4/I2CM.c **** 
  62:.\Generated_Source\PSoC4/I2CM.c **** /***************************************
  63:.\Generated_Source\PSoC4/I2CM.c **** *     Common SCB Vars
  64:.\Generated_Source\PSoC4/I2CM.c **** ***************************************/
  65:.\Generated_Source\PSoC4/I2CM.c **** 
  66:.\Generated_Source\PSoC4/I2CM.c **** uint8 I2CM_initVar = 0u;
  67:.\Generated_Source\PSoC4/I2CM.c **** 
  68:.\Generated_Source\PSoC4/I2CM.c **** #if !defined (CY_REMOVE_I2CM_CUSTOM_INTR_HANDLER)
  69:.\Generated_Source\PSoC4/I2CM.c ****     cyisraddress I2CM_customIntrHandler = NULL;
  70:.\Generated_Source\PSoC4/I2CM.c **** #endif /* !defined (CY_REMOVE_I2CM_CUSTOM_INTR_HANDLER) */
  71:.\Generated_Source\PSoC4/I2CM.c **** 
  72:.\Generated_Source\PSoC4/I2CM.c **** 
  73:.\Generated_Source\PSoC4/I2CM.c **** /***************************************
  74:.\Generated_Source\PSoC4/I2CM.c **** *    Private Function Prototypes
  75:.\Generated_Source\PSoC4/I2CM.c **** ***************************************/
  76:.\Generated_Source\PSoC4/I2CM.c **** 
  77:.\Generated_Source\PSoC4/I2CM.c **** static void I2CM_ScbEnableIntr(void);
  78:.\Generated_Source\PSoC4/I2CM.c **** static void I2CM_ScbModeStop(void);
  79:.\Generated_Source\PSoC4/I2CM.c **** 
  80:.\Generated_Source\PSoC4/I2CM.c **** 
  81:.\Generated_Source\PSoC4/I2CM.c **** /*******************************************************************************
  82:.\Generated_Source\PSoC4/I2CM.c **** * Function Name: I2CM_Init
  83:.\Generated_Source\PSoC4/I2CM.c **** ********************************************************************************
  84:.\Generated_Source\PSoC4/I2CM.c **** *
  85:.\Generated_Source\PSoC4/I2CM.c **** * Summary:
  86:.\Generated_Source\PSoC4/I2CM.c **** *  Initializes the SCB component to operate in one of the selected
  87:.\Generated_Source\PSoC4/I2CM.c **** *  configurations: I2C, SPI, UART or EZI2C.
  88:.\Generated_Source\PSoC4/I2CM.c **** *  When the configuration is set to "Unconfigured SCB", this function does
  89:.\Generated_Source\PSoC4/I2CM.c **** *  not do any initialization. Use mode-specific initialization APIs instead:
ARM GAS  C:\Users\Sven\AppData\Local\Temp\ccMLFpsa.s 			page 3


  90:.\Generated_Source\PSoC4/I2CM.c **** *  SCB_I2CInit, SCB_SpiInit, SCB_UartInit or SCB_EzI2CInit.
  91:.\Generated_Source\PSoC4/I2CM.c **** *
  92:.\Generated_Source\PSoC4/I2CM.c **** * Parameters:
  93:.\Generated_Source\PSoC4/I2CM.c **** *  None
  94:.\Generated_Source\PSoC4/I2CM.c **** *
  95:.\Generated_Source\PSoC4/I2CM.c **** * Return:
  96:.\Generated_Source\PSoC4/I2CM.c **** *  None
  97:.\Generated_Source\PSoC4/I2CM.c **** *
  98:.\Generated_Source\PSoC4/I2CM.c **** *******************************************************************************/
  99:.\Generated_Source\PSoC4/I2CM.c **** void I2CM_Init(void)
 100:.\Generated_Source\PSoC4/I2CM.c **** {
  26              		.loc 1 100 0
  27              		.cfi_startproc
  28 0000 08B5     		push	{r3, lr}
  29              		.cfi_def_cfa_offset 8
  30              		.cfi_offset 3, -8
  31              		.cfi_offset 14, -4
 101:.\Generated_Source\PSoC4/I2CM.c **** #if(I2CM_SCB_MODE_UNCONFIG_CONST_CFG)
 102:.\Generated_Source\PSoC4/I2CM.c ****     if(I2CM_SCB_MODE_UNCONFIG_RUNTM_CFG)
 103:.\Generated_Source\PSoC4/I2CM.c ****     {
 104:.\Generated_Source\PSoC4/I2CM.c ****         I2CM_initVar = 0u;
 105:.\Generated_Source\PSoC4/I2CM.c ****     }
 106:.\Generated_Source\PSoC4/I2CM.c ****     else
 107:.\Generated_Source\PSoC4/I2CM.c ****     {
 108:.\Generated_Source\PSoC4/I2CM.c ****         /* Initialization was done before this function call */
 109:.\Generated_Source\PSoC4/I2CM.c ****     }
 110:.\Generated_Source\PSoC4/I2CM.c **** 
 111:.\Generated_Source\PSoC4/I2CM.c **** #elif(I2CM_SCB_MODE_I2C_CONST_CFG)
 112:.\Generated_Source\PSoC4/I2CM.c ****     I2CM_I2CInit();
  32              		.loc 1 112 0
  33 0002 FFF7FEFF 		bl	I2CM_I2CInit
  34              	.LVL0:
 113:.\Generated_Source\PSoC4/I2CM.c **** 
 114:.\Generated_Source\PSoC4/I2CM.c **** #elif(I2CM_SCB_MODE_SPI_CONST_CFG)
 115:.\Generated_Source\PSoC4/I2CM.c ****     I2CM_SpiInit();
 116:.\Generated_Source\PSoC4/I2CM.c **** 
 117:.\Generated_Source\PSoC4/I2CM.c **** #elif(I2CM_SCB_MODE_UART_CONST_CFG)
 118:.\Generated_Source\PSoC4/I2CM.c ****     I2CM_UartInit();
 119:.\Generated_Source\PSoC4/I2CM.c **** 
 120:.\Generated_Source\PSoC4/I2CM.c **** #elif(I2CM_SCB_MODE_EZI2C_CONST_CFG)
 121:.\Generated_Source\PSoC4/I2CM.c ****     I2CM_EzI2CInit();
 122:.\Generated_Source\PSoC4/I2CM.c **** 
 123:.\Generated_Source\PSoC4/I2CM.c **** #endif /* (I2CM_SCB_MODE_UNCONFIG_CONST_CFG) */
 124:.\Generated_Source\PSoC4/I2CM.c **** }
  35              		.loc 1 124 0
  36              		@ sp needed
  37 0006 08BD     		pop	{r3, pc}
  38              		.cfi_endproc
  39              	.LFE0:
  40              		.size	I2CM_Init, .-I2CM_Init
  41              		.section	.text.I2CM_Enable,"ax",%progbits
  42              		.align	1
  43              		.global	I2CM_Enable
  44              		.code	16
  45              		.thumb_func
  46              		.type	I2CM_Enable, %function
  47              	I2CM_Enable:
ARM GAS  C:\Users\Sven\AppData\Local\Temp\ccMLFpsa.s 			page 4


  48              	.LFB1:
 125:.\Generated_Source\PSoC4/I2CM.c **** 
 126:.\Generated_Source\PSoC4/I2CM.c **** 
 127:.\Generated_Source\PSoC4/I2CM.c **** /*******************************************************************************
 128:.\Generated_Source\PSoC4/I2CM.c **** * Function Name: I2CM_Enable
 129:.\Generated_Source\PSoC4/I2CM.c **** ********************************************************************************
 130:.\Generated_Source\PSoC4/I2CM.c **** *
 131:.\Generated_Source\PSoC4/I2CM.c **** * Summary:
 132:.\Generated_Source\PSoC4/I2CM.c **** *  Enables the SCB component operation.
 133:.\Generated_Source\PSoC4/I2CM.c **** *  The SCB configuration should be not changed when the component is enabled.
 134:.\Generated_Source\PSoC4/I2CM.c **** *  Any configuration changes should be made after disabling the component.
 135:.\Generated_Source\PSoC4/I2CM.c **** *
 136:.\Generated_Source\PSoC4/I2CM.c **** * Parameters:
 137:.\Generated_Source\PSoC4/I2CM.c **** *  None
 138:.\Generated_Source\PSoC4/I2CM.c **** *
 139:.\Generated_Source\PSoC4/I2CM.c **** * Return:
 140:.\Generated_Source\PSoC4/I2CM.c **** *  None
 141:.\Generated_Source\PSoC4/I2CM.c **** *
 142:.\Generated_Source\PSoC4/I2CM.c **** *******************************************************************************/
 143:.\Generated_Source\PSoC4/I2CM.c **** void I2CM_Enable(void)
 144:.\Generated_Source\PSoC4/I2CM.c **** {
  49              		.loc 1 144 0
  50              		.cfi_startproc
  51 0000 08B5     		push	{r3, lr}
  52              		.cfi_def_cfa_offset 8
  53              		.cfi_offset 3, -8
  54              		.cfi_offset 14, -4
 145:.\Generated_Source\PSoC4/I2CM.c **** #if(I2CM_SCB_MODE_UNCONFIG_CONST_CFG)
 146:.\Generated_Source\PSoC4/I2CM.c ****     /* Enable SCB block, only if it is already configured */
 147:.\Generated_Source\PSoC4/I2CM.c ****     if(!I2CM_SCB_MODE_UNCONFIG_RUNTM_CFG)
 148:.\Generated_Source\PSoC4/I2CM.c ****     {
 149:.\Generated_Source\PSoC4/I2CM.c ****         I2CM_CTRL_REG |= I2CM_CTRL_ENABLED;
 150:.\Generated_Source\PSoC4/I2CM.c **** 
 151:.\Generated_Source\PSoC4/I2CM.c ****         I2CM_ScbEnableIntr();
 152:.\Generated_Source\PSoC4/I2CM.c ****     }
 153:.\Generated_Source\PSoC4/I2CM.c **** #else
 154:.\Generated_Source\PSoC4/I2CM.c ****     I2CM_CTRL_REG |= I2CM_CTRL_ENABLED;
  55              		.loc 1 154 0
  56 0002 054B     		ldr	r3, .L3
  57 0004 8022     		mov	r2, #128
  58 0006 1968     		ldr	r1, [r3]
  59 0008 1206     		lsl	r2, r2, #24
  60 000a 0A43     		orr	r2, r1
  61 000c 1A60     		str	r2, [r3]
  62              	.LBB8:
  63              	.LBB9:
 155:.\Generated_Source\PSoC4/I2CM.c **** 
 156:.\Generated_Source\PSoC4/I2CM.c ****     I2CM_ScbEnableIntr();
 157:.\Generated_Source\PSoC4/I2CM.c **** #endif /* (I2CM_SCB_MODE_UNCONFIG_CONST_CFG) */
 158:.\Generated_Source\PSoC4/I2CM.c **** }
 159:.\Generated_Source\PSoC4/I2CM.c **** 
 160:.\Generated_Source\PSoC4/I2CM.c **** 
 161:.\Generated_Source\PSoC4/I2CM.c **** /*******************************************************************************
 162:.\Generated_Source\PSoC4/I2CM.c **** * Function Name: I2CM_Start
 163:.\Generated_Source\PSoC4/I2CM.c **** ********************************************************************************
 164:.\Generated_Source\PSoC4/I2CM.c **** *
 165:.\Generated_Source\PSoC4/I2CM.c **** * Summary:
ARM GAS  C:\Users\Sven\AppData\Local\Temp\ccMLFpsa.s 			page 5


 166:.\Generated_Source\PSoC4/I2CM.c **** *  Invokes SCB_Init() and SCB_Enable().
 167:.\Generated_Source\PSoC4/I2CM.c **** *  After this function call, the component is enabled and ready for operation.
 168:.\Generated_Source\PSoC4/I2CM.c **** *  When configuration is set to "Unconfigured SCB", the component must first be
 169:.\Generated_Source\PSoC4/I2CM.c **** *  initialized to operate in one of the following configurations: I2C, SPI, UART
 170:.\Generated_Source\PSoC4/I2CM.c **** *  or EZ I2C. Otherwise this function does not enable the component.
 171:.\Generated_Source\PSoC4/I2CM.c **** *
 172:.\Generated_Source\PSoC4/I2CM.c **** * Parameters:
 173:.\Generated_Source\PSoC4/I2CM.c **** *  None
 174:.\Generated_Source\PSoC4/I2CM.c **** *
 175:.\Generated_Source\PSoC4/I2CM.c **** * Return:
 176:.\Generated_Source\PSoC4/I2CM.c **** *  None
 177:.\Generated_Source\PSoC4/I2CM.c **** *
 178:.\Generated_Source\PSoC4/I2CM.c **** * Global variables:
 179:.\Generated_Source\PSoC4/I2CM.c **** *  I2CM_initVar - used to check initial configuration, modified
 180:.\Generated_Source\PSoC4/I2CM.c **** *  on first function call.
 181:.\Generated_Source\PSoC4/I2CM.c **** *
 182:.\Generated_Source\PSoC4/I2CM.c **** *******************************************************************************/
 183:.\Generated_Source\PSoC4/I2CM.c **** void I2CM_Start(void)
 184:.\Generated_Source\PSoC4/I2CM.c **** {
 185:.\Generated_Source\PSoC4/I2CM.c ****     if(0u == I2CM_initVar)
 186:.\Generated_Source\PSoC4/I2CM.c ****     {
 187:.\Generated_Source\PSoC4/I2CM.c ****         I2CM_Init();
 188:.\Generated_Source\PSoC4/I2CM.c ****         I2CM_initVar = 1u; /* Component was initialized */
 189:.\Generated_Source\PSoC4/I2CM.c ****     }
 190:.\Generated_Source\PSoC4/I2CM.c **** 
 191:.\Generated_Source\PSoC4/I2CM.c ****     I2CM_Enable();
 192:.\Generated_Source\PSoC4/I2CM.c **** }
 193:.\Generated_Source\PSoC4/I2CM.c **** 
 194:.\Generated_Source\PSoC4/I2CM.c **** 
 195:.\Generated_Source\PSoC4/I2CM.c **** /*******************************************************************************
 196:.\Generated_Source\PSoC4/I2CM.c **** * Function Name: I2CM_Stop
 197:.\Generated_Source\PSoC4/I2CM.c **** ********************************************************************************
 198:.\Generated_Source\PSoC4/I2CM.c **** *
 199:.\Generated_Source\PSoC4/I2CM.c **** * Summary:
 200:.\Generated_Source\PSoC4/I2CM.c **** *  Disables the SCB component and its interrupt.
 201:.\Generated_Source\PSoC4/I2CM.c **** *
 202:.\Generated_Source\PSoC4/I2CM.c **** * Parameters:
 203:.\Generated_Source\PSoC4/I2CM.c **** *  None
 204:.\Generated_Source\PSoC4/I2CM.c **** *
 205:.\Generated_Source\PSoC4/I2CM.c **** * Return:
 206:.\Generated_Source\PSoC4/I2CM.c **** *  None
 207:.\Generated_Source\PSoC4/I2CM.c **** *
 208:.\Generated_Source\PSoC4/I2CM.c **** *******************************************************************************/
 209:.\Generated_Source\PSoC4/I2CM.c **** void I2CM_Stop(void)
 210:.\Generated_Source\PSoC4/I2CM.c **** {
 211:.\Generated_Source\PSoC4/I2CM.c **** #if(I2CM_SCB_IRQ_INTERNAL)
 212:.\Generated_Source\PSoC4/I2CM.c ****     I2CM_DisableInt();
 213:.\Generated_Source\PSoC4/I2CM.c **** #endif /* (I2CM_SCB_IRQ_INTERNAL) */
 214:.\Generated_Source\PSoC4/I2CM.c **** 
 215:.\Generated_Source\PSoC4/I2CM.c ****     I2CM_CTRL_REG &= (uint32) ~I2CM_CTRL_ENABLED;  /* Disable scb IP */
 216:.\Generated_Source\PSoC4/I2CM.c **** 
 217:.\Generated_Source\PSoC4/I2CM.c **** #if(I2CM_SCB_IRQ_INTERNAL)
 218:.\Generated_Source\PSoC4/I2CM.c ****     I2CM_ClearPendingInt();
 219:.\Generated_Source\PSoC4/I2CM.c **** #endif /* (I2CM_SCB_IRQ_INTERNAL) */
 220:.\Generated_Source\PSoC4/I2CM.c **** 
 221:.\Generated_Source\PSoC4/I2CM.c ****     I2CM_ScbModeStop(); /* Calls scbMode specific Stop function */
 222:.\Generated_Source\PSoC4/I2CM.c **** }
ARM GAS  C:\Users\Sven\AppData\Local\Temp\ccMLFpsa.s 			page 6


 223:.\Generated_Source\PSoC4/I2CM.c **** 
 224:.\Generated_Source\PSoC4/I2CM.c **** 
 225:.\Generated_Source\PSoC4/I2CM.c **** /*******************************************************************************
 226:.\Generated_Source\PSoC4/I2CM.c **** * Function Name: I2CM_SetRxFifoLevel
 227:.\Generated_Source\PSoC4/I2CM.c **** ********************************************************************************
 228:.\Generated_Source\PSoC4/I2CM.c **** *
 229:.\Generated_Source\PSoC4/I2CM.c **** * Summary:
 230:.\Generated_Source\PSoC4/I2CM.c **** *  Sets level in the RX FIFO to generate a RX level interrupt.
 231:.\Generated_Source\PSoC4/I2CM.c **** *  When the RX FIFO has more entries than the RX FIFO level an RX level
 232:.\Generated_Source\PSoC4/I2CM.c **** *  interrupt request is generated.
 233:.\Generated_Source\PSoC4/I2CM.c **** *
 234:.\Generated_Source\PSoC4/I2CM.c **** * Parameters:
 235:.\Generated_Source\PSoC4/I2CM.c **** *  level: Level in the RX FIFO to generate RX level interrupt.
 236:.\Generated_Source\PSoC4/I2CM.c **** *         The range of valid level values is between 0 and RX FIFO depth - 1.
 237:.\Generated_Source\PSoC4/I2CM.c **** *
 238:.\Generated_Source\PSoC4/I2CM.c **** * Return:
 239:.\Generated_Source\PSoC4/I2CM.c **** *  None
 240:.\Generated_Source\PSoC4/I2CM.c **** *
 241:.\Generated_Source\PSoC4/I2CM.c **** *******************************************************************************/
 242:.\Generated_Source\PSoC4/I2CM.c **** void I2CM_SetRxFifoLevel(uint32 level)
 243:.\Generated_Source\PSoC4/I2CM.c **** {
 244:.\Generated_Source\PSoC4/I2CM.c ****     uint32 rxFifoCtrl;
 245:.\Generated_Source\PSoC4/I2CM.c **** 
 246:.\Generated_Source\PSoC4/I2CM.c ****     rxFifoCtrl = I2CM_RX_FIFO_CTRL_REG;
 247:.\Generated_Source\PSoC4/I2CM.c **** 
 248:.\Generated_Source\PSoC4/I2CM.c ****     rxFifoCtrl &= ((uint32) ~I2CM_RX_FIFO_CTRL_TRIGGER_LEVEL_MASK); /* Clear level mask bits */
 249:.\Generated_Source\PSoC4/I2CM.c ****     rxFifoCtrl |= ((uint32) (I2CM_RX_FIFO_CTRL_TRIGGER_LEVEL_MASK & level));
 250:.\Generated_Source\PSoC4/I2CM.c **** 
 251:.\Generated_Source\PSoC4/I2CM.c ****     I2CM_RX_FIFO_CTRL_REG = rxFifoCtrl;
 252:.\Generated_Source\PSoC4/I2CM.c **** }
 253:.\Generated_Source\PSoC4/I2CM.c **** 
 254:.\Generated_Source\PSoC4/I2CM.c **** 
 255:.\Generated_Source\PSoC4/I2CM.c **** /*******************************************************************************
 256:.\Generated_Source\PSoC4/I2CM.c **** * Function Name: I2CM_SetTxFifoLevel
 257:.\Generated_Source\PSoC4/I2CM.c **** ********************************************************************************
 258:.\Generated_Source\PSoC4/I2CM.c **** *
 259:.\Generated_Source\PSoC4/I2CM.c **** * Summary:
 260:.\Generated_Source\PSoC4/I2CM.c **** *  Sets level in the TX FIFO to generate a TX level interrupt.
 261:.\Generated_Source\PSoC4/I2CM.c **** *  When the TX FIFO has more entries than the TX FIFO level an TX level
 262:.\Generated_Source\PSoC4/I2CM.c **** *  interrupt request is generated.
 263:.\Generated_Source\PSoC4/I2CM.c **** *
 264:.\Generated_Source\PSoC4/I2CM.c **** * Parameters:
 265:.\Generated_Source\PSoC4/I2CM.c **** *  level: Level in the TX FIFO to generate TX level interrupt.
 266:.\Generated_Source\PSoC4/I2CM.c **** *         The range of valid level values is between 0 and TX FIFO depth - 1.
 267:.\Generated_Source\PSoC4/I2CM.c **** *
 268:.\Generated_Source\PSoC4/I2CM.c **** * Return:
 269:.\Generated_Source\PSoC4/I2CM.c **** *  None
 270:.\Generated_Source\PSoC4/I2CM.c **** *
 271:.\Generated_Source\PSoC4/I2CM.c **** *******************************************************************************/
 272:.\Generated_Source\PSoC4/I2CM.c **** void I2CM_SetTxFifoLevel(uint32 level)
 273:.\Generated_Source\PSoC4/I2CM.c **** {
 274:.\Generated_Source\PSoC4/I2CM.c ****     uint32 txFifoCtrl;
 275:.\Generated_Source\PSoC4/I2CM.c **** 
 276:.\Generated_Source\PSoC4/I2CM.c ****     txFifoCtrl = I2CM_TX_FIFO_CTRL_REG;
 277:.\Generated_Source\PSoC4/I2CM.c **** 
 278:.\Generated_Source\PSoC4/I2CM.c ****     txFifoCtrl &= ((uint32) ~I2CM_TX_FIFO_CTRL_TRIGGER_LEVEL_MASK); /* Clear level mask bits */
 279:.\Generated_Source\PSoC4/I2CM.c ****     txFifoCtrl |= ((uint32) (I2CM_TX_FIFO_CTRL_TRIGGER_LEVEL_MASK & level));
ARM GAS  C:\Users\Sven\AppData\Local\Temp\ccMLFpsa.s 			page 7


 280:.\Generated_Source\PSoC4/I2CM.c **** 
 281:.\Generated_Source\PSoC4/I2CM.c ****     I2CM_TX_FIFO_CTRL_REG = txFifoCtrl;
 282:.\Generated_Source\PSoC4/I2CM.c **** }
 283:.\Generated_Source\PSoC4/I2CM.c **** 
 284:.\Generated_Source\PSoC4/I2CM.c **** 
 285:.\Generated_Source\PSoC4/I2CM.c **** /*******************************************************************************
 286:.\Generated_Source\PSoC4/I2CM.c **** * Function Name: I2CM_SetCustomInterruptHandler
 287:.\Generated_Source\PSoC4/I2CM.c **** ********************************************************************************
 288:.\Generated_Source\PSoC4/I2CM.c **** *
 289:.\Generated_Source\PSoC4/I2CM.c **** * Summary:
 290:.\Generated_Source\PSoC4/I2CM.c **** *  Registers a function to be called by the internal interrupt handler.
 291:.\Generated_Source\PSoC4/I2CM.c **** *  First the function that is registered is called, then the internal interrupt
 292:.\Generated_Source\PSoC4/I2CM.c **** *  handler performs any operation such as software buffer management functions
 293:.\Generated_Source\PSoC4/I2CM.c **** *  before the interrupt returns.  It is the user's responsibility not to break
 294:.\Generated_Source\PSoC4/I2CM.c **** *  the software buffer operations. Only one custom handler is supported, which
 295:.\Generated_Source\PSoC4/I2CM.c **** *  is the function provided by the most recent call.
 296:.\Generated_Source\PSoC4/I2CM.c **** *  At the initialization time no custom handler is registered.
 297:.\Generated_Source\PSoC4/I2CM.c **** *
 298:.\Generated_Source\PSoC4/I2CM.c **** * Parameters:
 299:.\Generated_Source\PSoC4/I2CM.c **** *  func: Pointer to the function to register.
 300:.\Generated_Source\PSoC4/I2CM.c **** *        The value NULL indicates to remove the current custom interrupt
 301:.\Generated_Source\PSoC4/I2CM.c **** *        handler.
 302:.\Generated_Source\PSoC4/I2CM.c **** *
 303:.\Generated_Source\PSoC4/I2CM.c **** * Return:
 304:.\Generated_Source\PSoC4/I2CM.c **** *  None
 305:.\Generated_Source\PSoC4/I2CM.c **** *
 306:.\Generated_Source\PSoC4/I2CM.c **** *******************************************************************************/
 307:.\Generated_Source\PSoC4/I2CM.c **** void I2CM_SetCustomInterruptHandler(cyisraddress func)
 308:.\Generated_Source\PSoC4/I2CM.c **** {
 309:.\Generated_Source\PSoC4/I2CM.c **** #if !defined (CY_REMOVE_I2CM_CUSTOM_INTR_HANDLER)
 310:.\Generated_Source\PSoC4/I2CM.c ****     I2CM_customIntrHandler = func; /* Register interrupt handler */
 311:.\Generated_Source\PSoC4/I2CM.c **** #else
 312:.\Generated_Source\PSoC4/I2CM.c ****     if(NULL != func)
 313:.\Generated_Source\PSoC4/I2CM.c ****     {
 314:.\Generated_Source\PSoC4/I2CM.c ****         /* Suppress compiler warning */
 315:.\Generated_Source\PSoC4/I2CM.c ****     }
 316:.\Generated_Source\PSoC4/I2CM.c **** #endif /* !defined (CY_REMOVE_I2CM_CUSTOM_INTR_HANDLER) */
 317:.\Generated_Source\PSoC4/I2CM.c **** }
 318:.\Generated_Source\PSoC4/I2CM.c **** 
 319:.\Generated_Source\PSoC4/I2CM.c **** 
 320:.\Generated_Source\PSoC4/I2CM.c **** /*******************************************************************************
 321:.\Generated_Source\PSoC4/I2CM.c **** * Function Name: I2CM_ScbModeEnableIntr
 322:.\Generated_Source\PSoC4/I2CM.c **** ********************************************************************************
 323:.\Generated_Source\PSoC4/I2CM.c **** *
 324:.\Generated_Source\PSoC4/I2CM.c **** * Summary:
 325:.\Generated_Source\PSoC4/I2CM.c **** *  Enables an interrupt for a specific mode.
 326:.\Generated_Source\PSoC4/I2CM.c **** *
 327:.\Generated_Source\PSoC4/I2CM.c **** * Parameters:
 328:.\Generated_Source\PSoC4/I2CM.c **** *  None
 329:.\Generated_Source\PSoC4/I2CM.c **** *
 330:.\Generated_Source\PSoC4/I2CM.c **** * Return:
 331:.\Generated_Source\PSoC4/I2CM.c **** *  None
 332:.\Generated_Source\PSoC4/I2CM.c **** *
 333:.\Generated_Source\PSoC4/I2CM.c **** *******************************************************************************/
 334:.\Generated_Source\PSoC4/I2CM.c **** static void I2CM_ScbEnableIntr(void)
 335:.\Generated_Source\PSoC4/I2CM.c **** {
 336:.\Generated_Source\PSoC4/I2CM.c **** #if(I2CM_SCB_IRQ_INTERNAL)
ARM GAS  C:\Users\Sven\AppData\Local\Temp\ccMLFpsa.s 			page 8


 337:.\Generated_Source\PSoC4/I2CM.c ****     #if(I2CM_SCB_MODE_UNCONFIG_CONST_CFG)
 338:.\Generated_Source\PSoC4/I2CM.c ****         /* Enable interrupt in NVIC */
 339:.\Generated_Source\PSoC4/I2CM.c ****         if(0u != I2CM_scbEnableIntr)
 340:.\Generated_Source\PSoC4/I2CM.c ****         {
 341:.\Generated_Source\PSoC4/I2CM.c ****             I2CM_EnableInt();
 342:.\Generated_Source\PSoC4/I2CM.c ****         }
 343:.\Generated_Source\PSoC4/I2CM.c ****     #else
 344:.\Generated_Source\PSoC4/I2CM.c ****         I2CM_EnableInt();
  64              		.loc 1 344 0
  65 000e 0B20     		mov	r0, #11
  66 0010 FFF7FEFF 		bl	CyIntEnable
  67              	.LVL1:
  68              	.LBE9:
  69              	.LBE8:
 158:.\Generated_Source\PSoC4/I2CM.c **** }
  70              		.loc 1 158 0
  71              		@ sp needed
  72 0014 08BD     		pop	{r3, pc}
  73              	.L4:
  74 0016 C046     		.align	2
  75              	.L3:
  76 0018 00000740 		.word	1074200576
  77              		.cfi_endproc
  78              	.LFE1:
  79              		.size	I2CM_Enable, .-I2CM_Enable
  80              		.section	.text.I2CM_Start,"ax",%progbits
  81              		.align	1
  82              		.global	I2CM_Start
  83              		.code	16
  84              		.thumb_func
  85              		.type	I2CM_Start, %function
  86              	I2CM_Start:
  87              	.LFB2:
 184:.\Generated_Source\PSoC4/I2CM.c **** {
  88              		.loc 1 184 0
  89              		.cfi_startproc
  90 0000 10B5     		push	{r4, lr}
  91              		.cfi_def_cfa_offset 8
  92              		.cfi_offset 4, -8
  93              		.cfi_offset 14, -4
 185:.\Generated_Source\PSoC4/I2CM.c ****     if(0u == I2CM_initVar)
  94              		.loc 1 185 0
  95 0002 054C     		ldr	r4, .L8
  96 0004 2378     		ldrb	r3, [r4]
  97 0006 002B     		cmp	r3, #0
  98 0008 03D1     		bne	.L6
  99              	.LBB10:
 100              	.LBB11:
 112:.\Generated_Source\PSoC4/I2CM.c ****     I2CM_I2CInit();
 101              		.loc 1 112 0
 102 000a FFF7FEFF 		bl	I2CM_I2CInit
 103              	.LVL2:
 104              	.LBE11:
 105              	.LBE10:
 188:.\Generated_Source\PSoC4/I2CM.c ****         I2CM_initVar = 1u; /* Component was initialized */
 106              		.loc 1 188 0
 107 000e 0123     		mov	r3, #1
ARM GAS  C:\Users\Sven\AppData\Local\Temp\ccMLFpsa.s 			page 9


 108 0010 2370     		strb	r3, [r4]
 109              	.L6:
 191:.\Generated_Source\PSoC4/I2CM.c ****     I2CM_Enable();
 110              		.loc 1 191 0
 111 0012 FFF7FEFF 		bl	I2CM_Enable
 112              	.LVL3:
 192:.\Generated_Source\PSoC4/I2CM.c **** }
 113              		.loc 1 192 0
 114              		@ sp needed
 115 0016 10BD     		pop	{r4, pc}
 116              	.L9:
 117              		.align	2
 118              	.L8:
 119 0018 00000000 		.word	.LANCHOR0
 120              		.cfi_endproc
 121              	.LFE2:
 122              		.size	I2CM_Start, .-I2CM_Start
 123              		.section	.text.I2CM_Stop,"ax",%progbits
 124              		.align	1
 125              		.global	I2CM_Stop
 126              		.code	16
 127              		.thumb_func
 128              		.type	I2CM_Stop, %function
 129              	I2CM_Stop:
 130              	.LFB3:
 210:.\Generated_Source\PSoC4/I2CM.c **** {
 131              		.loc 1 210 0
 132              		.cfi_startproc
 133 0000 08B5     		push	{r3, lr}
 134              		.cfi_def_cfa_offset 8
 135              		.cfi_offset 3, -8
 136              		.cfi_offset 14, -4
 212:.\Generated_Source\PSoC4/I2CM.c ****     I2CM_DisableInt();
 137              		.loc 1 212 0
 138 0002 0B20     		mov	r0, #11
 139 0004 FFF7FEFF 		bl	CyIntDisable
 140              	.LVL4:
 215:.\Generated_Source\PSoC4/I2CM.c ****     I2CM_CTRL_REG &= (uint32) ~I2CM_CTRL_ENABLED;  /* Disable scb IP */
 141              		.loc 1 215 0
 142 0008 054B     		ldr	r3, .L11
 218:.\Generated_Source\PSoC4/I2CM.c ****     I2CM_ClearPendingInt();
 143              		.loc 1 218 0
 144 000a 0B20     		mov	r0, #11
 215:.\Generated_Source\PSoC4/I2CM.c ****     I2CM_CTRL_REG &= (uint32) ~I2CM_CTRL_ENABLED;  /* Disable scb IP */
 145              		.loc 1 215 0
 146 000c 1A68     		ldr	r2, [r3]
 222:.\Generated_Source\PSoC4/I2CM.c **** }
 147              		.loc 1 222 0
 148              		@ sp needed
 215:.\Generated_Source\PSoC4/I2CM.c ****     I2CM_CTRL_REG &= (uint32) ~I2CM_CTRL_ENABLED;  /* Disable scb IP */
 149              		.loc 1 215 0
 150 000e 5200     		lsl	r2, r2, #1
 151 0010 5208     		lsr	r2, r2, #1
 152 0012 1A60     		str	r2, [r3]
 218:.\Generated_Source\PSoC4/I2CM.c ****     I2CM_ClearPendingInt();
 153              		.loc 1 218 0
 154 0014 FFF7FEFF 		bl	CyIntClearPending
ARM GAS  C:\Users\Sven\AppData\Local\Temp\ccMLFpsa.s 			page 10


 155              	.LVL5:
 156              	.LBB12:
 157              	.LBB13:
 345:.\Generated_Source\PSoC4/I2CM.c **** 
 346:.\Generated_Source\PSoC4/I2CM.c ****     #endif /* (I2CM_SCB_MODE_UNCONFIG_CONST_CFG) */
 347:.\Generated_Source\PSoC4/I2CM.c **** #endif /* (I2CM_SCB_IRQ_INTERNAL) */
 348:.\Generated_Source\PSoC4/I2CM.c **** }
 349:.\Generated_Source\PSoC4/I2CM.c **** 
 350:.\Generated_Source\PSoC4/I2CM.c **** 
 351:.\Generated_Source\PSoC4/I2CM.c **** /*******************************************************************************
 352:.\Generated_Source\PSoC4/I2CM.c **** * Function Name: I2CM_ScbModeStop
 353:.\Generated_Source\PSoC4/I2CM.c **** ********************************************************************************
 354:.\Generated_Source\PSoC4/I2CM.c **** *
 355:.\Generated_Source\PSoC4/I2CM.c **** * Summary:
 356:.\Generated_Source\PSoC4/I2CM.c **** *  Calls the Stop function for a specific operation mode.
 357:.\Generated_Source\PSoC4/I2CM.c **** *
 358:.\Generated_Source\PSoC4/I2CM.c **** * Parameters:
 359:.\Generated_Source\PSoC4/I2CM.c **** *  None
 360:.\Generated_Source\PSoC4/I2CM.c **** *
 361:.\Generated_Source\PSoC4/I2CM.c **** * Return:
 362:.\Generated_Source\PSoC4/I2CM.c **** *  None
 363:.\Generated_Source\PSoC4/I2CM.c **** *
 364:.\Generated_Source\PSoC4/I2CM.c **** *******************************************************************************/
 365:.\Generated_Source\PSoC4/I2CM.c **** static void I2CM_ScbModeStop(void)
 366:.\Generated_Source\PSoC4/I2CM.c **** {
 367:.\Generated_Source\PSoC4/I2CM.c **** #if(I2CM_SCB_MODE_UNCONFIG_CONST_CFG)
 368:.\Generated_Source\PSoC4/I2CM.c ****     if(I2CM_SCB_MODE_I2C_RUNTM_CFG)
 369:.\Generated_Source\PSoC4/I2CM.c ****     {
 370:.\Generated_Source\PSoC4/I2CM.c ****         I2CM_I2CStop();
 371:.\Generated_Source\PSoC4/I2CM.c ****     }
 372:.\Generated_Source\PSoC4/I2CM.c ****     else if (I2CM_SCB_MODE_EZI2C_RUNTM_CFG)
 373:.\Generated_Source\PSoC4/I2CM.c ****     {
 374:.\Generated_Source\PSoC4/I2CM.c ****         I2CM_EzI2CStop();
 375:.\Generated_Source\PSoC4/I2CM.c ****     }
 376:.\Generated_Source\PSoC4/I2CM.c **** #if (!I2CM_CY_SCBIP_V1)
 377:.\Generated_Source\PSoC4/I2CM.c ****     else if (I2CM_SCB_MODE_UART_RUNTM_CFG)
 378:.\Generated_Source\PSoC4/I2CM.c ****     {
 379:.\Generated_Source\PSoC4/I2CM.c ****         I2CM_UartStop();
 380:.\Generated_Source\PSoC4/I2CM.c ****     }
 381:.\Generated_Source\PSoC4/I2CM.c **** #endif /* (!I2CM_CY_SCBIP_V1) */
 382:.\Generated_Source\PSoC4/I2CM.c ****     else
 383:.\Generated_Source\PSoC4/I2CM.c ****     {
 384:.\Generated_Source\PSoC4/I2CM.c ****         /* Do nothing for other modes */
 385:.\Generated_Source\PSoC4/I2CM.c ****     }
 386:.\Generated_Source\PSoC4/I2CM.c **** #elif(I2CM_SCB_MODE_I2C_CONST_CFG)
 387:.\Generated_Source\PSoC4/I2CM.c ****     I2CM_I2CStop();
 158              		.loc 1 387 0
 159 0018 FFF7FEFF 		bl	I2CM_I2CStop
 160              	.LVL6:
 161              	.LBE13:
 162              	.LBE12:
 222:.\Generated_Source\PSoC4/I2CM.c **** }
 163              		.loc 1 222 0
 164 001c 08BD     		pop	{r3, pc}
 165              	.L12:
 166 001e C046     		.align	2
 167              	.L11:
ARM GAS  C:\Users\Sven\AppData\Local\Temp\ccMLFpsa.s 			page 11


 168 0020 00000740 		.word	1074200576
 169              		.cfi_endproc
 170              	.LFE3:
 171              		.size	I2CM_Stop, .-I2CM_Stop
 172              		.section	.text.I2CM_SetRxFifoLevel,"ax",%progbits
 173              		.align	1
 174              		.global	I2CM_SetRxFifoLevel
 175              		.code	16
 176              		.thumb_func
 177              		.type	I2CM_SetRxFifoLevel, %function
 178              	I2CM_SetRxFifoLevel:
 179              	.LFB4:
 243:.\Generated_Source\PSoC4/I2CM.c **** {
 180              		.loc 1 243 0
 181              		.cfi_startproc
 182              	.LVL7:
 246:.\Generated_Source\PSoC4/I2CM.c ****     rxFifoCtrl = I2CM_RX_FIFO_CTRL_REG;
 183              		.loc 1 246 0
 184 0000 034B     		ldr	r3, .L14
 248:.\Generated_Source\PSoC4/I2CM.c ****     rxFifoCtrl &= ((uint32) ~I2CM_RX_FIFO_CTRL_TRIGGER_LEVEL_MASK); /* Clear level mask bits */
 185              		.loc 1 248 0
 186 0002 0722     		mov	r2, #7
 246:.\Generated_Source\PSoC4/I2CM.c ****     rxFifoCtrl = I2CM_RX_FIFO_CTRL_REG;
 187              		.loc 1 246 0
 188 0004 1968     		ldr	r1, [r3]
 189              	.LVL8:
 252:.\Generated_Source\PSoC4/I2CM.c **** }
 190              		.loc 1 252 0
 191              		@ sp needed
 248:.\Generated_Source\PSoC4/I2CM.c ****     rxFifoCtrl &= ((uint32) ~I2CM_RX_FIFO_CTRL_TRIGGER_LEVEL_MASK); /* Clear level mask bits */
 192              		.loc 1 248 0
 193 0006 9143     		bic	r1, r2
 194              	.LVL9:
 249:.\Generated_Source\PSoC4/I2CM.c ****     rxFifoCtrl |= ((uint32) (I2CM_RX_FIFO_CTRL_TRIGGER_LEVEL_MASK & level));
 195              		.loc 1 249 0
 196 0008 0240     		and	r2, r0
 197 000a 0A43     		orr	r2, r1
 198              	.LVL10:
 251:.\Generated_Source\PSoC4/I2CM.c ****     I2CM_RX_FIFO_CTRL_REG = rxFifoCtrl;
 199              		.loc 1 251 0
 200 000c 1A60     		str	r2, [r3]
 252:.\Generated_Source\PSoC4/I2CM.c **** }
 201              		.loc 1 252 0
 202 000e 7047     		bx	lr
 203              	.L15:
 204              		.align	2
 205              	.L14:
 206 0010 04030740 		.word	1074201348
 207              		.cfi_endproc
 208              	.LFE4:
 209              		.size	I2CM_SetRxFifoLevel, .-I2CM_SetRxFifoLevel
 210              		.section	.text.I2CM_SetTxFifoLevel,"ax",%progbits
 211              		.align	1
 212              		.global	I2CM_SetTxFifoLevel
 213              		.code	16
 214              		.thumb_func
 215              		.type	I2CM_SetTxFifoLevel, %function
ARM GAS  C:\Users\Sven\AppData\Local\Temp\ccMLFpsa.s 			page 12


 216              	I2CM_SetTxFifoLevel:
 217              	.LFB5:
 273:.\Generated_Source\PSoC4/I2CM.c **** {
 218              		.loc 1 273 0
 219              		.cfi_startproc
 220              	.LVL11:
 276:.\Generated_Source\PSoC4/I2CM.c ****     txFifoCtrl = I2CM_TX_FIFO_CTRL_REG;
 221              		.loc 1 276 0
 222 0000 034B     		ldr	r3, .L17
 278:.\Generated_Source\PSoC4/I2CM.c ****     txFifoCtrl &= ((uint32) ~I2CM_TX_FIFO_CTRL_TRIGGER_LEVEL_MASK); /* Clear level mask bits */
 223              		.loc 1 278 0
 224 0002 0722     		mov	r2, #7
 276:.\Generated_Source\PSoC4/I2CM.c ****     txFifoCtrl = I2CM_TX_FIFO_CTRL_REG;
 225              		.loc 1 276 0
 226 0004 1968     		ldr	r1, [r3]
 227              	.LVL12:
 282:.\Generated_Source\PSoC4/I2CM.c **** }
 228              		.loc 1 282 0
 229              		@ sp needed
 278:.\Generated_Source\PSoC4/I2CM.c ****     txFifoCtrl &= ((uint32) ~I2CM_TX_FIFO_CTRL_TRIGGER_LEVEL_MASK); /* Clear level mask bits */
 230              		.loc 1 278 0
 231 0006 9143     		bic	r1, r2
 232              	.LVL13:
 279:.\Generated_Source\PSoC4/I2CM.c ****     txFifoCtrl |= ((uint32) (I2CM_TX_FIFO_CTRL_TRIGGER_LEVEL_MASK & level));
 233              		.loc 1 279 0
 234 0008 0240     		and	r2, r0
 235 000a 0A43     		orr	r2, r1
 236              	.LVL14:
 281:.\Generated_Source\PSoC4/I2CM.c ****     I2CM_TX_FIFO_CTRL_REG = txFifoCtrl;
 237              		.loc 1 281 0
 238 000c 1A60     		str	r2, [r3]
 282:.\Generated_Source\PSoC4/I2CM.c **** }
 239              		.loc 1 282 0
 240 000e 7047     		bx	lr
 241              	.L18:
 242              		.align	2
 243              	.L17:
 244 0010 04020740 		.word	1074201092
 245              		.cfi_endproc
 246              	.LFE5:
 247              		.size	I2CM_SetTxFifoLevel, .-I2CM_SetTxFifoLevel
 248              		.section	.text.I2CM_SetCustomInterruptHandler,"ax",%progbits
 249              		.align	1
 250              		.global	I2CM_SetCustomInterruptHandler
 251              		.code	16
 252              		.thumb_func
 253              		.type	I2CM_SetCustomInterruptHandler, %function
 254              	I2CM_SetCustomInterruptHandler:
 255              	.LFB6:
 308:.\Generated_Source\PSoC4/I2CM.c **** {
 256              		.loc 1 308 0
 257              		.cfi_startproc
 258              	.LVL15:
 310:.\Generated_Source\PSoC4/I2CM.c ****     I2CM_customIntrHandler = func; /* Register interrupt handler */
 259              		.loc 1 310 0
 260 0000 014B     		ldr	r3, .L20
 317:.\Generated_Source\PSoC4/I2CM.c **** }
ARM GAS  C:\Users\Sven\AppData\Local\Temp\ccMLFpsa.s 			page 13


 261              		.loc 1 317 0
 262              		@ sp needed
 310:.\Generated_Source\PSoC4/I2CM.c ****     I2CM_customIntrHandler = func; /* Register interrupt handler */
 263              		.loc 1 310 0
 264 0002 5860     		str	r0, [r3, #4]
 317:.\Generated_Source\PSoC4/I2CM.c **** }
 265              		.loc 1 317 0
 266 0004 7047     		bx	lr
 267              	.L21:
 268 0006 C046     		.align	2
 269              	.L20:
 270 0008 00000000 		.word	.LANCHOR0
 271              		.cfi_endproc
 272              	.LFE6:
 273              		.size	I2CM_SetCustomInterruptHandler, .-I2CM_SetCustomInterruptHandler
 274              		.section	.text.I2CM_I2CSlaveNackGeneration,"ax",%progbits
 275              		.align	1
 276              		.global	I2CM_I2CSlaveNackGeneration
 277              		.code	16
 278              		.thumb_func
 279              		.type	I2CM_I2CSlaveNackGeneration, %function
 280              	I2CM_I2CSlaveNackGeneration:
 281              	.LFB9:
 388:.\Generated_Source\PSoC4/I2CM.c **** 
 389:.\Generated_Source\PSoC4/I2CM.c **** #elif(I2CM_SCB_MODE_EZI2C_CONST_CFG)
 390:.\Generated_Source\PSoC4/I2CM.c ****     I2CM_EzI2CStop();
 391:.\Generated_Source\PSoC4/I2CM.c **** 
 392:.\Generated_Source\PSoC4/I2CM.c **** #elif(I2CM_SCB_MODE_UART_CONST_CFG)
 393:.\Generated_Source\PSoC4/I2CM.c ****     I2CM_UartStop();
 394:.\Generated_Source\PSoC4/I2CM.c **** 
 395:.\Generated_Source\PSoC4/I2CM.c **** #endif /* (I2CM_SCB_MODE_UNCONFIG_CONST_CFG) */
 396:.\Generated_Source\PSoC4/I2CM.c **** }
 397:.\Generated_Source\PSoC4/I2CM.c **** 
 398:.\Generated_Source\PSoC4/I2CM.c **** 
 399:.\Generated_Source\PSoC4/I2CM.c **** #if(I2CM_SCB_MODE_UNCONFIG_CONST_CFG)
 400:.\Generated_Source\PSoC4/I2CM.c ****     /*******************************************************************************
 401:.\Generated_Source\PSoC4/I2CM.c ****     * Function Name: I2CM_SetPins
 402:.\Generated_Source\PSoC4/I2CM.c ****     ********************************************************************************
 403:.\Generated_Source\PSoC4/I2CM.c ****     *
 404:.\Generated_Source\PSoC4/I2CM.c ****     * Summary:
 405:.\Generated_Source\PSoC4/I2CM.c ****     *  Sets the pins settings accordingly to the selected operation mode.
 406:.\Generated_Source\PSoC4/I2CM.c ****     *  Only available in the Unconfigured operation mode. The mode specific
 407:.\Generated_Source\PSoC4/I2CM.c ****     *  initialization function calls it.
 408:.\Generated_Source\PSoC4/I2CM.c ****     *  Pins configuration is set by PSoC Creator when a specific mode of operation
 409:.\Generated_Source\PSoC4/I2CM.c ****     *  is selected in design time.
 410:.\Generated_Source\PSoC4/I2CM.c ****     *
 411:.\Generated_Source\PSoC4/I2CM.c ****     * Parameters:
 412:.\Generated_Source\PSoC4/I2CM.c ****     *  mode:      Mode of SCB operation.
 413:.\Generated_Source\PSoC4/I2CM.c ****     *  subMode:   Sub-mode of SCB operation. It is only required for SPI and UART
 414:.\Generated_Source\PSoC4/I2CM.c ****     *             modes.
 415:.\Generated_Source\PSoC4/I2CM.c ****     *  uartEnableMask: enables TX or RX direction and RTS and CTS signals.
 416:.\Generated_Source\PSoC4/I2CM.c ****     *
 417:.\Generated_Source\PSoC4/I2CM.c ****     * Return:
 418:.\Generated_Source\PSoC4/I2CM.c ****     *  None
 419:.\Generated_Source\PSoC4/I2CM.c ****     *
 420:.\Generated_Source\PSoC4/I2CM.c ****     *******************************************************************************/
 421:.\Generated_Source\PSoC4/I2CM.c ****     void I2CM_SetPins(uint32 mode, uint32 subMode, uint32 uartEnableMask)
ARM GAS  C:\Users\Sven\AppData\Local\Temp\ccMLFpsa.s 			page 14


 422:.\Generated_Source\PSoC4/I2CM.c ****     {
 423:.\Generated_Source\PSoC4/I2CM.c ****         uint32 hsiomSel [I2CM_SCB_PINS_NUMBER];
 424:.\Generated_Source\PSoC4/I2CM.c ****         uint32 pinsDm   [I2CM_SCB_PINS_NUMBER];
 425:.\Generated_Source\PSoC4/I2CM.c **** 
 426:.\Generated_Source\PSoC4/I2CM.c ****     #if (!I2CM_CY_SCBIP_V1)
 427:.\Generated_Source\PSoC4/I2CM.c ****         uint32 pinsInBuf = 0u;
 428:.\Generated_Source\PSoC4/I2CM.c ****     #endif /* (!I2CM_CY_SCBIP_V1) */
 429:.\Generated_Source\PSoC4/I2CM.c **** 
 430:.\Generated_Source\PSoC4/I2CM.c ****         uint32 i;
 431:.\Generated_Source\PSoC4/I2CM.c **** 
 432:.\Generated_Source\PSoC4/I2CM.c ****         /* Set default HSIOM to GPIO and Drive Mode to Analog Hi-Z */
 433:.\Generated_Source\PSoC4/I2CM.c ****         for(i = 0u; i < I2CM_SCB_PINS_NUMBER; i++)
 434:.\Generated_Source\PSoC4/I2CM.c ****         {
 435:.\Generated_Source\PSoC4/I2CM.c ****             hsiomSel[i]  = I2CM_HSIOM_DEF_SEL;
 436:.\Generated_Source\PSoC4/I2CM.c ****             pinsDm[i]    = I2CM_PIN_DM_ALG_HIZ;
 437:.\Generated_Source\PSoC4/I2CM.c ****         }
 438:.\Generated_Source\PSoC4/I2CM.c **** 
 439:.\Generated_Source\PSoC4/I2CM.c ****         if((I2CM_SCB_MODE_I2C   == mode) ||
 440:.\Generated_Source\PSoC4/I2CM.c ****            (I2CM_SCB_MODE_EZI2C == mode))
 441:.\Generated_Source\PSoC4/I2CM.c ****         {
 442:.\Generated_Source\PSoC4/I2CM.c ****             hsiomSel[I2CM_MOSI_SCL_RX_PIN_INDEX] = I2CM_HSIOM_I2C_SEL;
 443:.\Generated_Source\PSoC4/I2CM.c ****             hsiomSel[I2CM_MISO_SDA_TX_PIN_INDEX] = I2CM_HSIOM_I2C_SEL;
 444:.\Generated_Source\PSoC4/I2CM.c **** 
 445:.\Generated_Source\PSoC4/I2CM.c ****             pinsDm[I2CM_MOSI_SCL_RX_PIN_INDEX] = I2CM_PIN_DM_OD_LO;
 446:.\Generated_Source\PSoC4/I2CM.c ****             pinsDm[I2CM_MISO_SDA_TX_PIN_INDEX] = I2CM_PIN_DM_OD_LO;
 447:.\Generated_Source\PSoC4/I2CM.c ****         }
 448:.\Generated_Source\PSoC4/I2CM.c ****     #if (!I2CM_CY_SCBIP_V1)
 449:.\Generated_Source\PSoC4/I2CM.c ****         else if(I2CM_SCB_MODE_SPI == mode)
 450:.\Generated_Source\PSoC4/I2CM.c ****         {
 451:.\Generated_Source\PSoC4/I2CM.c ****             hsiomSel[I2CM_MOSI_SCL_RX_PIN_INDEX] = I2CM_HSIOM_SPI_SEL;
 452:.\Generated_Source\PSoC4/I2CM.c ****             hsiomSel[I2CM_MISO_SDA_TX_PIN_INDEX] = I2CM_HSIOM_SPI_SEL;
 453:.\Generated_Source\PSoC4/I2CM.c ****             hsiomSel[I2CM_SCLK_PIN_INDEX]        = I2CM_HSIOM_SPI_SEL;
 454:.\Generated_Source\PSoC4/I2CM.c **** 
 455:.\Generated_Source\PSoC4/I2CM.c ****             if(I2CM_SPI_SLAVE == subMode)
 456:.\Generated_Source\PSoC4/I2CM.c ****             {
 457:.\Generated_Source\PSoC4/I2CM.c ****                 /* Slave */
 458:.\Generated_Source\PSoC4/I2CM.c ****                 pinsDm[I2CM_MOSI_SCL_RX_PIN_INDEX] = I2CM_PIN_DM_DIG_HIZ;
 459:.\Generated_Source\PSoC4/I2CM.c ****                 pinsDm[I2CM_MISO_SDA_TX_PIN_INDEX] = I2CM_PIN_DM_STRONG;
 460:.\Generated_Source\PSoC4/I2CM.c ****                 pinsDm[I2CM_SCLK_PIN_INDEX]        = I2CM_PIN_DM_DIG_HIZ;
 461:.\Generated_Source\PSoC4/I2CM.c **** 
 462:.\Generated_Source\PSoC4/I2CM.c ****             #if(I2CM_SS0_PIN)
 463:.\Generated_Source\PSoC4/I2CM.c ****                 /* Only SS0 is valid choice for Slave */
 464:.\Generated_Source\PSoC4/I2CM.c ****                 hsiomSel[I2CM_SS0_PIN_INDEX] = I2CM_HSIOM_SPI_SEL;
 465:.\Generated_Source\PSoC4/I2CM.c ****                 pinsDm  [I2CM_SS0_PIN_INDEX] = I2CM_PIN_DM_DIG_HIZ;
 466:.\Generated_Source\PSoC4/I2CM.c ****             #endif /* (I2CM_SS1_PIN) */
 467:.\Generated_Source\PSoC4/I2CM.c **** 
 468:.\Generated_Source\PSoC4/I2CM.c ****             #if(I2CM_MISO_SDA_TX_PIN)
 469:.\Generated_Source\PSoC4/I2CM.c ****                 /* Disable input buffer */
 470:.\Generated_Source\PSoC4/I2CM.c ****                  pinsInBuf |= I2CM_MISO_SDA_TX_PIN_MASK;
 471:.\Generated_Source\PSoC4/I2CM.c ****             #endif /* (I2CM_MISO_SDA_TX_PIN_PIN) */
 472:.\Generated_Source\PSoC4/I2CM.c ****             }
 473:.\Generated_Source\PSoC4/I2CM.c ****             else /* (Master) */
 474:.\Generated_Source\PSoC4/I2CM.c ****             {
 475:.\Generated_Source\PSoC4/I2CM.c ****                 pinsDm[I2CM_MOSI_SCL_RX_PIN_INDEX] = I2CM_PIN_DM_STRONG;
 476:.\Generated_Source\PSoC4/I2CM.c ****                 pinsDm[I2CM_MISO_SDA_TX_PIN_INDEX] = I2CM_PIN_DM_DIG_HIZ;
 477:.\Generated_Source\PSoC4/I2CM.c ****                 pinsDm[I2CM_SCLK_PIN_INDEX]        = I2CM_PIN_DM_STRONG;
 478:.\Generated_Source\PSoC4/I2CM.c **** 
ARM GAS  C:\Users\Sven\AppData\Local\Temp\ccMLFpsa.s 			page 15


 479:.\Generated_Source\PSoC4/I2CM.c ****             #if(I2CM_SS0_PIN)
 480:.\Generated_Source\PSoC4/I2CM.c ****                 hsiomSel [I2CM_SS0_PIN_INDEX] = I2CM_HSIOM_SPI_SEL;
 481:.\Generated_Source\PSoC4/I2CM.c ****                 pinsDm   [I2CM_SS0_PIN_INDEX] = I2CM_PIN_DM_STRONG;
 482:.\Generated_Source\PSoC4/I2CM.c ****                 pinsInBuf                                |= I2CM_SS0_PIN_MASK;
 483:.\Generated_Source\PSoC4/I2CM.c ****             #endif /* (I2CM_SS0_PIN) */
 484:.\Generated_Source\PSoC4/I2CM.c **** 
 485:.\Generated_Source\PSoC4/I2CM.c ****             #if(I2CM_SS1_PIN)
 486:.\Generated_Source\PSoC4/I2CM.c ****                 hsiomSel [I2CM_SS1_PIN_INDEX] = I2CM_HSIOM_SPI_SEL;
 487:.\Generated_Source\PSoC4/I2CM.c ****                 pinsDm   [I2CM_SS1_PIN_INDEX] = I2CM_PIN_DM_STRONG;
 488:.\Generated_Source\PSoC4/I2CM.c ****                 pinsInBuf                                |= I2CM_SS1_PIN_MASK;
 489:.\Generated_Source\PSoC4/I2CM.c ****             #endif /* (I2CM_SS1_PIN) */
 490:.\Generated_Source\PSoC4/I2CM.c **** 
 491:.\Generated_Source\PSoC4/I2CM.c ****             #if(I2CM_SS2_PIN)
 492:.\Generated_Source\PSoC4/I2CM.c ****                 hsiomSel [I2CM_SS2_PIN_INDEX] = I2CM_HSIOM_SPI_SEL;
 493:.\Generated_Source\PSoC4/I2CM.c ****                 pinsDm   [I2CM_SS2_PIN_INDEX] = I2CM_PIN_DM_STRONG;
 494:.\Generated_Source\PSoC4/I2CM.c ****                 pinsInBuf                                |= I2CM_SS2_PIN_MASK;
 495:.\Generated_Source\PSoC4/I2CM.c ****             #endif /* (I2CM_SS2_PIN) */
 496:.\Generated_Source\PSoC4/I2CM.c **** 
 497:.\Generated_Source\PSoC4/I2CM.c ****             #if(I2CM_SS3_PIN)
 498:.\Generated_Source\PSoC4/I2CM.c ****                 hsiomSel [I2CM_SS3_PIN_INDEX] = I2CM_HSIOM_SPI_SEL;
 499:.\Generated_Source\PSoC4/I2CM.c ****                 pinsDm   [I2CM_SS3_PIN_INDEX] = I2CM_PIN_DM_STRONG;
 500:.\Generated_Source\PSoC4/I2CM.c ****                 pinsInBuf                                |= I2CM_SS3_PIN_MASK;
 501:.\Generated_Source\PSoC4/I2CM.c ****             #endif /* (I2CM_SS2_PIN) */
 502:.\Generated_Source\PSoC4/I2CM.c **** 
 503:.\Generated_Source\PSoC4/I2CM.c ****                 /* Disable input buffers */
 504:.\Generated_Source\PSoC4/I2CM.c ****             #if(I2CM_MOSI_SCL_RX_PIN)
 505:.\Generated_Source\PSoC4/I2CM.c ****                 pinsInBuf |= I2CM_MOSI_SCL_RX_PIN_MASK;
 506:.\Generated_Source\PSoC4/I2CM.c ****             #endif /* (I2CM_MOSI_SCL_RX_PIN) */
 507:.\Generated_Source\PSoC4/I2CM.c **** 
 508:.\Generated_Source\PSoC4/I2CM.c ****              #if(I2CM_MOSI_SCL_RX_WAKE_PIN)
 509:.\Generated_Source\PSoC4/I2CM.c ****                 pinsInBuf |= I2CM_MOSI_SCL_RX_WAKE_PIN_MASK;
 510:.\Generated_Source\PSoC4/I2CM.c ****             #endif /* (I2CM_MOSI_SCL_RX_WAKE_PIN) */
 511:.\Generated_Source\PSoC4/I2CM.c **** 
 512:.\Generated_Source\PSoC4/I2CM.c ****             #if(I2CM_SCLK_PIN)
 513:.\Generated_Source\PSoC4/I2CM.c ****                 pinsInBuf |= I2CM_SCLK_PIN_MASK;
 514:.\Generated_Source\PSoC4/I2CM.c ****             #endif /* (I2CM_SCLK_PIN) */
 515:.\Generated_Source\PSoC4/I2CM.c ****             }
 516:.\Generated_Source\PSoC4/I2CM.c ****         }
 517:.\Generated_Source\PSoC4/I2CM.c ****         else /* UART */
 518:.\Generated_Source\PSoC4/I2CM.c ****         {
 519:.\Generated_Source\PSoC4/I2CM.c ****             if(I2CM_UART_MODE_SMARTCARD == subMode)
 520:.\Generated_Source\PSoC4/I2CM.c ****             {
 521:.\Generated_Source\PSoC4/I2CM.c ****                 /* SmartCard */
 522:.\Generated_Source\PSoC4/I2CM.c ****                 hsiomSel[I2CM_MISO_SDA_TX_PIN_INDEX] = I2CM_HSIOM_UART_SEL;
 523:.\Generated_Source\PSoC4/I2CM.c ****                 pinsDm  [I2CM_MISO_SDA_TX_PIN_INDEX] = I2CM_PIN_DM_OD_LO;
 524:.\Generated_Source\PSoC4/I2CM.c ****             }
 525:.\Generated_Source\PSoC4/I2CM.c ****             else /* Standard or IrDA */
 526:.\Generated_Source\PSoC4/I2CM.c ****             {
 527:.\Generated_Source\PSoC4/I2CM.c ****                 if(0u != (I2CM_UART_RX_PIN_ENABLE & uartEnableMask))
 528:.\Generated_Source\PSoC4/I2CM.c ****                 {
 529:.\Generated_Source\PSoC4/I2CM.c ****                     hsiomSel[I2CM_MOSI_SCL_RX_PIN_INDEX] = I2CM_HSIOM_UART_SEL;
 530:.\Generated_Source\PSoC4/I2CM.c ****                     pinsDm  [I2CM_MOSI_SCL_RX_PIN_INDEX] = I2CM_PIN_DM_DIG_HIZ;
 531:.\Generated_Source\PSoC4/I2CM.c ****                 }
 532:.\Generated_Source\PSoC4/I2CM.c **** 
 533:.\Generated_Source\PSoC4/I2CM.c ****                 if(0u != (I2CM_UART_TX_PIN_ENABLE & uartEnableMask))
 534:.\Generated_Source\PSoC4/I2CM.c ****                 {
 535:.\Generated_Source\PSoC4/I2CM.c ****                     hsiomSel[I2CM_MISO_SDA_TX_PIN_INDEX] = I2CM_HSIOM_UART_SEL;
ARM GAS  C:\Users\Sven\AppData\Local\Temp\ccMLFpsa.s 			page 16


 536:.\Generated_Source\PSoC4/I2CM.c ****                     pinsDm  [I2CM_MISO_SDA_TX_PIN_INDEX] = I2CM_PIN_DM_STRONG;
 537:.\Generated_Source\PSoC4/I2CM.c **** 
 538:.\Generated_Source\PSoC4/I2CM.c ****                 #if(I2CM_MISO_SDA_TX_PIN)
 539:.\Generated_Source\PSoC4/I2CM.c ****                      pinsInBuf |= I2CM_MISO_SDA_TX_PIN_MASK;
 540:.\Generated_Source\PSoC4/I2CM.c ****                 #endif /* (I2CM_MISO_SDA_TX_PIN_PIN) */
 541:.\Generated_Source\PSoC4/I2CM.c ****                 }
 542:.\Generated_Source\PSoC4/I2CM.c **** 
 543:.\Generated_Source\PSoC4/I2CM.c ****             #if !(I2CM_CY_SCBIP_V0 || I2CM_CY_SCBIP_V1)
 544:.\Generated_Source\PSoC4/I2CM.c ****                 if(I2CM_UART_MODE_STD == subMode)
 545:.\Generated_Source\PSoC4/I2CM.c ****                 {
 546:.\Generated_Source\PSoC4/I2CM.c ****                     if(0u != (I2CM_UART_CTS_PIN_ENABLE & uartEnableMask))
 547:.\Generated_Source\PSoC4/I2CM.c ****                     {
 548:.\Generated_Source\PSoC4/I2CM.c ****                         /* CTS input is multiplexed with SCLK */
 549:.\Generated_Source\PSoC4/I2CM.c ****                         hsiomSel[I2CM_SCLK_PIN_INDEX] = I2CM_HSIOM_UART_SEL;
 550:.\Generated_Source\PSoC4/I2CM.c ****                         pinsDm  [I2CM_SCLK_PIN_INDEX] = I2CM_PIN_DM_DIG_HIZ;
 551:.\Generated_Source\PSoC4/I2CM.c ****                     }
 552:.\Generated_Source\PSoC4/I2CM.c **** 
 553:.\Generated_Source\PSoC4/I2CM.c ****                     if(0u != (I2CM_UART_RTS_PIN_ENABLE & uartEnableMask))
 554:.\Generated_Source\PSoC4/I2CM.c ****                     {
 555:.\Generated_Source\PSoC4/I2CM.c ****                         /* RTS output is multiplexed with SS0 */
 556:.\Generated_Source\PSoC4/I2CM.c ****                         hsiomSel[I2CM_SS0_PIN_INDEX] = I2CM_HSIOM_UART_SEL;
 557:.\Generated_Source\PSoC4/I2CM.c ****                         pinsDm  [I2CM_SS0_PIN_INDEX] = I2CM_PIN_DM_STRONG;
 558:.\Generated_Source\PSoC4/I2CM.c **** 
 559:.\Generated_Source\PSoC4/I2CM.c ****                     #if(I2CM_SS0_PIN)
 560:.\Generated_Source\PSoC4/I2CM.c ****                         /* Disable input buffer */
 561:.\Generated_Source\PSoC4/I2CM.c ****                         pinsInBuf |= I2CM_SS0_PIN_MASK;
 562:.\Generated_Source\PSoC4/I2CM.c ****                     #endif /* (I2CM_SS0_PIN) */
 563:.\Generated_Source\PSoC4/I2CM.c ****                     }
 564:.\Generated_Source\PSoC4/I2CM.c ****                 }
 565:.\Generated_Source\PSoC4/I2CM.c ****             #endif /* !(I2CM_CY_SCBIP_V0 || I2CM_CY_SCBIP_V1) */
 566:.\Generated_Source\PSoC4/I2CM.c ****             }
 567:.\Generated_Source\PSoC4/I2CM.c ****         }
 568:.\Generated_Source\PSoC4/I2CM.c ****     #endif /* (!I2CM_CY_SCBIP_V1) */
 569:.\Generated_Source\PSoC4/I2CM.c **** 
 570:.\Generated_Source\PSoC4/I2CM.c ****     /* Configure pins: set HSIOM, DM and InputBufEnable */
 571:.\Generated_Source\PSoC4/I2CM.c ****     /* Note: the DR register settings do not effect the pin output if HSIOM is other than GPIO */
 572:.\Generated_Source\PSoC4/I2CM.c **** 
 573:.\Generated_Source\PSoC4/I2CM.c ****     #if(I2CM_MOSI_SCL_RX_PIN)
 574:.\Generated_Source\PSoC4/I2CM.c ****         I2CM_SET_HSIOM_SEL(I2CM_MOSI_SCL_RX_HSIOM_REG,
 575:.\Generated_Source\PSoC4/I2CM.c ****                                        I2CM_MOSI_SCL_RX_HSIOM_MASK,
 576:.\Generated_Source\PSoC4/I2CM.c ****                                        I2CM_MOSI_SCL_RX_HSIOM_POS,
 577:.\Generated_Source\PSoC4/I2CM.c ****                                        hsiomSel[I2CM_MOSI_SCL_RX_PIN_INDEX]);
 578:.\Generated_Source\PSoC4/I2CM.c **** 
 579:.\Generated_Source\PSoC4/I2CM.c ****         I2CM_spi_mosi_i2c_scl_uart_rx_SetDriveMode((uint8) pinsDm[I2CM_MOSI_SCL_RX_PIN_INDEX]);
 580:.\Generated_Source\PSoC4/I2CM.c **** 
 581:.\Generated_Source\PSoC4/I2CM.c ****     #if (!I2CM_CY_SCBIP_V1)
 582:.\Generated_Source\PSoC4/I2CM.c ****         I2CM_SET_INP_DIS(I2CM_spi_mosi_i2c_scl_uart_rx_INP_DIS,
 583:.\Generated_Source\PSoC4/I2CM.c ****                                      I2CM_spi_mosi_i2c_scl_uart_rx_MASK,
 584:.\Generated_Source\PSoC4/I2CM.c ****                                      (0u != (pinsInBuf & I2CM_MOSI_SCL_RX_PIN_MASK)));
 585:.\Generated_Source\PSoC4/I2CM.c ****     #endif /* (!I2CM_CY_SCBIP_V1) */
 586:.\Generated_Source\PSoC4/I2CM.c ****     #endif /* (I2CM_MOSI_SCL_RX_PIN) */
 587:.\Generated_Source\PSoC4/I2CM.c **** 
 588:.\Generated_Source\PSoC4/I2CM.c ****     #if(I2CM_MOSI_SCL_RX_WAKE_PIN)
 589:.\Generated_Source\PSoC4/I2CM.c ****         I2CM_SET_HSIOM_SEL(I2CM_MOSI_SCL_RX_WAKE_HSIOM_REG,
 590:.\Generated_Source\PSoC4/I2CM.c ****                                        I2CM_MOSI_SCL_RX_WAKE_HSIOM_MASK,
 591:.\Generated_Source\PSoC4/I2CM.c ****                                        I2CM_MOSI_SCL_RX_WAKE_HSIOM_POS,
 592:.\Generated_Source\PSoC4/I2CM.c ****                                        hsiomSel[I2CM_MOSI_SCL_RX_WAKE_PIN_INDEX]);
ARM GAS  C:\Users\Sven\AppData\Local\Temp\ccMLFpsa.s 			page 17


 593:.\Generated_Source\PSoC4/I2CM.c **** 
 594:.\Generated_Source\PSoC4/I2CM.c ****         I2CM_spi_mosi_i2c_scl_uart_rx_wake_SetDriveMode((uint8)
 595:.\Generated_Source\PSoC4/I2CM.c ****                                                                pinsDm[I2CM_MOSI_SCL_RX_WAKE_PIN_IND
 596:.\Generated_Source\PSoC4/I2CM.c **** 
 597:.\Generated_Source\PSoC4/I2CM.c ****         I2CM_SET_INP_DIS(I2CM_spi_mosi_i2c_scl_uart_rx_wake_INP_DIS,
 598:.\Generated_Source\PSoC4/I2CM.c ****                                      I2CM_spi_mosi_i2c_scl_uart_rx_wake_MASK,
 599:.\Generated_Source\PSoC4/I2CM.c ****                                      (0u != (pinsInBuf & I2CM_MOSI_SCL_RX_WAKE_PIN_MASK)));
 600:.\Generated_Source\PSoC4/I2CM.c **** 
 601:.\Generated_Source\PSoC4/I2CM.c ****          /* Set interrupt on falling edge */
 602:.\Generated_Source\PSoC4/I2CM.c ****         I2CM_SET_INCFG_TYPE(I2CM_MOSI_SCL_RX_WAKE_INTCFG_REG,
 603:.\Generated_Source\PSoC4/I2CM.c ****                                         I2CM_MOSI_SCL_RX_WAKE_INTCFG_TYPE_MASK,
 604:.\Generated_Source\PSoC4/I2CM.c ****                                         I2CM_MOSI_SCL_RX_WAKE_INTCFG_TYPE_POS,
 605:.\Generated_Source\PSoC4/I2CM.c ****                                         I2CM_INTCFG_TYPE_FALLING_EDGE);
 606:.\Generated_Source\PSoC4/I2CM.c ****     #endif /* (I2CM_MOSI_SCL_RX_WAKE_PIN) */
 607:.\Generated_Source\PSoC4/I2CM.c **** 
 608:.\Generated_Source\PSoC4/I2CM.c ****     #if(I2CM_MISO_SDA_TX_PIN)
 609:.\Generated_Source\PSoC4/I2CM.c ****         I2CM_SET_HSIOM_SEL(I2CM_MISO_SDA_TX_HSIOM_REG,
 610:.\Generated_Source\PSoC4/I2CM.c ****                                        I2CM_MISO_SDA_TX_HSIOM_MASK,
 611:.\Generated_Source\PSoC4/I2CM.c ****                                        I2CM_MISO_SDA_TX_HSIOM_POS,
 612:.\Generated_Source\PSoC4/I2CM.c ****                                        hsiomSel[I2CM_MISO_SDA_TX_PIN_INDEX]);
 613:.\Generated_Source\PSoC4/I2CM.c **** 
 614:.\Generated_Source\PSoC4/I2CM.c ****         I2CM_spi_miso_i2c_sda_uart_tx_SetDriveMode((uint8) pinsDm[I2CM_MISO_SDA_TX_PIN_INDEX]);
 615:.\Generated_Source\PSoC4/I2CM.c **** 
 616:.\Generated_Source\PSoC4/I2CM.c ****     #if (!I2CM_CY_SCBIP_V1)
 617:.\Generated_Source\PSoC4/I2CM.c ****         I2CM_SET_INP_DIS(I2CM_spi_miso_i2c_sda_uart_tx_INP_DIS,
 618:.\Generated_Source\PSoC4/I2CM.c ****                                      I2CM_spi_miso_i2c_sda_uart_tx_MASK,
 619:.\Generated_Source\PSoC4/I2CM.c ****                                     (0u != (pinsInBuf & I2CM_MISO_SDA_TX_PIN_MASK)));
 620:.\Generated_Source\PSoC4/I2CM.c ****     #endif /* (!I2CM_CY_SCBIP_V1) */
 621:.\Generated_Source\PSoC4/I2CM.c ****     #endif /* (I2CM_MOSI_SCL_RX_PIN) */
 622:.\Generated_Source\PSoC4/I2CM.c **** 
 623:.\Generated_Source\PSoC4/I2CM.c ****     #if(I2CM_SCLK_PIN)
 624:.\Generated_Source\PSoC4/I2CM.c ****         I2CM_SET_HSIOM_SEL(I2CM_SCLK_HSIOM_REG, I2CM_SCLK_HSIOM_MASK,
 625:.\Generated_Source\PSoC4/I2CM.c ****                                        I2CM_SCLK_HSIOM_POS, hsiomSel[I2CM_SCLK_PIN_INDEX]);
 626:.\Generated_Source\PSoC4/I2CM.c **** 
 627:.\Generated_Source\PSoC4/I2CM.c ****         I2CM_spi_sclk_SetDriveMode((uint8) pinsDm[I2CM_SCLK_PIN_INDEX]);
 628:.\Generated_Source\PSoC4/I2CM.c **** 
 629:.\Generated_Source\PSoC4/I2CM.c ****         I2CM_SET_INP_DIS(I2CM_spi_sclk_INP_DIS,
 630:.\Generated_Source\PSoC4/I2CM.c ****                                      I2CM_spi_sclk_MASK,
 631:.\Generated_Source\PSoC4/I2CM.c ****                                      (0u != (pinsInBuf & I2CM_SCLK_PIN_MASK)));
 632:.\Generated_Source\PSoC4/I2CM.c ****     #endif /* (I2CM_SCLK_PIN) */
 633:.\Generated_Source\PSoC4/I2CM.c **** 
 634:.\Generated_Source\PSoC4/I2CM.c ****     #if(I2CM_SS0_PIN)
 635:.\Generated_Source\PSoC4/I2CM.c ****         I2CM_SET_HSIOM_SEL(I2CM_SS0_HSIOM_REG, I2CM_SS0_HSIOM_MASK,
 636:.\Generated_Source\PSoC4/I2CM.c ****                                        I2CM_SS0_HSIOM_POS, hsiomSel[I2CM_SS0_PIN_INDEX]);
 637:.\Generated_Source\PSoC4/I2CM.c **** 
 638:.\Generated_Source\PSoC4/I2CM.c ****         I2CM_spi_ss0_SetDriveMode((uint8) pinsDm[I2CM_SS0_PIN_INDEX]);
 639:.\Generated_Source\PSoC4/I2CM.c **** 
 640:.\Generated_Source\PSoC4/I2CM.c ****         I2CM_SET_INP_DIS(I2CM_spi_ss0_INP_DIS,
 641:.\Generated_Source\PSoC4/I2CM.c ****                                      I2CM_spi_ss0_MASK,
 642:.\Generated_Source\PSoC4/I2CM.c ****                                      (0u != (pinsInBuf & I2CM_SS0_PIN_MASK)));
 643:.\Generated_Source\PSoC4/I2CM.c ****     #endif /* (I2CM_SS1_PIN) */
 644:.\Generated_Source\PSoC4/I2CM.c **** 
 645:.\Generated_Source\PSoC4/I2CM.c ****     #if(I2CM_SS1_PIN)
 646:.\Generated_Source\PSoC4/I2CM.c ****         I2CM_SET_HSIOM_SEL(I2CM_SS1_HSIOM_REG, I2CM_SS1_HSIOM_MASK,
 647:.\Generated_Source\PSoC4/I2CM.c ****                                        I2CM_SS1_HSIOM_POS, hsiomSel[I2CM_SS1_PIN_INDEX]);
 648:.\Generated_Source\PSoC4/I2CM.c **** 
 649:.\Generated_Source\PSoC4/I2CM.c ****         I2CM_spi_ss1_SetDriveMode((uint8) pinsDm[I2CM_SS1_PIN_INDEX]);
ARM GAS  C:\Users\Sven\AppData\Local\Temp\ccMLFpsa.s 			page 18


 650:.\Generated_Source\PSoC4/I2CM.c **** 
 651:.\Generated_Source\PSoC4/I2CM.c ****         I2CM_SET_INP_DIS(I2CM_spi_ss1_INP_DIS,
 652:.\Generated_Source\PSoC4/I2CM.c ****                                      I2CM_spi_ss1_MASK,
 653:.\Generated_Source\PSoC4/I2CM.c ****                                      (0u != (pinsInBuf & I2CM_SS1_PIN_MASK)));
 654:.\Generated_Source\PSoC4/I2CM.c ****     #endif /* (I2CM_SS1_PIN) */
 655:.\Generated_Source\PSoC4/I2CM.c **** 
 656:.\Generated_Source\PSoC4/I2CM.c ****     #if(I2CM_SS2_PIN)
 657:.\Generated_Source\PSoC4/I2CM.c ****         I2CM_SET_HSIOM_SEL(I2CM_SS2_HSIOM_REG, I2CM_SS2_HSIOM_MASK,
 658:.\Generated_Source\PSoC4/I2CM.c ****                                        I2CM_SS2_HSIOM_POS, hsiomSel[I2CM_SS2_PIN_INDEX]);
 659:.\Generated_Source\PSoC4/I2CM.c **** 
 660:.\Generated_Source\PSoC4/I2CM.c ****         I2CM_spi_ss2_SetDriveMode((uint8) pinsDm[I2CM_SS2_PIN_INDEX]);
 661:.\Generated_Source\PSoC4/I2CM.c **** 
 662:.\Generated_Source\PSoC4/I2CM.c ****         I2CM_SET_INP_DIS(I2CM_spi_ss2_INP_DIS,
 663:.\Generated_Source\PSoC4/I2CM.c ****                                      I2CM_spi_ss2_MASK,
 664:.\Generated_Source\PSoC4/I2CM.c ****                                      (0u != (pinsInBuf & I2CM_SS2_PIN_MASK)));
 665:.\Generated_Source\PSoC4/I2CM.c ****     #endif /* (I2CM_SS2_PIN) */
 666:.\Generated_Source\PSoC4/I2CM.c **** 
 667:.\Generated_Source\PSoC4/I2CM.c ****     #if(I2CM_SS3_PIN)
 668:.\Generated_Source\PSoC4/I2CM.c ****         I2CM_SET_HSIOM_SEL(I2CM_SS3_HSIOM_REG,  I2CM_SS3_HSIOM_MASK,
 669:.\Generated_Source\PSoC4/I2CM.c ****                                        I2CM_SS3_HSIOM_POS, hsiomSel[I2CM_SS3_PIN_INDEX]);
 670:.\Generated_Source\PSoC4/I2CM.c **** 
 671:.\Generated_Source\PSoC4/I2CM.c ****         I2CM_spi_ss3_SetDriveMode((uint8) pinsDm[I2CM_SS3_PIN_INDEX]);
 672:.\Generated_Source\PSoC4/I2CM.c **** 
 673:.\Generated_Source\PSoC4/I2CM.c ****         I2CM_SET_INP_DIS(I2CM_spi_ss3_INP_DIS,
 674:.\Generated_Source\PSoC4/I2CM.c ****                                      I2CM_spi_ss3_MASK,
 675:.\Generated_Source\PSoC4/I2CM.c ****                                      (0u != (pinsInBuf & I2CM_SS3_PIN_MASK)));
 676:.\Generated_Source\PSoC4/I2CM.c ****     #endif /* (I2CM_SS3_PIN) */
 677:.\Generated_Source\PSoC4/I2CM.c ****     }
 678:.\Generated_Source\PSoC4/I2CM.c **** 
 679:.\Generated_Source\PSoC4/I2CM.c **** #endif /* (I2CM_SCB_MODE_UNCONFIG_CONST_CFG) */
 680:.\Generated_Source\PSoC4/I2CM.c **** 
 681:.\Generated_Source\PSoC4/I2CM.c **** 
 682:.\Generated_Source\PSoC4/I2CM.c **** #if (I2CM_CY_SCBIP_V0 || I2CM_CY_SCBIP_V1)
 683:.\Generated_Source\PSoC4/I2CM.c ****     /*******************************************************************************
 684:.\Generated_Source\PSoC4/I2CM.c ****     * Function Name: I2CM_I2CSlaveNackGeneration
 685:.\Generated_Source\PSoC4/I2CM.c ****     ********************************************************************************
 686:.\Generated_Source\PSoC4/I2CM.c ****     *
 687:.\Generated_Source\PSoC4/I2CM.c ****     * Summary:
 688:.\Generated_Source\PSoC4/I2CM.c ****     *  Sets command to generate NACK to the address or data.
 689:.\Generated_Source\PSoC4/I2CM.c ****     *
 690:.\Generated_Source\PSoC4/I2CM.c ****     * Parameters:
 691:.\Generated_Source\PSoC4/I2CM.c ****     *  None
 692:.\Generated_Source\PSoC4/I2CM.c ****     *
 693:.\Generated_Source\PSoC4/I2CM.c ****     * Return:
 694:.\Generated_Source\PSoC4/I2CM.c ****     *  None
 695:.\Generated_Source\PSoC4/I2CM.c ****     *
 696:.\Generated_Source\PSoC4/I2CM.c ****     *******************************************************************************/
 697:.\Generated_Source\PSoC4/I2CM.c ****     void I2CM_I2CSlaveNackGeneration(void)
 698:.\Generated_Source\PSoC4/I2CM.c ****     {
 282              		.loc 1 698 0
 283              		.cfi_startproc
 699:.\Generated_Source\PSoC4/I2CM.c ****         /* Check for EC_AM toggle condition: EC_AM and clock stretching for address are enabled */
 700:.\Generated_Source\PSoC4/I2CM.c ****         if ((0u != (I2CM_CTRL_REG & I2CM_CTRL_EC_AM_MODE)) &&
 284              		.loc 1 700 0
 285 0000 0A4B     		ldr	r3, .L27
 286 0002 8022     		mov	r2, #128
 287 0004 1968     		ldr	r1, [r3]
ARM GAS  C:\Users\Sven\AppData\Local\Temp\ccMLFpsa.s 			page 19


 288 0006 5200     		lsl	r2, r2, #1
 289 0008 1142     		tst	r1, r2
 290 000a 0AD0     		beq	.L23
 701:.\Generated_Source\PSoC4/I2CM.c ****             (0u == (I2CM_I2C_CTRL_REG & I2CM_I2C_CTRL_S_NOT_READY_ADDR_NACK)))
 291              		.loc 1 701 0 discriminator 1
 292 000c 0849     		ldr	r1, .L27+4
 293 000e 0968     		ldr	r1, [r1]
 700:.\Generated_Source\PSoC4/I2CM.c ****         if ((0u != (I2CM_CTRL_REG & I2CM_CTRL_EC_AM_MODE)) &&
 294              		.loc 1 700 0 discriminator 1
 295 0010 4804     		lsl	r0, r1, #17
 296 0012 06D4     		bmi	.L23
 702:.\Generated_Source\PSoC4/I2CM.c ****         {
 703:.\Generated_Source\PSoC4/I2CM.c ****             /* Toggle EC_AM before NACK generation */
 704:.\Generated_Source\PSoC4/I2CM.c ****             I2CM_CTRL_REG &= ~I2CM_CTRL_EC_AM_MODE;
 297              		.loc 1 704 0
 298 0014 1868     		ldr	r0, [r3]
 299 0016 0749     		ldr	r1, .L27+8
 300 0018 0140     		and	r1, r0
 301 001a 1960     		str	r1, [r3]
 705:.\Generated_Source\PSoC4/I2CM.c ****             I2CM_CTRL_REG |=  I2CM_CTRL_EC_AM_MODE;
 302              		.loc 1 705 0
 303 001c 1968     		ldr	r1, [r3]
 304 001e 0A43     		orr	r2, r1
 305 0020 1A60     		str	r2, [r3]
 306              	.L23:
 706:.\Generated_Source\PSoC4/I2CM.c ****         }
 707:.\Generated_Source\PSoC4/I2CM.c **** 
 708:.\Generated_Source\PSoC4/I2CM.c ****         I2CM_I2C_SLAVE_CMD_REG = I2CM_I2C_SLAVE_CMD_S_NACK;
 307              		.loc 1 708 0
 308 0022 054B     		ldr	r3, .L27+12
 309 0024 0222     		mov	r2, #2
 310 0026 1A60     		str	r2, [r3]
 709:.\Generated_Source\PSoC4/I2CM.c ****     }
 311              		.loc 1 709 0
 312              		@ sp needed
 313 0028 7047     		bx	lr
 314              	.L28:
 315 002a C046     		.align	2
 316              	.L27:
 317 002c 00000740 		.word	1074200576
 318 0030 60000740 		.word	1074200672
 319 0034 FFFEFFFF 		.word	-257
 320 0038 6C000740 		.word	1074200684
 321              		.cfi_endproc
 322              	.LFE9:
 323              		.size	I2CM_I2CSlaveNackGeneration, .-I2CM_I2CSlaveNackGeneration
 324              		.global	I2CM_customIntrHandler
 325              		.global	I2CM_initVar
 326              		.bss
 327              		.align	2
 328              		.set	.LANCHOR0,. + 0
 329              		.type	I2CM_initVar, %object
 330              		.size	I2CM_initVar, 1
 331              	I2CM_initVar:
 332 0000 00       		.space	1
 333 0001 000000   		.space	3
 334              		.type	I2CM_customIntrHandler, %object
ARM GAS  C:\Users\Sven\AppData\Local\Temp\ccMLFpsa.s 			page 20


 335              		.size	I2CM_customIntrHandler, 4
 336              	I2CM_customIntrHandler:
 337 0004 00000000 		.space	4
 338              		.text
 339              	.Letext0:
 340              		.file 2 ".\\Generated_Source\\PSoC4/cytypes.h"
 341              		.file 3 ".\\Generated_Source\\PSoC4\\I2CM_I2C_PVT.h"
 342              		.file 4 ".\\Generated_Source\\PSoC4/CyLib.h"