ARM GAS  C:\Users\Sven\AppData\Local\Temp\cciiBjCF.s 			page 1


   1              		.cpu cortex-m0
   2              		.fpu softvfp
   3              		.eabi_attribute 20, 1
   4              		.eabi_attribute 21, 1
   5              		.eabi_attribute 23, 3
   6              		.eabi_attribute 24, 1
   7              		.eabi_attribute 25, 1
   8              		.eabi_attribute 26, 1
   9              		.eabi_attribute 30, 4
  10              		.eabi_attribute 34, 0
  11              		.eabi_attribute 18, 4
  12              		.code	16
  13              		.file	"I2CM_I2C.c"
  14              		.text
  15              	.Ltext0:
  16              		.cfi_sections	.debug_frame
  17              		.section	.text.I2CM_I2CInit,"ax",%progbits
  18              		.align	1
  19              		.global	I2CM_I2CInit
  20              		.code	16
  21              		.thumb_func
  22              		.type	I2CM_I2CInit, %function
  23              	I2CM_I2CInit:
  24              	.LFB0:
  25              		.file 1 ".\\Generated_Source\\PSoC4\\I2CM_I2C.c"
   1:.\Generated_Source\PSoC4/I2CM_I2C.c **** /*******************************************************************************
   2:.\Generated_Source\PSoC4/I2CM_I2C.c **** * File Name: I2CM_I2C.c
   3:.\Generated_Source\PSoC4/I2CM_I2C.c **** * Version 2.0
   4:.\Generated_Source\PSoC4/I2CM_I2C.c **** *
   5:.\Generated_Source\PSoC4/I2CM_I2C.c **** * Description:
   6:.\Generated_Source\PSoC4/I2CM_I2C.c **** *  This file provides the source code to the API for the SCB Component in
   7:.\Generated_Source\PSoC4/I2CM_I2C.c **** *  I2C mode.
   8:.\Generated_Source\PSoC4/I2CM_I2C.c **** *
   9:.\Generated_Source\PSoC4/I2CM_I2C.c **** * Note:
  10:.\Generated_Source\PSoC4/I2CM_I2C.c **** *
  11:.\Generated_Source\PSoC4/I2CM_I2C.c **** *******************************************************************************
  12:.\Generated_Source\PSoC4/I2CM_I2C.c **** * Copyright 2013-2014, Cypress Semiconductor Corporation.  All rights reserved.
  13:.\Generated_Source\PSoC4/I2CM_I2C.c **** * You may use this file only in accordance with the license, terms, conditions,
  14:.\Generated_Source\PSoC4/I2CM_I2C.c **** * disclaimers, and limitations in the end user license agreement accompanying
  15:.\Generated_Source\PSoC4/I2CM_I2C.c **** * the software package with which this file was provided.
  16:.\Generated_Source\PSoC4/I2CM_I2C.c **** *******************************************************************************/
  17:.\Generated_Source\PSoC4/I2CM_I2C.c **** 
  18:.\Generated_Source\PSoC4/I2CM_I2C.c **** #include "I2CM_PVT.h"
  19:.\Generated_Source\PSoC4/I2CM_I2C.c **** #include "I2CM_I2C_PVT.h"
  20:.\Generated_Source\PSoC4/I2CM_I2C.c **** 
  21:.\Generated_Source\PSoC4/I2CM_I2C.c **** 
  22:.\Generated_Source\PSoC4/I2CM_I2C.c **** /***************************************
  23:.\Generated_Source\PSoC4/I2CM_I2C.c **** *      I2C Private Vars
  24:.\Generated_Source\PSoC4/I2CM_I2C.c **** ***************************************/
  25:.\Generated_Source\PSoC4/I2CM_I2C.c **** 
  26:.\Generated_Source\PSoC4/I2CM_I2C.c **** volatile uint8 I2CM_state;  /* Current state of I2C FSM */
  27:.\Generated_Source\PSoC4/I2CM_I2C.c **** 
  28:.\Generated_Source\PSoC4/I2CM_I2C.c **** #if(I2CM_SCB_MODE_UNCONFIG_CONST_CFG)
  29:.\Generated_Source\PSoC4/I2CM_I2C.c **** 
  30:.\Generated_Source\PSoC4/I2CM_I2C.c ****     /***************************************
  31:.\Generated_Source\PSoC4/I2CM_I2C.c ****     *  Configuration Structure Initialization
  32:.\Generated_Source\PSoC4/I2CM_I2C.c ****     ***************************************/
ARM GAS  C:\Users\Sven\AppData\Local\Temp\cciiBjCF.s 			page 2


  33:.\Generated_Source\PSoC4/I2CM_I2C.c **** 
  34:.\Generated_Source\PSoC4/I2CM_I2C.c ****     /* Constant configuration of I2C */
  35:.\Generated_Source\PSoC4/I2CM_I2C.c ****     const I2CM_I2C_INIT_STRUCT I2CM_configI2C =
  36:.\Generated_Source\PSoC4/I2CM_I2C.c ****     {
  37:.\Generated_Source\PSoC4/I2CM_I2C.c ****         I2CM_I2C_MODE,
  38:.\Generated_Source\PSoC4/I2CM_I2C.c ****         I2CM_I2C_OVS_FACTOR_LOW,
  39:.\Generated_Source\PSoC4/I2CM_I2C.c ****         I2CM_I2C_OVS_FACTOR_HIGH,
  40:.\Generated_Source\PSoC4/I2CM_I2C.c ****         I2CM_I2C_MEDIAN_FILTER_ENABLE,
  41:.\Generated_Source\PSoC4/I2CM_I2C.c ****         I2CM_I2C_SLAVE_ADDRESS,
  42:.\Generated_Source\PSoC4/I2CM_I2C.c ****         I2CM_I2C_SLAVE_ADDRESS_MASK,
  43:.\Generated_Source\PSoC4/I2CM_I2C.c ****         I2CM_I2C_ACCEPT_ADDRESS,
  44:.\Generated_Source\PSoC4/I2CM_I2C.c ****         I2CM_I2C_WAKE_ENABLE,
  45:.\Generated_Source\PSoC4/I2CM_I2C.c ****         I2CM_I2C_BYTE_MODE_ENABLE,
  46:.\Generated_Source\PSoC4/I2CM_I2C.c ****         I2CM_I2C_DATA_RATE,
  47:.\Generated_Source\PSoC4/I2CM_I2C.c ****     };
  48:.\Generated_Source\PSoC4/I2CM_I2C.c **** 
  49:.\Generated_Source\PSoC4/I2CM_I2C.c ****     /*******************************************************************************
  50:.\Generated_Source\PSoC4/I2CM_I2C.c ****     * Function Name: I2CM_I2CInit
  51:.\Generated_Source\PSoC4/I2CM_I2C.c ****     ********************************************************************************
  52:.\Generated_Source\PSoC4/I2CM_I2C.c ****     *
  53:.\Generated_Source\PSoC4/I2CM_I2C.c ****     * Summary:
  54:.\Generated_Source\PSoC4/I2CM_I2C.c ****     *  Configures the SCB for I2C operation.
  55:.\Generated_Source\PSoC4/I2CM_I2C.c ****     *
  56:.\Generated_Source\PSoC4/I2CM_I2C.c ****     * Parameters:
  57:.\Generated_Source\PSoC4/I2CM_I2C.c ****     *  config:  Pointer to a structure that contains the following ordered list of
  58:.\Generated_Source\PSoC4/I2CM_I2C.c ****     *           fields. These fields match the selections available in the
  59:.\Generated_Source\PSoC4/I2CM_I2C.c ****     *           customizer.
  60:.\Generated_Source\PSoC4/I2CM_I2C.c ****     *
  61:.\Generated_Source\PSoC4/I2CM_I2C.c ****     * Return:
  62:.\Generated_Source\PSoC4/I2CM_I2C.c ****     *  None
  63:.\Generated_Source\PSoC4/I2CM_I2C.c ****     *
  64:.\Generated_Source\PSoC4/I2CM_I2C.c ****     *******************************************************************************/
  65:.\Generated_Source\PSoC4/I2CM_I2C.c ****     void I2CM_I2CInit(const I2CM_I2C_INIT_STRUCT *config)
  66:.\Generated_Source\PSoC4/I2CM_I2C.c ****     {
  67:.\Generated_Source\PSoC4/I2CM_I2C.c ****         uint32 medianFilter;
  68:.\Generated_Source\PSoC4/I2CM_I2C.c ****         uint32 locEnableWake;
  69:.\Generated_Source\PSoC4/I2CM_I2C.c **** 
  70:.\Generated_Source\PSoC4/I2CM_I2C.c ****         if(NULL == config)
  71:.\Generated_Source\PSoC4/I2CM_I2C.c ****         {
  72:.\Generated_Source\PSoC4/I2CM_I2C.c ****             CYASSERT(0u != 0u); /* Halt execution due to bad function parameter */
  73:.\Generated_Source\PSoC4/I2CM_I2C.c ****         }
  74:.\Generated_Source\PSoC4/I2CM_I2C.c ****         else
  75:.\Generated_Source\PSoC4/I2CM_I2C.c ****         {
  76:.\Generated_Source\PSoC4/I2CM_I2C.c ****             /* Configure pins */
  77:.\Generated_Source\PSoC4/I2CM_I2C.c ****             I2CM_SetPins(I2CM_SCB_MODE_I2C, I2CM_DUMMY_PARAM,
  78:.\Generated_Source\PSoC4/I2CM_I2C.c ****                                                                     I2CM_DUMMY_PARAM);
  79:.\Generated_Source\PSoC4/I2CM_I2C.c **** 
  80:.\Generated_Source\PSoC4/I2CM_I2C.c ****             /* Store internal configuration */
  81:.\Generated_Source\PSoC4/I2CM_I2C.c ****             I2CM_scbMode       = (uint8) I2CM_SCB_MODE_I2C;
  82:.\Generated_Source\PSoC4/I2CM_I2C.c ****             I2CM_scbEnableWake = (uint8) config->enableWake;
  83:.\Generated_Source\PSoC4/I2CM_I2C.c ****             I2CM_scbEnableIntr = (uint8) I2CM_SCB_IRQ_INTERNAL;
  84:.\Generated_Source\PSoC4/I2CM_I2C.c **** 
  85:.\Generated_Source\PSoC4/I2CM_I2C.c ****             I2CM_mode          = (uint8) config->mode;
  86:.\Generated_Source\PSoC4/I2CM_I2C.c ****             I2CM_acceptAddr    = (uint8) config->acceptAddr;
  87:.\Generated_Source\PSoC4/I2CM_I2C.c **** 
  88:.\Generated_Source\PSoC4/I2CM_I2C.c ****         #if (I2CM_CY_SCBIP_V0)
  89:.\Generated_Source\PSoC4/I2CM_I2C.c ****             /* Adjust SDA filter settings. Ticket ID#150521 */
ARM GAS  C:\Users\Sven\AppData\Local\Temp\cciiBjCF.s 			page 3


  90:.\Generated_Source\PSoC4/I2CM_I2C.c ****             I2CM_SET_I2C_CFG_SDA_FILT_TRIM(I2CM_EC_AM_I2C_CFG_SDA_FILT_TRIM);
  91:.\Generated_Source\PSoC4/I2CM_I2C.c ****         #endif /* (I2CM_CY_SCBIP_V0) */
  92:.\Generated_Source\PSoC4/I2CM_I2C.c **** 
  93:.\Generated_Source\PSoC4/I2CM_I2C.c ****             /* Adjust AF and DF filter settings. Ticket ID#176179 */
  94:.\Generated_Source\PSoC4/I2CM_I2C.c ****             if (((I2CM_I2C_MODE_SLAVE != config->mode) &&
  95:.\Generated_Source\PSoC4/I2CM_I2C.c ****                  (config->dataRate <= I2CM_I2C_DATA_RATE_FS_MODE_MAX)) ||
  96:.\Generated_Source\PSoC4/I2CM_I2C.c ****                  (I2CM_I2C_MODE_SLAVE == config->mode))
  97:.\Generated_Source\PSoC4/I2CM_I2C.c ****             {
  98:.\Generated_Source\PSoC4/I2CM_I2C.c ****                 /* AF = 1, DF = 0 */
  99:.\Generated_Source\PSoC4/I2CM_I2C.c ****                 I2CM_I2C_CFG_ANALOG_FITER_ENABLE;
 100:.\Generated_Source\PSoC4/I2CM_I2C.c ****                 medianFilter = I2CM_DIGITAL_FILTER_DISABLE;
 101:.\Generated_Source\PSoC4/I2CM_I2C.c ****             }
 102:.\Generated_Source\PSoC4/I2CM_I2C.c ****             else
 103:.\Generated_Source\PSoC4/I2CM_I2C.c ****             {
 104:.\Generated_Source\PSoC4/I2CM_I2C.c ****                 /* AF = 0, DF = 1 */
 105:.\Generated_Source\PSoC4/I2CM_I2C.c ****                 I2CM_I2C_CFG_ANALOG_FITER_DISABLE;
 106:.\Generated_Source\PSoC4/I2CM_I2C.c ****                 medianFilter = I2CM_DIGITAL_FILTER_ENABLE;
 107:.\Generated_Source\PSoC4/I2CM_I2C.c ****             }
 108:.\Generated_Source\PSoC4/I2CM_I2C.c **** 
 109:.\Generated_Source\PSoC4/I2CM_I2C.c ****         #if (!I2CM_CY_SCBIP_V0)
 110:.\Generated_Source\PSoC4/I2CM_I2C.c ****             locEnableWake = (I2CM_I2C_MULTI_MASTER_SLAVE) ? (0u) : (config->enableWake);
 111:.\Generated_Source\PSoC4/I2CM_I2C.c ****         #else
 112:.\Generated_Source\PSoC4/I2CM_I2C.c ****             locEnableWake = config->enableWake;
 113:.\Generated_Source\PSoC4/I2CM_I2C.c ****         #endif /* (!I2CM_CY_SCBIP_V0) */
 114:.\Generated_Source\PSoC4/I2CM_I2C.c **** 
 115:.\Generated_Source\PSoC4/I2CM_I2C.c ****             /* Configure I2C interface */
 116:.\Generated_Source\PSoC4/I2CM_I2C.c ****             I2CM_CTRL_REG     = I2CM_GET_CTRL_BYTE_MODE  (config->enableByteMode) |
 117:.\Generated_Source\PSoC4/I2CM_I2C.c ****                                             I2CM_GET_CTRL_ADDR_ACCEPT(config->acceptAddr)     |
 118:.\Generated_Source\PSoC4/I2CM_I2C.c ****                                             I2CM_GET_CTRL_EC_AM_MODE (locEnableWake);
 119:.\Generated_Source\PSoC4/I2CM_I2C.c **** 
 120:.\Generated_Source\PSoC4/I2CM_I2C.c ****             I2CM_I2C_CTRL_REG = I2CM_GET_I2C_CTRL_HIGH_PHASE_OVS(config->oversampleHigh) |
 121:.\Generated_Source\PSoC4/I2CM_I2C.c ****                                             I2CM_GET_I2C_CTRL_LOW_PHASE_OVS (config->oversampleLow)
 122:.\Generated_Source\PSoC4/I2CM_I2C.c ****                                             I2CM_GET_I2C_CTRL_SL_MSTR_MODE  (config->mode)         
 123:.\Generated_Source\PSoC4/I2CM_I2C.c ****                                             I2CM_I2C_CTRL;
 124:.\Generated_Source\PSoC4/I2CM_I2C.c **** 
 125:.\Generated_Source\PSoC4/I2CM_I2C.c **** 
 126:.\Generated_Source\PSoC4/I2CM_I2C.c **** 
 127:.\Generated_Source\PSoC4/I2CM_I2C.c ****             /* Configure RX direction */
 128:.\Generated_Source\PSoC4/I2CM_I2C.c ****             I2CM_RX_CTRL_REG      = I2CM_GET_RX_CTRL_MEDIAN(medianFilter) |
 129:.\Generated_Source\PSoC4/I2CM_I2C.c ****                                                 I2CM_I2C_RX_CTRL;
 130:.\Generated_Source\PSoC4/I2CM_I2C.c ****             I2CM_RX_FIFO_CTRL_REG = I2CM_CLEAR_REG;
 131:.\Generated_Source\PSoC4/I2CM_I2C.c **** 
 132:.\Generated_Source\PSoC4/I2CM_I2C.c ****             /* Set default address and mask */
 133:.\Generated_Source\PSoC4/I2CM_I2C.c ****             I2CM_RX_MATCH_REG    = ((I2CM_I2C_SLAVE) ?
 134:.\Generated_Source\PSoC4/I2CM_I2C.c ****                                                 (I2CM_GET_I2C_8BIT_ADDRESS(config->slaveAddr) |
 135:.\Generated_Source\PSoC4/I2CM_I2C.c ****                                                  I2CM_GET_RX_MATCH_MASK(config->slaveAddrMask)) :
 136:.\Generated_Source\PSoC4/I2CM_I2C.c ****                                                 (I2CM_CLEAR_REG));
 137:.\Generated_Source\PSoC4/I2CM_I2C.c **** 
 138:.\Generated_Source\PSoC4/I2CM_I2C.c **** 
 139:.\Generated_Source\PSoC4/I2CM_I2C.c ****             /* Configure TX direction */
 140:.\Generated_Source\PSoC4/I2CM_I2C.c ****             I2CM_TX_CTRL_REG      = I2CM_I2C_TX_CTRL;
 141:.\Generated_Source\PSoC4/I2CM_I2C.c ****             I2CM_TX_FIFO_CTRL_REG = I2CM_CLEAR_REG;
 142:.\Generated_Source\PSoC4/I2CM_I2C.c **** 
 143:.\Generated_Source\PSoC4/I2CM_I2C.c ****             /* Configure interrupt with I2C handler but do not enable it */
 144:.\Generated_Source\PSoC4/I2CM_I2C.c ****             CyIntDisable    (I2CM_ISR_NUMBER);
 145:.\Generated_Source\PSoC4/I2CM_I2C.c ****             CyIntSetPriority(I2CM_ISR_NUMBER, I2CM_ISR_PRIORITY);
 146:.\Generated_Source\PSoC4/I2CM_I2C.c ****             (void) CyIntSetVector(I2CM_ISR_NUMBER, &I2CM_I2C_ISR);
ARM GAS  C:\Users\Sven\AppData\Local\Temp\cciiBjCF.s 			page 4


 147:.\Generated_Source\PSoC4/I2CM_I2C.c **** 
 148:.\Generated_Source\PSoC4/I2CM_I2C.c ****             /* Configure interrupt sources */
 149:.\Generated_Source\PSoC4/I2CM_I2C.c ****         #if(!I2CM_CY_SCBIP_V1)
 150:.\Generated_Source\PSoC4/I2CM_I2C.c ****             I2CM_INTR_SPI_EC_MASK_REG = I2CM_NO_INTR_SOURCES;
 151:.\Generated_Source\PSoC4/I2CM_I2C.c ****         #endif /* (!I2CM_CY_SCBIP_V1) */
 152:.\Generated_Source\PSoC4/I2CM_I2C.c **** 
 153:.\Generated_Source\PSoC4/I2CM_I2C.c ****             I2CM_INTR_I2C_EC_MASK_REG = I2CM_NO_INTR_SOURCES;
 154:.\Generated_Source\PSoC4/I2CM_I2C.c ****             I2CM_INTR_RX_MASK_REG     = I2CM_NO_INTR_SOURCES;
 155:.\Generated_Source\PSoC4/I2CM_I2C.c ****             I2CM_INTR_TX_MASK_REG     = I2CM_NO_INTR_SOURCES;
 156:.\Generated_Source\PSoC4/I2CM_I2C.c **** 
 157:.\Generated_Source\PSoC4/I2CM_I2C.c ****             I2CM_INTR_SLAVE_MASK_REG  = ((I2CM_I2C_SLAVE) ?
 158:.\Generated_Source\PSoC4/I2CM_I2C.c ****                                                      (I2CM_I2C_INTR_SLAVE_MASK) :
 159:.\Generated_Source\PSoC4/I2CM_I2C.c ****                                                      (I2CM_CLEAR_REG));
 160:.\Generated_Source\PSoC4/I2CM_I2C.c **** 
 161:.\Generated_Source\PSoC4/I2CM_I2C.c ****             I2CM_INTR_MASTER_MASK_REG = ((I2CM_I2C_MASTER) ?
 162:.\Generated_Source\PSoC4/I2CM_I2C.c ****                                                      (I2CM_I2C_INTR_MASTER_MASK) :
 163:.\Generated_Source\PSoC4/I2CM_I2C.c ****                                                      (I2CM_CLEAR_REG));
 164:.\Generated_Source\PSoC4/I2CM_I2C.c **** 
 165:.\Generated_Source\PSoC4/I2CM_I2C.c ****             /* Configure global variables */
 166:.\Generated_Source\PSoC4/I2CM_I2C.c ****             I2CM_state = I2CM_I2C_FSM_IDLE;
 167:.\Generated_Source\PSoC4/I2CM_I2C.c **** 
 168:.\Generated_Source\PSoC4/I2CM_I2C.c ****             /* Internal slave variables */
 169:.\Generated_Source\PSoC4/I2CM_I2C.c ****             I2CM_slStatus        = 0u;
 170:.\Generated_Source\PSoC4/I2CM_I2C.c ****             I2CM_slRdBufIndex    = 0u;
 171:.\Generated_Source\PSoC4/I2CM_I2C.c ****             I2CM_slWrBufIndex    = 0u;
 172:.\Generated_Source\PSoC4/I2CM_I2C.c ****             I2CM_slOverFlowCount = 0u;
 173:.\Generated_Source\PSoC4/I2CM_I2C.c **** 
 174:.\Generated_Source\PSoC4/I2CM_I2C.c ****             /* Internal master variables */
 175:.\Generated_Source\PSoC4/I2CM_I2C.c ****             I2CM_mstrStatus     = 0u;
 176:.\Generated_Source\PSoC4/I2CM_I2C.c ****             I2CM_mstrRdBufIndex = 0u;
 177:.\Generated_Source\PSoC4/I2CM_I2C.c ****             I2CM_mstrWrBufIndex = 0u;
 178:.\Generated_Source\PSoC4/I2CM_I2C.c ****         }
 179:.\Generated_Source\PSoC4/I2CM_I2C.c ****     }
 180:.\Generated_Source\PSoC4/I2CM_I2C.c **** 
 181:.\Generated_Source\PSoC4/I2CM_I2C.c **** #else
 182:.\Generated_Source\PSoC4/I2CM_I2C.c **** 
 183:.\Generated_Source\PSoC4/I2CM_I2C.c ****     /*******************************************************************************
 184:.\Generated_Source\PSoC4/I2CM_I2C.c ****     * Function Name: I2CM_I2CInit
 185:.\Generated_Source\PSoC4/I2CM_I2C.c ****     ********************************************************************************
 186:.\Generated_Source\PSoC4/I2CM_I2C.c ****     *
 187:.\Generated_Source\PSoC4/I2CM_I2C.c ****     * Summary:
 188:.\Generated_Source\PSoC4/I2CM_I2C.c ****     *  Configures the SCB for the I2C operation.
 189:.\Generated_Source\PSoC4/I2CM_I2C.c ****     *
 190:.\Generated_Source\PSoC4/I2CM_I2C.c ****     * Parameters:
 191:.\Generated_Source\PSoC4/I2CM_I2C.c ****     *  None
 192:.\Generated_Source\PSoC4/I2CM_I2C.c ****     *
 193:.\Generated_Source\PSoC4/I2CM_I2C.c ****     * Return:
 194:.\Generated_Source\PSoC4/I2CM_I2C.c ****     *  None
 195:.\Generated_Source\PSoC4/I2CM_I2C.c ****     *
 196:.\Generated_Source\PSoC4/I2CM_I2C.c ****     *******************************************************************************/
 197:.\Generated_Source\PSoC4/I2CM_I2C.c ****     void I2CM_I2CInit(void)
 198:.\Generated_Source\PSoC4/I2CM_I2C.c ****     {
  26              		.loc 1 198 0
  27              		.cfi_startproc
 199:.\Generated_Source\PSoC4/I2CM_I2C.c ****     #if(I2CM_CY_SCBIP_V0)
 200:.\Generated_Source\PSoC4/I2CM_I2C.c ****         /* Adjust SDA filter settings. Ticket ID#150521 */
 201:.\Generated_Source\PSoC4/I2CM_I2C.c ****         I2CM_SET_I2C_CFG_SDA_FILT_TRIM(I2CM_EC_AM_I2C_CFG_SDA_FILT_TRIM);
ARM GAS  C:\Users\Sven\AppData\Local\Temp\cciiBjCF.s 			page 5


  28              		.loc 1 201 0
  29 0000 1C4B     		ldr	r3, .L2
  30 0002 0C21     		mov	r1, #12
  31 0004 1A68     		ldr	r2, [r3]
 198:.\Generated_Source\PSoC4/I2CM_I2C.c ****     {
  32              		.loc 1 198 0
  33 0006 10B5     		push	{r4, lr}
  34              		.cfi_def_cfa_offset 8
  35              		.cfi_offset 4, -8
  36              		.cfi_offset 14, -4
  37              		.loc 1 201 0
  38 0008 0A43     		orr	r2, r1
  39 000a 1A60     		str	r2, [r3]
 202:.\Generated_Source\PSoC4/I2CM_I2C.c ****     #endif /* (I2CM_CY_SCBIP_V0) */
 203:.\Generated_Source\PSoC4/I2CM_I2C.c **** 
 204:.\Generated_Source\PSoC4/I2CM_I2C.c ****         /* Adjust AF and DF filter settings. Ticket ID#176179 */
 205:.\Generated_Source\PSoC4/I2CM_I2C.c ****         I2CM_I2C_CFG_ANALOG_FITER_ENABLE_ADJ;
 206:.\Generated_Source\PSoC4/I2CM_I2C.c **** 
 207:.\Generated_Source\PSoC4/I2CM_I2C.c ****         /* Configure I2C interface */
 208:.\Generated_Source\PSoC4/I2CM_I2C.c ****         I2CM_CTRL_REG     = I2CM_I2C_DEFAULT_CTRL;
  40              		.loc 1 208 0
  41 000c 1A4B     		ldr	r3, .L2+4
  42 000e 0024     		mov	r4, #0
  43 0010 1C60     		str	r4, [r3]
 209:.\Generated_Source\PSoC4/I2CM_I2C.c ****         I2CM_I2C_CTRL_REG = I2CM_I2C_DEFAULT_I2C_CTRL;
  44              		.loc 1 209 0
  45 0012 1A4A     		ldr	r2, .L2+8
  46 0014 1A4B     		ldr	r3, .L2+12
 210:.\Generated_Source\PSoC4/I2CM_I2C.c **** 
 211:.\Generated_Source\PSoC4/I2CM_I2C.c ****         /* Configure RX direction */
 212:.\Generated_Source\PSoC4/I2CM_I2C.c ****         I2CM_RX_CTRL_REG      = I2CM_I2C_DEFAULT_RX_CTRL;
 213:.\Generated_Source\PSoC4/I2CM_I2C.c ****         I2CM_RX_FIFO_CTRL_REG = I2CM_I2C_DEFAULT_RX_FIFO_CTRL;
 214:.\Generated_Source\PSoC4/I2CM_I2C.c **** 
 215:.\Generated_Source\PSoC4/I2CM_I2C.c ****         /* Set default address and mask */
 216:.\Generated_Source\PSoC4/I2CM_I2C.c ****         I2CM_RX_MATCH_REG     = I2CM_I2C_DEFAULT_RX_MATCH;
 217:.\Generated_Source\PSoC4/I2CM_I2C.c **** 
 218:.\Generated_Source\PSoC4/I2CM_I2C.c ****         /* Configure TX direction */
 219:.\Generated_Source\PSoC4/I2CM_I2C.c ****         I2CM_TX_CTRL_REG      = I2CM_I2C_DEFAULT_TX_CTRL;
 220:.\Generated_Source\PSoC4/I2CM_I2C.c ****         I2CM_TX_FIFO_CTRL_REG = I2CM_I2C_DEFAULT_TX_FIFO_CTRL;
 221:.\Generated_Source\PSoC4/I2CM_I2C.c **** 
 222:.\Generated_Source\PSoC4/I2CM_I2C.c ****         /* Configure interrupt with I2C handler but do not enable it */
 223:.\Generated_Source\PSoC4/I2CM_I2C.c ****         CyIntDisable    (I2CM_ISR_NUMBER);
  47              		.loc 1 223 0
  48 0016 0B20     		mov	r0, #11
 209:.\Generated_Source\PSoC4/I2CM_I2C.c ****         I2CM_I2C_CTRL_REG = I2CM_I2C_DEFAULT_I2C_CTRL;
  49              		.loc 1 209 0
  50 0018 1A60     		str	r2, [r3]
 212:.\Generated_Source\PSoC4/I2CM_I2C.c ****         I2CM_RX_CTRL_REG      = I2CM_I2C_DEFAULT_RX_CTRL;
  51              		.loc 1 212 0
  52 001a 1A4B     		ldr	r3, .L2+16
  53 001c 1A4A     		ldr	r2, .L2+20
 224:.\Generated_Source\PSoC4/I2CM_I2C.c ****         CyIntSetPriority(I2CM_ISR_NUMBER, I2CM_ISR_PRIORITY);
 225:.\Generated_Source\PSoC4/I2CM_I2C.c ****     #if(!I2CM_I2C_EXTERN_INTR_HANDLER)
 226:.\Generated_Source\PSoC4/I2CM_I2C.c ****         (void) CyIntSetVector(I2CM_ISR_NUMBER, &I2CM_I2C_ISR);
 227:.\Generated_Source\PSoC4/I2CM_I2C.c ****     #endif /* (I2CM_I2C_EXTERN_INTR_HANDLER) */
 228:.\Generated_Source\PSoC4/I2CM_I2C.c **** 
 229:.\Generated_Source\PSoC4/I2CM_I2C.c ****         /* Configure interrupt sources */
ARM GAS  C:\Users\Sven\AppData\Local\Temp\cciiBjCF.s 			page 6


 230:.\Generated_Source\PSoC4/I2CM_I2C.c ****     #if(!I2CM_CY_SCBIP_V1)
 231:.\Generated_Source\PSoC4/I2CM_I2C.c ****         I2CM_INTR_SPI_EC_MASK_REG = I2CM_I2C_DEFAULT_INTR_SPI_EC_MASK;
 232:.\Generated_Source\PSoC4/I2CM_I2C.c ****     #endif /* (!I2CM_CY_SCBIP_V1) */
 233:.\Generated_Source\PSoC4/I2CM_I2C.c **** 
 234:.\Generated_Source\PSoC4/I2CM_I2C.c ****         I2CM_INTR_I2C_EC_MASK_REG = I2CM_I2C_DEFAULT_INTR_I2C_EC_MASK;
 235:.\Generated_Source\PSoC4/I2CM_I2C.c ****         I2CM_INTR_SLAVE_MASK_REG  = I2CM_I2C_DEFAULT_INTR_SLAVE_MASK;
 236:.\Generated_Source\PSoC4/I2CM_I2C.c ****         I2CM_INTR_MASTER_MASK_REG = I2CM_I2C_DEFAULT_INTR_MASTER_MASK;
 237:.\Generated_Source\PSoC4/I2CM_I2C.c ****         I2CM_INTR_RX_MASK_REG     = I2CM_I2C_DEFAULT_INTR_RX_MASK;
 238:.\Generated_Source\PSoC4/I2CM_I2C.c ****         I2CM_INTR_TX_MASK_REG     = I2CM_I2C_DEFAULT_INTR_TX_MASK;
 239:.\Generated_Source\PSoC4/I2CM_I2C.c **** 
 240:.\Generated_Source\PSoC4/I2CM_I2C.c ****         /* Configure global variables */
 241:.\Generated_Source\PSoC4/I2CM_I2C.c ****         I2CM_state = I2CM_I2C_FSM_IDLE;
 242:.\Generated_Source\PSoC4/I2CM_I2C.c **** 
 243:.\Generated_Source\PSoC4/I2CM_I2C.c ****     #if(I2CM_I2C_SLAVE)
 244:.\Generated_Source\PSoC4/I2CM_I2C.c ****         /* Internal slave variable */
 245:.\Generated_Source\PSoC4/I2CM_I2C.c ****         I2CM_slStatus        = 0u;
 246:.\Generated_Source\PSoC4/I2CM_I2C.c ****         I2CM_slRdBufIndex    = 0u;
 247:.\Generated_Source\PSoC4/I2CM_I2C.c ****         I2CM_slWrBufIndex    = 0u;
 248:.\Generated_Source\PSoC4/I2CM_I2C.c ****         I2CM_slOverFlowCount = 0u;
 249:.\Generated_Source\PSoC4/I2CM_I2C.c ****     #endif /* (I2CM_I2C_SLAVE) */
 250:.\Generated_Source\PSoC4/I2CM_I2C.c **** 
 251:.\Generated_Source\PSoC4/I2CM_I2C.c ****     #if(I2CM_I2C_MASTER)
 252:.\Generated_Source\PSoC4/I2CM_I2C.c ****     /* Internal master variable */
 253:.\Generated_Source\PSoC4/I2CM_I2C.c ****         I2CM_mstrStatus     = 0u;
 254:.\Generated_Source\PSoC4/I2CM_I2C.c ****         I2CM_mstrRdBufIndex = 0u;
 255:.\Generated_Source\PSoC4/I2CM_I2C.c ****         I2CM_mstrWrBufIndex = 0u;
 256:.\Generated_Source\PSoC4/I2CM_I2C.c ****     #endif /* (I2CM_I2C_MASTER) */
 257:.\Generated_Source\PSoC4/I2CM_I2C.c ****     }
  54              		.loc 1 257 0
  55              		@ sp needed
 212:.\Generated_Source\PSoC4/I2CM_I2C.c ****         I2CM_RX_CTRL_REG      = I2CM_I2C_DEFAULT_RX_CTRL;
  56              		.loc 1 212 0
  57 001e 1360     		str	r3, [r2]
 213:.\Generated_Source\PSoC4/I2CM_I2C.c ****         I2CM_RX_FIFO_CTRL_REG = I2CM_I2C_DEFAULT_RX_FIFO_CTRL;
  58              		.loc 1 213 0
  59 0020 1A4A     		ldr	r2, .L2+24
  60 0022 1460     		str	r4, [r2]
 216:.\Generated_Source\PSoC4/I2CM_I2C.c ****         I2CM_RX_MATCH_REG     = I2CM_I2C_DEFAULT_RX_MATCH;
  61              		.loc 1 216 0
  62 0024 1A4A     		ldr	r2, .L2+28
  63 0026 1460     		str	r4, [r2]
 219:.\Generated_Source\PSoC4/I2CM_I2C.c ****         I2CM_TX_CTRL_REG      = I2CM_I2C_DEFAULT_TX_CTRL;
  64              		.loc 1 219 0
  65 0028 1A4A     		ldr	r2, .L2+32
  66 002a 1360     		str	r3, [r2]
 220:.\Generated_Source\PSoC4/I2CM_I2C.c ****         I2CM_TX_FIFO_CTRL_REG = I2CM_I2C_DEFAULT_TX_FIFO_CTRL;
  67              		.loc 1 220 0
  68 002c 1A4B     		ldr	r3, .L2+36
  69 002e 1C60     		str	r4, [r3]
 223:.\Generated_Source\PSoC4/I2CM_I2C.c ****         CyIntDisable    (I2CM_ISR_NUMBER);
  70              		.loc 1 223 0
  71 0030 FFF7FEFF 		bl	CyIntDisable
  72              	.LVL0:
 224:.\Generated_Source\PSoC4/I2CM_I2C.c ****         CyIntSetPriority(I2CM_ISR_NUMBER, I2CM_ISR_PRIORITY);
  73              		.loc 1 224 0
  74 0034 0B20     		mov	r0, #11
  75 0036 0321     		mov	r1, #3
ARM GAS  C:\Users\Sven\AppData\Local\Temp\cciiBjCF.s 			page 7


  76 0038 FFF7FEFF 		bl	CyIntSetPriority
  77              	.LVL1:
 226:.\Generated_Source\PSoC4/I2CM_I2C.c ****         (void) CyIntSetVector(I2CM_ISR_NUMBER, &I2CM_I2C_ISR);
  78              		.loc 1 226 0
  79 003c 1749     		ldr	r1, .L2+40
  80 003e 0B20     		mov	r0, #11
  81 0040 FFF7FEFF 		bl	CyIntSetVector
  82              	.LVL2:
 231:.\Generated_Source\PSoC4/I2CM_I2C.c ****         I2CM_INTR_SPI_EC_MASK_REG = I2CM_I2C_DEFAULT_INTR_SPI_EC_MASK;
  83              		.loc 1 231 0
  84 0044 164B     		ldr	r3, .L2+44
 236:.\Generated_Source\PSoC4/I2CM_I2C.c ****         I2CM_INTR_MASTER_MASK_REG = I2CM_I2C_DEFAULT_INTR_MASTER_MASK;
  85              		.loc 1 236 0
  86 0046 1422     		mov	r2, #20
 231:.\Generated_Source\PSoC4/I2CM_I2C.c ****         I2CM_INTR_SPI_EC_MASK_REG = I2CM_I2C_DEFAULT_INTR_SPI_EC_MASK;
  87              		.loc 1 231 0
  88 0048 1C60     		str	r4, [r3]
 234:.\Generated_Source\PSoC4/I2CM_I2C.c ****         I2CM_INTR_I2C_EC_MASK_REG = I2CM_I2C_DEFAULT_INTR_I2C_EC_MASK;
  89              		.loc 1 234 0
  90 004a 164B     		ldr	r3, .L2+48
 236:.\Generated_Source\PSoC4/I2CM_I2C.c ****         I2CM_INTR_MASTER_MASK_REG = I2CM_I2C_DEFAULT_INTR_MASTER_MASK;
  91              		.loc 1 236 0
  92 004c FF32     		add	r2, r2, #255
 234:.\Generated_Source\PSoC4/I2CM_I2C.c ****         I2CM_INTR_I2C_EC_MASK_REG = I2CM_I2C_DEFAULT_INTR_I2C_EC_MASK;
  93              		.loc 1 234 0
  94 004e 1C60     		str	r4, [r3]
 235:.\Generated_Source\PSoC4/I2CM_I2C.c ****         I2CM_INTR_SLAVE_MASK_REG  = I2CM_I2C_DEFAULT_INTR_SLAVE_MASK;
  95              		.loc 1 235 0
  96 0050 154B     		ldr	r3, .L2+52
  97 0052 1C60     		str	r4, [r3]
 236:.\Generated_Source\PSoC4/I2CM_I2C.c ****         I2CM_INTR_MASTER_MASK_REG = I2CM_I2C_DEFAULT_INTR_MASTER_MASK;
  98              		.loc 1 236 0
  99 0054 154B     		ldr	r3, .L2+56
 100 0056 1A60     		str	r2, [r3]
 237:.\Generated_Source\PSoC4/I2CM_I2C.c ****         I2CM_INTR_RX_MASK_REG     = I2CM_I2C_DEFAULT_INTR_RX_MASK;
 101              		.loc 1 237 0
 102 0058 154B     		ldr	r3, .L2+60
 241:.\Generated_Source\PSoC4/I2CM_I2C.c ****         I2CM_state = I2CM_I2C_FSM_IDLE;
 103              		.loc 1 241 0
 104 005a 1022     		mov	r2, #16
 237:.\Generated_Source\PSoC4/I2CM_I2C.c ****         I2CM_INTR_RX_MASK_REG     = I2CM_I2C_DEFAULT_INTR_RX_MASK;
 105              		.loc 1 237 0
 106 005c 1C60     		str	r4, [r3]
 238:.\Generated_Source\PSoC4/I2CM_I2C.c ****         I2CM_INTR_TX_MASK_REG     = I2CM_I2C_DEFAULT_INTR_TX_MASK;
 107              		.loc 1 238 0
 108 005e 154B     		ldr	r3, .L2+64
 109 0060 1C60     		str	r4, [r3]
 241:.\Generated_Source\PSoC4/I2CM_I2C.c ****         I2CM_state = I2CM_I2C_FSM_IDLE;
 110              		.loc 1 241 0
 111 0062 154B     		ldr	r3, .L2+68
 112 0064 1A70     		strb	r2, [r3]
 253:.\Generated_Source\PSoC4/I2CM_I2C.c ****         I2CM_mstrStatus     = 0u;
 113              		.loc 1 253 0
 114 0066 154B     		ldr	r3, .L2+72
 115 0068 1C80     		strh	r4, [r3]
 254:.\Generated_Source\PSoC4/I2CM_I2C.c ****         I2CM_mstrRdBufIndex = 0u;
 116              		.loc 1 254 0
ARM GAS  C:\Users\Sven\AppData\Local\Temp\cciiBjCF.s 			page 8


 117 006a 154B     		ldr	r3, .L2+76
 118 006c 1C60     		str	r4, [r3]
 255:.\Generated_Source\PSoC4/I2CM_I2C.c ****         I2CM_mstrWrBufIndex = 0u;
 119              		.loc 1 255 0
 120 006e 154B     		ldr	r3, .L2+80
 121 0070 1C60     		str	r4, [r3]
 122              		.loc 1 257 0
 123 0072 10BD     		pop	{r4, pc}
 124              	.L3:
 125              		.align	2
 126              	.L2:
 127 0074 70000740 		.word	1074200688
 128 0078 00000740 		.word	1074200576
 129 007c 77080080 		.word	-2147481481
 130 0080 60000740 		.word	1074200672
 131 0084 07010080 		.word	-2147483385
 132 0088 00030740 		.word	1074201344
 133 008c 04030740 		.word	1074201348
 134 0090 10030740 		.word	1074201360
 135 0094 00020740 		.word	1074201088
 136 0098 04020740 		.word	1074201092
 137 009c 00000000 		.word	I2CM_I2C_ISR
 138 00a0 C80E0740 		.word	1074204360
 139 00a4 880E0740 		.word	1074204296
 140 00a8 480F0740 		.word	1074204488
 141 00ac 080F0740 		.word	1074204424
 142 00b0 C80F0740 		.word	1074204616
 143 00b4 880F0740 		.word	1074204552
 144 00b8 00000000 		.word	I2CM_state
 145 00bc 00000000 		.word	I2CM_mstrStatus
 146 00c0 00000000 		.word	I2CM_mstrRdBufIndex
 147 00c4 00000000 		.word	I2CM_mstrWrBufIndex
 148              		.cfi_endproc
 149              	.LFE0:
 150              		.size	I2CM_I2CInit, .-I2CM_I2CInit
 151              		.section	.text.I2CM_I2CStop,"ax",%progbits
 152              		.align	1
 153              		.global	I2CM_I2CStop
 154              		.code	16
 155              		.thumb_func
 156              		.type	I2CM_I2CStop, %function
 157              	I2CM_I2CStop:
 158              	.LFB1:
 258:.\Generated_Source\PSoC4/I2CM_I2C.c **** #endif /* (I2CM_SCB_MODE_UNCONFIG_CONST_CFG) */
 259:.\Generated_Source\PSoC4/I2CM_I2C.c **** 
 260:.\Generated_Source\PSoC4/I2CM_I2C.c **** 
 261:.\Generated_Source\PSoC4/I2CM_I2C.c **** /*******************************************************************************
 262:.\Generated_Source\PSoC4/I2CM_I2C.c **** * Function Name: I2CM_I2CStop
 263:.\Generated_Source\PSoC4/I2CM_I2C.c **** ********************************************************************************
 264:.\Generated_Source\PSoC4/I2CM_I2C.c **** *
 265:.\Generated_Source\PSoC4/I2CM_I2C.c **** * Summary:
 266:.\Generated_Source\PSoC4/I2CM_I2C.c **** *  Resets the I2C FSM into the default state and disables TX interrupt sources.
 267:.\Generated_Source\PSoC4/I2CM_I2C.c **** *
 268:.\Generated_Source\PSoC4/I2CM_I2C.c **** * Parameters:
 269:.\Generated_Source\PSoC4/I2CM_I2C.c **** *  None
 270:.\Generated_Source\PSoC4/I2CM_I2C.c **** *
 271:.\Generated_Source\PSoC4/I2CM_I2C.c **** * Return:
ARM GAS  C:\Users\Sven\AppData\Local\Temp\cciiBjCF.s 			page 9


 272:.\Generated_Source\PSoC4/I2CM_I2C.c **** *  None
 273:.\Generated_Source\PSoC4/I2CM_I2C.c **** *
 274:.\Generated_Source\PSoC4/I2CM_I2C.c **** *******************************************************************************/
 275:.\Generated_Source\PSoC4/I2CM_I2C.c **** void I2CM_I2CStop(void)
 276:.\Generated_Source\PSoC4/I2CM_I2C.c **** {
 159              		.loc 1 276 0
 160              		.cfi_startproc
 161 0000 08B5     		push	{r3, lr}
 162              		.cfi_def_cfa_offset 8
 163              		.cfi_offset 3, -8
 164              		.cfi_offset 14, -4
 277:.\Generated_Source\PSoC4/I2CM_I2C.c ****     /* Disable TX interrupt sources in order not to cause a false trigger.
 278:.\Generated_Source\PSoC4/I2CM_I2C.c ****     * The incoming transaction will enable an appropriate TX interrupt.
 279:.\Generated_Source\PSoC4/I2CM_I2C.c ****     */
 280:.\Generated_Source\PSoC4/I2CM_I2C.c ****     I2CM_SetTxInterruptMode(I2CM_NO_INTR_SOURCES);
 165              		.loc 1 280 0
 166 0002 054B     		ldr	r3, .L5
 167 0004 0022     		mov	r2, #0
 168 0006 1A60     		str	r2, [r3]
 281:.\Generated_Source\PSoC4/I2CM_I2C.c **** 
 282:.\Generated_Source\PSoC4/I2CM_I2C.c **** #if(I2CM_CY_SCBIP_V0)
 283:.\Generated_Source\PSoC4/I2CM_I2C.c ****     /* Clear a pending interrupt as the TX FIFO becomes empty and the block does not gate
 284:.\Generated_Source\PSoC4/I2CM_I2C.c ****     * an interrupt trigger when disabled.
 285:.\Generated_Source\PSoC4/I2CM_I2C.c ****     */
 286:.\Generated_Source\PSoC4/I2CM_I2C.c ****     I2CM_ClearPendingInt();
 169              		.loc 1 286 0
 170 0008 0B20     		mov	r0, #11
 171 000a FFF7FEFF 		bl	CyIntClearPending
 172              	.LVL3:
 287:.\Generated_Source\PSoC4/I2CM_I2C.c **** #endif /* (I2CM_CY_SCBIP_V0) */
 288:.\Generated_Source\PSoC4/I2CM_I2C.c **** 
 289:.\Generated_Source\PSoC4/I2CM_I2C.c ****     I2CM_state = I2CM_I2C_FSM_IDLE;
 173              		.loc 1 289 0
 174 000e 034B     		ldr	r3, .L5+4
 175 0010 1022     		mov	r2, #16
 176 0012 1A70     		strb	r2, [r3]
 290:.\Generated_Source\PSoC4/I2CM_I2C.c **** }
 177              		.loc 1 290 0
 178              		@ sp needed
 179 0014 08BD     		pop	{r3, pc}
 180              	.L6:
 181 0016 C046     		.align	2
 182              	.L5:
 183 0018 880F0740 		.word	1074204552
 184 001c 00000000 		.word	I2CM_state
 185              		.cfi_endproc
 186              	.LFE1:
 187              		.size	I2CM_I2CStop, .-I2CM_I2CStop
 188              		.comm	I2CM_state,1,1
 189              		.text
 190              	.Letext0:
 191              		.file 2 ".\\Generated_Source\\PSoC4/cytypes.h"
 192              		.file 3 ".\\Generated_Source\\PSoC4\\I2CM_I2C_PVT.h"
 193              		.file 4 ".\\Generated_Source\\PSoC4/CyLib.h"