ARM GAS  C:\Users\Sven\AppData\Local\Temp\ccA3Jige.s 			page 1


   1              		.cpu cortex-m0
   2              		.fpu softvfp
   3              		.eabi_attribute 20, 1
   4              		.eabi_attribute 21, 1
   5              		.eabi_attribute 23, 3
   6              		.eabi_attribute 24, 1
   7              		.eabi_attribute 25, 1
   8              		.eabi_attribute 26, 1
   9              		.eabi_attribute 30, 4
  10              		.eabi_attribute 34, 0
  11              		.eabi_attribute 18, 4
  12              		.code	16
  13              		.file	"IMU.c"
  14              		.text
  15              	.Ltext0:
  16              		.cfi_sections	.debug_frame
  17              		.section	.text.write_mpu6050_registry,"ax",%progbits
  18              		.align	1
  19              		.global	write_mpu6050_registry
  20              		.code	16
  21              		.thumb_func
  22              		.type	write_mpu6050_registry, %function
  23              	write_mpu6050_registry:
  24              	.LFB33:
  25              		.file 1 ".\\IMU.c"
   1:.\IMU.c       **** /* ========================================
   2:.\IMU.c       ****  *
   3:.\IMU.c       ****  * Copyright YOUR COMPANY, THE YEAR
   4:.\IMU.c       ****  * All Rights Reserved
   5:.\IMU.c       ****  * UNPUBLISHED, LICENSED SOFTWARE.
   6:.\IMU.c       ****  *
   7:.\IMU.c       ****  * CONFIDENTIAL AND PROPRIETARY INFORMATION
   8:.\IMU.c       ****  * WHICH IS THE PROPERTY OF your company.
   9:.\IMU.c       ****  *
  10:.\IMU.c       ****  * ========================================
  11:.\IMU.c       **** */
  12:.\IMU.c       **** 
  13:.\IMU.c       **** // #include <project.h>     // this is included in IMU.h file
  14:.\IMU.c       **** #include <IMU.h>
  15:.\IMU.c       **** 
  16:.\IMU.c       **** extern void UART_1_UartPutNum();
  17:.\IMU.c       **** 
  18:.\IMU.c       **** #define READ    1
  19:.\IMU.c       **** #define WRITE   0
  20:.\IMU.c       **** #define ACK     0
  21:.\IMU.c       **** #define NACK    1
  22:.\IMU.c       **** 
  23:.\IMU.c       **** extern uint8_t imu_conn;
  24:.\IMU.c       **** 
  25:.\IMU.c       **** /* ================================= */
  26:.\IMU.c       **** /* GYRO VARIABLES					*/
  27:.\IMU.c       **** /* ================================= */
  28:.\IMU.c       **** 
  29:.\IMU.c       **** /* x component*/
  30:.\IMU.c       **** int8_t	gyro_x_h	= 0;
  31:.\IMU.c       **** uint8_t gyro_x_l	= 0;
  32:.\IMU.c       **** int16_t gyro_x		= 0;
ARM GAS  C:\Users\Sven\AppData\Local\Temp\ccA3Jige.s 			page 2


  33:.\IMU.c       **** extern int16_t turn_rate_p;		// from main.c file
  34:.\IMU.c       **** int16_t	gyro_p		= 0;
  35:.\IMU.c       **** 
  36:.\IMU.c       **** /* y component*/
  37:.\IMU.c       **** int8_t	gyro_y_h	= 0;
  38:.\IMU.c       **** uint8_t gyro_y_l	= 0;
  39:.\IMU.c       **** int16_t gyro_y		= 0;
  40:.\IMU.c       **** int16_t	gyro_q		= 0;
  41:.\IMU.c       **** extern int16_t turn_rate_q;		// from main.c file
  42:.\IMU.c       **** 
  43:.\IMU.c       **** /* z component*/
  44:.\IMU.c       **** int8_t	gyro_z_h	= 0;
  45:.\IMU.c       **** uint8_t gyro_z_l	= 0;
  46:.\IMU.c       **** int16_t gyro_z		= 0;
  47:.\IMU.c       **** int16_t	gyro_r		= 0;
  48:.\IMU.c       **** extern int16_t turn_rate_r;		// from main.c file
  49:.\IMU.c       **** 
  50:.\IMU.c       **** // Gyro temperature
  51:.\IMU.c       **** int8_t	temperature	= 0;
  52:.\IMU.c       **** uint8_t temperature_0	= 50;
  53:.\IMU.c       **** 
  54:.\IMU.c       **** // Gyro Calibration Variables
  55:.\IMU.c       **** // idea: count 100 samples (IMU needs to be steady) and calculate the offset
  56:.\IMU.c       **** 
  57:.\IMU.c       **** int16_t gyro_p_offset = 0;
  58:.\IMU.c       **** int16_t gyro_q_offset = 0;
  59:.\IMU.c       **** int16_t gyro_r_offset = 0;
  60:.\IMU.c       **** //int cal_complete = FALSE;	// Flag to cover if the calibration is complete
  61:.\IMU.c       **** uint8_t error_stat = 0;
  62:.\IMU.c       **** 
  63:.\IMU.c       **** /* ================================= */
  64:.\IMU.c       **** /* ACC & MAG VARIABLES					*/
  65:.\IMU.c       **** /* ================================= */
  66:.\IMU.c       **** 
  67:.\IMU.c       **** int8_t	acc_x_h		= 0;		// high bits of acc x reading
  68:.\IMU.c       **** uint8_t	acc_x_l		= 0;		// low bits of acc x reading
  69:.\IMU.c       **** int16_t acc_x		= 0;		// combined value of acc x reading
  70:.\IMU.c       **** extern int16_t	acc_x_g;		// acc_x from main.c file
  71:.\IMU.c       **** 
  72:.\IMU.c       **** int8_t	acc_y_h		= 0;		// high bits of acc x reading
  73:.\IMU.c       **** uint8_t	acc_y_l		= 0;		// low bits of acc x reading
  74:.\IMU.c       **** int16_t acc_y		= 0;		// combined value of acc x reading
  75:.\IMU.c       **** extern int16_t	acc_y_g;		// acc_y from main.c file
  76:.\IMU.c       **** 
  77:.\IMU.c       **** int8_t	acc_z_h		= 0;		// high bits of acc x reading
  78:.\IMU.c       **** uint8_t	acc_z_l		= 0;		// low bits of acc x reading
  79:.\IMU.c       **** int16_t acc_z		= 0;		// combined value of acc x reading
  80:.\IMU.c       **** extern int16_t	acc_z_g;		// acc_z from main.c file
  81:.\IMU.c       **** 
  82:.\IMU.c       **** int8_t	mag_x_h		= 0;		// high bits of mag x reading
  83:.\IMU.c       **** uint8_t	mag_x_l		= 0;		// low bits of mag x reading
  84:.\IMU.c       **** int16_t mag_x		= 0;		// the value read on the x axis of the magnetometer
  85:.\IMU.c       **** extern int16_t	mag_x_g;		// the geodetic reference frame value of x
  86:.\IMU.c       **** 
  87:.\IMU.c       **** int8_t	mag_y_h		= 0;		// high bits of mag y reading
  88:.\IMU.c       **** uint8_t	mag_y_l		= 0;		// low bits of mag y reading
  89:.\IMU.c       **** int16_t mag_y		= 0;		// the value read on the y axis of the magnetometer
ARM GAS  C:\Users\Sven\AppData\Local\Temp\ccA3Jige.s 			page 3


  90:.\IMU.c       **** extern int16_t	mag_y_g;		// the geodetic reference frame value of y
  91:.\IMU.c       **** 
  92:.\IMU.c       **** int8_t	mag_z_h		= 0;		// high bits of mag z reading
  93:.\IMU.c       **** uint8_t	mag_z_l		= 0;		// low bits of mag z reading
  94:.\IMU.c       **** int16_t mag_z	= 0;		// the value read on the z axis of the magnetometer
  95:.\IMU.c       **** extern int16_t	mag_z_g;		// the geodetic reference frame value of y
  96:.\IMU.c       **** 
  97:.\IMU.c       **** 
  98:.\IMU.c       **** #ifdef ALTIMU
  99:.\IMU.c       **** /*=====================================*/
 100:.\IMU.c       **** /* ALT-IMU10 v4*/
 101:.\IMU.c       ****     
 102:.\IMU.c       **** /* ================================= */
 103:.\IMU.c       **** /* BAROMETER VARIABLES				 */
 104:.\IMU.c       **** /* ================================= */
 105:.\IMU.c       **** //uint8_t bar_h    = 0;    // high byte
 106:.\IMU.c       **** //uint8_t bar_l   = 0;    // middle byte
 107:.\IMU.c       **** //uint8_t bar_xl  = 0;    // lowest byte
 108:.\IMU.c       **** //extern uint32_t Bar_press;   // Barometric Pressure
 109:.\IMU.c       **** /* ================================= */
 110:.\IMU.c       **** /* GYRO FUNCTIONS					*/
 111:.\IMU.c       **** /* ================================= */
 112:.\IMU.c       **** void write_gyro_registry(uint8_t registry, uint8_t data)
 113:.\IMU.c       **** {
 114:.\IMU.c       ****     I2CM_I2CMasterSendStart(L3GD20H_ADDRESS_SA0_HIGH, WRITE);
 115:.\IMU.c       **** 	UART_1_UartPutString("GYR W Add Ok\r\n");
 116:.\IMU.c       **** 	I2CM_I2CMasterWriteByte(registry);
 117:.\IMU.c       ****     UART_1_UartPutString("GYR W Reg Ok\r\n");
 118:.\IMU.c       ****     I2CM_I2CMasterWriteByte(data);
 119:.\IMU.c       ****     UART_1_UartPutString("GYR W Dat Ok\r\n");
 120:.\IMU.c       ****     I2CM_I2C_MASTER_GENERATE_STOP;
 121:.\IMU.c       ****     UART_1_UartPutString("GYR W Stop Ok\r\n");    
 122:.\IMU.c       **** }
 123:.\IMU.c       **** 
 124:.\IMU.c       **** int8_t read_gyro_registry(uint8_t registry)
 125:.\IMU.c       **** {
 126:.\IMU.c       **** 	uint8_t data;
 127:.\IMU.c       **** 	I2CM_I2CMasterSendStart(L3GD20H_ADDRESS_SA0_HIGH, WRITE);
 128:.\IMU.c       **** 	I2CM_I2CMasterWriteByte(registry);
 129:.\IMU.c       **** 	I2CM_I2CMasterSendRestart(L3GD20H_ADDRESS_SA0_HIGH, READ);
 130:.\IMU.c       **** 	data = I2CM_I2CMasterReadByte(NACK);
 131:.\IMU.c       ****     I2CM_I2C_MASTER_GENERATE_STOP;
 132:.\IMU.c       ****     return(data);
 133:.\IMU.c       **** }
 134:.\IMU.c       **** 
 135:.\IMU.c       **** void gyro_start(void)
 136:.\IMU.c       **** {
 137:.\IMU.c       ****     // CTRL REG 1
 138:.\IMU.c       **** 	write_gyro_registry(L3GD20H_CTRL_REG1, 0x0F);		// Enabling all axes read out and Power On -> 100 H
 139:.\IMU.c       ****     //UART_1_UartPutNum(read_gyro_registry(L3GD20H_CTRL_REG1));
 140:.\IMU.c       ****     // CTRL REG 2
 141:.\IMU.c       **** 	write_gyro_registry(L3GD20H_CTRL_REG2, 0x20);		// Normal Mode of High Pass Filter (High Bits), Fil
 142:.\IMU.c       ****     //UART_1_UartPutNum(read_gyro_registry(L3GD20H_CTRL_REG2));
 143:.\IMU.c       ****     // CTRL REG 5
 144:.\IMU.c       **** 	write_gyro_registry(L3GD20H_CTRL_REG5, 0x10);		// High Pass Filter Enable (High Bit 1)
 145:.\IMU.c       ****     //UART_1_UartPutNum(read_gyro_registry(L3GD20H_CTRL_REG5));
 146:.\IMU.c       ****     UART_1_UartPutString("Gyro started\r\n");
ARM GAS  C:\Users\Sven\AppData\Local\Temp\ccA3Jige.s 			page 4


 147:.\IMU.c       **** }
 148:.\IMU.c       **** 
 149:.\IMU.c       **** // Gyro turn rate reading
 150:.\IMU.c       **** void gyro_read(void)
 151:.\IMU.c       **** {
 152:.\IMU.c       ****     I2CM_I2CMasterSendStart(L3GD20H_ADDRESS_SA0_HIGH, WRITE);
 153:.\IMU.c       **** 	I2CM_I2CMasterWriteByte(L3GD20H_OUT_X_L + 0b10000000); // add MSB to activate auto increment
 154:.\IMU.c       **** 	I2CM_I2CMasterSendRestart(L3GD20H_ADDRESS_SA0_HIGH, READ);
 155:.\IMU.c       **** 	gyro_x_l = I2CM_I2CMasterReadByte(ACK);
 156:.\IMU.c       **** 	gyro_x_h = I2CM_I2CMasterReadByte(ACK);
 157:.\IMU.c       ****     gyro_y_l = I2CM_I2CMasterReadByte(ACK);
 158:.\IMU.c       **** 	gyro_y_h = I2CM_I2CMasterReadByte(ACK);
 159:.\IMU.c       **** 	gyro_z_l = I2CM_I2CMasterReadByte(ACK);
 160:.\IMU.c       **** 	gyro_z_h = I2CM_I2CMasterReadByte(NACK);
 161:.\IMU.c       ****     I2CM_I2C_MASTER_GENERATE_STOP;
 162:.\IMU.c       ****     gyro_x = (gyro_x_h<<8) | (gyro_x_l);
 163:.\IMU.c       **** 	gyro_y = (gyro_y_h<<8) | (gyro_y_l);
 164:.\IMU.c       **** 	gyro_z = (gyro_z_h<<8) | (gyro_z_l);
 165:.\IMU.c       ****     turn_rate_p = gyro_x * 0.00875;						// the conversion comes from the default sensitivity value
 166:.\IMU.c       **** 	turn_rate_q = gyro_y * 0.00875;
 167:.\IMU.c       **** 	turn_rate_r = gyro_z * 0.00875;						// see gyro datasheet page 10    
 168:.\IMU.c       **** }
 169:.\IMU.c       **** 
 170:.\IMU.c       **** /* ================================= */
 171:.\IMU.c       **** /* ACC & MAG FUNCTIONS					*/
 172:.\IMU.c       **** /* ================================= */
 173:.\IMU.c       **** 
 174:.\IMU.c       **** /*  ACCELEROMETER FUNCTIONS */
 175:.\IMU.c       **** 
 176:.\IMU.c       **** void write_acc_registry(char registry, char data)
 177:.\IMU.c       **** {
 178:.\IMU.c       **** 	I2CM_I2CMasterSendStart(LSM303_ADDRESS, WRITE);
 179:.\IMU.c       **** 	UART_1_UartPutString("ACC W Add Ok");
 180:.\IMU.c       **** 	I2CM_I2CMasterWriteByte(registry);
 181:.\IMU.c       ****     UART_1_UartPutString("ACC W Reg Ok");
 182:.\IMU.c       ****     I2CM_I2CMasterWriteByte(data);
 183:.\IMU.c       ****     UART_1_UartPutString("ACC W Dat Ok");
 184:.\IMU.c       ****     I2CM_I2C_MASTER_GENERATE_STOP;
 185:.\IMU.c       ****     UART_1_UartPutString("ACC W Stop Ok"); 
 186:.\IMU.c       **** }
 187:.\IMU.c       **** void acc_start(void)
 188:.\IMU.c       **** {
 189:.\IMU.c       **** 	// CTRL REG 1
 190:.\IMU.c       **** 	write_acc_registry(LSM303_CTRL_REG1, 0x67);		// Enabling all axes read out and Power On -> 100 Hz 
 191:.\IMU.c       ****     //UART_1_UartPutNum(read_acc_registry(LSM303_CTRL_REG1));
 192:.\IMU.c       ****     // CTRL REG 2
 193:.\IMU.c       **** 	
 194:.\IMU.c       ****     //write_mag_registry(LSM303_CTRL_REG6, 0x20);		// Magnetometer FS +-4Gauss
 195:.\IMU.c       ****     //UART_1_UartPutNum(read_acc_registry(LSM303_CTRL_REG2));
 196:.\IMU.c       ****     UART_1_UartPutString("Acc started\r\n");
 197:.\IMU.c       **** }
 198:.\IMU.c       **** 
 199:.\IMU.c       **** void acc_read(void)
 200:.\IMU.c       **** {
 201:.\IMU.c       **** 	I2CM_I2CMasterSendStart(LSM303_ADDRESS, WRITE);
 202:.\IMU.c       **** 	I2CM_I2CMasterWriteByte(LSM303_ACC_OUT_X_L + 0b10000000); // add MSB to activate auto increment
 203:.\IMU.c       **** 	I2CM_I2CMasterSendRestart(LSM303_ADDRESS, READ);
ARM GAS  C:\Users\Sven\AppData\Local\Temp\ccA3Jige.s 			page 5


 204:.\IMU.c       **** 	acc_x_l = I2CM_I2CMasterReadByte(ACK);
 205:.\IMU.c       **** 	acc_x_h = I2CM_I2CMasterReadByte(ACK);
 206:.\IMU.c       ****     acc_y_l = I2CM_I2CMasterReadByte(ACK);
 207:.\IMU.c       **** 	acc_y_h = I2CM_I2CMasterReadByte(ACK);
 208:.\IMU.c       **** 	acc_z_l = I2CM_I2CMasterReadByte(ACK);
 209:.\IMU.c       **** 	acc_z_h = I2CM_I2CMasterReadByte(NACK);
 210:.\IMU.c       ****     I2CM_I2C_MASTER_GENERATE_STOP;
 211:.\IMU.c       ****     acc_x = (acc_x_h<<8) | (acc_x_l);
 212:.\IMU.c       **** 	acc_y = (acc_y_h<<8) | (acc_y_l);
 213:.\IMU.c       **** 	acc_z = (acc_z_h<<8) | (acc_z_l);
 214:.\IMU.c       ****     acc_x_g = acc_x * 0.122;	// milli G										
 215:.\IMU.c       **** 	acc_y_g = acc_y * 0.122;	// milli G					// Linear Acceleration at 4G gives 0.122mg/bit
 216:.\IMU.c       **** 	acc_z_g = acc_z * 0.122;	// milli G					// see ACC datasheet page 10  
 217:.\IMU.c       **** }
 218:.\IMU.c       **** 
 219:.\IMU.c       **** /*  MAGNETOMETER FUNCTIONS */
 220:.\IMU.c       **** 
 221:.\IMU.c       **** void write_mag_registry(char registry, char data)
 222:.\IMU.c       **** {
 223:.\IMU.c       **** 	I2CM_I2CMasterSendStart(LSM303_ADDRESS, WRITE);
 224:.\IMU.c       **** 	UART_1_UartPutString("W Add Ok");
 225:.\IMU.c       **** 	I2CM_I2CMasterWriteByte(registry);
 226:.\IMU.c       ****     UART_1_UartPutString("W Reg Ok");
 227:.\IMU.c       ****     I2CM_I2CMasterWriteByte(data);
 228:.\IMU.c       ****     UART_1_UartPutString("W Dat Ok");
 229:.\IMU.c       ****     I2CM_I2C_MASTER_GENERATE_STOP;
 230:.\IMU.c       ****     UART_1_UartPutString("W Stop Ok"); 
 231:.\IMU.c       **** }
 232:.\IMU.c       **** 
 233:.\IMU.c       **** void mag_start(void)
 234:.\IMU.c       **** {
 235:.\IMU.c       **** 	// CTRL REG 1
 236:.\IMU.c       **** 	write_mag_registry(LSM303_CTRL_REG6, 0x20);		// Magnetometer FS +-4Gauss
 237:.\IMU.c       ****     //UART_1_UartPutNum(read_acc_registry(LSM303_CTRL_REG1));
 238:.\IMU.c       ****     // CTRL REG 2
 239:.\IMU.c       **** 	write_mag_registry(LSM303_CTRL_REG7, 0x00);		// Putting Magnetometer into Continuous Conversion Mo
 240:.\IMU.c       ****     //UART_1_UartPutNum(read_acc_registry(LSM303_CTRL_REG2));
 241:.\IMU.c       ****     UART_1_UartPutString("Mag started\r\n");
 242:.\IMU.c       **** }
 243:.\IMU.c       **** 
 244:.\IMU.c       **** void mag_read(void)
 245:.\IMU.c       **** {
 246:.\IMU.c       **** 	I2CM_I2CMasterSendStart(LSM303_ADDRESS, WRITE);
 247:.\IMU.c       **** 	I2CM_I2CMasterWriteByte(LSM303_MAG_OUT_X_L + 0b10000000); // add MSB to activate auto increment
 248:.\IMU.c       **** 	I2CM_I2CMasterSendRestart(LSM303_ADDRESS, READ);
 249:.\IMU.c       **** 	mag_x_l = I2CM_I2CMasterReadByte(ACK);
 250:.\IMU.c       **** 	mag_x_h = I2CM_I2CMasterReadByte(ACK);
 251:.\IMU.c       ****     mag_y_l = I2CM_I2CMasterReadByte(ACK);
 252:.\IMU.c       **** 	mag_y_h = I2CM_I2CMasterReadByte(ACK);
 253:.\IMU.c       **** 	mag_z_l = I2CM_I2CMasterReadByte(ACK);
 254:.\IMU.c       **** 	mag_z_h = I2CM_I2CMasterReadByte(NACK);
 255:.\IMU.c       ****     I2CM_I2C_MASTER_GENERATE_STOP;
 256:.\IMU.c       ****     mag_x = (mag_x_h<<8) | (mag_x_l);
 257:.\IMU.c       **** 	mag_y = (mag_y_h<<8) | (mag_y_l);
 258:.\IMU.c       **** 	mag_z = (mag_z_h<<8) | (mag_z_l);
 259:.\IMU.c       ****     mag_x_g = mag_x * 0.16;	// milli Gauss		    // bla					
 260:.\IMU.c       **** 	mag_y_g = mag_y * 0.16;	// milli Gauss			// Magnetic sensitivity at 4Gauss gives 0.16 mgauss/bit
ARM GAS  C:\Users\Sven\AppData\Local\Temp\ccA3Jige.s 			page 6


 261:.\IMU.c       **** 	mag_z_g = mag_z * 0.16;	// milli Gauss			// see Mag datasheet page 10  
 262:.\IMU.c       **** }
 263:.\IMU.c       **** 
 264:.\IMU.c       **** /* ================================= */
 265:.\IMU.c       **** /* BAROMETER FUNCTIONS				 */
 266:.\IMU.c       **** /* ================================= */
 267:.\IMU.c       **** 
 268:.\IMU.c       **** void write_baro_registry(char registry, char data)
 269:.\IMU.c       **** {
 270:.\IMU.c       ****     I2CM_I2CMasterSendStart(LPS25H_ADDRESS, WRITE);
 271:.\IMU.c       **** 	//UART_1_UartPutString("B W Add Ok");
 272:.\IMU.c       **** 	I2CM_I2CMasterWriteByte(registry);
 273:.\IMU.c       ****     //UART_1_UartPutString("B W Reg Ok");
 274:.\IMU.c       ****     I2CM_I2CMasterWriteByte(data);
 275:.\IMU.c       ****     //UART_1_UartPutString("B W Dat Ok");
 276:.\IMU.c       ****     I2CM_I2C_MASTER_GENERATE_STOP;
 277:.\IMU.c       ****     //UART_1_UartPutString("B W Stop Ok"); 
 278:.\IMU.c       **** }
 279:.\IMU.c       **** 
 280:.\IMU.c       **** void baro_start(void)
 281:.\IMU.c       **** {
 282:.\IMU.c       ****     write_baro_registry(LPS25H_CTRL_REG1,0xC0);         // Enabling the Baro, 25Hz output, enable B
 283:.\IMU.c       ****     UART_1_UartPutString("Baro Started");
 284:.\IMU.c       **** }
 285:.\IMU.c       **** 
 286:.\IMU.c       **** int32_t baro_read(void)
 287:.\IMU.c       **** {
 288:.\IMU.c       ****     I2CM_I2CMasterSendStart(LPS25H_ADDRESS, WRITE);
 289:.\IMU.c       **** 	I2CM_I2CMasterWriteByte(LPS25H_P_OUT_XL + 0b10000000); // add MSB to activate auto increment
 290:.\IMU.c       **** 	I2CM_I2CMasterSendRestart(LSM303_ADDRESS, READ);
 291:.\IMU.c       **** 	uint8_t bar_xl = I2CM_I2CMasterReadByte(ACK);
 292:.\IMU.c       **** 	uint8_t bar_l = I2CM_I2CMasterReadByte(ACK);
 293:.\IMU.c       ****     uint8_t bar_h = I2CM_I2CMasterReadByte(NACK);
 294:.\IMU.c       ****     I2CM_I2C_MASTER_GENERATE_STOP;
 295:.\IMU.c       ****     int32_t press_temp = (int8_t)(bar_h << 16) |(uint16_t)(bar_l<<8) | (bar_xl);    
 296:.\IMU.c       ****     //Bar_press = press_temp / 4096;      // 4096 bit / hPa = 4096 bit / mbar
 297:.\IMU.c       ****     return(press_temp/4096);
 298:.\IMU.c       **** }
 299:.\IMU.c       ****   
 300:.\IMU.c       ****     
 301:.\IMU.c       **** #endif
 302:.\IMU.c       **** 
 303:.\IMU.c       **** //#ifdef MPU6050    // How To add a "symbol" for the precompiler?
 304:.\IMU.c       **** /*===========================*/
 305:.\IMU.c       **** /*      MPU6050              */
 306:.\IMU.c       **** /*===========================*/
 307:.\IMU.c       **** 
 308:.\IMU.c       **** void write_mpu6050_registry(uint8_t registry, uint8_t data)
 309:.\IMU.c       **** {
  26              		.loc 1 309 0
  27              		.cfi_startproc
  28              	.LVL0:
  29 0000 70B5     		push	{r4, r5, r6, lr}
  30              		.cfi_def_cfa_offset 16
  31              		.cfi_offset 4, -16
  32              		.cfi_offset 5, -12
  33              		.cfi_offset 6, -8
ARM GAS  C:\Users\Sven\AppData\Local\Temp\ccA3Jige.s 			page 7


  34              		.cfi_offset 14, -4
  35              		.loc 1 309 0
  36 0002 061C     		mov	r6, r0
  37 0004 0D1C     		mov	r5, r1
 310:.\IMU.c       ****     if(I2CM_I2CMasterSendStart(MPU6050_ADDRESS, WRITE)==0) 
  38              		.loc 1 310 0
  39 0006 6820     		mov	r0, #104
  40              	.LVL1:
  41 0008 0021     		mov	r1, #0
  42              	.LVL2:
  43 000a FFF7FEFF 		bl	I2CM_I2CMasterSendStart
  44              	.LVL3:
  45 000e 0D4C     		ldr	r4, .L9
 311:.\IMU.c       ****     {
 312:.\IMU.c       ****         I2CM_I2CMasterWriteByte(registry);
 313:.\IMU.c       ****         CyDelay(1);
 314:.\IMU.c       ****         I2CM_I2CMasterWriteByte(data);
 315:.\IMU.c       ****         CyDelay(1);
 316:.\IMU.c       ****         imu_conn = 1;   // declare that the IMU is present
 317:.\IMU.c       ****     }
 318:.\IMU.c       ****     else imu_conn = 0;
  46              		.loc 1 318 0
  47 0010 0023     		mov	r3, #0
 310:.\IMU.c       ****     if(I2CM_I2CMasterSendStart(MPU6050_ADDRESS, WRITE)==0) 
  48              		.loc 1 310 0
  49 0012 0028     		cmp	r0, #0
  50 0014 0CD1     		bne	.L7
 312:.\IMU.c       ****         I2CM_I2CMasterWriteByte(registry);
  51              		.loc 1 312 0
  52 0016 301C     		mov	r0, r6
  53 0018 FFF7FEFF 		bl	I2CM_I2CMasterWriteByte
  54              	.LVL4:
 313:.\IMU.c       ****         CyDelay(1);
  55              		.loc 1 313 0
  56 001c 0120     		mov	r0, #1
  57 001e FFF7FEFF 		bl	CyDelay
  58              	.LVL5:
 314:.\IMU.c       ****         I2CM_I2CMasterWriteByte(data);
  59              		.loc 1 314 0
  60 0022 281C     		mov	r0, r5
  61 0024 FFF7FEFF 		bl	I2CM_I2CMasterWriteByte
  62              	.LVL6:
 315:.\IMU.c       ****         CyDelay(1);
  63              		.loc 1 315 0
  64 0028 0120     		mov	r0, #1
  65 002a FFF7FEFF 		bl	CyDelay
  66              	.LVL7:
 316:.\IMU.c       ****         imu_conn = 1;   // declare that the IMU is present
  67              		.loc 1 316 0
  68 002e 0123     		mov	r3, #1
  69              	.L7:
  70              		.loc 1 318 0
  71 0030 2370     		strb	r3, [r4]
 319:.\IMU.c       ****     I2CM_I2C_MASTER_GENERATE_STOP;
  72              		.loc 1 319 0
  73 0032 054B     		ldr	r3, .L9+4
  74 0034 1A68     		ldr	r2, [r3]
ARM GAS  C:\Users\Sven\AppData\Local\Temp\ccA3Jige.s 			page 8


  75 0036 1023     		mov	r3, #16
  76 0038 9106     		lsl	r1, r2, #26
  77 003a 00D5     		bpl	.L4
  78 003c 1823     		mov	r3, #24
  79              	.L4:
  80              		.loc 1 319 0 is_stmt 0 discriminator 3
  81 003e 034A     		ldr	r2, .L9+8
 320:.\IMU.c       **** }
  82              		.loc 1 320 0 is_stmt 1 discriminator 3
  83              		@ sp needed
 319:.\IMU.c       ****     I2CM_I2C_MASTER_GENERATE_STOP;
  84              		.loc 1 319 0 discriminator 3
  85 0040 1360     		str	r3, [r2]
  86              		.loc 1 320 0 discriminator 3
  87 0042 70BD     		pop	{r4, r5, r6, pc}
  88              	.L10:
  89              		.align	2
  90              	.L9:
  91 0044 00000000 		.word	imu_conn
  92 0048 64000740 		.word	1074200676
  93 004c 68000740 		.word	1074200680
  94              		.cfi_endproc
  95              	.LFE33:
  96              		.size	write_mpu6050_registry, .-write_mpu6050_registry
  97              		.section	.text.read_mpu6050_registry,"ax",%progbits
  98              		.align	1
  99              		.global	read_mpu6050_registry
 100              		.code	16
 101              		.thumb_func
 102              		.type	read_mpu6050_registry, %function
 103              	read_mpu6050_registry:
 104              	.LFB34:
 321:.\IMU.c       **** 
 322:.\IMU.c       **** int16_t read_mpu6050_registry(uint8_t registry)
 323:.\IMU.c       **** {
 105              		.loc 1 323 0
 106              		.cfi_startproc
 107              	.LVL8:
 108 0000 10B5     		push	{r4, lr}
 109              		.cfi_def_cfa_offset 8
 110              		.cfi_offset 4, -8
 111              		.cfi_offset 14, -4
 324:.\IMU.c       **** 	I2CM_I2CMasterSendStart(MPU6050_ADDRESS, WRITE);
 112              		.loc 1 324 0
 113 0002 0021     		mov	r1, #0
 323:.\IMU.c       **** {
 114              		.loc 1 323 0
 115 0004 041C     		mov	r4, r0
 116              		.loc 1 324 0
 117 0006 6820     		mov	r0, #104
 118              	.LVL9:
 119 0008 FFF7FEFF 		bl	I2CM_I2CMasterSendStart
 120              	.LVL10:
 325:.\IMU.c       ****     CyDelay(1);
 121              		.loc 1 325 0
 122 000c 0120     		mov	r0, #1
 123 000e FFF7FEFF 		bl	CyDelay
ARM GAS  C:\Users\Sven\AppData\Local\Temp\ccA3Jige.s 			page 9


 124              	.LVL11:
 326:.\IMU.c       **** 	I2CM_I2CMasterWriteByte(registry); // add MSB to activate auto increment
 125              		.loc 1 326 0
 126 0012 201C     		mov	r0, r4
 127 0014 FFF7FEFF 		bl	I2CM_I2CMasterWriteByte
 128              	.LVL12:
 327:.\IMU.c       **** 	//UART_1_UartPutString("GYR W Reg Ok\r\n");
 328:.\IMU.c       ****     I2CM_I2CMasterSendRestart(MPU6050_ADDRESS, READ);
 129              		.loc 1 328 0
 130 0018 0121     		mov	r1, #1
 131 001a 6820     		mov	r0, #104
 132 001c FFF7FEFF 		bl	I2CM_I2CMasterSendRestart
 133              	.LVL13:
 329:.\IMU.c       ****     //UART_1_UartPutString("GYR Rest Ok\r\n");
 330:.\IMU.c       **** 	int8_t reg_h = I2CM_I2CMasterReadByte(ACK);
 134              		.loc 1 330 0
 135 0020 0020     		mov	r0, #0
 136 0022 FFF7FEFF 		bl	I2CM_I2CMasterReadByte
 137              	.LVL14:
 138 0026 C4B2     		uxtb	r4, r0
 139              	.LVL15:
 331:.\IMU.c       **** 	uint8_t reg_l = I2CM_I2CMasterReadByte(NACK);
 140              		.loc 1 331 0
 141 0028 0120     		mov	r0, #1
 142              	.LVL16:
 143 002a FFF7FEFF 		bl	I2CM_I2CMasterReadByte
 144              	.LVL17:
 332:.\IMU.c       ****     I2CM_I2C_MASTER_GENERATE_STOP;
 145              		.loc 1 332 0
 146 002e 064B     		ldr	r3, .L15
 331:.\IMU.c       **** 	uint8_t reg_l = I2CM_I2CMasterReadByte(NACK);
 147              		.loc 1 331 0
 148 0030 C2B2     		uxtb	r2, r0
 149              	.LVL18:
 150              		.loc 1 332 0
 151 0032 1968     		ldr	r1, [r3]
 152 0034 1023     		mov	r3, #16
 153 0036 8806     		lsl	r0, r1, #26
 154 0038 00D5     		bpl	.L12
 155              	.LVL19:
 156 003a 1823     		mov	r3, #24
 157              	.L12:
 158              		.loc 1 332 0 is_stmt 0 discriminator 3
 159 003c 0349     		ldr	r1, .L15+4
 333:.\IMU.c       ****     return ((int16_t)((reg_h << 8) | (reg_l)));
 160              		.loc 1 333 0 is_stmt 1 discriminator 3
 161 003e 60B2     		sxtb	r0, r4
 162 0040 0002     		lsl	r0, r0, #8
 163 0042 1043     		orr	r0, r2
 332:.\IMU.c       ****     I2CM_I2C_MASTER_GENERATE_STOP;
 164              		.loc 1 332 0 discriminator 3
 165 0044 0B60     		str	r3, [r1]
 334:.\IMU.c       **** }
 166              		.loc 1 334 0 discriminator 3
 167              		@ sp needed
 168              	.LVL20:
 169 0046 10BD     		pop	{r4, pc}
ARM GAS  C:\Users\Sven\AppData\Local\Temp\ccA3Jige.s 			page 10


 170              	.L16:
 171              		.align	2
 172              	.L15:
 173 0048 64000740 		.word	1074200676
 174 004c 68000740 		.word	1074200680
 175              		.cfi_endproc
 176              	.LFE34:
 177              		.size	read_mpu6050_registry, .-read_mpu6050_registry
 178              		.section	.text.MPU6050_Init,"ax",%progbits
 179              		.align	1
 180              		.global	MPU6050_Init
 181              		.code	16
 182              		.thumb_func
 183              		.type	MPU6050_Init, %function
 184              	MPU6050_Init:
 185              	.LFB35:
 335:.\IMU.c       **** 
 336:.\IMU.c       **** void MPU6050_Init(void)
 337:.\IMU.c       **** {
 186              		.loc 1 337 0
 187              		.cfi_startproc
 188 0000 08B5     		push	{r3, lr}
 189              		.cfi_def_cfa_offset 8
 190              		.cfi_offset 3, -8
 191              		.cfi_offset 14, -4
 338:.\IMU.c       ****     /* Init routine of the MPU6050 */
 339:.\IMU.c       ****     write_mpu6050_registry(MPU6050_PWR_MGMT_1,0b00000000);    	// Disabling Sleep Mode
 192              		.loc 1 339 0
 193 0002 6B20     		mov	r0, #107
 194 0004 0021     		mov	r1, #0
 195 0006 FFF7FEFF 		bl	write_mpu6050_registry
 196              	.LVL21:
 340:.\IMU.c       **** 	write_mpu6050_registry(MPU6050_CONFIG,0x04);    			// Setting the DLPC to 3 -> 44Hz Low Pass Band 
 197              		.loc 1 340 0
 198 000a 1A20     		mov	r0, #26
 199 000c 0421     		mov	r1, #4
 200 000e FFF7FEFF 		bl	write_mpu6050_registry
 201              	.LVL22:
 341:.\IMU.c       ****     write_mpu6050_registry(MPU6050_ACC_CONFIG,0b00001000);    	// Setting ACC Scale to +-4G
 202              		.loc 1 341 0
 203 0012 1C20     		mov	r0, #28
 204 0014 0821     		mov	r1, #8
 205 0016 FFF7FEFF 		bl	write_mpu6050_registry
 206              	.LVL23:
 342:.\IMU.c       ****     if(imu_conn == 1) UART_1_UartPutString("\r\nMPU Init Complete\r\n");
 207              		.loc 1 342 0
 208 001a 054B     		ldr	r3, .L21
 209 001c 1B78     		ldrb	r3, [r3]
 210 001e 012B     		cmp	r3, #1
 211 0020 01D1     		bne	.L18
 212              		.loc 1 342 0 is_stmt 0 discriminator 1
 213 0022 0448     		ldr	r0, .L21+4
 214 0024 00E0     		b	.L20
 215              	.L18:
 343:.\IMU.c       ****     else UART_1_UartPutString("\r\nMPU Not detected\r\n");
 216              		.loc 1 343 0 is_stmt 1
 217 0026 0448     		ldr	r0, .L21+8
ARM GAS  C:\Users\Sven\AppData\Local\Temp\ccA3Jige.s 			page 11


 218              	.L20:
 219 0028 FFF7FEFF 		bl	UART_1_UartPutString
 220              	.LVL24:
 344:.\IMU.c       ****     /*int16_t id = read_mpu6050_registry(MPU6050_WHO_AM_I);
 345:.\IMU.c       ****         UART_1_UartPutNum(id);
 346:.\IMU.c       ****         UART_1_UartPutString("\r\nMPU Complete\r\n");*/
 347:.\IMU.c       ****     
 348:.\IMU.c       **** }
 221              		.loc 1 348 0
 222              		@ sp needed
 223 002c 08BD     		pop	{r3, pc}
 224              	.L22:
 225 002e C046     		.align	2
 226              	.L21:
 227 0030 00000000 		.word	imu_conn
 228 0034 00000000 		.word	.LC2
 229 0038 16000000 		.word	.LC4
 230              		.cfi_endproc
 231              	.LFE35:
 232              		.size	MPU6050_Init, .-MPU6050_Init
 233              		.section	.text.MPU6050_acc_read,"ax",%progbits
 234              		.align	1
 235              		.global	MPU6050_acc_read
 236              		.code	16
 237              		.thumb_func
 238              		.type	MPU6050_acc_read, %function
 239              	MPU6050_acc_read:
 240              	.LFB36:
 349:.\IMU.c       **** 
 350:.\IMU.c       **** void MPU6050_acc_read(void)
 351:.\IMU.c       **** {
 241              		.loc 1 351 0
 242              		.cfi_startproc
 243 0000 38B5     		push	{r3, r4, r5, lr}
 244              		.cfi_def_cfa_offset 16
 245              		.cfi_offset 3, -16
 246              		.cfi_offset 4, -12
 247              		.cfi_offset 5, -8
 248              		.cfi_offset 14, -4
 352:.\IMU.c       ****     if(I2CM_I2CMasterSendStart(MPU6050_ADDRESS, WRITE)==0)
 249              		.loc 1 352 0
 250 0002 6820     		mov	r0, #104
 251 0004 0021     		mov	r1, #0
 252 0006 FFF7FEFF 		bl	I2CM_I2CMasterSendStart
 253              	.LVL25:
 254 000a 051E     		sub	r5, r0, #0
 255 000c 67D1     		bne	.L23
 353:.\IMU.c       ****     {
 354:.\IMU.c       ****         CyDelay(1);
 256              		.loc 1 354 0
 257 000e 0120     		mov	r0, #1
 258 0010 FFF7FEFF 		bl	CyDelay
 259              	.LVL26:
 355:.\IMU.c       ****     	I2CM_I2CMasterWriteByte(MPU6050_ACC_XOUT_H); // auto increment if no NACK is sent by Master
 260              		.loc 1 355 0
 261 0014 3B20     		mov	r0, #59
 262 0016 FFF7FEFF 		bl	I2CM_I2CMasterWriteByte
ARM GAS  C:\Users\Sven\AppData\Local\Temp\ccA3Jige.s 			page 12


 263              	.LVL27:
 356:.\IMU.c       ****     	//UART_1_UartPutString("GYR W Reg Ok\r\n");
 357:.\IMU.c       ****         I2CM_I2CMasterSendRestart(MPU6050_ADDRESS, READ);
 264              		.loc 1 357 0
 265 001a 0121     		mov	r1, #1
 266 001c 6820     		mov	r0, #104
 267 001e FFF7FEFF 		bl	I2CM_I2CMasterSendRestart
 268              	.LVL28:
 358:.\IMU.c       ****         //UART_1_UartPutString("GYR Rest Ok\r\n");
 359:.\IMU.c       ****     	acc_x_h = I2CM_I2CMasterReadByte(ACK);     // XOUT H
 269              		.loc 1 359 0
 270 0022 281C     		mov	r0, r5
 271 0024 FFF7FEFF 		bl	I2CM_I2CMasterReadByte
 272              	.LVL29:
 273 0028 2D4C     		ldr	r4, .L28
 274 002a 2070     		strb	r0, [r4]
 360:.\IMU.c       ****         acc_x_l = I2CM_I2CMasterReadByte(ACK);     // XOUT L
 275              		.loc 1 360 0
 276 002c 281C     		mov	r0, r5
 277 002e FFF7FEFF 		bl	I2CM_I2CMasterReadByte
 278              	.LVL30:
 279 0032 6070     		strb	r0, [r4, #1]
 361:.\IMU.c       ****         acc_y_h = I2CM_I2CMasterReadByte(ACK);     // YOUT H
 280              		.loc 1 361 0
 281 0034 281C     		mov	r0, r5
 282 0036 FFF7FEFF 		bl	I2CM_I2CMasterReadByte
 283              	.LVL31:
 284 003a A070     		strb	r0, [r4, #2]
 362:.\IMU.c       ****         acc_y_l = I2CM_I2CMasterReadByte(ACK);     // YOUT L
 285              		.loc 1 362 0
 286 003c 281C     		mov	r0, r5
 287 003e FFF7FEFF 		bl	I2CM_I2CMasterReadByte
 288              	.LVL32:
 289 0042 E070     		strb	r0, [r4, #3]
 363:.\IMU.c       ****         acc_z_h = I2CM_I2CMasterReadByte(ACK);     // ZOUT H
 290              		.loc 1 363 0
 291 0044 281C     		mov	r0, r5
 292 0046 FFF7FEFF 		bl	I2CM_I2CMasterReadByte
 293              	.LVL33:
 294 004a 2071     		strb	r0, [r4, #4]
 364:.\IMU.c       ****         acc_z_l = I2CM_I2CMasterReadByte(NACK);     // ZOUT L
 295              		.loc 1 364 0
 296 004c 0120     		mov	r0, #1
 297 004e FFF7FEFF 		bl	I2CM_I2CMasterReadByte
 298              	.LVL34:
 365:.\IMU.c       ****         I2CM_I2C_MASTER_GENERATE_STOP;
 299              		.loc 1 365 0
 300 0052 244B     		ldr	r3, .L28+4
 364:.\IMU.c       ****         acc_z_l = I2CM_I2CMasterReadByte(NACK);     // ZOUT L
 301              		.loc 1 364 0
 302 0054 6071     		strb	r0, [r4, #5]
 303              		.loc 1 365 0
 304 0056 1A68     		ldr	r2, [r3]
 305 0058 1023     		mov	r3, #16
 306 005a 9106     		lsl	r1, r2, #26
 307 005c 00D5     		bpl	.L25
 308 005e 1823     		mov	r3, #24
ARM GAS  C:\Users\Sven\AppData\Local\Temp\ccA3Jige.s 			page 13


 309              	.L25:
 310              		.loc 1 365 0 is_stmt 0 discriminator 3
 311 0060 214A     		ldr	r2, .L28+8
 366:.\IMU.c       ****         
 367:.\IMU.c       ****         UART_1_UartPutNum(acc_x_h);
 312              		.loc 1 367 0 is_stmt 1 discriminator 3
 313 0062 0020     		mov	r0, #0
 365:.\IMU.c       ****         I2CM_I2C_MASTER_GENERATE_STOP;
 314              		.loc 1 365 0 discriminator 3
 315 0064 1360     		str	r3, [r2]
 316              		.loc 1 367 0 discriminator 3
 317 0066 2056     		ldrsb	r0, [r4, r0]
 318 0068 FFF7FEFF 		bl	UART_1_UartPutNum
 319              	.LVL35:
 368:.\IMU.c       ****         UART_1_UartPutString(";");
 320              		.loc 1 368 0 discriminator 3
 321 006c 1F4D     		ldr	r5, .L28+12
 322 006e 281C     		mov	r0, r5
 323 0070 FFF7FEFF 		bl	UART_1_UartPutString
 324              	.LVL36:
 369:.\IMU.c       ****         UART_1_UartPutNum(acc_x_l);
 325              		.loc 1 369 0 discriminator 3
 326 0074 6078     		ldrb	r0, [r4, #1]
 327 0076 FFF7FEFF 		bl	UART_1_UartPutNum
 328              	.LVL37:
 370:.\IMU.c       ****         UART_1_UartPutString(";");
 329              		.loc 1 370 0 discriminator 3
 330 007a 281C     		mov	r0, r5
 331 007c FFF7FEFF 		bl	UART_1_UartPutString
 332              	.LVL38:
 371:.\IMU.c       ****         UART_1_UartPutNum(acc_y_h);
 333              		.loc 1 371 0 discriminator 3
 334 0080 0220     		mov	r0, #2
 335 0082 2056     		ldrsb	r0, [r4, r0]
 336 0084 FFF7FEFF 		bl	UART_1_UartPutNum
 337              	.LVL39:
 372:.\IMU.c       ****         UART_1_UartPutString(";");
 338              		.loc 1 372 0 discriminator 3
 339 0088 281C     		mov	r0, r5
 340 008a FFF7FEFF 		bl	UART_1_UartPutString
 341              	.LVL40:
 373:.\IMU.c       ****         UART_1_UartPutNum(acc_y_l);
 342              		.loc 1 373 0 discriminator 3
 343 008e E078     		ldrb	r0, [r4, #3]
 344 0090 FFF7FEFF 		bl	UART_1_UartPutNum
 345              	.LVL41:
 374:.\IMU.c       ****         UART_1_UartPutString(";");
 346              		.loc 1 374 0 discriminator 3
 347 0094 281C     		mov	r0, r5
 348 0096 FFF7FEFF 		bl	UART_1_UartPutString
 349              	.LVL42:
 375:.\IMU.c       ****         UART_1_UartPutNum(acc_z_h);
 350              		.loc 1 375 0 discriminator 3
 351 009a 0420     		mov	r0, #4
 352 009c 2056     		ldrsb	r0, [r4, r0]
 353 009e FFF7FEFF 		bl	UART_1_UartPutNum
 354              	.LVL43:
ARM GAS  C:\Users\Sven\AppData\Local\Temp\ccA3Jige.s 			page 14


 376:.\IMU.c       ****         UART_1_UartPutString(";");
 355              		.loc 1 376 0 discriminator 3
 356 00a2 281C     		mov	r0, r5
 357 00a4 FFF7FEFF 		bl	UART_1_UartPutString
 358              	.LVL44:
 377:.\IMU.c       ****         UART_1_UartPutNum(acc_z_l);
 359              		.loc 1 377 0 discriminator 3
 360 00a8 6079     		ldrb	r0, [r4, #5]
 361 00aa FFF7FEFF 		bl	UART_1_UartPutNum
 362              	.LVL45:
 378:.\IMU.c       ****         UART_1_UartPutString(";\r\n");
 363              		.loc 1 378 0 discriminator 3
 364 00ae 1048     		ldr	r0, .L28+16
 365 00b0 FFF7FEFF 		bl	UART_1_UartPutString
 366              	.LVL46:
 379:.\IMU.c       ****         
 380:.\IMU.c       ****         acc_x_g = (acc_x_h<<8) | (acc_x_l);
 367              		.loc 1 380 0 discriminator 3
 368 00b4 0022     		mov	r2, #0
 369 00b6 A256     		ldrsb	r2, [r4, r2]
 370 00b8 6378     		ldrb	r3, [r4, #1]
 371 00ba 1202     		lsl	r2, r2, #8
 372 00bc 1A43     		orr	r2, r3
 373 00be 0D4B     		ldr	r3, .L28+20
 374 00c0 1A80     		strh	r2, [r3]
 381:.\IMU.c       ****         acc_y_g = (acc_y_h<<8) | (acc_y_l);
 375              		.loc 1 381 0 discriminator 3
 376 00c2 0222     		mov	r2, #2
 377 00c4 A256     		ldrsb	r2, [r4, r2]
 378 00c6 E378     		ldrb	r3, [r4, #3]
 379 00c8 1202     		lsl	r2, r2, #8
 380 00ca 1A43     		orr	r2, r3
 381 00cc 0A4B     		ldr	r3, .L28+24
 382 00ce 1A80     		strh	r2, [r3]
 382:.\IMU.c       ****         acc_z_g = (acc_z_h<<8) | (acc_z_l);
 383              		.loc 1 382 0 discriminator 3
 384 00d0 0422     		mov	r2, #4
 385 00d2 A256     		ldrsb	r2, [r4, r2]
 386 00d4 6379     		ldrb	r3, [r4, #5]
 387 00d6 1202     		lsl	r2, r2, #8
 388 00d8 1A43     		orr	r2, r3
 389 00da 084B     		ldr	r3, .L28+28
 390 00dc 1A80     		strh	r2, [r3]
 391              	.L23:
 383:.\IMU.c       ****         // FS = 1: +-4G -> 16 bit -> 1 bit = 0.1mg => 10 bit = 1mg
 384:.\IMU.c       ****         // we do not need further calculation, the vector will be normed anyways
 385:.\IMU.c       ****         return;
 386:.\IMU.c       ****     }
 387:.\IMU.c       ****     else return;
 388:.\IMU.c       **** }
 392              		.loc 1 388 0
 393              		@ sp needed
 394 00de 38BD     		pop	{r3, r4, r5, pc}
 395              	.L29:
 396              		.align	2
 397              	.L28:
 398 00e0 00000000 		.word	.LANCHOR0
ARM GAS  C:\Users\Sven\AppData\Local\Temp\ccA3Jige.s 			page 15


 399 00e4 64000740 		.word	1074200676
 400 00e8 68000740 		.word	1074200680
 401 00ec 2B000000 		.word	.LC7
 402 00f0 2D000000 		.word	.LC9
 403 00f4 00000000 		.word	acc_x_g
 404 00f8 00000000 		.word	acc_y_g
 405 00fc 00000000 		.word	acc_z_g
 406              		.cfi_endproc
 407              	.LFE36:
 408              		.size	MPU6050_acc_read, .-MPU6050_acc_read
 409              		.global	__aeabi_idiv
 410              		.section	.text.MPU6050_gyro_read,"ax",%progbits
 411              		.align	1
 412              		.global	MPU6050_gyro_read
 413              		.code	16
 414              		.thumb_func
 415              		.type	MPU6050_gyro_read, %function
 416              	MPU6050_gyro_read:
 417              	.LFB37:
 389:.\IMU.c       **** 
 390:.\IMU.c       **** //#endif
 391:.\IMU.c       **** 
 392:.\IMU.c       **** void MPU6050_gyro_read(void)
 393:.\IMU.c       **** {
 418              		.loc 1 393 0
 419              		.cfi_startproc
 420 0000 38B5     		push	{r3, r4, r5, lr}
 421              		.cfi_def_cfa_offset 16
 422              		.cfi_offset 3, -16
 423              		.cfi_offset 4, -12
 424              		.cfi_offset 5, -8
 425              		.cfi_offset 14, -4
 394:.\IMU.c       ****     if(I2CM_I2CMasterSendStart(MPU6050_ADDRESS, WRITE)==0)
 426              		.loc 1 394 0
 427 0002 6820     		mov	r0, #104
 428 0004 0021     		mov	r1, #0
 429 0006 FFF7FEFF 		bl	I2CM_I2CMasterSendStart
 430              	.LVL47:
 431 000a 051E     		sub	r5, r0, #0
 432 000c 52D1     		bne	.L30
 395:.\IMU.c       ****     {
 396:.\IMU.c       ****         CyDelay(1);
 433              		.loc 1 396 0
 434 000e 0120     		mov	r0, #1
 435 0010 FFF7FEFF 		bl	CyDelay
 436              	.LVL48:
 397:.\IMU.c       ****     	I2CM_I2CMasterWriteByte(MPU6050_GYRO_XOUT_H); // auto increment if no NACK is sent by Master
 437              		.loc 1 397 0
 438 0014 4320     		mov	r0, #67
 439 0016 FFF7FEFF 		bl	I2CM_I2CMasterWriteByte
 440              	.LVL49:
 398:.\IMU.c       ****     	//UART_1_UartPutString("GYR W Reg Ok\r\n");
 399:.\IMU.c       ****         I2CM_I2CMasterSendRestart(MPU6050_ADDRESS, READ);
 441              		.loc 1 399 0
 442 001a 0121     		mov	r1, #1
 443 001c 6820     		mov	r0, #104
 444 001e FFF7FEFF 		bl	I2CM_I2CMasterSendRestart
ARM GAS  C:\Users\Sven\AppData\Local\Temp\ccA3Jige.s 			page 16


 445              	.LVL50:
 400:.\IMU.c       ****         //UART_1_UartPutString("GYR Rest Ok\r\n");
 401:.\IMU.c       ****     	gyro_x_h = I2CM_I2CMasterReadByte(ACK);     // XOUT H
 446              		.loc 1 401 0
 447 0022 281C     		mov	r0, r5
 448 0024 FFF7FEFF 		bl	I2CM_I2CMasterReadByte
 449              	.LVL51:
 450 0028 234C     		ldr	r4, .L35
 451 002a A071     		strb	r0, [r4, #6]
 402:.\IMU.c       ****         gyro_x_l = I2CM_I2CMasterReadByte(ACK);     // XOUT L
 452              		.loc 1 402 0
 453 002c 281C     		mov	r0, r5
 454 002e FFF7FEFF 		bl	I2CM_I2CMasterReadByte
 455              	.LVL52:
 456 0032 E071     		strb	r0, [r4, #7]
 403:.\IMU.c       ****         gyro_y_h = I2CM_I2CMasterReadByte(ACK);     // YOUT H
 457              		.loc 1 403 0
 458 0034 281C     		mov	r0, r5
 459 0036 FFF7FEFF 		bl	I2CM_I2CMasterReadByte
 460              	.LVL53:
 461 003a 2072     		strb	r0, [r4, #8]
 404:.\IMU.c       ****         gyro_y_l = I2CM_I2CMasterReadByte(ACK);     // YOUT L
 462              		.loc 1 404 0
 463 003c 281C     		mov	r0, r5
 464 003e FFF7FEFF 		bl	I2CM_I2CMasterReadByte
 465              	.LVL54:
 466 0042 6072     		strb	r0, [r4, #9]
 405:.\IMU.c       ****         gyro_z_h = I2CM_I2CMasterReadByte(ACK);     // ZOUT H
 467              		.loc 1 405 0
 468 0044 281C     		mov	r0, r5
 469 0046 FFF7FEFF 		bl	I2CM_I2CMasterReadByte
 470              	.LVL55:
 471 004a A072     		strb	r0, [r4, #10]
 406:.\IMU.c       ****         gyro_z_l = I2CM_I2CMasterReadByte(NACK);    // ZOUT L
 472              		.loc 1 406 0
 473 004c 0120     		mov	r0, #1
 474 004e FFF7FEFF 		bl	I2CM_I2CMasterReadByte
 475              	.LVL56:
 407:.\IMU.c       ****         I2CM_I2C_MASTER_GENERATE_STOP;
 476              		.loc 1 407 0
 477 0052 1A4B     		ldr	r3, .L35+4
 406:.\IMU.c       ****         gyro_z_l = I2CM_I2CMasterReadByte(NACK);    // ZOUT L
 478              		.loc 1 406 0
 479 0054 C0B2     		uxtb	r0, r0
 480 0056 E072     		strb	r0, [r4, #11]
 481              		.loc 1 407 0
 482 0058 1968     		ldr	r1, [r3]
 483 005a 1022     		mov	r2, #16
 484 005c 231C     		mov	r3, r4
 485 005e 8C06     		lsl	r4, r1, #26
 486 0060 00D5     		bpl	.L32
 487 0062 1822     		mov	r2, #24
 488              	.L32:
 489              		.loc 1 407 0 is_stmt 0 discriminator 3
 490 0064 1649     		ldr	r1, .L35+8
 408:.\IMU.c       ****         gyro_x = (gyro_x_h<<8) | (gyro_x_l);
 409:.\IMU.c       ****         gyro_y = (gyro_y_h<<8) | (gyro_y_l);
ARM GAS  C:\Users\Sven\AppData\Local\Temp\ccA3Jige.s 			page 17


 491              		.loc 1 409 0 is_stmt 1 discriminator 3
 492 0066 0825     		mov	r5, #8
 407:.\IMU.c       ****         I2CM_I2C_MASTER_GENERATE_STOP;
 493              		.loc 1 407 0 discriminator 3
 494 0068 0A60     		str	r2, [r1]
 408:.\IMU.c       ****         gyro_x = (gyro_x_h<<8) | (gyro_x_l);
 495              		.loc 1 408 0 discriminator 3
 496 006a 0622     		mov	r2, #6
 497 006c 9A56     		ldrsb	r2, [r3, r2]
 498 006e D979     		ldrb	r1, [r3, #7]
 499 0070 1202     		lsl	r2, r2, #8
 500 0072 0A43     		orr	r2, r1
 501 0074 92B2     		uxth	r2, r2
 502 0076 9A81     		strh	r2, [r3, #12]
 503              		.loc 1 409 0 discriminator 3
 504 0078 5D57     		ldrsb	r5, [r3, r5]
 505 007a 597A     		ldrb	r1, [r3, #9]
 506 007c 2D02     		lsl	r5, r5, #8
 507 007e 0D43     		orr	r5, r1
 508 0080 ADB2     		uxth	r5, r5
 509 0082 DD81     		strh	r5, [r3, #14]
 410:.\IMU.c       ****         gyro_z = (gyro_z_h<<8) | (gyro_z_l);
 510              		.loc 1 410 0 discriminator 3
 511 0084 0A24     		mov	r4, #10
 512 0086 1C57     		ldrsb	r4, [r3, r4]
 411:.\IMU.c       ****         
 412:.\IMU.c       ****         // FS = 0: +-250°/s -> 16 bit -> 1 bit = 0.00763°/s = 1/131°/s
 413:.\IMU.c       ****         turn_rate_p = gyro_x / 131;
 513              		.loc 1 413 0 discriminator 3
 514 0088 8321     		mov	r1, #131
 410:.\IMU.c       ****         gyro_z = (gyro_z_h<<8) | (gyro_z_l);
 515              		.loc 1 410 0 discriminator 3
 516 008a 2402     		lsl	r4, r4, #8
 517 008c 2043     		orr	r0, r4
 518 008e 84B2     		uxth	r4, r0
 519 0090 1C82     		strh	r4, [r3, #16]
 520              		.loc 1 413 0 discriminator 3
 521 0092 10B2     		sxth	r0, r2
 522 0094 FFF7FEFF 		bl	__aeabi_idiv
 523              	.LVL57:
 524 0098 0A4B     		ldr	r3, .L35+12
 414:.\IMU.c       ****         turn_rate_q = gyro_y / 131;
 525              		.loc 1 414 0 discriminator 3
 526 009a 8321     		mov	r1, #131
 413:.\IMU.c       ****         turn_rate_p = gyro_x / 131;
 527              		.loc 1 413 0 discriminator 3
 528 009c 1880     		strh	r0, [r3]
 529              		.loc 1 414 0 discriminator 3
 530 009e 28B2     		sxth	r0, r5
 531 00a0 FFF7FEFF 		bl	__aeabi_idiv
 532              	.LVL58:
 533 00a4 084B     		ldr	r3, .L35+16
 415:.\IMU.c       ****         turn_rate_r = gyro_z / 131;
 534              		.loc 1 415 0 discriminator 3
 535 00a6 8321     		mov	r1, #131
 414:.\IMU.c       ****         turn_rate_q = gyro_y / 131;
 536              		.loc 1 414 0 discriminator 3
ARM GAS  C:\Users\Sven\AppData\Local\Temp\ccA3Jige.s 			page 18


 537 00a8 1880     		strh	r0, [r3]
 538              		.loc 1 415 0 discriminator 3
 539 00aa 20B2     		sxth	r0, r4
 540 00ac FFF7FEFF 		bl	__aeabi_idiv
 541              	.LVL59:
 542 00b0 064B     		ldr	r3, .L35+20
 543 00b2 1880     		strh	r0, [r3]
 544              	.L30:
 416:.\IMU.c       ****         return;
 417:.\IMU.c       ****     }
 418:.\IMU.c       **** }
 545              		.loc 1 418 0
 546              		@ sp needed
 547 00b4 38BD     		pop	{r3, r4, r5, pc}
 548              	.L36:
 549 00b6 C046     		.align	2
 550              	.L35:
 551 00b8 00000000 		.word	.LANCHOR0
 552 00bc 64000740 		.word	1074200676
 553 00c0 68000740 		.word	1074200680
 554 00c4 00000000 		.word	turn_rate_p
 555 00c8 00000000 		.word	turn_rate_q
 556 00cc 00000000 		.word	turn_rate_r
 557              		.cfi_endproc
 558              	.LFE37:
 559              		.size	MPU6050_gyro_read, .-MPU6050_gyro_read
 560              		.section	.text.MPU6050_data_read,"ax",%progbits
 561              		.align	1
 562              		.global	MPU6050_data_read
 563              		.code	16
 564              		.thumb_func
 565              		.type	MPU6050_data_read, %function
 566              	MPU6050_data_read:
 567              	.LFB38:
 419:.\IMU.c       **** void MPU6050_data_read(void)
 420:.\IMU.c       **** {
 568              		.loc 1 420 0
 569              		.cfi_startproc
 570 0000 70B5     		push	{r4, r5, r6, lr}
 571              		.cfi_def_cfa_offset 16
 572              		.cfi_offset 4, -16
 573              		.cfi_offset 5, -12
 574              		.cfi_offset 6, -8
 575              		.cfi_offset 14, -4
 421:.\IMU.c       ****     
 422:.\IMU.c       ****     if (imu_conn == 1)
 576              		.loc 1 422 0
 577 0002 494B     		ldr	r3, .L44
 578 0004 1E78     		ldrb	r6, [r3]
 579 0006 012E     		cmp	r6, #1
 580 0008 00D0     		beq	.LCB467
 581 000a 8CE0     		b	.L37	@long jump
 582              	.LCB467:
 423:.\IMU.c       ****     {
 424:.\IMU.c       ****         if(I2CM_I2CMasterSendStart(MPU6050_ADDRESS, WRITE)==0)  /* Only enter if Start succeeded */
 583              		.loc 1 424 0
 584 000c 6820     		mov	r0, #104
ARM GAS  C:\Users\Sven\AppData\Local\Temp\ccA3Jige.s 			page 19


 585 000e 0021     		mov	r1, #0
 586 0010 FFF7FEFF 		bl	I2CM_I2CMasterSendStart
 587              	.LVL60:
 588 0014 041E     		sub	r4, r0, #0
 589 0016 00D0     		beq	.LCB474
 590 0018 85E0     		b	.L37	@long jump
 591              	.LCB474:
 592              	.LBB2:
 425:.\IMU.c       ****         {
 426:.\IMU.c       ****             CyDelay(1);
 593              		.loc 1 426 0
 594 001a 301C     		mov	r0, r6
 595 001c FFF7FEFF 		bl	CyDelay
 596              	.LVL61:
 427:.\IMU.c       ****         	I2CM_I2CMasterWriteByte(MPU6050_ACC_XOUT_H); // auto increment if no NACK is sent by Maste
 597              		.loc 1 427 0
 598 0020 3B20     		mov	r0, #59
 599 0022 FFF7FEFF 		bl	I2CM_I2CMasterWriteByte
 600              	.LVL62:
 428:.\IMU.c       ****         	//UART_1_UartPutString("GYR W Reg Ok\r\n");
 429:.\IMU.c       ****             I2CM_I2CMasterSendRestart(MPU6050_ADDRESS, READ);
 601              		.loc 1 429 0
 602 0026 311C     		mov	r1, r6
 603 0028 6820     		mov	r0, #104
 604 002a FFF7FEFF 		bl	I2CM_I2CMasterSendRestart
 605              	.LVL63:
 430:.\IMU.c       ****             //UART_1_UartPutString("GYR Rest Ok\r\n");
 431:.\IMU.c       ****         	acc_x_h = I2CM_I2CMasterReadByte(ACK);     // XOUT H
 606              		.loc 1 431 0
 607 002e 201C     		mov	r0, r4
 608 0030 FFF7FEFF 		bl	I2CM_I2CMasterReadByte
 609              	.LVL64:
 610 0034 3D4D     		ldr	r5, .L44+4
 611 0036 2870     		strb	r0, [r5]
 432:.\IMU.c       ****             acc_x_l = I2CM_I2CMasterReadByte(ACK);     // XOUT L
 612              		.loc 1 432 0
 613 0038 201C     		mov	r0, r4
 614 003a FFF7FEFF 		bl	I2CM_I2CMasterReadByte
 615              	.LVL65:
 616 003e 6870     		strb	r0, [r5, #1]
 433:.\IMU.c       ****             acc_y_h = I2CM_I2CMasterReadByte(ACK);     // YOUT H
 617              		.loc 1 433 0
 618 0040 201C     		mov	r0, r4
 619 0042 FFF7FEFF 		bl	I2CM_I2CMasterReadByte
 620              	.LVL66:
 621 0046 A870     		strb	r0, [r5, #2]
 434:.\IMU.c       ****             acc_y_l = I2CM_I2CMasterReadByte(ACK);     // YOUT L
 622              		.loc 1 434 0
 623 0048 201C     		mov	r0, r4
 624 004a FFF7FEFF 		bl	I2CM_I2CMasterReadByte
 625              	.LVL67:
 626 004e E870     		strb	r0, [r5, #3]
 435:.\IMU.c       ****             acc_z_h = I2CM_I2CMasterReadByte(ACK);     // ZOUT H
 627              		.loc 1 435 0
 628 0050 201C     		mov	r0, r4
 629 0052 FFF7FEFF 		bl	I2CM_I2CMasterReadByte
 630              	.LVL68:
ARM GAS  C:\Users\Sven\AppData\Local\Temp\ccA3Jige.s 			page 20


 631 0056 2871     		strb	r0, [r5, #4]
 436:.\IMU.c       ****             acc_z_l = I2CM_I2CMasterReadByte(ACK);     // ZOUT L
 632              		.loc 1 436 0
 633 0058 201C     		mov	r0, r4
 634 005a FFF7FEFF 		bl	I2CM_I2CMasterReadByte
 635              	.LVL69:
 636 005e 6871     		strb	r0, [r5, #5]
 437:.\IMU.c       ****             int8_t  temp_h = I2CM_I2CMasterReadByte(ACK);   // Temperature H
 637              		.loc 1 437 0
 638 0060 201C     		mov	r0, r4
 639 0062 FFF7FEFF 		bl	I2CM_I2CMasterReadByte
 640              	.LVL70:
 438:.\IMU.c       ****             uint8_t temp_l = I2CM_I2CMasterReadByte(ACK);   // Temperature L
 641              		.loc 1 438 0
 642 0066 201C     		mov	r0, r4
 643 0068 FFF7FEFF 		bl	I2CM_I2CMasterReadByte
 644              	.LVL71:
 439:.\IMU.c       ****             gyro_x_h = I2CM_I2CMasterReadByte(ACK);     // XOUT H
 645              		.loc 1 439 0
 646 006c 201C     		mov	r0, r4
 647 006e FFF7FEFF 		bl	I2CM_I2CMasterReadByte
 648              	.LVL72:
 649 0072 A871     		strb	r0, [r5, #6]
 440:.\IMU.c       ****             gyro_x_l = I2CM_I2CMasterReadByte(ACK);     // XOUT L
 650              		.loc 1 440 0
 651 0074 201C     		mov	r0, r4
 652 0076 FFF7FEFF 		bl	I2CM_I2CMasterReadByte
 653              	.LVL73:
 654 007a E871     		strb	r0, [r5, #7]
 441:.\IMU.c       ****             gyro_y_h = I2CM_I2CMasterReadByte(ACK);     // YOUT H
 655              		.loc 1 441 0
 656 007c 201C     		mov	r0, r4
 657 007e FFF7FEFF 		bl	I2CM_I2CMasterReadByte
 658              	.LVL74:
 659 0082 2872     		strb	r0, [r5, #8]
 442:.\IMU.c       ****             gyro_y_l = I2CM_I2CMasterReadByte(ACK);     // YOUT L
 660              		.loc 1 442 0
 661 0084 201C     		mov	r0, r4
 662 0086 FFF7FEFF 		bl	I2CM_I2CMasterReadByte
 663              	.LVL75:
 664 008a 6872     		strb	r0, [r5, #9]
 443:.\IMU.c       ****             gyro_z_h = I2CM_I2CMasterReadByte(ACK);     // ZOUT H
 665              		.loc 1 443 0
 666 008c 201C     		mov	r0, r4
 667 008e FFF7FEFF 		bl	I2CM_I2CMasterReadByte
 668              	.LVL76:
 669 0092 A872     		strb	r0, [r5, #10]
 444:.\IMU.c       ****             gyro_z_l = I2CM_I2CMasterReadByte(NACK);    // ZOUT L     
 670              		.loc 1 444 0
 671 0094 301C     		mov	r0, r6
 672 0096 FFF7FEFF 		bl	I2CM_I2CMasterReadByte
 673              	.LVL77:
 445:.\IMU.c       ****             I2CM_I2C_MASTER_GENERATE_STOP;
 674              		.loc 1 445 0
 675 009a 254B     		ldr	r3, .L44+8
 444:.\IMU.c       ****             gyro_z_l = I2CM_I2CMasterReadByte(NACK);    // ZOUT L     
 676              		.loc 1 444 0
ARM GAS  C:\Users\Sven\AppData\Local\Temp\ccA3Jige.s 			page 21


 677 009c C0B2     		uxtb	r0, r0
 678 009e E872     		strb	r0, [r5, #11]
 679              		.loc 1 445 0
 680 00a0 1968     		ldr	r1, [r3]
 681 00a2 1022     		mov	r2, #16
 682 00a4 2B1C     		mov	r3, r5
 683 00a6 8C06     		lsl	r4, r1, #26
 684 00a8 00D5     		bpl	.L41
 685 00aa 1822     		mov	r2, #24
 686              	.L41:
 687              		.loc 1 445 0 is_stmt 0 discriminator 3
 688 00ac 2149     		ldr	r1, .L44+12
 446:.\IMU.c       ****             
 447:.\IMU.c       ****             acc_x_g = (acc_x_h<<8) | (acc_x_l);
 448:.\IMU.c       ****             acc_y_g = (acc_y_h<<8) | (acc_y_l);
 449:.\IMU.c       ****             acc_z_g = (acc_z_h<<8) | (acc_z_l);
 450:.\IMU.c       ****             
 451:.\IMU.c       ****             gyro_x = (gyro_x_h<<8) | (gyro_x_l);
 452:.\IMU.c       ****             gyro_y = (gyro_y_h<<8) | (gyro_y_l);
 689              		.loc 1 452 0 is_stmt 1 discriminator 3
 690 00ae 0825     		mov	r5, #8
 445:.\IMU.c       ****             I2CM_I2C_MASTER_GENERATE_STOP;
 691              		.loc 1 445 0 discriminator 3
 692 00b0 0A60     		str	r2, [r1]
 447:.\IMU.c       ****             acc_x_g = (acc_x_h<<8) | (acc_x_l);
 693              		.loc 1 447 0 discriminator 3
 694 00b2 0021     		mov	r1, #0
 695 00b4 5956     		ldrsb	r1, [r3, r1]
 696 00b6 5A78     		ldrb	r2, [r3, #1]
 697 00b8 0902     		lsl	r1, r1, #8
 698 00ba 1143     		orr	r1, r2
 699 00bc 1E4A     		ldr	r2, .L44+16
 453:.\IMU.c       ****             gyro_z = (gyro_z_h<<8) | (gyro_z_l);
 700              		.loc 1 453 0 discriminator 3
 701 00be 0A24     		mov	r4, #10
 447:.\IMU.c       ****             acc_x_g = (acc_x_h<<8) | (acc_x_l);
 702              		.loc 1 447 0 discriminator 3
 703 00c0 1180     		strh	r1, [r2]
 448:.\IMU.c       ****             acc_y_g = (acc_y_h<<8) | (acc_y_l);
 704              		.loc 1 448 0 discriminator 3
 705 00c2 0221     		mov	r1, #2
 706 00c4 5956     		ldrsb	r1, [r3, r1]
 707 00c6 DA78     		ldrb	r2, [r3, #3]
 708 00c8 0902     		lsl	r1, r1, #8
 709 00ca 1143     		orr	r1, r2
 710 00cc 1B4A     		ldr	r2, .L44+20
 711 00ce 1180     		strh	r1, [r2]
 449:.\IMU.c       ****             acc_z_g = (acc_z_h<<8) | (acc_z_l);
 712              		.loc 1 449 0 discriminator 3
 713 00d0 0421     		mov	r1, #4
 714 00d2 5956     		ldrsb	r1, [r3, r1]
 715 00d4 5A79     		ldrb	r2, [r3, #5]
 716 00d6 0902     		lsl	r1, r1, #8
 717 00d8 1143     		orr	r1, r2
 718 00da 194A     		ldr	r2, .L44+24
 719 00dc 1180     		strh	r1, [r2]
 451:.\IMU.c       ****             gyro_x = (gyro_x_h<<8) | (gyro_x_l);
ARM GAS  C:\Users\Sven\AppData\Local\Temp\ccA3Jige.s 			page 22


 720              		.loc 1 451 0 discriminator 3
 721 00de 0622     		mov	r2, #6
 722 00e0 9A56     		ldrsb	r2, [r3, r2]
 723 00e2 D979     		ldrb	r1, [r3, #7]
 724 00e4 1202     		lsl	r2, r2, #8
 725 00e6 0A43     		orr	r2, r1
 726 00e8 92B2     		uxth	r2, r2
 727 00ea 9A81     		strh	r2, [r3, #12]
 452:.\IMU.c       ****             gyro_y = (gyro_y_h<<8) | (gyro_y_l);
 728              		.loc 1 452 0 discriminator 3
 729 00ec 5D57     		ldrsb	r5, [r3, r5]
 730 00ee 597A     		ldrb	r1, [r3, #9]
 731 00f0 2D02     		lsl	r5, r5, #8
 732 00f2 0D43     		orr	r5, r1
 733 00f4 ADB2     		uxth	r5, r5
 734 00f6 DD81     		strh	r5, [r3, #14]
 735              		.loc 1 453 0 discriminator 3
 736 00f8 1C57     		ldrsb	r4, [r3, r4]
 454:.\IMU.c       ****             
 455:.\IMU.c       ****             // FS = 0: +-250°/s -> 16 bit -> 1 bit = 0.00763°/s = 1/131°/s
 456:.\IMU.c       ****             turn_rate_p = gyro_x / 131;
 737              		.loc 1 456 0 discriminator 3
 738 00fa 8321     		mov	r1, #131
 453:.\IMU.c       ****             gyro_z = (gyro_z_h<<8) | (gyro_z_l);
 739              		.loc 1 453 0 discriminator 3
 740 00fc 2402     		lsl	r4, r4, #8
 741 00fe 2043     		orr	r0, r4
 742 0100 84B2     		uxth	r4, r0
 743 0102 1C82     		strh	r4, [r3, #16]
 744              		.loc 1 456 0 discriminator 3
 745 0104 10B2     		sxth	r0, r2
 746 0106 FFF7FEFF 		bl	__aeabi_idiv
 747              	.LVL78:
 748 010a 0E4B     		ldr	r3, .L44+28
 457:.\IMU.c       ****             turn_rate_q = gyro_y / 131;
 749              		.loc 1 457 0 discriminator 3
 750 010c 8321     		mov	r1, #131
 456:.\IMU.c       ****             turn_rate_p = gyro_x / 131;
 751              		.loc 1 456 0 discriminator 3
 752 010e 1880     		strh	r0, [r3]
 753              		.loc 1 457 0 discriminator 3
 754 0110 28B2     		sxth	r0, r5
 755 0112 FFF7FEFF 		bl	__aeabi_idiv
 756              	.LVL79:
 757 0116 0C4B     		ldr	r3, .L44+32
 458:.\IMU.c       ****             turn_rate_r = gyro_z / 131;
 758              		.loc 1 458 0 discriminator 3
 759 0118 8321     		mov	r1, #131
 457:.\IMU.c       ****             turn_rate_q = gyro_y / 131;
 760              		.loc 1 457 0 discriminator 3
 761 011a 1880     		strh	r0, [r3]
 762              		.loc 1 458 0 discriminator 3
 763 011c 20B2     		sxth	r0, r4
 764 011e FFF7FEFF 		bl	__aeabi_idiv
 765              	.LVL80:
 766 0122 0A4B     		ldr	r3, .L44+36
 767 0124 1880     		strh	r0, [r3]
ARM GAS  C:\Users\Sven\AppData\Local\Temp\ccA3Jige.s 			page 23


 768              	.L37:
 769              	.LBE2:
 459:.\IMU.c       ****             return;
 460:.\IMU.c       ****         }    
 461:.\IMU.c       ****         else return;
 462:.\IMU.c       ****     }
 463:.\IMU.c       ****     else return;
 464:.\IMU.c       **** }
 770              		.loc 1 464 0
 771              		@ sp needed
 772 0126 70BD     		pop	{r4, r5, r6, pc}
 773              	.L45:
 774              		.align	2
 775              	.L44:
 776 0128 00000000 		.word	imu_conn
 777 012c 00000000 		.word	.LANCHOR0
 778 0130 64000740 		.word	1074200676
 779 0134 68000740 		.word	1074200680
 780 0138 00000000 		.word	acc_x_g
 781 013c 00000000 		.word	acc_y_g
 782 0140 00000000 		.word	acc_z_g
 783 0144 00000000 		.word	turn_rate_p
 784 0148 00000000 		.word	turn_rate_q
 785 014c 00000000 		.word	turn_rate_r
 786              		.cfi_endproc
 787              	.LFE38:
 788              		.size	MPU6050_data_read, .-MPU6050_data_read
 789              		.section	.text.HMC_Init,"ax",%progbits
 790              		.align	1
 791              		.global	HMC_Init
 792              		.code	16
 793              		.thumb_func
 794              		.type	HMC_Init, %function
 795              	HMC_Init:
 796              	.LFB39:
 465:.\IMU.c       **** 
 466:.\IMU.c       **** /*===========================*/
 467:.\IMU.c       **** /*      HMC5883L           */
 468:.\IMU.c       **** /*===========================*/
 469:.\IMU.c       **** 
 470:.\IMU.c       **** void HMC_Init(void)
 471:.\IMU.c       **** {
 797              		.loc 1 471 0
 798              		.cfi_startproc
 799 0000 38B5     		push	{r3, r4, r5, lr}
 800              		.cfi_def_cfa_offset 16
 801              		.cfi_offset 3, -16
 802              		.cfi_offset 4, -12
 803              		.cfi_offset 5, -8
 804              		.cfi_offset 14, -4
 472:.\IMU.c       ****     //uint32 hmc_start = I2CM_I2CMasterSendStart(HMC_ADDRESS, WRITE);
 473:.\IMU.c       ****     if(I2CM_I2CMasterSendStart(HMC_ADDRESS, WRITE) == 0)  // only if no error present -> continue
 805              		.loc 1 473 0
 806 0002 1E20     		mov	r0, #30
 807 0004 0021     		mov	r1, #0
 808 0006 FFF7FEFF 		bl	I2CM_I2CMasterSendStart
 809              	.LVL81:
ARM GAS  C:\Users\Sven\AppData\Local\Temp\ccA3Jige.s 			page 24


 810 000a 041E     		sub	r4, r0, #0
 811 000c 3ED1     		bne	.L47
 474:.\IMU.c       ****     {
 475:.\IMU.c       ****     CyDelay(1);
 812              		.loc 1 475 0
 813 000e 0120     		mov	r0, #1
 814 0010 FFF7FEFF 		bl	CyDelay
 815              	.LVL82:
 476:.\IMU.c       **** 	I2CM_I2CMasterWriteByte(HMC_CONFIG_A);
 477:.\IMU.c       ****     I2CM_I2CMasterWriteByte(0b01110000);    // sets CRA6/CRA5/CRA 4 = Averaged over 8 samples, 15Hz
 478:.\IMU.c       ****     I2CM_I2C_MASTER_GENERATE_STOP;
 816              		.loc 1 478 0
 817 0014 1F4D     		ldr	r5, .L59
 476:.\IMU.c       **** 	I2CM_I2CMasterWriteByte(HMC_CONFIG_A);
 818              		.loc 1 476 0
 819 0016 201C     		mov	r0, r4
 820 0018 FFF7FEFF 		bl	I2CM_I2CMasterWriteByte
 821              	.LVL83:
 477:.\IMU.c       ****     I2CM_I2CMasterWriteByte(0b01110000);    // sets CRA6/CRA5/CRA 4 = Averaged over 8 samples, 15Hz
 822              		.loc 1 477 0
 823 001c 7020     		mov	r0, #112
 824 001e FFF7FEFF 		bl	I2CM_I2CMasterWriteByte
 825              	.LVL84:
 826              		.loc 1 478 0
 827 0022 2A68     		ldr	r2, [r5]
 828 0024 1023     		mov	r3, #16
 829 0026 9106     		lsl	r1, r2, #26
 830 0028 00D5     		bpl	.L48
 831 002a 1823     		mov	r3, #24
 832              	.L48:
 833              		.loc 1 478 0 is_stmt 0 discriminator 3
 834 002c 1A4C     		ldr	r4, .L59+4
 479:.\IMU.c       ****     
 480:.\IMU.c       ****     CyDelay(1);
 835              		.loc 1 480 0 is_stmt 1 discriminator 3
 836 002e 0120     		mov	r0, #1
 478:.\IMU.c       ****     I2CM_I2C_MASTER_GENERATE_STOP;
 837              		.loc 1 478 0 discriminator 3
 838 0030 2360     		str	r3, [r4]
 839              		.loc 1 480 0 discriminator 3
 840 0032 FFF7FEFF 		bl	CyDelay
 841              	.LVL85:
 481:.\IMU.c       ****     
 482:.\IMU.c       ****     I2CM_I2CMasterSendStart(HMC_ADDRESS, WRITE);
 842              		.loc 1 482 0 discriminator 3
 843 0036 0021     		mov	r1, #0
 844 0038 1E20     		mov	r0, #30
 845 003a FFF7FEFF 		bl	I2CM_I2CMasterSendStart
 846              	.LVL86:
 483:.\IMU.c       ****     CyDelay(1);
 847              		.loc 1 483 0 discriminator 3
 848 003e 0120     		mov	r0, #1
 849 0040 FFF7FEFF 		bl	CyDelay
 850              	.LVL87:
 484:.\IMU.c       **** 	I2CM_I2CMasterWriteByte(HMC_CONFIG_B);  // Select CRB for sensitivity
 851              		.loc 1 484 0 discriminator 3
 852 0044 0120     		mov	r0, #1
ARM GAS  C:\Users\Sven\AppData\Local\Temp\ccA3Jige.s 			page 25


 853 0046 FFF7FEFF 		bl	I2CM_I2CMasterWriteByte
 854              	.LVL88:
 485:.\IMU.c       ****     I2CM_I2CMasterWriteByte(0b00100000);    // default setting: 00100000 = 1090 LSB/Gauss
 855              		.loc 1 485 0 discriminator 3
 856 004a 2020     		mov	r0, #32
 857 004c FFF7FEFF 		bl	I2CM_I2CMasterWriteByte
 858              	.LVL89:
 486:.\IMU.c       ****     I2CM_I2C_MASTER_GENERATE_STOP;
 859              		.loc 1 486 0 discriminator 3
 860 0050 2A68     		ldr	r2, [r5]
 861 0052 1023     		mov	r3, #16
 862 0054 9106     		lsl	r1, r2, #26
 863 0056 00D5     		bpl	.L49
 864              		.loc 1 486 0 is_stmt 0
 865 0058 1823     		mov	r3, #24
 866              	.L49:
 867              		.loc 1 486 0 discriminator 3
 868 005a 2360     		str	r3, [r4]
 487:.\IMU.c       ****     
 488:.\IMU.c       ****     CyDelay(1);
 869              		.loc 1 488 0 is_stmt 1 discriminator 3
 870 005c 0120     		mov	r0, #1
 871 005e FFF7FEFF 		bl	CyDelay
 872              	.LVL90:
 489:.\IMU.c       ****     
 490:.\IMU.c       ****     
 491:.\IMU.c       ****     I2CM_I2CMasterSendStart(HMC_ADDRESS, WRITE);
 873              		.loc 1 491 0 discriminator 3
 874 0062 0021     		mov	r1, #0
 875 0064 1E20     		mov	r0, #30
 876 0066 FFF7FEFF 		bl	I2CM_I2CMasterSendStart
 877              	.LVL91:
 492:.\IMU.c       ****     CyDelay(1);
 878              		.loc 1 492 0 discriminator 3
 879 006a 0120     		mov	r0, #1
 880 006c FFF7FEFF 		bl	CyDelay
 881              	.LVL92:
 493:.\IMU.c       **** 	I2CM_I2CMasterWriteByte(HMC_MODE);      // Select CRB for sensitivity
 882              		.loc 1 493 0 discriminator 3
 883 0070 0220     		mov	r0, #2
 884 0072 FFF7FEFF 		bl	I2CM_I2CMasterWriteByte
 885              	.LVL93:
 494:.\IMU.c       ****     I2CM_I2CMasterWriteByte(0b00000000);    // Select continuous measurement mode
 886              		.loc 1 494 0 discriminator 3
 887 0076 0020     		mov	r0, #0
 888 0078 FFF7FEFF 		bl	I2CM_I2CMasterWriteByte
 889              	.LVL94:
 495:.\IMU.c       ****     I2CM_I2C_MASTER_GENERATE_STOP;
 890              		.loc 1 495 0 discriminator 3
 891 007c 2A68     		ldr	r2, [r5]
 892 007e 1023     		mov	r3, #16
 893 0080 9106     		lsl	r1, r2, #26
 894 0082 00D5     		bpl	.L50
 895              		.loc 1 495 0 is_stmt 0
 896 0084 1823     		mov	r3, #24
 897              	.L50:
 898              		.loc 1 495 0 discriminator 1
ARM GAS  C:\Users\Sven\AppData\Local\Temp\ccA3Jige.s 			page 26


 899 0086 2360     		str	r3, [r4]
 496:.\IMU.c       ****     
 497:.\IMU.c       ****     UART_1_UartPutString("HMC Initiated\r\n");
 900              		.loc 1 497 0 is_stmt 1 discriminator 1
 901 0088 0448     		ldr	r0, .L59+8
 902 008a 00E0     		b	.L58
 903              	.L47:
 498:.\IMU.c       ****     }
 499:.\IMU.c       ****     // else there is an error
 500:.\IMU.c       ****     else UART_1_UartPutString("HMC Not Ready\r\n");
 904              		.loc 1 500 0
 905 008c 0448     		ldr	r0, .L59+12
 906              	.L58:
 907 008e FFF7FEFF 		bl	UART_1_UartPutString
 908              	.LVL95:
 501:.\IMU.c       **** }
 909              		.loc 1 501 0
 910              		@ sp needed
 911 0092 38BD     		pop	{r3, r4, r5, pc}
 912              	.L60:
 913              		.align	2
 914              	.L59:
 915 0094 64000740 		.word	1074200676
 916 0098 68000740 		.word	1074200680
 917 009c 31000000 		.word	.LC52
 918 00a0 41000000 		.word	.LC54
 919              		.cfi_endproc
 920              	.LFE39:
 921              		.size	HMC_Init, .-HMC_Init
 922              		.global	__aeabi_i2d
 923              		.global	__aeabi_dmul
 924              		.global	__aeabi_d2iz
 925              		.section	.text.HMC_data_read,"ax",%progbits
 926              		.align	1
 927              		.global	HMC_data_read
 928              		.code	16
 929              		.thumb_func
 930              		.type	HMC_data_read, %function
 931              	HMC_data_read:
 932              	.LFB40:
 502:.\IMU.c       **** 
 503:.\IMU.c       **** void HMC_data_read(void)
 504:.\IMU.c       **** {
 933              		.loc 1 504 0
 934              		.cfi_startproc
 935 0000 F8B5     		push	{r3, r4, r5, r6, r7, lr}
 936              		.cfi_def_cfa_offset 24
 937              		.cfi_offset 3, -24
 938              		.cfi_offset 4, -20
 939              		.cfi_offset 5, -16
 940              		.cfi_offset 6, -12
 941              		.cfi_offset 7, -8
 942              		.cfi_offset 14, -4
 505:.\IMU.c       ****     
 506:.\IMU.c       ****     //uint8_t status = 0;
 507:.\IMU.c       ****     // 1 - check if Data is available
 508:.\IMU.c       ****     //uint32 hmc_start = I2CM_I2CMasterSendStart(HMC_ADDRESS, WRITE);
ARM GAS  C:\Users\Sven\AppData\Local\Temp\ccA3Jige.s 			page 27


 509:.\IMU.c       ****     /*
 510:.\IMU.c       ****     if(I2CM_I2CMasterSendStart(HMC_ADDRESS, WRITE) == 0)  // only if no error present -> continue
 511:.\IMU.c       ****     {
 512:.\IMU.c       ****         //UART_1_UartPutString("HMC TRY\r\n");
 513:.\IMU.c       ****         CyDelay(1);
 514:.\IMU.c       ****     	I2CM_I2CMasterWriteByte(HMC_STATUS); // Set pointer to HMC Status register
 515:.\IMU.c       ****         I2CM_I2C_MASTER_GENERATE_STOP;
 516:.\IMU.c       ****         CyDelay(1);
 517:.\IMU.c       ****         //UART_1_UartPutString("HMC TRY 1\r\n");
 518:.\IMU.c       ****         I2CM_I2CMasterSendStart(HMC_ADDRESS, READ);
 519:.\IMU.c       ****         //UART_1_UartPutString("HMC TRY 2\r\n");
 520:.\IMU.c       ****         //I2CM_I2CMasterWriteByte(0x01);      // read 1 Byte 
 521:.\IMU.c       ****         //UART_1_UartPutString("HMC TRY 3\r\n");
 522:.\IMU.c       ****         status = I2CM_I2CMasterReadByte(NACK);     // MAG YOUT L
 523:.\IMU.c       ****         //UART_1_UartPutString("HMC TRY 4\r\n");
 524:.\IMU.c       ****         I2CM_I2C_MASTER_GENERATE_STOP;
 525:.\IMU.c       ****         CyDelay(1);
 526:.\IMU.c       ****     }
 527:.\IMU.c       ****     else UART_1_UartPutString("NRDY\r\n");
 528:.\IMU.c       ****     // 2 - read data if data available
 529:.\IMU.c       ****     */
 530:.\IMU.c       ****         if(I2CM_I2CMasterSendStart(HMC_ADDRESS, WRITE)==0)
 943              		.loc 1 530 0
 944 0002 1E20     		mov	r0, #30
 945 0004 0021     		mov	r1, #0
 946 0006 FFF7FEFF 		bl	I2CM_I2CMasterSendStart
 947              	.LVL96:
 948 000a 0028     		cmp	r0, #0
 949 000c 5ED1     		bne	.L61
 531:.\IMU.c       ****         {
 532:.\IMU.c       ****         //CyDelay(1);
 533:.\IMU.c       ****     	I2CM_I2CMasterWriteByte(HMC_OUT_X_H);       // auto increment if no NACK is sent by Master
 534:.\IMU.c       ****         //CyDelay(1);
 535:.\IMU.c       ****         I2CM_I2C_MASTER_GENERATE_STOP;
 950              		.loc 1 535 0
 951 000e 324F     		ldr	r7, .L69+8
 533:.\IMU.c       ****     	I2CM_I2CMasterWriteByte(HMC_OUT_X_H);       // auto increment if no NACK is sent by Master
 952              		.loc 1 533 0
 953 0010 0320     		mov	r0, #3
 954 0012 FFF7FEFF 		bl	I2CM_I2CMasterWriteByte
 955              	.LVL97:
 956              		.loc 1 535 0
 957 0016 3A68     		ldr	r2, [r7]
 958 0018 1023     		mov	r3, #16
 959 001a 9106     		lsl	r1, r2, #26
 960 001c 00D5     		bpl	.L63
 961 001e 1823     		mov	r3, #24
 962              	.L63:
 963              		.loc 1 535 0 is_stmt 0 discriminator 3
 964 0020 2E4E     		ldr	r6, .L69+12
 536:.\IMU.c       ****         CyDelay(1);
 965              		.loc 1 536 0 is_stmt 1 discriminator 3
 966 0022 0120     		mov	r0, #1
 535:.\IMU.c       ****         I2CM_I2C_MASTER_GENERATE_STOP;
 967              		.loc 1 535 0 discriminator 3
 968 0024 3360     		str	r3, [r6]
 969              		.loc 1 536 0 discriminator 3
ARM GAS  C:\Users\Sven\AppData\Local\Temp\ccA3Jige.s 			page 28


 970 0026 FFF7FEFF 		bl	CyDelay
 971              	.LVL98:
 537:.\IMU.c       ****         
 538:.\IMU.c       ****         
 539:.\IMU.c       ****         I2CM_I2CMasterSendStart(HMC_ADDRESS, READ);
 972              		.loc 1 539 0 discriminator 3
 973 002a 0121     		mov	r1, #1
 974 002c 1E20     		mov	r0, #30
 975 002e FFF7FEFF 		bl	I2CM_I2CMasterSendStart
 976              	.LVL99:
 540:.\IMU.c       ****         //CyDelay(1);
 541:.\IMU.c       ****         //CyDelay(1);
 542:.\IMU.c       ****         //I2CM_I2CMasterWriteByte(0x06);              // read six bytes
 543:.\IMU.c       ****         mag_x_h = I2CM_I2CMasterReadByte(ACK);     // MAG XOUT H
 977              		.loc 1 543 0 discriminator 3
 978 0032 0020     		mov	r0, #0
 979 0034 FFF7FEFF 		bl	I2CM_I2CMasterReadByte
 980              	.LVL100:
 981 0038 294C     		ldr	r4, .L69+16
 982 003a A074     		strb	r0, [r4, #18]
 544:.\IMU.c       ****         mag_x_l = I2CM_I2CMasterReadByte(ACK);     // MAG XOUT L
 983              		.loc 1 544 0 discriminator 3
 984 003c 0020     		mov	r0, #0
 985 003e FFF7FEFF 		bl	I2CM_I2CMasterReadByte
 986              	.LVL101:
 987 0042 E074     		strb	r0, [r4, #19]
 545:.\IMU.c       ****         mag_z_h = I2CM_I2CMasterReadByte(ACK);     // MAG ZOUT H
 988              		.loc 1 545 0 discriminator 3
 989 0044 0020     		mov	r0, #0
 990 0046 FFF7FEFF 		bl	I2CM_I2CMasterReadByte
 991              	.LVL102:
 992 004a 2075     		strb	r0, [r4, #20]
 546:.\IMU.c       ****         mag_z_l = I2CM_I2CMasterReadByte(ACK);     // MAG ZOUT L
 993              		.loc 1 546 0 discriminator 3
 994 004c 0020     		mov	r0, #0
 995 004e FFF7FEFF 		bl	I2CM_I2CMasterReadByte
 996              	.LVL103:
 997 0052 6075     		strb	r0, [r4, #21]
 547:.\IMU.c       ****         mag_y_h = I2CM_I2CMasterReadByte(ACK);     // MAG YOUT H
 998              		.loc 1 547 0 discriminator 3
 999 0054 0020     		mov	r0, #0
 1000 0056 FFF7FEFF 		bl	I2CM_I2CMasterReadByte
 1001              	.LVL104:
 1002 005a A075     		strb	r0, [r4, #22]
 548:.\IMU.c       ****         mag_y_l = I2CM_I2CMasterReadByte(NACK);     // MAG YOUT L
 1003              		.loc 1 548 0 discriminator 3
 1004 005c 0120     		mov	r0, #1
 1005 005e FFF7FEFF 		bl	I2CM_I2CMasterReadByte
 1006              	.LVL105:
 1007 0062 E075     		strb	r0, [r4, #23]
 549:.\IMU.c       ****         I2CM_I2C_MASTER_GENERATE_STOP;
 1008              		.loc 1 549 0 discriminator 3
 1009 0064 3A68     		ldr	r2, [r7]
 548:.\IMU.c       ****         mag_y_l = I2CM_I2CMasterReadByte(NACK);     // MAG YOUT L
 1010              		.loc 1 548 0 discriminator 3
 1011 0066 051C     		mov	r5, r0
 1012              		.loc 1 549 0 discriminator 3
ARM GAS  C:\Users\Sven\AppData\Local\Temp\ccA3Jige.s 			page 29


 1013 0068 1023     		mov	r3, #16
 1014 006a 9106     		lsl	r1, r2, #26
 1015 006c 00D5     		bpl	.L64
 1016              		.loc 1 549 0 is_stmt 0
 1017 006e 1823     		mov	r3, #24
 1018              	.L64:
 1019              		.loc 1 549 0 discriminator 3
 1020 0070 3360     		str	r3, [r6]
 550:.\IMU.c       ****         
 551:.\IMU.c       ****         // sensitivity at +-4 Gauss = 
 552:.\IMU.c       ****         mag_x_g = ((mag_x_h<<8) | (mag_x_l))*0.92;
 1021              		.loc 1 552 0 is_stmt 1 discriminator 3
 1022 0072 1220     		mov	r0, #18
 1023 0074 2056     		ldrsb	r0, [r4, r0]
 1024 0076 E37C     		ldrb	r3, [r4, #19]
 1025 0078 0002     		lsl	r0, r0, #8
 1026 007a 1843     		orr	r0, r3
 1027 007c FFF7FEFF 		bl	__aeabi_i2d
 1028              	.LVL106:
 1029 0080 144B     		ldr	r3, .L69+4
 1030 0082 134A     		ldr	r2, .L69
 1031 0084 FFF7FEFF 		bl	__aeabi_dmul
 1032              	.LVL107:
 1033 0088 FFF7FEFF 		bl	__aeabi_d2iz
 1034              	.LVL108:
 1035 008c 154B     		ldr	r3, .L69+20
 1036 008e EDB2     		uxtb	r5, r5
 1037 0090 1880     		strh	r0, [r3]
 553:.\IMU.c       **** 	    mag_y_g = ((mag_y_h<<8) | (mag_y_l))*0.92;
 1038              		.loc 1 553 0 discriminator 3
 1039 0092 1620     		mov	r0, #22
 1040 0094 2056     		ldrsb	r0, [r4, r0]
 1041 0096 0002     		lsl	r0, r0, #8
 1042 0098 2843     		orr	r0, r5
 1043 009a FFF7FEFF 		bl	__aeabi_i2d
 1044              	.LVL109:
 1045 009e 0D4B     		ldr	r3, .L69+4
 1046 00a0 0B4A     		ldr	r2, .L69
 1047 00a2 FFF7FEFF 		bl	__aeabi_dmul
 1048              	.LVL110:
 1049 00a6 FFF7FEFF 		bl	__aeabi_d2iz
 1050              	.LVL111:
 1051 00aa 0F4B     		ldr	r3, .L69+24
 1052 00ac 1880     		strh	r0, [r3]
 554:.\IMU.c       **** 	    mag_z_g = ((mag_z_h<<8) | (mag_z_l))*0.92; 
 1053              		.loc 1 554 0 discriminator 3
 1054 00ae 1420     		mov	r0, #20
 1055 00b0 2056     		ldrsb	r0, [r4, r0]
 1056 00b2 637D     		ldrb	r3, [r4, #21]
 1057 00b4 0002     		lsl	r0, r0, #8
 1058 00b6 1843     		orr	r0, r3
 1059 00b8 FFF7FEFF 		bl	__aeabi_i2d
 1060              	.LVL112:
 1061 00bc 054B     		ldr	r3, .L69+4
 1062 00be 044A     		ldr	r2, .L69
 1063 00c0 FFF7FEFF 		bl	__aeabi_dmul
 1064              	.LVL113:
ARM GAS  C:\Users\Sven\AppData\Local\Temp\ccA3Jige.s 			page 30


 1065 00c4 FFF7FEFF 		bl	__aeabi_d2iz
 1066              	.LVL114:
 1067 00c8 084B     		ldr	r3, .L69+28
 1068 00ca 1880     		strh	r0, [r3]
 1069              	.L61:
 555:.\IMU.c       ****         /*
 556:.\IMU.c       ****         UART_1_UartPutNum(mag_x_g);
 557:.\IMU.c       ****         UART_1_UartPutString(" ");
 558:.\IMU.c       ****         UART_1_UartPutNum(mag_y_g);
 559:.\IMU.c       ****         UART_1_UartPutString(" ");
 560:.\IMU.c       ****         UART_1_UartPutNum(mag_z_g);
 561:.\IMU.c       ****         UART_1_UartPutString("\r\n");
 562:.\IMU.c       ****         */
 563:.\IMU.c       ****         return;
 564:.\IMU.c       ****         }
 565:.\IMU.c       ****         else return;
 566:.\IMU.c       ****     
 567:.\IMU.c       **** }
 1070              		.loc 1 567 0
 1071              		@ sp needed
 1072 00cc F8BD     		pop	{r3, r4, r5, r6, r7, pc}
 1073              	.L70:
 1074 00ce C046     		.align	3
 1075              	.L69:
 1076 00d0 713D0AD7 		.word	-687194767
 1077 00d4 A370ED3F 		.word	1072525475
 1078 00d8 64000740 		.word	1074200676
 1079 00dc 68000740 		.word	1074200680
 1080 00e0 00000000 		.word	.LANCHOR0
 1081 00e4 00000000 		.word	mag_x_g
 1082 00e8 00000000 		.word	mag_y_g
 1083 00ec 00000000 		.word	mag_z_g
 1084              		.cfi_endproc
 1085              	.LFE40:
 1086              		.size	HMC_data_read, .-HMC_data_read
 1087              		.global	mag_z
 1088              		.global	mag_z_l
 1089              		.global	mag_z_h
 1090              		.global	mag_y
 1091              		.global	mag_y_l
 1092              		.global	mag_y_h
 1093              		.global	mag_x
 1094              		.global	mag_x_l
 1095              		.global	mag_x_h
 1096              		.global	acc_z
 1097              		.global	acc_z_l
 1098              		.global	acc_z_h
 1099              		.global	acc_y
 1100              		.global	acc_y_l
 1101              		.global	acc_y_h
 1102              		.global	acc_x
 1103              		.global	acc_x_l
 1104              		.global	acc_x_h
 1105              		.global	error_stat
 1106              		.global	gyro_r_offset
 1107              		.global	gyro_q_offset
 1108              		.global	gyro_p_offset
ARM GAS  C:\Users\Sven\AppData\Local\Temp\ccA3Jige.s 			page 31


 1109              		.global	temperature_0
 1110              		.global	temperature
 1111              		.global	gyro_r
 1112              		.global	gyro_z
 1113              		.global	gyro_z_l
 1114              		.global	gyro_z_h
 1115              		.global	gyro_q
 1116              		.global	gyro_y
 1117              		.global	gyro_y_l
 1118              		.global	gyro_y_h
 1119              		.global	gyro_p
 1120              		.global	gyro_x
 1121              		.global	gyro_x_l
 1122              		.global	gyro_x_h
 1123              		.section	.rodata.str1.1,"aMS",%progbits,1
 1124              	.LC2:
 1125 0000 0D0A4D50 		.ascii	"\015\012MPU Init Complete\015\012\000"
 1125      5520496E 
 1125      69742043 
 1125      6F6D706C 
 1125      6574650D 
 1126              	.LC4:
 1127 0016 0D0A4D50 		.ascii	"\015\012MPU Not detected\015\012\000"
 1127      55204E6F 
 1127      74206465 
 1127      74656374 
 1127      65640D0A 
 1128              	.LC7:
 1129 002b 3B00     		.ascii	";\000"
 1130              	.LC9:
 1131 002d 3B0D0A00 		.ascii	";\015\012\000"
 1132              	.LC52:
 1133 0031 484D4320 		.ascii	"HMC Initiated\015\012\000"
 1133      496E6974 
 1133      69617465 
 1133      640D0A00 
 1134              	.LC54:
 1135 0041 484D4320 		.ascii	"HMC Not Ready\015\012\000"
 1135      4E6F7420 
 1135      52656164 
 1135      790D0A00 
 1136              		.data
 1137              		.type	temperature_0, %object
 1138              		.size	temperature_0, 1
 1139              	temperature_0:
 1140 0000 32       		.byte	50
 1141              		.bss
 1142              		.align	1
 1143              		.set	.LANCHOR0,. + 0
 1144              		.type	acc_x_h, %object
 1145              		.size	acc_x_h, 1
 1146              	acc_x_h:
 1147 0000 00       		.space	1
 1148              		.type	acc_x_l, %object
 1149              		.size	acc_x_l, 1
 1150              	acc_x_l:
 1151 0001 00       		.space	1
ARM GAS  C:\Users\Sven\AppData\Local\Temp\ccA3Jige.s 			page 32


 1152              		.type	acc_y_h, %object
 1153              		.size	acc_y_h, 1
 1154              	acc_y_h:
 1155 0002 00       		.space	1
 1156              		.type	acc_y_l, %object
 1157              		.size	acc_y_l, 1
 1158              	acc_y_l:
 1159 0003 00       		.space	1
 1160              		.type	acc_z_h, %object
 1161              		.size	acc_z_h, 1
 1162              	acc_z_h:
 1163 0004 00       		.space	1
 1164              		.type	acc_z_l, %object
 1165              		.size	acc_z_l, 1
 1166              	acc_z_l:
 1167 0005 00       		.space	1
 1168              		.type	gyro_x_h, %object
 1169              		.size	gyro_x_h, 1
 1170              	gyro_x_h:
 1171 0006 00       		.space	1
 1172              		.type	gyro_x_l, %object
 1173              		.size	gyro_x_l, 1
 1174              	gyro_x_l:
 1175 0007 00       		.space	1
 1176              		.type	gyro_y_h, %object
 1177              		.size	gyro_y_h, 1
 1178              	gyro_y_h:
 1179 0008 00       		.space	1
 1180              		.type	gyro_y_l, %object
 1181              		.size	gyro_y_l, 1
 1182              	gyro_y_l:
 1183 0009 00       		.space	1
 1184              		.type	gyro_z_h, %object
 1185              		.size	gyro_z_h, 1
 1186              	gyro_z_h:
 1187 000a 00       		.space	1
 1188              		.type	gyro_z_l, %object
 1189              		.size	gyro_z_l, 1
 1190              	gyro_z_l:
 1191 000b 00       		.space	1
 1192              		.type	gyro_x, %object
 1193              		.size	gyro_x, 2
 1194              	gyro_x:
 1195 000c 0000     		.space	2
 1196              		.type	gyro_y, %object
 1197              		.size	gyro_y, 2
 1198              	gyro_y:
 1199 000e 0000     		.space	2
 1200              		.type	gyro_z, %object
 1201              		.size	gyro_z, 2
 1202              	gyro_z:
 1203 0010 0000     		.space	2
 1204              		.type	mag_x_h, %object
 1205              		.size	mag_x_h, 1
 1206              	mag_x_h:
 1207 0012 00       		.space	1
 1208              		.type	mag_x_l, %object
ARM GAS  C:\Users\Sven\AppData\Local\Temp\ccA3Jige.s 			page 33


 1209              		.size	mag_x_l, 1
 1210              	mag_x_l:
 1211 0013 00       		.space	1
 1212              		.type	mag_z_h, %object
 1213              		.size	mag_z_h, 1
 1214              	mag_z_h:
 1215 0014 00       		.space	1
 1216              		.type	mag_z_l, %object
 1217              		.size	mag_z_l, 1
 1218              	mag_z_l:
 1219 0015 00       		.space	1
 1220              		.type	mag_y_h, %object
 1221              		.size	mag_y_h, 1
 1222              	mag_y_h:
 1223 0016 00       		.space	1
 1224              		.type	mag_y_l, %object
 1225              		.size	mag_y_l, 1
 1226              	mag_y_l:
 1227 0017 00       		.space	1
 1228              		.type	mag_z, %object
 1229              		.size	mag_z, 2
 1230              	mag_z:
 1231 0018 0000     		.space	2
 1232              		.type	mag_y, %object
 1233              		.size	mag_y, 2
 1234              	mag_y:
 1235 001a 0000     		.space	2
 1236              		.type	mag_x, %object
 1237              		.size	mag_x, 2
 1238              	mag_x:
 1239 001c 0000     		.space	2
 1240              		.type	acc_z, %object
 1241              		.size	acc_z, 2
 1242              	acc_z:
 1243 001e 0000     		.space	2
 1244              		.type	acc_y, %object
 1245              		.size	acc_y, 2
 1246              	acc_y:
 1247 0020 0000     		.space	2
 1248              		.type	acc_x, %object
 1249              		.size	acc_x, 2
 1250              	acc_x:
 1251 0022 0000     		.space	2
 1252              		.type	error_stat, %object
 1253              		.size	error_stat, 1
 1254              	error_stat:
 1255 0024 00       		.space	1
 1256 0025 00       		.space	1
 1257              		.type	gyro_r_offset, %object
 1258              		.size	gyro_r_offset, 2
 1259              	gyro_r_offset:
 1260 0026 0000     		.space	2
 1261              		.type	gyro_q_offset, %object
 1262              		.size	gyro_q_offset, 2
 1263              	gyro_q_offset:
 1264 0028 0000     		.space	2
 1265              		.type	gyro_p_offset, %object
ARM GAS  C:\Users\Sven\AppData\Local\Temp\ccA3Jige.s 			page 34


 1266              		.size	gyro_p_offset, 2
 1267              	gyro_p_offset:
 1268 002a 0000     		.space	2
 1269              		.type	temperature, %object
 1270              		.size	temperature, 1
 1271              	temperature:
 1272 002c 00       		.space	1
 1273 002d 00       		.space	1
 1274              		.type	gyro_r, %object
 1275              		.size	gyro_r, 2
 1276              	gyro_r:
 1277 002e 0000     		.space	2
 1278              		.type	gyro_q, %object
 1279              		.size	gyro_q, 2
 1280              	gyro_q:
 1281 0030 0000     		.space	2
 1282              		.type	gyro_p, %object
 1283              		.size	gyro_p, 2
 1284              	gyro_p:
 1285 0032 0000     		.space	2
 1286              		.text
 1287              	.Letext0:
 1288              		.file 2 "e:\\program files (x86)\\cypress\\psoc creator\\3.1\\psoc creator\\import\\gnu_cs\\arm\\4
 1289              		.file 3 "e:\\program files (x86)\\cypress\\psoc creator\\3.1\\psoc creator\\import\\gnu_cs\\arm\\4
 1290              		.file 4 ".\\Generated_Source\\PSoC4/cytypes.h"
 1291              		.file 5 ".\\Generated_Source\\PSoC4/I2CM_I2C.h"
 1292              		.file 6 ".\\Generated_Source\\PSoC4/CyLib.h"
 1293              		.file 7 ".\\Generated_Source\\PSoC4/UART_1_SPI_UART.h"