ARM GAS  C:\Users\Sven\AppData\Local\Temp\cc7IOcoT.s 			page 1


   1              		.cpu cortex-m0
   2              		.fpu softvfp
   3              		.eabi_attribute 20, 1
   4              		.eabi_attribute 21, 1
   5              		.eabi_attribute 23, 3
   6              		.eabi_attribute 24, 1
   7              		.eabi_attribute 25, 1
   8              		.eabi_attribute 26, 1
   9              		.eabi_attribute 30, 4
  10              		.eabi_attribute 34, 0
  11              		.eabi_attribute 18, 4
  12              		.code	16
  13              		.file	"main.c"
  14              		.text
  15              	.Ltext0:
  16              		.cfi_sections	.debug_frame
  17              		.section	.text.UART_1_UartPutNum,"ax",%progbits
  18              		.align	1
  19              		.global	UART_1_UartPutNum
  20              		.code	16
  21              		.thumb_func
  22              		.type	UART_1_UartPutNum, %function
  23              	UART_1_UartPutNum:
  24              	.LFB1489:
  25              		.file 1 ".\\main.c"
   1:.\main.c      **** /* ========================================
   2:.\main.c      ****  *
   3:.\main.c      ****  * Copyright SNFU
   4:.\main.c      ****  * All Rights Reserved
   5:.\main.c      ****  * UNPUBLISHED, LICENSED SOFTWARE.
   6:.\main.c      ****  *
   7:.\main.c      ****  * CONFIDENTIAL AND PROPRIETARY INFORMATION
   8:.\main.c      ****  * WHICH IS THE PROPERTY OF your company.
   9:.\main.c      ****  *
  10:.\main.c      ****  * T-50_Project
  11:.\main.c      ****  *
  12:.\main.c      ****  * ========================================
  13:.\main.c      **** */
  14:.\main.c      **** 
  15:.\main.c      **** /*========================================
  16:.\main.c      **** 
  17:.\main.c      **** TO DO LIST (August 14,2015)
  18:.\main.c      **** - Configure XBee (HW) -> 3,3 VDC TTL or is 5 okay?
  19:.\main.c      **** - If XBee too inreliable -> Program FRSky Protocol, 
  20:.\main.c      **** ground station with additional controller or intermediate software (Matlab?)
  21:.\main.c      **** - Include Functions for HMC5883L Magnetometer -> Completed
  22:.\main.c      **** 
  23:.\main.c      **** 
  24:.\main.c      **** 
  25:.\main.c      **** 
  26:.\main.c      **** ==========================================*/
  27:.\main.c      **** 
  28:.\main.c      **** 
  29:.\main.c      **** 
  30:.\main.c      **** #include <project.h>
  31:.\main.c      **** #include <stdio.h>
  32:.\main.c      **** #include <stdlib.h>
ARM GAS  C:\Users\Sven\AppData\Local\Temp\cc7IOcoT.s 			page 2


  33:.\main.c      **** #include <math.h>
  34:.\main.c      **** #include <IMU.h>
  35:.\main.c      **** #include <mavlink.h>
  36:.\main.c      **** #include <mavlink_types.h>
  37:.\main.c      **** #include <Baro.h>
  38:.\main.c      **** 
  39:.\main.c      **** #define FALSE   0
  40:.\main.c      **** #define TRUE    1
  41:.\main.c      **** 
  42:.\main.c      **** #define PI			3.1415926535897932384626433832795
  43:.\main.c      **** 
  44:.\main.c      **** /* MODEL SELECTION */
  45:.\main.c      **** #define T_50
  46:.\main.c      **** //#define FUNCUB
  47:.\main.c      **** 
  48:.\main.c      **** 
  49:.\main.c      **** volatile uint8_t task_flag = FALSE;     // The Task Flag is set in TaskISR Interrupt Routine
  50:.\main.c      **** volatile uint8_t blink_cnt = 0;
  51:.\main.c      **** float sample_time = 0.01;               // 10 ms Sample time
  52:.\main.c      **** 
  53:.\main.c      **** /*=============================*/
  54:.\main.c      **** /*Remote Input variables*/
  55:.\main.c      **** /*=============================*/
  56:.\main.c      **** uint8_t PPM_channel = 0;                    // input channel variable
  57:.\main.c      **** uint16_t ctrl_in[8] = {0};                  // input control vector
  58:.\main.c      **** uint16_t ctrl_out[13] = {1500,
  59:.\main.c      ****                          1500,
  60:.\main.c      ****                          1500,
  61:.\main.c      ****                          1500,
  62:.\main.c      ****                          1500,
  63:.\main.c      ****                          1500,
  64:.\main.c      ****                          1500,
  65:.\main.c      ****                          1500,
  66:.\main.c      ****                          1500,
  67:.\main.c      ****                          1500,
  68:.\main.c      ****                          1500,
  69:.\main.c      ****                          1500,
  70:.\main.c      ****                          1500};                // output control vector
  71:.\main.c      **** 
  72:.\main.c      **** uint16_t ctrl_in_trim[5] = {1500,				/* motor*/
  73:.\main.c      **** 							1500,				/* aileron */
  74:.\main.c      **** 							1500,				/* elevator */
  75:.\main.c      **** 							1500,				/* rudder */
  76:.\main.c      **** 							1500};			 
  77:.\main.c      **** uint16_t ctrl_out_PID[5] =  {0};				/* PID Control Vector */
  78:.\main.c      **** uint16_t ctrl_out_DAMP[5] =  {0};				/* DAMPING Control Vector */			 
  79:.\main.c      **** 						 
  80:.\main.c      **** enum e_in{   // Input Control Enum - 8 Channels
  81:.\main.c      ****     in_mot = 0, // Channel 1
  82:.\main.c      ****     in_ail,     // Channel 2
  83:.\main.c      ****     in_ele,     // Channel 3
  84:.\main.c      ****     in_rud,     // Channel 4
  85:.\main.c      ****     in_gear,    // Channel 5
  86:.\main.c      ****     in_can,     // Channel 6
  87:.\main.c      ****     in_mod,     // Channel 7
  88:.\main.c      ****     in_sp2      // Channel 8
  89:.\main.c      **** };
ARM GAS  C:\Users\Sven\AppData\Local\Temp\cc7IOcoT.s 			page 3


  90:.\main.c      **** 
  91:.\main.c      **** enum e_out{   // Output Control Enum - 13 Signals
  92:.\main.c      ****     out_mot = 0,
  93:.\main.c      ****     out_ail1,
  94:.\main.c      ****     out_ail2,
  95:.\main.c      ****     out_ele1,
  96:.\main.c      ****     out_ele2,
  97:.\main.c      ****     out_rud,
  98:.\main.c      ****     out_fl1,
  99:.\main.c      ****     out_fl2,
 100:.\main.c      ****     out_ge1,
 101:.\main.c      ****     out_ge2,
 102:.\main.c      ****     out_ge3,
 103:.\main.c      ****     out_sp1,
 104:.\main.c      ****     out_sp2
 105:.\main.c      **** };
 106:.\main.c      **** 
 107:.\main.c      **** uint8_t receiver_connected = FALSE;
 108:.\main.c      **** 
 109:.\main.c      **** /*=============================*/
 110:.\main.c      **** /* State Machine for mode control*/
 111:.\main.c      **** /*=============================*/
 112:.\main.c      **** uint8_t Ctrl_Mode = 0;
 113:.\main.c      **** enum ctrl_mode
 114:.\main.c      **** {
 115:.\main.c      ****     manual = 0,
 116:.\main.c      ****     damped,
 117:.\main.c      ****     tune,
 118:.\main.c      ****     autonom
 119:.\main.c      **** };
 120:.\main.c      **** 
 121:.\main.c      **** /*=============================*/
 122:.\main.c      **** /* TASK FLAGS */
 123:.\main.c      **** /*=============================*/
 124:.\main.c      **** #define GYRO_TASK       FALSE
 125:.\main.c      **** #define ACC_TASK        FALSE
 126:.\main.c      **** #define MAG_TASK        FALSE
 127:.\main.c      **** #define BARO_TASK       TRUE
 128:.\main.c      **** #define SPEED_TASK      TRUE    
 129:.\main.c      **** #define DATA_LOG        FALSE
 130:.\main.c      **** #define MAVLINK_TASK    FALSE
 131:.\main.c      **** 
 132:.\main.c      **** /*=============================*/
 133:.\main.c      **** /*Light control variables*/
 134:.\main.c      **** /*=============================*/
 135:.\main.c      **** uint8_t flag_LightsEnabled = TRUE;
 136:.\main.c      **** 
 137:.\main.c      **** /*Nav Light Control START -> Pulsing of the Navigation Lights*/
 138:.\main.c      **** uint8_t flag_NavLightPulse  = FALSE;    // Nav Light Pulse flag (to count up or down)
 139:.\main.c      **** uint16_t NavLightBright     = 100;  // Upper value for the brightness 100 = 100%
 140:.\main.c      **** uint16_t NavLightDim        = 0;    // Lower value for the brightness 0 = 0%
 141:.\main.c      **** uint16_t NavLightStep       = 1;    // Nav Light Pulse Stepwidth => brightness change per 10ms
 142:.\main.c      **** uint16_t NavLightCompare    = 0;    // Nav Light PWM Compare Value
 143:.\main.c      **** /*Strobe Light*/
 144:.\main.c      **** uint8_t cnt_StrobeLight     = 0;
 145:.\main.c      **** 
 146:.\main.c      **** 
ARM GAS  C:\Users\Sven\AppData\Local\Temp\cc7IOcoT.s 			page 4


 147:.\main.c      **** /*=============================*/
 148:.\main.c      **** /*IMU variables*/
 149:.\main.c      **** /*=============================*/
 150:.\main.c      **** 
 151:.\main.c      **** /* turn rates */
 152:.\main.c      **** int16_t turn_rate_p = 0;
 153:.\main.c      **** int16_t turn_rate_q = 0;
 154:.\main.c      **** int16_t turn_rate_r = 0;
 155:.\main.c      **** /* accelerations*/
 156:.\main.c      **** int16_t acc_x_g = 0;
 157:.\main.c      **** int16_t acc_y_g = 0;
 158:.\main.c      **** int16_t acc_z_g = 0;
 159:.\main.c      **** /* magnetic out*/
 160:.\main.c      **** int16_t mag_x_g = 0;
 161:.\main.c      **** int16_t mag_y_g = 0;
 162:.\main.c      **** int16_t mag_z_g = 0;
 163:.\main.c      **** 
 164:.\main.c      **** /* Euler Angles */
 165:.\main.c      **** float Theta, Theta_Mav, Theta_acc, Theta_meas = 0;   // Theta => estimated angle after Kalman, Thet
 166:.\main.c      **** float Phi, Phi_Mav, Phi_acc, Phi_meas = 0;       // Phi => estimated angle after Kalman, Phi_acc =>
 167:.\main.c      **** float Psi, Psi_acc = 0;       // Psi , Psi_acc => Psi from accelerometer
 168:.\main.c      **** 
 169:.\main.c      **** /* Magnetic Heading*/
 170:.\main.c      **** int32_t Mag_Heading = 0;
 171:.\main.c      **** float Mag_x, Mag_y = 0;    
 172:.\main.c      **** 
 173:.\main.c      **** /* Barometer Reading*/
 174:.\main.c      **** int32_t Bar_press = 0;
 175:.\main.c      **** 
 176:.\main.c      **** 
 177:.\main.c      **** /*=============================*/
 178:.\main.c      **** /* Speed reading       		*/
 179:.\main.c      **** /*=============================*/
 180:.\main.c      **** uint16_t speed_offset = 172;
 181:.\main.c      **** int16_t speed = 0;
 182:.\main.c      **** uint8_t cal_cnt = 0;
 183:.\main.c      **** uint8_t speed_cal_compl = 0;
 184:.\main.c      **** 
 185:.\main.c      **** /*=============================*/
 186:.\main.c      **** /* Altitude reading    
 187:.\main.c      ****    used for external pressure sensor BMP180 */
 188:.\main.c      **** /*=============================*/
 189:.\main.c      **** 
 190:.\main.c      **** int32_t alt = 0;    // altitude from pressure
 191:.\main.c      **** int32_t alt_previous = 0;    // altitude from pressure previous
 192:.\main.c      **** int16_t climb_rate = 0;     // climb rate
 193:.\main.c      **** //extern int32_t alt;     /* from main.c file */
 194:.\main.c      **** 
 195:.\main.c      **** uint8_t cnt_baro  = 0;  /* baro counter */
 196:.\main.c      **** int32_t temp = 0;   // temperature reading by BMP180
 197:.\main.c      **** int32_t press = 0;   // pressure reading by BMP180
 198:.\main.c      **** int32_t QFE = 0;	/* QFE Ground pressure -> gives altitude to current ground pressure */
 199:.\main.c      **** /*=============================*/
 200:.\main.c      **** /* Kalman Filter Data			*/
 201:.\main.c      **** /*=============================*/
 202:.\main.c      **** // weighing matrices ???
 203:.\main.c      **** //float Q_angle = 0.005;
ARM GAS  C:\Users\Sven\AppData\Local\Temp\cc7IOcoT.s 			page 5


 204:.\main.c      **** //float Q_gyro = 0.005;
 205:.\main.c      **** //float R_angle = 0.02;
 206:.\main.c      **** // Estimation of Theta (Kalman)
 207:.\main.c      **** //float q_bias = 0;
 208:.\main.c      **** //int8_t P_00_Theta, P_01_Theta, P_10_Theta, P_11_Theta = 0;
 209:.\main.c      **** //float P_Theta[2][2] = {0,0,0,0};
 210:.\main.c      **** //float Theta_temp, S_Theta, K_0_Theta, K_1_Theta = 0;
 211:.\main.c      **** // Estimation of Phi (Kalman)
 212:.\main.c      **** //float p_bias = 0;
 213:.\main.c      **** //int8_t P_00_Phi, P_01_Phi, P_10_Phi, P_11_Phi = 0;
 214:.\main.c      **** //float P_Phi[2][2] = {0,0,0,0};
 215:.\main.c      **** //float Phi_temp, S_Phi, K_0_Phi, K_1_Phi = 0;
 216:.\main.c      **** 
 217:.\main.c      **** #define W_GYRO 20
 218:.\main.c      **** 
 219:.\main.c      **** /*============================*/
 220:.\main.c      **** /* Control variables	*/
 221:.\main.c      **** /*=============================*/
 222:.\main.c      **** 
 223:.\main.c      **** 
 224:.\main.c      **** #ifdef FUNCUB
 225:.\main.c      ****     uint8_t K_d_p = 7;
 226:.\main.c      ****     uint8_t K_d_q = 7;
 227:.\main.c      ****     uint8_t K_d_r = 5;
 228:.\main.c      **** #elif defined T_50  // T-50
 229:.\main.c      ****     uint8_t K_d_p = 1;
 230:.\main.c      ****     uint8_t K_d_q = 1;
 231:.\main.c      ****     uint8_t K_d_r = 1;
 232:.\main.c      **** #endif
 233:.\main.c      **** /*============================*/
 234:.\main.c      **** /* Tune variables	            */
 235:.\main.c      **** /*=============================*/
 236:.\main.c      **** uint8_t tune_cnt = 0;
 237:.\main.c      **** 
 238:.\main.c      **** /*============================*/
 239:.\main.c      **** /* Autopilot variables	            */
 240:.\main.c      **** /*=============================*/
 241:.\main.c      **** int8_t Theta_Target = 0;			/* Initializing Theta Target Pitch Angle */
 242:.\main.c      **** int8_t Theta_Error = 0;			    /* Initializing Theta Error */
 243:.\main.c      **** int32_t Theta_Error_sum = 0;		/* Initializing Theta Error Sum */
 244:.\main.c      **** int8_t Theta_Error_prev = 0;		/* Initializing Theta Error Sum */
 245:.\main.c      **** 
 246:.\main.c      **** int8_t Phi_Target = 0;			    /* Initializing Phi Target Bank Angle */
 247:.\main.c      **** int8_t Phi_Error = 0;			    /* Initializing Phi Error */
 248:.\main.c      **** int32_t Phi_Error_sum = 0;		    /* Initializing Phi Error Sum */
 249:.\main.c      **** int8_t Phi_Error_prev = 0;		    /* Initializing Phi Error Sum */
 250:.\main.c      **** 
 251:.\main.c      **** /*============================*/
 252:.\main.c      **** /* UART Rx Tx variables		*/
 253:.\main.c      **** /*=============================*/
 254:.\main.c      **** uint8_t Rx_char = 0;
 255:.\main.c      **** char Rx_String[10] = {0,0,0,0,0,0,0,0,0,0};
 256:.\main.c      **** uint8_t Rx_index = 0;
 257:.\main.c      **** uint8_t Rx_flag = 0;
 258:.\main.c      **** 
 259:.\main.c      **** /*=============================*/
 260:.\main.c      **** /* MAVLINK			*/
ARM GAS  C:\Users\Sven\AppData\Local\Temp\cc7IOcoT.s 			page 6


 261:.\main.c      **** /*=============================*/
 262:.\main.c      **** 
 263:.\main.c      **** mavlink_system_t mavlink_system;
 264:.\main.c      **** // Define the system type, in this case an airplane
 265:.\main.c      **** uint8_t system_type = MAV_TYPE_FIXED_WING;        //MAV_TYPE_FIXED_WING;
 266:.\main.c      **** uint8_t autopilot_type = MAV_AUTOPILOT_GENERIC;     //MAV_AUTOPILOT_GENERIC;
 267:.\main.c      **** 
 268:.\main.c      **** uint8_t system_mode = MAV_MODE_PREFLIGHT;       ///< Booting up //
 269:.\main.c      **** uint32_t custom_mode = 0;                       ///< Custom mode, can be defined by user/adopter
 270:.\main.c      **** uint8_t system_state = MAV_STATE_STANDBY;       ///< System ready for flight
 271:.\main.c      **** 
 272:.\main.c      **** // Initialize the required buffers
 273:.\main.c      **** mavlink_message_t msg;
 274:.\main.c      **** uint8_t buf[MAVLINK_MAX_PACKET_LEN];
 275:.\main.c      **** 
 276:.\main.c      **** uint8_t cnt_ML_HEARTBEAT_send = 0;          // used for timing of the HEARTBEAT message sending
 277:.\main.c      **** uint8_t cnt_ML_ATTITUDE_send = 0;           // used for timing of the ATTITUDE message sending
 278:.\main.c      **** 
 279:.\main.c      **** /*=============================*/
 280:.\main.c      **** /* General Functions */
 281:.\main.c      **** /*=============================*/
 282:.\main.c      **** 
 283:.\main.c      **** // UART Put Num to write serial number data as String
 284:.\main.c      **** void UART_1_UartPutNum(int32_t num)
 285:.\main.c      **** {
  26              		.loc 1 285 0
  27              		.cfi_startproc
  28              	.LVL0:
  29 0000 00B5     		push	{lr}
  30              		.cfi_def_cfa_offset 4
  31              		.cfi_offset 14, -4
  32 0002 89B0     		sub	sp, sp, #36
  33              		.cfi_def_cfa_offset 40
  34              		.loc 1 285 0
  35 0004 021C     		mov	r2, r0
 286:.\main.c      ****     char k[31];
 287:.\main.c      ****     sprintf(k,"%d",num);
  36              		.loc 1 287 0
  37 0006 0449     		ldr	r1, .L2
  38 0008 6846     		mov	r0, sp
  39              	.LVL1:
  40 000a FFF7FEFF 		bl	sprintf
  41              	.LVL2:
 288:.\main.c      ****     UART_1_UartPutString(k);   
  42              		.loc 1 288 0
  43 000e 6846     		mov	r0, sp
  44 0010 FFF7FEFF 		bl	UART_1_UartPutString
  45              	.LVL3:
 289:.\main.c      **** }
  46              		.loc 1 289 0
  47 0014 09B0     		add	sp, sp, #36
  48              		@ sp needed
  49 0016 00BD     		pop	{pc}
  50              	.L3:
  51              		.align	2
  52              	.L2:
  53 0018 00000000 		.word	.LC0
ARM GAS  C:\Users\Sven\AppData\Local\Temp\cc7IOcoT.s 			page 7


  54              		.cfi_endproc
  55              	.LFE1489:
  56              		.size	UART_1_UartPutNum, .-UART_1_UartPutNum
  57              		.section	.text.UART_1_UartSendMavlink,"ax",%progbits
  58              		.align	1
  59              		.global	UART_1_UartSendMavlink
  60              		.code	16
  61              		.thumb_func
  62              		.type	UART_1_UartSendMavlink, %function
  63              	UART_1_UartSendMavlink:
  64              	.LFB1490:
 290:.\main.c      **** 
 291:.\main.c      **** // UART Send Mavlink data
 292:.\main.c      **** void UART_1_UartSendMavlink(uint8_t buf[], uint16_t len)
 293:.\main.c      **** {
  65              		.loc 1 293 0
  66              		.cfi_startproc
  67              	.LVL4:
  68 0000 70B5     		push	{r4, r5, r6, lr}
  69              		.cfi_def_cfa_offset 16
  70              		.cfi_offset 4, -16
  71              		.cfi_offset 5, -12
  72              		.cfi_offset 6, -8
  73              		.cfi_offset 14, -4
  74              		.loc 1 293 0
  75 0002 061C     		mov	r6, r0
 294:.\main.c      ****     uint16_t i = 0;
 295:.\main.c      ****     UART_1_UartPutChar(0xFE);   // message header    
  76              		.loc 1 295 0
  77 0004 FE20     		mov	r0, #254
  78              	.LVL5:
 293:.\main.c      **** {
  79              		.loc 1 293 0
  80 0006 0D1C     		mov	r5, r1
  81              		.loc 1 295 0
  82 0008 FFF7FEFF 		bl	UART_1_SpiUartWriteTxData
  83              	.LVL6:
 294:.\main.c      ****     uint16_t i = 0;
  84              		.loc 1 294 0
  85 000c 0024     		mov	r4, #0
  86              	.LVL7:
  87              	.L5:
 296:.\main.c      ****     while(i<(len+1))
  88              		.loc 1 296 0 discriminator 1
  89 000e A542     		cmp	r5, r4
  90 0010 05DB     		blt	.L8
 297:.\main.c      **** 	{
 298:.\main.c      ****         i++;
  91              		.loc 1 298 0
  92 0012 0134     		add	r4, r4, #1
  93              	.LVL8:
  94 0014 A4B2     		uxth	r4, r4
  95              	.LVL9:
 299:.\main.c      ****         UART_1_UartPutChar(buf[i]);
  96              		.loc 1 299 0
  97 0016 305D     		ldrb	r0, [r6, r4]
  98 0018 FFF7FEFF 		bl	UART_1_SpiUartWriteTxData
ARM GAS  C:\Users\Sven\AppData\Local\Temp\cc7IOcoT.s 			page 8


  99              	.LVL10:
 100 001c F7E7     		b	.L5
 101              	.L8:
 300:.\main.c      **** 	}  
 301:.\main.c      **** }
 102              		.loc 1 301 0
 103              		@ sp needed
 104              	.LVL11:
 105              	.LVL12:
 106 001e 70BD     		pop	{r4, r5, r6, pc}
 107              		.cfi_endproc
 108              	.LFE1490:
 109              		.size	UART_1_UartSendMavlink, .-UART_1_UartSendMavlink
 110              		.section	.text.ADC_read_speed,"ax",%progbits
 111              		.align	1
 112              		.global	ADC_read_speed
 113              		.code	16
 114              		.thumb_func
 115              		.type	ADC_read_speed, %function
 116              	ADC_read_speed:
 117              	.LFB1491:
 302:.\main.c      **** 
 303:.\main.c      **** /* Read speed */
 304:.\main.c      **** int16_t ADC_read_speed(void)
 305:.\main.c      **** {
 118              		.loc 1 305 0
 119              		.cfi_startproc
 120 0000 10B5     		push	{r4, lr}
 121              		.cfi_def_cfa_offset 8
 122              		.cfi_offset 4, -8
 123              		.cfi_offset 14, -4
 306:.\main.c      ****     ADC_StartConvert();		/* Start Conversion */
 124              		.loc 1 306 0
 125 0002 FFF7FEFF 		bl	ADC_StartConvert
 126              	.LVL13:
 307:.\main.c      ****     int16_t speed = ADC_GetResult16(0); /* channel 0 is the first ADC */
 127              		.loc 1 307 0
 128 0006 0020     		mov	r0, #0
 129 0008 FFF7FEFF 		bl	ADC_GetResult16
 130              	.LVL14:
 131 000c 041C     		mov	r4, r0
 132              	.LVL15:
 308:.\main.c      ****     ADC_StopConvert();		/* Stop Conversion */	
 309:.\main.c      ****     return(speed);
 310:.\main.c      **** }
 133              		.loc 1 310 0
 134              		@ sp needed
 308:.\main.c      ****     ADC_StopConvert();		/* Stop Conversion */	
 135              		.loc 1 308 0
 136 000e FFF7FEFF 		bl	ADC_StopConvert
 137              	.LVL16:
 138              		.loc 1 310 0
 139 0012 201C     		mov	r0, r4
 140              	.LVL17:
 141 0014 10BD     		pop	{r4, pc}
 142              		.cfi_endproc
 143              	.LFE1491:
ARM GAS  C:\Users\Sven\AppData\Local\Temp\cc7IOcoT.s 			page 9


 144              		.size	ADC_read_speed, .-ADC_read_speed
 145              		.global	__aeabi_idiv
 146              		.section	.text.ADC_calibrate_speed,"ax",%progbits
 147              		.align	1
 148              		.global	ADC_calibrate_speed
 149              		.code	16
 150              		.thumb_func
 151              		.type	ADC_calibrate_speed, %function
 152              	ADC_calibrate_speed:
 153              	.LFB1492:
 311:.\main.c      **** 
 312:.\main.c      **** /* Speed calibration */
 313:.\main.c      **** void ADC_calibrate_speed(void)
 314:.\main.c      **** {
 154              		.loc 1 314 0
 155              		.cfi_startproc
 156 0000 38B5     		push	{r3, r4, r5, lr}
 157              		.cfi_def_cfa_offset 16
 158              		.cfi_offset 3, -16
 159              		.cfi_offset 4, -12
 160              		.cfi_offset 5, -8
 161              		.cfi_offset 14, -4
 315:.\main.c      ****     speed_offset = 0;
 162              		.loc 1 315 0
 163 0002 0D4C     		ldr	r4, .L15
 164 0004 0023     		mov	r3, #0
 316:.\main.c      ****     cal_cnt = 0;
 165              		.loc 1 316 0
 166 0006 0D4D     		ldr	r5, .L15+4
 315:.\main.c      ****     speed_offset = 0;
 167              		.loc 1 315 0
 168 0008 2380     		strh	r3, [r4]
 169              	.L13:
 317:.\main.c      ****     while(cal_cnt < 254)
 318:.\main.c      ****         {
 319:.\main.c      ****             speed = ADC_read_speed();
 320:.\main.c      ****             speed_offset+=speed;
 321:.\main.c      ****             cal_cnt++;
 170              		.loc 1 321 0
 171 000a 2B70     		strb	r3, [r5]
 317:.\main.c      ****     while(cal_cnt < 254)
 172              		.loc 1 317 0
 173 000c 2978     		ldrb	r1, [r5]
 174 000e FD29     		cmp	r1, #253
 175 0010 08D8     		bhi	.L14
 319:.\main.c      ****             speed = ADC_read_speed();
 176              		.loc 1 319 0
 177 0012 FFF7FEFF 		bl	ADC_read_speed
 178              	.LVL18:
 320:.\main.c      ****             speed_offset+=speed;
 179              		.loc 1 320 0
 180 0016 2388     		ldrh	r3, [r4]
 319:.\main.c      ****             speed = ADC_read_speed();
 181              		.loc 1 319 0
 182 0018 6880     		strh	r0, [r5, #2]
 320:.\main.c      ****             speed_offset+=speed;
 183              		.loc 1 320 0
ARM GAS  C:\Users\Sven\AppData\Local\Temp\cc7IOcoT.s 			page 10


 184 001a C018     		add	r0, r0, r3
 185              		.loc 1 321 0
 186 001c 2B78     		ldrb	r3, [r5]
 320:.\main.c      ****             speed_offset+=speed;
 187              		.loc 1 320 0
 188 001e 2080     		strh	r0, [r4]
 189              		.loc 1 321 0
 190 0020 0133     		add	r3, r3, #1
 191 0022 F2E7     		b	.L13
 192              	.L14:
 322:.\main.c      ****         }
 323:.\main.c      ****     speed_offset /= cal_cnt;
 193              		.loc 1 323 0
 194 0024 2088     		ldrh	r0, [r4]
 195 0026 FFF7FEFF 		bl	__aeabi_idiv
 196              	.LVL19:
 197 002a 2080     		strh	r0, [r4]
 324:.\main.c      ****     //cal_cnt = 0;
 325:.\main.c      ****     UART_1_UartPutNum(speed_offset);
 198              		.loc 1 325 0
 199 002c FFF7FEFF 		bl	UART_1_UartPutNum
 200              	.LVL20:
 326:.\main.c      ****     UART_1_UartPutString("Cal Compl\r\n");    
 201              		.loc 1 326 0
 202 0030 0348     		ldr	r0, .L15+8
 203 0032 FFF7FEFF 		bl	UART_1_UartPutString
 204              	.LVL21:
 327:.\main.c      **** }
 205              		.loc 1 327 0
 206              		@ sp needed
 207 0036 38BD     		pop	{r3, r4, r5, pc}
 208              	.L16:
 209              		.align	2
 210              	.L15:
 211 0038 00000000 		.word	.LANCHOR0
 212 003c 00000000 		.word	.LANCHOR1
 213 0040 03000000 		.word	.LC4
 214              		.cfi_endproc
 215              	.LFE1492:
 216              		.size	ADC_calibrate_speed, .-ADC_calibrate_speed
 217              		.global	__aeabi_i2d
 218              		.global	__aeabi_dmul
 219              		.global	__aeabi_d2iz
 220              		.global	__aeabi_ddiv
 221              		.global	__aeabi_d2f
 222              		.global	__aeabi_i2f
 223              		.global	__aeabi_fmul
 224              		.global	__aeabi_fadd
 225              		.global	__aeabi_fdiv
 226              		.global	__aeabi_f2d
 227              		.global	__aeabi_f2iz
 228              		.global	__aeabi_fsub
 229              		.global	__aeabi_f2uiz
 230              		.section	.text.startup.main,"ax",%progbits
 231              		.align	1
 232              		.global	main
 233              		.code	16
ARM GAS  C:\Users\Sven\AppData\Local\Temp\cc7IOcoT.s 			page 11


 234              		.thumb_func
 235              		.type	main, %function
 236              	main:
 237              	.LFB1493:
 328:.\main.c      **** 
 329:.\main.c      **** /*=============================*/
 330:.\main.c      **** /* main */
 331:.\main.c      **** /* Application Code */
 332:.\main.c      **** /*=============================*/
 333:.\main.c      **** int main()
 334:.\main.c      **** {
 238              		.loc 1 334 0
 239              		.cfi_startproc
 240 0000 F0B5     		push	{r4, r5, r6, r7, lr}
 241              		.cfi_def_cfa_offset 20
 242              		.cfi_offset 4, -20
 243              		.cfi_offset 5, -16
 244              		.cfi_offset 6, -12
 245              		.cfi_offset 7, -8
 246              		.cfi_offset 14, -4
 335:.\main.c      ****     /* initialization/startup code */
 336:.\main.c      ****     
 337:.\main.c      ****     if(CySysGetResetReason(CY_SYS_RESET_WDT) == TRUE)
 247              		.loc 1 337 0
 248 0002 0120     		mov	r0, #1
 334:.\main.c      **** {
 249              		.loc 1 334 0
 250 0004 8FB0     		sub	sp, sp, #60
 251              		.cfi_def_cfa_offset 80
 252              		.loc 1 337 0
 253 0006 FFF7FEFF 		bl	CySysGetResetReason
 254              	.LVL22:
 255 000a 0128     		cmp	r0, #1
 256 000c 02D1     		bne	.L18
 338:.\main.c      ****     {
 339:.\main.c      ****         // Reset is due to Watchdog
 340:.\main.c      ****         CY_SYS_RES_CAUSE_REG = 0;   
 257              		.loc 1 340 0
 258 000e 784B     		ldr	r3, .L84+8
 259 0010 0022     		mov	r2, #0
 260 0012 1A60     		str	r2, [r3]
 261              	.L18:
 341:.\main.c      ****         /* Reset the Cause Register after Watchdog Reset to be ready for new Reset Reason
 342:.\main.c      ****         This will automatically happen on Power On Reset, Brown out or external Reset */
 343:.\main.c      ****     }
 344:.\main.c      ****     
 345:.\main.c      ****     
 346:.\main.c      ****     
 347:.\main.c      ****     
 348:.\main.c      ****     /* Static Variables */
 349:.\main.c      ****     static int8_t Phi_Prev1, Phi_Prev2, Phi_Prev3, Phi_Prev4 = 0;
 350:.\main.c      ****     static int8_t Theta_Prev1, Theta_Prev2, Theta_Prev3, Theta_Prev4 = 0;
 351:.\main.c      ****     static int8_t Speed_Prev1, Speed_Prev2, Speed_Prev3, Speed_Prev4 = 0;        
 352:.\main.c      ****     
 353:.\main.c      ****     CyDelay(100); 		/* Wait before initialization happens. -> gives time for receiver to send PPM s
 262              		.loc 1 353 0
 263 0014 6420     		mov	r0, #100
ARM GAS  C:\Users\Sven\AppData\Local\Temp\cc7IOcoT.s 			page 12


 264 0016 FFF7FEFF 		bl	CyDelay
 265              	.LVL23:
 354:.\main.c      ****     CyGlobalIntEnable; 	/* Enable Global Interrupts */
 266              		.loc 1 354 0
 267              	@ 354 ".\main.c" 1
 268 001a 62B6     		CPSIE   i
 269              	@ 0 "" 2
 355:.\main.c      ****     UART_1_Start();     /* Enabling the UART */
 270              		.loc 1 355 0
 271              		.code	16
 272 001c FFF7FEFF 		bl	UART_1_Start
 273              	.LVL24:
 356:.\main.c      ****     I2CM_Start();		/* Enabling I2C */
 274              		.loc 1 356 0
 275 0020 FFF7FEFF 		bl	I2CM_Start
 276              	.LVL25:
 357:.\main.c      ****     ADC_Start();		/* Starting ADC */
 277              		.loc 1 357 0
 278 0024 FFF7FEFF 		bl	ADC_Start
 279              	.LVL26:
 358:.\main.c      ****     
 359:.\main.c      **** 	/*  watchdog Setup */
 360:.\main.c      ****     CySysWdtWriteMode(CY_SYS_WDT_COUNTER0, CY_SYS_WDT_MODE_RESET);  /* Generate SW RESET when not t
 280              		.loc 1 360 0
 281 0028 0020     		mov	r0, #0
 282 002a 0221     		mov	r1, #2
 283 002c FFF7FEFF 		bl	CySysWdtWriteMode
 284              	.LVL27:
 361:.\main.c      ****     CySysWdtWriteMatch(CY_SYS_WDT_COUNTER0, 16000);                 /* Every 16000 cycles // 500ms 
 285              		.loc 1 361 0
 286 0030 FA21     		mov	r1, #250
 287 0032 8901     		lsl	r1, r1, #6
 288 0034 0020     		mov	r0, #0
 289 0036 FFF7FEFF 		bl	CySysWdtWriteMatch
 290              	.LVL28:
 362:.\main.c      ****     //CySysWdtLock(); // Lock WDT settings
 363:.\main.c      ****     
 364:.\main.c      ****     
 365:.\main.c      ****     CyDelay(100);			/* 500ms Delay */
 291              		.loc 1 365 0
 292 003a 6420     		mov	r0, #100
 293 003c FFF7FEFF 		bl	CyDelay
 294              	.LVL29:
 366:.\main.c      ****     TaskTimer_Start();		/* Timer for main Task */
 295              		.loc 1 366 0
 296 0040 FFF7FEFF 		bl	TaskTimer_Start
 297              	.LVL30:
 367:.\main.c      ****     NavLightPWM_Start();	/* Navigation Light PWM Timer Start */
 298              		.loc 1 367 0
 299 0044 FFF7FEFF 		bl	NavLightPWM_Start
 300              	.LVL31:
 368:.\main.c      ****     PPMCounter_Start();		/* PPM counter for input */
 301              		.loc 1 368 0
 302 0048 FFF7FEFF 		bl	PPMCounter_Start
 303              	.LVL32:
 369:.\main.c      ****     ServoTimer_Start();		/* Timer for Servo PWM */
 304              		.loc 1 369 0
ARM GAS  C:\Users\Sven\AppData\Local\Temp\cc7IOcoT.s 			page 13


 305 004c FFF7FEFF 		bl	ServoTimer_Start
 306              	.LVL33:
 370:.\main.c      ****     PPMISR_Start();			/* PPM ISR Start */
 307              		.loc 1 370 0
 308 0050 FFF7FEFF 		bl	PPMISR_Start
 309              	.LVL34:
 371:.\main.c      ****     PPMRstISR_Start();		/* PPM Reset ISR Start*/
 310              		.loc 1 371 0
 311 0054 FFF7FEFF 		bl	PPMRstISR_Start
 312              	.LVL35:
 372:.\main.c      ****     ServoISR_Start();		/* Servo PWM ISR */
 313              		.loc 1 372 0
 314 0058 FFF7FEFF 		bl	ServoISR_Start
 315              	.LVL36:
 373:.\main.c      ****     TaskISR_Start();		/* main task ISR */
 316              		.loc 1 373 0
 317 005c FFF7FEFF 		bl	TaskISR_Start
 318              	.LVL37:
 374:.\main.c      ****     BootISR_Start();		/* Boot ISR Start */
 319              		.loc 1 374 0
 320 0060 FFF7FEFF 		bl	BootISR_Start
 321              	.LVL38:
 375:.\main.c      ****        
 376:.\main.c      ****     /* Mavlink Initialization */
 377:.\main.c      ****     mavlink_system.sysid = 58;     /* ID for Airplane*/
 322              		.loc 1 377 0
 323 0064 634B     		ldr	r3, .L84+12
 324 0066 3A22     		mov	r2, #58
 325 0068 1A70     		strb	r2, [r3]
 378:.\main.c      ****     mavlink_system.compid = 58;    /* The component ID */
 326              		.loc 1 378 0
 327 006a 5A70     		strb	r2, [r3, #1]
 379:.\main.c      ****     
 380:.\main.c      **** 	/* in use if ALT IMU installed */
 381:.\main.c      ****     #ifdef ALTIMU	
 382:.\main.c      ****     if(GYRO_TASK == TRUE) gyro_start();
 383:.\main.c      ****     if(ACC_TASK == TRUE) acc_start();
 384:.\main.c      ****     if(MAG_TASK == TRUE) mag_start();
 385:.\main.c      **** 	/* in use if MPU6050 installed */
 386:.\main.c      ****     #else 
 387:.\main.c      ****     if(GYRO_TASK == TRUE) MPU6050_Init();
 388:.\main.c      ****     if(MAG_TASK == TRUE) HMC_Init();
 389:.\main.c      ****     #endif
 390:.\main.c      ****     
 391:.\main.c      ****     if(BARO_TASK == TRUE) 
 392:.\main.c      **** 	{
 393:.\main.c      **** 		BMP180_baro_init();		/* Initialize Barometer BMP180 */
 328              		.loc 1 393 0
 329 006c FFF7FEFF 		bl	BMP180_baro_init
 330              	.LVL39:
 394:.\main.c      **** 		
 395:.\main.c      **** 		/* Determine current pressure setting (On ground pressure (QNH) */
 396:.\main.c      **** 		
 397:.\main.c      ****         BMP180_baro_trigger_temp();			/* Trigger Temperature conversion and wait min 4.5ms */
 331              		.loc 1 397 0
 332 0070 FFF7FEFF 		bl	BMP180_baro_trigger_temp
 333              	.LVL40:
ARM GAS  C:\Users\Sven\AppData\Local\Temp\cc7IOcoT.s 			page 14


 398:.\main.c      **** 		CyDelay(5);
 334              		.loc 1 398 0
 335 0074 0520     		mov	r0, #5
 336 0076 FFF7FEFF 		bl	CyDelay
 337              	.LVL41:
 399:.\main.c      **** 		temp = BMP180_baro_read_temp();		/* Read temperature from Barometer */
 338              		.loc 1 399 0
 339 007a FFF7FEFF 		bl	BMP180_baro_read_temp
 340              	.LVL42:
 341 007e 5E4C     		ldr	r4, .L84+16
 342 0080 6060     		str	r0, [r4, #4]
 400:.\main.c      **** 		CyDelay(5);
 343              		.loc 1 400 0
 344 0082 0520     		mov	r0, #5
 345 0084 FFF7FEFF 		bl	CyDelay
 346              	.LVL43:
 401:.\main.c      **** 		BMP180_baro_trigger_pressure();		/* Trigger pressure conversion and wait min 4.5ms */
 347              		.loc 1 401 0
 348 0088 FFF7FEFF 		bl	BMP180_baro_trigger_pressure
 349              	.LVL44:
 402:.\main.c      **** 		CyDelay(5);                    
 350              		.loc 1 402 0
 351 008c 0520     		mov	r0, #5
 352 008e FFF7FEFF 		bl	CyDelay
 353              	.LVL45:
 403:.\main.c      **** 		QFE = BMP180_baro_read_pressure();/* Read pressure and calculate pressure output */
 354              		.loc 1 403 0
 355 0092 FFF7FEFF 		bl	BMP180_baro_read_pressure
 356              	.LVL46:
 357 0096 A060     		str	r0, [r4, #8]
 404:.\main.c      **** 		UART_1_UartPutString("Current QFE: ");
 358              		.loc 1 404 0
 359 0098 5848     		ldr	r0, .L84+20
 360 009a FFF7FEFF 		bl	UART_1_UartPutString
 361              	.LVL47:
 405:.\main.c      **** 		UART_1_UartPutNum(QFE);
 362              		.loc 1 405 0
 363 009e A068     		ldr	r0, [r4, #8]
 364 00a0 FFF7FEFF 		bl	UART_1_UartPutNum
 365              	.LVL48:
 406:.\main.c      **** 		UART_1_UartPutString("\r\n");
 366              		.loc 1 406 0
 367 00a4 5648     		ldr	r0, .L84+24
 368 00a6 FFF7FEFF 		bl	UART_1_UartPutString
 369              	.LVL49:
 407:.\main.c      **** 	}
 408:.\main.c      ****     
 409:.\main.c      ****     /* Enable Watchdog */
 410:.\main.c      ****     CySysWdtEnable(CY_SYS_WDT_COUNTER0_MASK);
 370              		.loc 1 410 0
 371 00aa 0120     		mov	r0, #1
 372 00ac FFF7FEFF 		bl	CySysWdtEnable
 373              	.LVL50:
 411:.\main.c      **** 	
 412:.\main.c      **** 	/* Initialization Complete */
 413:.\main.c      ****     UART_1_UartPutString("Init Complete\r\n");
 374              		.loc 1 413 0
ARM GAS  C:\Users\Sven\AppData\Local\Temp\cc7IOcoT.s 			page 15


 375 00b0 5448     		ldr	r0, .L84+28
 376 00b2 FFF7FEFF 		bl	UART_1_UartPutString
 377              	.LVL51:
 378              	.L67:
 414:.\main.c      ****     for(;;)
 415:.\main.c      ****     {
 416:.\main.c      ****         
 417:.\main.c      ****         if(task_flag == TRUE)
 379              		.loc 1 417 0
 380 00b6 504F     		ldr	r7, .L84+16
 381 00b8 3B7B     		ldrb	r3, [r7, #12]
 382 00ba 3D1C     		mov	r5, r7
 383 00bc 012B     		cmp	r3, #1
 384 00be 01D0     		beq	.LCB280
 385 00c0 00F0FDFB 		bl	.L20	@far jump
 386              	.LCB280:
 387              	.LBB2:
 418:.\main.c      ****         {
 419:.\main.c      ****             /*=======================================
 420:.\main.c      ****                 Main Task that is executed every 10ms
 421:.\main.c      ****               =======================================*/
 422:.\main.c      ****             task_flag = FALSE;	/* Resetting Task Flag */    
 423:.\main.c      ****             
 424:.\main.c      ****             /*=======================================
 425:.\main.c      ****                 Light Control
 426:.\main.c      ****               =======================================*/
 427:.\main.c      ****             
 428:.\main.c      ****             if(flag_LightsEnabled == TRUE)
 388              		.loc 1 428 0
 389 00c4 504E     		ldr	r6, .L84+32
 422:.\main.c      ****             task_flag = FALSE;	/* Resetting Task Flag */    
 390              		.loc 1 422 0
 391 00c6 0024     		mov	r4, #0
 392              		.loc 1 428 0
 393 00c8 B278     		ldrb	r2, [r6, #2]
 422:.\main.c      ****             task_flag = FALSE;	/* Resetting Task Flag */    
 394              		.loc 1 422 0
 395 00ca 3C73     		strb	r4, [r7, #12]
 396              		.loc 1 428 0
 397 00cc 012A     		cmp	r2, #1
 398 00ce 2CD1     		bne	.L21
 429:.\main.c      ****             {
 430:.\main.c      ****                 /* Lights enabled */
 431:.\main.c      ****                 /* START PWM FOR NAV LIGHTS HERE */
 432:.\main.c      ****                 if(NavLightCompare == NavLightBright)
 399              		.loc 1 432 0
 400 00d0 FB89     		ldrh	r3, [r7, #14]
 401 00d2 B188     		ldrh	r1, [r6, #4]
 402 00d4 9942     		cmp	r1, r3
 403 00d6 01D1     		bne	.L22
 433:.\main.c      ****                 {
 434:.\main.c      ****                     flag_NavLightPulse = TRUE;
 404              		.loc 1 434 0
 405 00d8 3A74     		strb	r2, [r7, #16]
 406 00da 03E0     		b	.L23
 407              	.L22:
 435:.\main.c      ****                 }
ARM GAS  C:\Users\Sven\AppData\Local\Temp\cc7IOcoT.s 			page 16


 436:.\main.c      ****                 else if (NavLightCompare == NavLightDim)
 408              		.loc 1 436 0
 409 00dc 7A8A     		ldrh	r2, [r7, #18]
 410 00de 9A42     		cmp	r2, r3
 411 00e0 00D1     		bne	.L23
 437:.\main.c      ****                 {
 438:.\main.c      ****                     flag_NavLightPulse = FALSE;
 412              		.loc 1 438 0
 413 00e2 3C74     		strb	r4, [r7, #16]
 414              	.L23:
 439:.\main.c      ****                 }
 440:.\main.c      ****                 if(flag_NavLightPulse == 0)
 415              		.loc 1 440 0
 416 00e4 3A7C     		ldrb	r2, [r7, #16]
 441:.\main.c      ****                 {
 442:.\main.c      ****                     NavLightCompare+=NavLightStep;
 417              		.loc 1 442 0
 418 00e6 F088     		ldrh	r0, [r6, #6]
 440:.\main.c      ****                 if(flag_NavLightPulse == 0)
 419              		.loc 1 440 0
 420 00e8 002A     		cmp	r2, #0
 421 00ea 01D1     		bne	.L24
 422              		.loc 1 442 0
 423 00ec 1B18     		add	r3, r3, r0
 424 00ee 00E0     		b	.L77
 425              	.L24:
 443:.\main.c      ****                     NavLightPWM_WriteCompare(NavLightCompare);
 444:.\main.c      ****                 }
 445:.\main.c      ****                 else
 446:.\main.c      ****                 {
 447:.\main.c      ****                     NavLightCompare-=NavLightStep;
 426              		.loc 1 447 0
 427 00f0 1B1A     		sub	r3, r3, r0
 428              	.L77:
 429 00f2 98B2     		uxth	r0, r3
 430 00f4 F881     		strh	r0, [r7, #14]
 448:.\main.c      ****                     NavLightPWM_WriteCompare(NavLightCompare);
 431              		.loc 1 448 0
 432 00f6 FFF7FEFF 		bl	NavLightPWM_WriteCompare
 433              	.LVL52:
 449:.\main.c      ****                 }
 450:.\main.c      ****                 /* Strobe Light Control */
 451:.\main.c      ****                 if(cnt_StrobeLight == 200) Strobes_Write(0x00); /* Setting Output Low */
 434              		.loc 1 451 0
 435 00fa 3B7D     		ldrb	r3, [r7, #20]
 436 00fc C82B     		cmp	r3, #200
 437 00fe 02D1     		bne	.L26
 438              		.loc 1 451 0 is_stmt 0 discriminator 1
 439 0100 0020     		mov	r0, #0
 440 0102 FFF7FEFF 		bl	Strobes_Write
 441              	.LVL53:
 442              	.L26:
 452:.\main.c      ****                 if(cnt_StrobeLight == 205)  /* (205 - 200) *10 ms = 5 * 10 ms = 50 ms Strobe */
 443              		.loc 1 452 0 is_stmt 1
 444 0106 3B7D     		ldrb	r3, [r7, #20]
 445 0108 CD2B     		cmp	r3, #205
 446 010a 04D1     		bne	.L27
ARM GAS  C:\Users\Sven\AppData\Local\Temp\cc7IOcoT.s 			page 17


 453:.\main.c      ****                 {
 454:.\main.c      ****                     cnt_StrobeLight = 0;
 447              		.loc 1 454 0
 448 010c 0023     		mov	r3, #0
 455:.\main.c      ****                     Strobes_Write(0xFF);    /* Setting output High */
 449              		.loc 1 455 0
 450 010e FF20     		mov	r0, #255
 454:.\main.c      ****                     cnt_StrobeLight = 0;
 451              		.loc 1 454 0
 452 0110 3B75     		strb	r3, [r7, #20]
 453              		.loc 1 455 0
 454 0112 FFF7FEFF 		bl	Strobes_Write
 455              	.LVL54:
 456              	.L27:
 456:.\main.c      ****                 }
 457:.\main.c      ****                 cnt_StrobeLight++;
 457              		.loc 1 457 0
 458 0116 3B7D     		ldrb	r3, [r7, #20]
 458:.\main.c      ****                 /* Landing Light Control */
 459:.\main.c      ****                 if(ctrl_in[in_gear] < 1100)
 460:.\main.c      ****                 {
 461:.\main.c      ****                     Ldg_Write(0xFF);
 459              		.loc 1 461 0
 460 0118 FF20     		mov	r0, #255
 457:.\main.c      ****                 cnt_StrobeLight++;
 461              		.loc 1 457 0
 462 011a 0133     		add	r3, r3, #1
 463 011c 3B75     		strb	r3, [r7, #20]
 459:.\main.c      ****                 if(ctrl_in[in_gear] < 1100)
 464              		.loc 1 459 0
 465 011e EA8B     		ldrh	r2, [r5, #30]
 466 0120 3A4B     		ldr	r3, .L84+36
 467 0122 9A42     		cmp	r2, r3
 468 0124 08D9     		bls	.L78
 462:.\main.c      ****                 }
 463:.\main.c      ****                 else Ldg_Write(0x00);
 469              		.loc 1 463 0
 470 0126 0020     		mov	r0, #0
 471 0128 06E0     		b	.L78
 472              	.L21:
 464:.\main.c      ****             }
 465:.\main.c      ****             else
 466:.\main.c      ****             {
 467:.\main.c      ****                 /* Lights disabled*/
 468:.\main.c      ****                 NavLightPWM_WriteCompare(0);    /* Nav Lights set to 0 */
 473              		.loc 1 468 0
 474 012a 201C     		mov	r0, r4
 475 012c FFF7FEFF 		bl	NavLightPWM_WriteCompare
 476              	.LVL55:
 469:.\main.c      ****                 Strobes_Write(0xFF);    		/* Setting output High to turn off */
 477              		.loc 1 469 0
 478 0130 FF20     		mov	r0, #255
 479 0132 FFF7FEFF 		bl	Strobes_Write
 480              	.LVL56:
 470:.\main.c      ****                 Ldg_Write(0x00);
 481              		.loc 1 470 0
 482 0136 201C     		mov	r0, r4
ARM GAS  C:\Users\Sven\AppData\Local\Temp\cc7IOcoT.s 			page 18


 483              	.L78:
 484 0138 FFF7FEFF 		bl	Ldg_Write
 485              	.LVL57:
 471:.\main.c      ****             }
 472:.\main.c      **** 
 473:.\main.c      ****             /*=======================================
 474:.\main.c      ****                 Sensor Reading
 475:.\main.c      ****               =======================================*/
 476:.\main.c      **** 			/* Gyro Reading */
 477:.\main.c      ****             if(GYRO_TASK == TRUE)
 478:.\main.c      ****             {
 479:.\main.c      ****                 #ifdef ALTIMU
 480:.\main.c      ****                     gyro_read();
 481:.\main.c      ****                 #else
 482:.\main.c      ****                     MPU6050_data_read();    /* All MPU Data is read at once */
 483:.\main.c      ****                 #endif
 484:.\main.c      **** 
 485:.\main.c      ****             }
 486:.\main.c      ****             if(ACC_TASK == TRUE)
 487:.\main.c      ****             {
 488:.\main.c      ****                 #ifdef ALTIMU
 489:.\main.c      ****                     acc_read();
 490:.\main.c      ****                 #else
 491:.\main.c      ****                     //MPU6050_acc_read();
 492:.\main.c      ****                     
 493:.\main.c      ****                 #endif
 494:.\main.c      **** 
 495:.\main.c      ****             }
 496:.\main.c      ****             if(MAG_TASK == TRUE)
 497:.\main.c      ****             {
 498:.\main.c      ****                 static uint8_t mag_cnt = 0;
 499:.\main.c      ****                 
 500:.\main.c      ****                 #ifdef ALTIMU
 501:.\main.c      ****                     mag_read();
 502:.\main.c      ****                 #else // HMC Magnetometer
 503:.\main.c      ****                     if(mag_cnt == 10)
 504:.\main.c      ****                     {
 505:.\main.c      ****                         HMC_data_read();
 506:.\main.c      ****                         mag_cnt = 0;
 507:.\main.c      ****                     }
 508:.\main.c      ****                     mag_cnt++;
 509:.\main.c      ****                 #endif
 510:.\main.c      ****             }
 511:.\main.c      ****             if(BARO_TASK == TRUE)
 512:.\main.c      ****             {
 513:.\main.c      **** 				/* The pressure reading from BMP180 takes some time (check functions) 
 514:.\main.c      **** 					therefore we are not in one cycle doing all calculcations but put
 515:.\main.c      **** 					one cycle in between calculations / triggering etc. */
 516:.\main.c      ****                 cnt_baro++;
 486              		.loc 1 516 0
 487 013c EA1D     		add	r2, r5, #7
 488 013e D37F     		ldrb	r3, [r2, #31]
 489 0140 0133     		add	r3, r3, #1
 490 0142 DBB2     		uxtb	r3, r3
 491 0144 D377     		strb	r3, [r2, #31]
 517:.\main.c      ****                 if(cnt_baro == 49)
 492              		.loc 1 517 0
ARM GAS  C:\Users\Sven\AppData\Local\Temp\cc7IOcoT.s 			page 19


 493 0146 312B     		cmp	r3, #49
 494 0148 01D1     		bne	.L30
 518:.\main.c      ****                 {
 519:.\main.c      ****                     /* Trigger Temperature conversion and wait min 4.5ms */
 520:.\main.c      ****                     BMP180_baro_trigger_temp();
 495              		.loc 1 520 0
 496 014a FFF7FEFF 		bl	BMP180_baro_trigger_temp
 497              	.LVL58:
 498              	.L30:
 521:.\main.c      ****                 }
 522:.\main.c      ****                 if(cnt_baro == 50)
 499              		.loc 1 522 0
 500 014e EB1D     		add	r3, r5, #7
 501 0150 DB7F     		ldrb	r3, [r3, #31]
 502 0152 322B     		cmp	r3, #50
 503 0154 02D1     		bne	.L31
 523:.\main.c      ****                 {
 524:.\main.c      ****                     /* Read temperature from Barometer */
 525:.\main.c      ****                     temp = BMP180_baro_read_temp();
 504              		.loc 1 525 0
 505 0156 FFF7FEFF 		bl	BMP180_baro_read_temp
 506              	.LVL59:
 507 015a 7860     		str	r0, [r7, #4]
 508              	.L31:
 526:.\main.c      **** 
 527:.\main.c      ****                     //UART_1_UartPutNum(temp);
 528:.\main.c      ****                     //UART_1_UartPutString("; ");
 529:.\main.c      ****                 }
 530:.\main.c      ****                 if(cnt_baro == 51)
 509              		.loc 1 530 0
 510 015c EB1D     		add	r3, r5, #7
 511 015e DB7F     		ldrb	r3, [r3, #31]
 512 0160 332B     		cmp	r3, #51
 513 0162 01D1     		bne	.L32
 531:.\main.c      ****                 {
 532:.\main.c      ****                     /* Trigger pressure conversion and wait min 4.5ms */
 533:.\main.c      ****                     BMP180_baro_trigger_pressure();
 514              		.loc 1 533 0
 515 0164 FFF7FEFF 		bl	BMP180_baro_trigger_pressure
 516              	.LVL60:
 517              	.L32:
 534:.\main.c      ****                 }
 535:.\main.c      ****                 if(cnt_baro == 52)
 518              		.loc 1 535 0
 519 0168 EB1D     		add	r3, r5, #7
 520 016a DB7F     		ldrb	r3, [r3, #31]
 521 016c 342B     		cmp	r3, #52
 522 016e 02D1     		bne	.L33
 536:.\main.c      ****                 {
 537:.\main.c      ****                     
 538:.\main.c      ****                     /* Read pressure and calculate pressure output */
 539:.\main.c      ****                     press = BMP180_baro_read_pressure();
 523              		.loc 1 539 0
 524 0170 FFF7FEFF 		bl	BMP180_baro_read_pressure
 525              	.LVL61:
 526 0174 B862     		str	r0, [r7, #40]
 527              	.L33:
ARM GAS  C:\Users\Sven\AppData\Local\Temp\cc7IOcoT.s 			page 20


 540:.\main.c      ****                     //UART_1_UartPutNum(press/100);
 541:.\main.c      ****                     //UART_1_UartPutString("; ");
 542:.\main.c      ****                 }
 543:.\main.c      ****                 if(cnt_baro == 53)
 528              		.loc 1 543 0
 529 0176 EB1D     		add	r3, r5, #7
 530 0178 DA7F     		ldrb	r2, [r3, #31]
 531 017a 352A     		cmp	r2, #53
 532 017c 0CD1     		bne	.L34
 544:.\main.c      ****                 {
 545:.\main.c      ****                     /* Calculate Altitude */
 546:.\main.c      ****                     /* take calibrated pressure (QFE) and determine by press difference the altitud
 547:.\main.c      ****                     alt = (QFE-(press))*0.0843;  // pressure in Pa -> 0.0843m / Pa of change
 533              		.loc 1 547 0
 534 017e BA6A     		ldr	r2, [r7, #40]
 535 0180 B968     		ldr	r1, [r7, #8]
 536 0182 881A     		sub	r0, r1, r2
 537 0184 FFF7FEFF 		bl	__aeabi_i2d
 538              	.LVL62:
 539 0188 184B     		ldr	r3, .L84+4
 540 018a 174A     		ldr	r2, .L84
 541 018c FFF7FEFF 		bl	__aeabi_dmul
 542              	.LVL63:
 543 0190 FFF7FEFF 		bl	__aeabi_d2iz
 544              	.LVL64:
 545 0194 F862     		str	r0, [r7, #44]
 546 0196 08E0     		b	.L35
 547              	.L34:
 548:.\main.c      **** 
 549:.\main.c      ****                 }
 550:.\main.c      ****                 if(cnt_baro == 54)
 548              		.loc 1 550 0
 549 0198 362A     		cmp	r2, #54
 550 019a 06D1     		bne	.L35
 551:.\main.c      ****                 {
 552:.\main.c      ****                     // Calculate Climb Rate
 553:.\main.c      ****                     cnt_baro = 0;
 551              		.loc 1 553 0
 552 019c 0022     		mov	r2, #0
 553 019e DA77     		strb	r2, [r3, #31]
 554:.\main.c      ****                     climb_rate = alt-alt_previous;
 554              		.loc 1 554 0
 555 01a0 786B     		ldr	r0, [r7, #52]
 556 01a2 FB6A     		ldr	r3, [r7, #44]
 557 01a4 1A1A     		sub	r2, r3, r0
 558 01a6 3A86     		strh	r2, [r7, #48]
 555:.\main.c      ****                     alt_previous = alt;
 559              		.loc 1 555 0
 560 01a8 7B63     		str	r3, [r7, #52]
 561              	.L35:
 556:.\main.c      ****                 }
 557:.\main.c      ****             }
 558:.\main.c      ****             if(SPEED_TASK == TRUE)
 559:.\main.c      ****             {
 560:.\main.c      ****                 
 561:.\main.c      ****                 /*
 562:.\main.c      **** 				For calibrating the speed reading, put both sticks to lower left corner
ARM GAS  C:\Users\Sven\AppData\Local\Temp\cc7IOcoT.s 			page 21


 563:.\main.c      **** 				
 564:.\main.c      ****                      - - - -         - - - -
 565:.\main.c      ****                     |       |       |       |
 566:.\main.c      ****                     |       |       |       |
 567:.\main.c      ****                     |       |       |       |
 568:.\main.c      ****                     |X      |       |X      |
 569:.\main.c      ****                      - - - -         - - - -
 570:.\main.c      ****                 */
 571:.\main.c      ****                 
 572:.\main.c      ****                 if((ctrl_in[in_mot]<1200) &&        
 562              		.loc 1 572 0
 563 01aa 1949     		ldr	r1, .L84+40
 564 01ac FA8A     		ldrh	r2, [r7, #22]
 565 01ae 2B1C     		mov	r3, r5
 566 01b0 1633     		add	r3, r3, #22
 567 01b2 8A42     		cmp	r2, r1
 568 01b4 30D8     		bhi	.L36
 569              		.loc 1 572 0 is_stmt 0 discriminator 1
 570 01b6 D888     		ldrh	r0, [r3, #6]
 571 01b8 E122     		mov	r2, #225
 572 01ba D200     		lsl	r2, r2, #3
 573 01bc 9042     		cmp	r0, r2
 574 01be 2BD9     		bls	.L36
 573:.\main.c      ****                    (ctrl_in[in_rud]>1800) && 
 575              		.loc 1 573 0 is_stmt 1
 576 01c0 5888     		ldrh	r0, [r3, #2]
 577 01c2 8842     		cmp	r0, r1
 578 01c4 28D8     		bhi	.L36
 574:.\main.c      ****                    (ctrl_in[in_ail]<1200) &&
 579              		.loc 1 574 0
 580 01c6 9B88     		ldrh	r3, [r3, #4]
 581 01c8 9342     		cmp	r3, r2
 582 01ca 25D9     		bls	.L36
 575:.\main.c      ****                    (ctrl_in[in_ele]>1800) &&
 576:.\main.c      ****                     speed_cal_compl == FALSE)
 583              		.loc 1 576 0
 584 01cc 2B1C     		mov	r3, r5
 585 01ce 3833     		add	r3, r3, #56
 575:.\main.c      ****                    (ctrl_in[in_ele]>1800) &&
 586              		.loc 1 575 0
 587 01d0 1A78     		ldrb	r2, [r3]
 588 01d2 002A     		cmp	r2, #0
 589 01d4 20D1     		bne	.L36
 577:.\main.c      ****                 {
 578:.\main.c      ****                     speed_cal_compl = TRUE;
 590              		.loc 1 578 0
 591 01d6 0122     		mov	r2, #1
 592 01d8 1A70     		strb	r2, [r3]
 579:.\main.c      **** 					/* used to determine the speed offset (not during power up as 
 580:.\main.c      **** 					the reading stablizes after some seconds only) */
 581:.\main.c      ****                     ADC_calibrate_speed();
 593              		.loc 1 581 0
 594 01da FFF7FEFF 		bl	ADC_calibrate_speed
 595              	.LVL65:
 582:.\main.c      ****                     UART_1_UartPutString("ADC Calibrated\r\n");
 596              		.loc 1 582 0
 597 01de 0D48     		ldr	r0, .L84+44
ARM GAS  C:\Users\Sven\AppData\Local\Temp\cc7IOcoT.s 			page 22


 598 01e0 FFF7FEFF 		bl	UART_1_UartPutString
 599              	.LVL66:
 600 01e4 2DE0     		b	.L37
 601              	.L85:
 602 01e6 C046     		.align	3
 603              	.L84:
 604 01e8 4D840D4F 		.word	1326285901
 605 01ec AF94B53F 		.word	1068864687
 606 01f0 00030B40 		.word	1074463488
 607 01f4 00000000 		.word	mavlink_system
 608 01f8 00000000 		.word	.LANCHOR1
 609 01fc 0F000000 		.word	.LC9
 610 0200 1D000000 		.word	.LC11
 611 0204 20000000 		.word	.LC13
 612 0208 00000000 		.word	.LANCHOR0
 613 020c 4B040000 		.word	1099
 614 0210 AF040000 		.word	1199
 615 0214 30000000 		.word	.LC16
 616              	.L36:
 583:.\main.c      ****                 }
 584:.\main.c      ****                 else if((ctrl_in[in_rud]>1200) && 
 617              		.loc 1 584 0
 618 0218 A98B     		ldrh	r1, [r5, #28]
 619 021a 2B1C     		mov	r3, r5
 620 021c 9622     		mov	r2, #150
 621 021e D200     		lsl	r2, r2, #3
 622 0220 1633     		add	r3, r3, #22
 623 0222 9142     		cmp	r1, r2
 624 0224 0DD9     		bls	.L37
 625              		.loc 1 584 0 is_stmt 0 discriminator 1
 626 0226 5988     		ldrh	r1, [r3, #2]
 627 0228 9142     		cmp	r1, r2
 628 022a 0AD9     		bls	.L37
 585:.\main.c      ****                    (ctrl_in[in_ail]>1200) &&
 629              		.loc 1 585 0 is_stmt 1
 630 022c 9A88     		ldrh	r2, [r3, #4]
 631 022e D84B     		ldr	r3, .L86+16
 632 0230 9A42     		cmp	r2, r3
 633 0232 06D8     		bhi	.L37
 586:.\main.c      ****                    (ctrl_in[in_ele]<1800) &&
 587:.\main.c      ****                     speed_cal_compl == TRUE)
 634              		.loc 1 587 0
 635 0234 2B1C     		mov	r3, r5
 636 0236 3833     		add	r3, r3, #56
 586:.\main.c      ****                    (ctrl_in[in_ele]<1800) &&
 637              		.loc 1 586 0
 638 0238 1A78     		ldrb	r2, [r3]
 639 023a 012A     		cmp	r2, #1
 640 023c 01D1     		bne	.L37
 588:.\main.c      ****                 {
 589:.\main.c      ****                     speed_cal_compl = FALSE;
 641              		.loc 1 589 0
 642 023e 0022     		mov	r2, #0
 643 0240 1A70     		strb	r2, [r3]
 644              	.L37:
 590:.\main.c      ****                 }
 591:.\main.c      ****                 speed = ADC_read_speed() - speed_offset;
ARM GAS  C:\Users\Sven\AppData\Local\Temp\cc7IOcoT.s 			page 23


 645              		.loc 1 591 0
 646 0242 FFF7FEFF 		bl	ADC_read_speed
 647              	.LVL67:
 592:.\main.c      ****                 
 593:.\main.c      ****                 speed = (speed+Speed_Prev1+Speed_Prev2+Speed_Prev3+Speed_Prev4)/5;
 648              		.loc 1 593 0
 649 0246 D34B     		ldr	r3, .L86+20
 650 0248 2C1C     		mov	r4, r5
 651 024a 1B78     		ldrb	r3, [r3]
 652 024c 3934     		add	r4, r4, #57
 653 024e 0293     		str	r3, [sp, #8]
 654 0250 D14A     		ldr	r2, .L86+24
 591:.\main.c      ****                 speed = ADC_read_speed() - speed_offset;
 655              		.loc 1 591 0
 656 0252 3388     		ldrh	r3, [r6]
 657              		.loc 1 593 0
 658 0254 2178     		ldrb	r1, [r4]
 659 0256 1278     		ldrb	r2, [r2]
 591:.\main.c      ****                 speed = ADC_read_speed() - speed_offset;
 660              		.loc 1 591 0
 661 0258 C01A     		sub	r0, r0, r3
 662              		.loc 1 593 0
 663 025a 0091     		str	r1, [sp]
 664 025c 4BB2     		sxtb	r3, r1
 665 025e 00B2     		sxth	r0, r0
 666 0260 0299     		ldr	r1, [sp, #8]
 667 0262 C018     		add	r0, r0, r3
 668 0264 53B2     		sxtb	r3, r2
 669 0266 0492     		str	r2, [sp, #16]
 670 0268 C018     		add	r0, r0, r3
 671 026a CC4A     		ldr	r2, .L86+28
 672 026c 4BB2     		sxtb	r3, r1
 673 026e C018     		add	r0, r0, r3
 674 0270 0023     		mov	r3, #0
 675 0272 D356     		ldrsb	r3, [r2, r3]
 676 0274 0521     		mov	r1, #5
 677 0276 C018     		add	r0, r0, r3
 678 0278 FFF7FEFF 		bl	__aeabi_idiv
 679              	.LVL68:
 594:.\main.c      ****                 
 595:.\main.c      ****                 Speed_Prev4 = Speed_Prev3;
 680              		.loc 1 595 0
 681 027c 0299     		ldr	r1, [sp, #8]
 682 027e C74B     		ldr	r3, .L86+28
 596:.\main.c      ****                 Speed_Prev3 = Speed_Prev2;
 683              		.loc 1 596 0
 684 0280 C44A     		ldr	r2, .L86+20
 595:.\main.c      ****                 Speed_Prev4 = Speed_Prev3;
 685              		.loc 1 595 0
 686 0282 1970     		strb	r1, [r3]
 687              		.loc 1 596 0
 688 0284 049B     		ldr	r3, [sp, #16]
 597:.\main.c      ****                 Speed_Prev2 = Speed_Prev1;
 689              		.loc 1 597 0
 690 0286 C449     		ldr	r1, .L86+24
 596:.\main.c      ****                 Speed_Prev3 = Speed_Prev2;
 691              		.loc 1 596 0
ARM GAS  C:\Users\Sven\AppData\Local\Temp\cc7IOcoT.s 			page 24


 692 0288 1370     		strb	r3, [r2]
 598:.\main.c      ****                 Speed_Prev1 = speed;
 693              		.loc 1 598 0
 694 028a 2070     		strb	r0, [r4]
 597:.\main.c      ****                 Speed_Prev2 = Speed_Prev1;
 695              		.loc 1 597 0
 696 028c 009A     		ldr	r2, [sp]
 593:.\main.c      ****                 speed = (speed+Speed_Prev1+Speed_Prev2+Speed_Prev3+Speed_Prev4)/5;
 697              		.loc 1 593 0
 698 028e 7880     		strh	r0, [r7, #2]
 599:.\main.c      ****             }
 600:.\main.c      ****             
 601:.\main.c      ****             #ifdef FUNCUB
 602:.\main.c      ****             /* Theta and Phi out of acceleration data*/
 603:.\main.c      ****             // In Funcub the IMU is installed correctly
 604:.\main.c      ****             Theta_acc = (atan2(acc_x_g,-acc_z_g))*180/PI;
 605:.\main.c      **** 		    Phi_acc = (atan2(-acc_y_g,-acc_z_g))*180/PI;
 606:.\main.c      ****             //Psi_acc = (atan2(-acc_y_g,-acc_x_g))*180/PI;	/* Psi is not of any use, Heading would 
 607:.\main.c      **** 			#elif defined T_50
 608:.\main.c      ****             // in T 50 the IMU is installed turned 180 deg by z axis and x axis
 609:.\main.c      ****             Theta_acc = (atan2(-acc_x_g,acc_z_g))*180/PI;
 699              		.loc 1 609 0
 700 0290 3E23     		mov	r3, #62
 701 0292 F85E     		ldrsh	r0, [r7, r3]
 597:.\main.c      ****                 Speed_Prev2 = Speed_Prev1;
 702              		.loc 1 597 0
 703 0294 0A70     		strb	r2, [r1]
 704              		.loc 1 609 0
 705 0296 4042     		neg	r0, r0
 706 0298 FFF7FEFF 		bl	__aeabi_i2d
 707              	.LVL69:
 708 029c 373C     		sub	r4, r4, #55
 709 029e 0090     		str	r0, [sp]
 710 02a0 0191     		str	r1, [sp, #4]
 711 02a2 3E21     		mov	r1, #62
 712 02a4 605E     		ldrsh	r0, [r4, r1]
 713 02a6 FFF7FEFF 		bl	__aeabi_i2d
 714              	.LVL70:
 715 02aa 021C     		mov	r2, r0
 716 02ac 0B1C     		mov	r3, r1
 717 02ae 0098     		ldr	r0, [sp]
 718 02b0 0199     		ldr	r1, [sp, #4]
 719 02b2 FFF7FEFF 		bl	atan2
 720              	.LVL71:
 721 02b6 B34B     		ldr	r3, .L86+4
 722 02b8 B14A     		ldr	r2, .L86
 723 02ba FFF7FEFF 		bl	__aeabi_dmul
 724              	.LVL72:
 725 02be B24A     		ldr	r2, .L86+8
 726 02c0 B24B     		ldr	r3, .L86+12
 727 02c2 FFF7FEFF 		bl	__aeabi_ddiv
 728              	.LVL73:
 729 02c6 FFF7FEFF 		bl	__aeabi_d2f
 730              	.LVL74:
 731 02ca B54A     		ldr	r2, .L86+32
 610:.\main.c      **** 		    Phi_acc = (atan2(-acc_y_g,acc_z_g))*180/PI;   
 732              		.loc 1 610 0
ARM GAS  C:\Users\Sven\AppData\Local\Temp\cc7IOcoT.s 			page 25


 733 02cc 2B1D     		add	r3, r5, #4
 609:.\main.c      ****             Theta_acc = (atan2(-acc_x_g,acc_z_g))*180/PI;
 734              		.loc 1 609 0
 735 02ce 1060     		str	r0, [r2]
 736              		.loc 1 610 0
 737 02d0 3E21     		mov	r1, #62
 738 02d2 585E     		ldrsh	r0, [r3, r1]
 739 02d4 4042     		neg	r0, r0
 740 02d6 FFF7FEFF 		bl	__aeabi_i2d
 741              	.LVL75:
 742 02da 0090     		str	r0, [sp]
 743 02dc 0191     		str	r1, [sp, #4]
 744 02de 3E22     		mov	r2, #62
 745 02e0 A05E     		ldrsh	r0, [r4, r2]
 746 02e2 FFF7FEFF 		bl	__aeabi_i2d
 747              	.LVL76:
 748 02e6 021C     		mov	r2, r0
 749 02e8 0B1C     		mov	r3, r1
 750 02ea 0098     		ldr	r0, [sp]
 751 02ec 0199     		ldr	r1, [sp, #4]
 752 02ee FFF7FEFF 		bl	atan2
 753              	.LVL77:
 754 02f2 A44B     		ldr	r3, .L86+4
 755 02f4 A24A     		ldr	r2, .L86
 756 02f6 FFF7FEFF 		bl	__aeabi_dmul
 757              	.LVL78:
 758 02fa A34A     		ldr	r2, .L86+8
 759 02fc A34B     		ldr	r3, .L86+12
 760 02fe FFF7FEFF 		bl	__aeabi_ddiv
 761              	.LVL79:
 762 0302 FFF7FEFF 		bl	__aeabi_d2f
 763              	.LVL80:
 764 0306 A74B     		ldr	r3, .L86+36
 765 0308 041C     		add	r4, r0, #0
 766 030a 1860     		str	r0, [r3]
 611:.\main.c      ****             #endif
 612:.\main.c      **** 			
 613:.\main.c      **** 			/*=========================================================*/
 614:.\main.c      **** 			/* KALMAN FILTER  */
 615:.\main.c      **** 			/* Calculating the attitude by using Kalman Filtering START*/
 616:.\main.c      **** 			/* Currently not in use due to high calculation efforts, using complementary filter only (see be
 617:.\main.c      **** 			/*=======================================================*/
 618:.\main.c      **** //            Theta += sample_time * (turn_rate_q-q_bias);
 619:.\main.c      **** //            
 620:.\main.c      **** //			//P_00_Theta +=  - sample_time * ((P_10_Theta + P_01_Theta) - Q_angle);
 621:.\main.c      **** //            P_Theta[0][0] +=  - sample_time * ((P_Theta[1][0] + P_Theta[0][1]) - Q_angle);
 622:.\main.c      **** ////			P_01_Theta +=  - sample_time * P_11_Theta;
 623:.\main.c      **** //            P_Theta[0][1] +=  - sample_time * P_Theta[1][1];
 624:.\main.c      **** //			//P_10_Theta = P_01_Theta;
 625:.\main.c      **** //            P_Theta[1][0] = P_Theta[0][1];
 626:.\main.c      **** //			//P_11_Theta +=  + Q_gyro * sample_time;
 627:.\main.c      **** //            P_Theta[1][1] +=  + Q_gyro * sample_time;
 628:.\main.c      **** //			
 629:.\main.c      **** //			
 630:.\main.c      **** //			Phi += sample_time * (turn_rate_p-p_bias);
 631:.\main.c      **** //			P_Phi[0][0] +=  - sample_time * ((P_Phi[1][0] + P_Phi[0][1]) - Q_angle);
 632:.\main.c      **** //			P_Phi[0][1] +=  - sample_time * P_Phi[1][1];
ARM GAS  C:\Users\Sven\AppData\Local\Temp\cc7IOcoT.s 			page 26


 633:.\main.c      **** //			P_Phi[1][0] = P_Phi[0][1];
 634:.\main.c      **** //			P_Phi[1][1] +=  + Q_gyro * sample_time;
 635:.\main.c      **** //			
 636:.\main.c      **** //		
 637:.\main.c      **** //			/*
 638:.\main.c      **** //			Psi += sample_time * (r_filt-r_bias);
 639:.\main.c      **** //			P_00_Psi +=  - sample_time * (P_10_Psi + P_01_Psi) + Q_angle * sample_time;
 640:.\main.c      **** //			P_01_Psi +=  - sample_time * P_11_Psi;
 641:.\main.c      **** //			P_10_Psi +=  - sample_time * P_11_Psi;
 642:.\main.c      **** //			P_11_Psi +=  + Q_gyro * sample_time;
 643:.\main.c      **** //			*/
 644:.\main.c      **** //			Theta_temp = Theta_acc - Theta;
 645:.\main.c      **** //			S_Theta = P_Theta[0][0] + R_angle;
 646:.\main.c      **** //			K_0_Theta = P_Theta[0][0] / S_Theta;
 647:.\main.c      **** //			K_1_Theta = P_Theta[1][0] / S_Theta;
 648:.\main.c      **** //			
 649:.\main.c      **** //			Phi_temp = Phi_acc - Phi;
 650:.\main.c      **** //			S_Phi = P_Phi[0][0] + R_angle;
 651:.\main.c      **** //			K_0_Phi = P_Phi[0][0] / S_Phi;
 652:.\main.c      **** //			K_1_Phi = P_Phi[1][0] / S_Phi;
 653:.\main.c      **** //			/*
 654:.\main.c      **** //			Psi_temp = mag - Psi;
 655:.\main.c      **** //			S_Psi = P_00_Psi + R_angle;
 656:.\main.c      **** //			K_0_Psi = P_00_Psi / S_Psi;
 657:.\main.c      **** //			K_1_Psi = P_10_Psi / S_Psi;
 658:.\main.c      **** //			*/
 659:.\main.c      **** //			Theta +=  K_0_Theta * Theta_temp;
 660:.\main.c      **** //			q_bias  +=  K_1_Theta * Theta_temp;
 661:.\main.c      **** //			P_Theta[0][0] -= K_0_Theta * P_Theta[0][0];
 662:.\main.c      **** //			P_Theta[0][1] -= K_0_Theta * P_Theta[0][1];
 663:.\main.c      **** //			P_Theta[1][0] -= K_1_Theta * P_Theta[0][0];
 664:.\main.c      **** //			P_Theta[1][1] -= K_1_Theta * P_Theta[0][1];
 665:.\main.c      **** //			
 666:.\main.c      **** //			Phi +=  K_0_Phi * Phi_temp;
 667:.\main.c      **** //			p_bias  +=  K_1_Phi * Phi_temp;
 668:.\main.c      **** //			P_Phi[0][0] -= K_0_Phi * P_Phi[0][0];
 669:.\main.c      **** //			P_Phi[0][1] -= K_0_Phi * P_Phi[0][1];
 670:.\main.c      **** //			P_Phi[1][0] -= K_1_Phi * P_Phi[0][0];
 671:.\main.c      **** //			P_Phi[1][1] -= K_1_Phi * P_Phi[0][1];
 672:.\main.c      **** 
 673:.\main.c      **** 			/* ============================================== */
 674:.\main.c      **** 			/* Complementary Filter Design 					  */
 675:.\main.c      **** 			/* ============================================== */
 676:.\main.c      **** 		
 677:.\main.c      ****             
 678:.\main.c      ****             #ifdef T_50
 679:.\main.c      ****                 // IMU is installed backwards
 680:.\main.c      ****                 turn_rate_p *= -1;
 767              		.loc 1 680 0
 768 030c AB1D     		add	r3, r5, #6
 769 030e DA8F     		ldrh	r2, [r3, #62]
 770 0310 5242     		neg	r2, r2
 771 0312 92B2     		uxth	r2, r2
 772 0314 90B2     		uxth	r0, r2
 773 0316 D887     		strh	r0, [r3, #62]
 681:.\main.c      ****                 turn_rate_q *= -1;
 774              		.loc 1 681 0
ARM GAS  C:\Users\Sven\AppData\Local\Temp\cc7IOcoT.s 			page 27


 775 0318 2B1C     		mov	r3, r5
 776 031a 0833     		add	r3, r3, #8
 680:.\main.c      ****                 turn_rate_p *= -1;
 777              		.loc 1 680 0
 778 031c 0492     		str	r2, [sp, #16]
 779              		.loc 1 681 0
 780 031e DA8F     		ldrh	r2, [r3, #62]
 680:.\main.c      ****                 turn_rate_p *= -1;
 781              		.loc 1 680 0
 782 0320 0590     		str	r0, [sp, #20]
 783              		.loc 1 681 0
 784 0322 5242     		neg	r2, r2
 785 0324 92B2     		uxth	r2, r2
 786 0326 90B2     		uxth	r0, r2
 787 0328 0292     		str	r2, [sp, #8]
 682:.\main.c      ****             #endif
 683:.\main.c      **** 			//angle = 0.98 *(angle+gyro*dt) + 0.02*acc
 684:.\main.c      ****             // Complementary filter. Substitute for Kalman filter.
 685:.\main.c      ****             // gives useable results
 686:.\main.c      ****             //Theta = (0.60* (Theta + turn_rate_q*sample_time) + 0.40*Theta_acc);
 687:.\main.c      ****             Theta_meas = (Theta_acc +(Theta_meas + turn_rate_q*sample_time)* W_GYRO) / (1+W_GYRO);
 788              		.loc 1 687 0
 789 032a B268     		ldr	r2, [r6, #8]
 681:.\main.c      ****                 turn_rate_q *= -1;
 790              		.loc 1 681 0
 791 032c D887     		strh	r0, [r3, #62]
 792              		.loc 1 687 0
 793 032e 00B2     		sxth	r0, r0
 794 0330 0092     		str	r2, [sp]
 795 0332 FFF7FEFF 		bl	__aeabi_i2f
 796              	.LVL81:
 797 0336 0099     		ldr	r1, [sp]
 798 0338 FFF7FEFF 		bl	__aeabi_fmul
 799              	.LVL82:
 800 033c B96C     		ldr	r1, [r7, #72]
 801 033e FFF7FEFF 		bl	__aeabi_fadd
 802              	.LVL83:
 803 0342 9949     		ldr	r1, .L86+40
 804 0344 FFF7FEFF 		bl	__aeabi_fmul
 805              	.LVL84:
 806 0348 954B     		ldr	r3, .L86+32
 807 034a 1968     		ldr	r1, [r3]
 808 034c FFF7FEFF 		bl	__aeabi_fadd
 809              	.LVL85:
 810 0350 9649     		ldr	r1, .L86+44
 811 0352 FFF7FEFF 		bl	__aeabi_fdiv
 812              	.LVL86:
 688:.\main.c      ****             
 689:.\main.c      ****             //Phi = (0.60 * (Phi + turn_rate_p*sample_time) + 0.40*Phi_acc);
 690:.\main.c      ****             Phi_meas = (Phi_acc + (Phi_meas+turn_rate_p*sample_time)* W_GYRO) / (1+W_GYRO);
 813              		.loc 1 690 0
 814 0356 0599     		ldr	r1, [sp, #20]
 687:.\main.c      ****             Theta_meas = (Theta_acc +(Theta_meas + turn_rate_q*sample_time)* W_GYRO) / (1+W_GYRO);
 815              		.loc 1 687 0
 816 0358 0690     		str	r0, [sp, #24]
 817 035a B864     		str	r0, [r7, #72]
 818              		.loc 1 690 0
ARM GAS  C:\Users\Sven\AppData\Local\Temp\cc7IOcoT.s 			page 28


 819 035c 08B2     		sxth	r0, r1
 820 035e FFF7FEFF 		bl	__aeabi_i2f
 821              	.LVL87:
 822 0362 0099     		ldr	r1, [sp]
 823 0364 FFF7FEFF 		bl	__aeabi_fmul
 824              	.LVL88:
 825 0368 F96C     		ldr	r1, [r7, #76]
 826 036a FFF7FEFF 		bl	__aeabi_fadd
 827              	.LVL89:
 828 036e 8E49     		ldr	r1, .L86+40
 829 0370 FFF7FEFF 		bl	__aeabi_fmul
 830              	.LVL90:
 831 0374 011C     		add	r1, r0, #0
 832 0376 201C     		add	r0, r4, #0
 833 0378 FFF7FEFF 		bl	__aeabi_fadd
 834              	.LVL91:
 835 037c 8B49     		ldr	r1, .L86+44
 836 037e FFF7FEFF 		bl	__aeabi_fdiv
 837              	.LVL92:
 691:.\main.c      ****             
 692:.\main.c      ****                         
 693:.\main.c      ****             // Smoothing the data reading -> less noisy Euler Angles
 694:.\main.c      ****             Phi = (Phi_meas+Phi_Prev1+Phi_Prev2+Phi_Prev3+Phi_Prev4)/5;
 838              		.loc 1 694 0
 839 0382 8B4A     		ldr	r2, .L86+48
 840 0384 8B4B     		ldr	r3, .L86+52
 841 0386 1278     		ldrb	r2, [r2]
 842 0388 1B78     		ldrb	r3, [r3]
 843 038a 0892     		str	r2, [sp, #32]
 690:.\main.c      ****             Phi_meas = (Phi_acc + (Phi_meas+turn_rate_p*sample_time)* W_GYRO) / (1+W_GYRO);
 844              		.loc 1 690 0
 845 038c 0790     		str	r0, [sp, #28]
 846 038e F864     		str	r0, [r7, #76]
 847              		.loc 1 694 0
 848 0390 0993     		str	r3, [sp, #36]
 849 0392 8948     		ldr	r0, .L86+56
 850 0394 0078     		ldrb	r0, [r0]
 851 0396 0A90     		str	r0, [sp, #40]
 852 0398 50B2     		sxtb	r0, r2
 853 039a FFF7FEFF 		bl	__aeabi_i2f
 854              	.LVL93:
 855 039e 011C     		add	r1, r0, #0
 856 03a0 0798     		ldr	r0, [sp, #28]
 857 03a2 FFF7FEFF 		bl	__aeabi_fadd
 858              	.LVL94:
 859 03a6 0999     		ldr	r1, [sp, #36]
 860 03a8 041C     		add	r4, r0, #0
 861 03aa 48B2     		sxtb	r0, r1
 862 03ac FFF7FEFF 		bl	__aeabi_i2f
 863              	.LVL95:
 864 03b0 011C     		add	r1, r0, #0
 865 03b2 201C     		add	r0, r4, #0
 866 03b4 FFF7FEFF 		bl	__aeabi_fadd
 867              	.LVL96:
 868 03b8 0A9A     		ldr	r2, [sp, #40]
 869 03ba 041C     		add	r4, r0, #0
 870 03bc 50B2     		sxtb	r0, r2
ARM GAS  C:\Users\Sven\AppData\Local\Temp\cc7IOcoT.s 			page 29


 871 03be FFF7FEFF 		bl	__aeabi_i2f
 872              	.LVL97:
 873 03c2 011C     		add	r1, r0, #0
 874 03c4 201C     		add	r0, r4, #0
 875 03c6 FFF7FEFF 		bl	__aeabi_fadd
 876              	.LVL98:
 877 03ca 7C4B     		ldr	r3, .L86+60
 878 03cc 041C     		add	r4, r0, #0
 879 03ce 0020     		mov	r0, #0
 880 03d0 1856     		ldrsb	r0, [r3, r0]
 881 03d2 FFF7FEFF 		bl	__aeabi_i2f
 882              	.LVL99:
 883 03d6 011C     		add	r1, r0, #0
 884 03d8 201C     		add	r0, r4, #0
 885 03da FFF7FEFF 		bl	__aeabi_fadd
 886              	.LVL100:
 887 03de 7849     		ldr	r1, .L86+64
 888 03e0 FFF7FEFF 		bl	__aeabi_fdiv
 889              	.LVL101:
 890 03e4 774B     		ldr	r3, .L86+68
 891 03e6 0590     		str	r0, [sp, #20]
 892 03e8 1860     		str	r0, [r3]
 695:.\main.c      ****             Theta = (Theta_meas+Theta_Prev1+Theta_Prev2+Theta_Prev3+Theta_Prev4)/5;
 893              		.loc 1 695 0
 894 03ea 7748     		ldr	r0, .L86+72
 895 03ec 7749     		ldr	r1, .L86+76
 896 03ee 784A     		ldr	r2, .L86+80
 897 03f0 0078     		ldrb	r0, [r0]
 898 03f2 1278     		ldrb	r2, [r2]
 899 03f4 0978     		ldrb	r1, [r1]
 900 03f6 0B90     		str	r0, [sp, #44]
 901 03f8 40B2     		sxtb	r0, r0
 902 03fa 0D92     		str	r2, [sp, #52]
 903 03fc 0C91     		str	r1, [sp, #48]
 904 03fe FFF7FEFF 		bl	__aeabi_i2f
 905              	.LVL102:
 906 0402 011C     		add	r1, r0, #0
 907 0404 0698     		ldr	r0, [sp, #24]
 908 0406 FFF7FEFF 		bl	__aeabi_fadd
 909              	.LVL103:
 910 040a 0C9B     		ldr	r3, [sp, #48]
 911 040c 041C     		add	r4, r0, #0
 912 040e 58B2     		sxtb	r0, r3
 913 0410 FFF7FEFF 		bl	__aeabi_i2f
 914              	.LVL104:
 915 0414 011C     		add	r1, r0, #0
 916 0416 201C     		add	r0, r4, #0
 917 0418 FFF7FEFF 		bl	__aeabi_fadd
 918              	.LVL105:
 919 041c 0D99     		ldr	r1, [sp, #52]
 920 041e 041C     		add	r4, r0, #0
 921 0420 48B2     		sxtb	r0, r1
 922 0422 FFF7FEFF 		bl	__aeabi_i2f
 923              	.LVL106:
 924 0426 011C     		add	r1, r0, #0
 925 0428 201C     		add	r0, r4, #0
 926 042a FFF7FEFF 		bl	__aeabi_fadd
ARM GAS  C:\Users\Sven\AppData\Local\Temp\cc7IOcoT.s 			page 30


 927              	.LVL107:
 928 042e 2C1C     		mov	r4, r5
 929 0430 0390     		str	r0, [sp, #12]
 930 0432 5734     		add	r4, r4, #87
 931 0434 0020     		mov	r0, #0
 932 0436 2056     		ldrsb	r0, [r4, r0]
 933 0438 FFF7FEFF 		bl	__aeabi_i2f
 934              	.LVL108:
 935 043c 011C     		add	r1, r0, #0
 936 043e 0398     		ldr	r0, [sp, #12]
 937 0440 FFF7FEFF 		bl	__aeabi_fadd
 938              	.LVL109:
 939 0444 5E49     		ldr	r1, .L86+64
 940 0446 FFF7FEFF 		bl	__aeabi_fdiv
 941              	.LVL110:
 942 044a 0390     		str	r0, [sp, #12]
 943 044c 614B     		ldr	r3, .L86+84
 944 044e 1860     		str	r0, [r3]
 696:.\main.c      ****             
 697:.\main.c      ****             Theta_Mav = Theta*PI/180;	/* Theta in radians for MavLink (not sure why multiplied by 8
 945              		.loc 1 697 0
 946 0450 FFF7FEFF 		bl	__aeabi_f2d
 947              	.LVL111:
 948 0454 4C4A     		ldr	r2, .L86+8
 949 0456 4D4B     		ldr	r3, .L86+12
 950 0458 FFF7FEFF 		bl	__aeabi_dmul
 951              	.LVL112:
 952 045c 494B     		ldr	r3, .L86+4
 953 045e 484A     		ldr	r2, .L86
 954 0460 FFF7FEFF 		bl	__aeabi_ddiv
 955              	.LVL113:
 956 0464 FFF7FEFF 		bl	__aeabi_d2f
 957              	.LVL114:
 958 0468 5B4B     		ldr	r3, .L86+88
 959 046a 1860     		str	r0, [r3]
 698:.\main.c      ****             Phi_Mav = Phi*PI/180;		/* Phi in radians for MavLink */
 960              		.loc 1 698 0
 961 046c 0598     		ldr	r0, [sp, #20]
 962 046e FFF7FEFF 		bl	__aeabi_f2d
 963              	.LVL115:
 964 0472 454A     		ldr	r2, .L86+8
 965 0474 454B     		ldr	r3, .L86+12
 966 0476 FFF7FEFF 		bl	__aeabi_dmul
 967              	.LVL116:
 968 047a 424B     		ldr	r3, .L86+4
 969 047c 404A     		ldr	r2, .L86
 970 047e FFF7FEFF 		bl	__aeabi_ddiv
 971              	.LVL117:
 972 0482 FFF7FEFF 		bl	__aeabi_d2f
 973              	.LVL118:
 974 0486 554B     		ldr	r3, .L86+92
 699:.\main.c      ****             
 700:.\main.c      ****             Phi_Prev4 = Phi_Prev3;
 975              		.loc 1 700 0
 976 0488 4C4A     		ldr	r2, .L86+60
 698:.\main.c      ****             Phi_Mav = Phi*PI/180;		/* Phi in radians for MavLink */
 977              		.loc 1 698 0
ARM GAS  C:\Users\Sven\AppData\Local\Temp\cc7IOcoT.s 			page 31


 978 048a 1860     		str	r0, [r3]
 979              		.loc 1 700 0
 980 048c 0A9B     		ldr	r3, [sp, #40]
 701:.\main.c      ****             Phi_Prev3 = Phi_Prev2;
 981              		.loc 1 701 0
 982 048e 0999     		ldr	r1, [sp, #36]
 700:.\main.c      ****             Phi_Prev4 = Phi_Prev3;
 983              		.loc 1 700 0
 984 0490 1370     		strb	r3, [r2]
 985              		.loc 1 701 0
 986 0492 4948     		ldr	r0, .L86+56
 702:.\main.c      ****             Phi_Prev2 = Phi_Prev1;
 987              		.loc 1 702 0
 988 0494 089B     		ldr	r3, [sp, #32]
 989 0496 474A     		ldr	r2, .L86+52
 701:.\main.c      ****             Phi_Prev3 = Phi_Prev2;
 990              		.loc 1 701 0
 991 0498 0170     		strb	r1, [r0]
 992              		.loc 1 702 0
 993 049a 1370     		strb	r3, [r2]
 703:.\main.c      ****             Phi_Prev1 = Phi_meas;
 994              		.loc 1 703 0
 995 049c 0798     		ldr	r0, [sp, #28]
 996 049e FFF7FEFF 		bl	__aeabi_f2iz
 997              	.LVL119:
 998 04a2 4349     		ldr	r1, .L86+48
 704:.\main.c      ****            
 705:.\main.c      ****             Theta_Prev4 = Theta_Prev3;
 999              		.loc 1 705 0
 1000 04a4 0D9A     		ldr	r2, [sp, #52]
 703:.\main.c      ****             Phi_Prev1 = Phi_meas;
 1001              		.loc 1 703 0
 1002 04a6 0870     		strb	r0, [r1]
 706:.\main.c      ****             Theta_Prev3 = Theta_Prev2;
 1003              		.loc 1 706 0
 1004 04a8 494B     		ldr	r3, .L86+80
 707:.\main.c      ****             Theta_Prev2 = Theta_Prev1;
 1005              		.loc 1 707 0
 1006 04aa 4849     		ldr	r1, .L86+76
 705:.\main.c      ****             Theta_Prev4 = Theta_Prev3;
 1007              		.loc 1 705 0
 1008 04ac 2270     		strb	r2, [r4]
 706:.\main.c      ****             Theta_Prev3 = Theta_Prev2;
 1009              		.loc 1 706 0
 1010 04ae 0C98     		ldr	r0, [sp, #48]
 1011              		.loc 1 707 0
 1012 04b0 0B9A     		ldr	r2, [sp, #44]
 706:.\main.c      ****             Theta_Prev3 = Theta_Prev2;
 1013              		.loc 1 706 0
 1014 04b2 1870     		strb	r0, [r3]
 1015              		.loc 1 707 0
 1016 04b4 0A70     		strb	r2, [r1]
 708:.\main.c      ****             Theta_Prev1 = Theta_meas;
 1017              		.loc 1 708 0
 1018 04b6 0698     		ldr	r0, [sp, #24]
 1019 04b8 FFF7FEFF 		bl	__aeabi_f2iz
 1020              	.LVL120:
ARM GAS  C:\Users\Sven\AppData\Local\Temp\cc7IOcoT.s 			page 32


 1021 04bc 424B     		ldr	r3, .L86+72
 1022 04be 1870     		strb	r0, [r3]
 709:.\main.c      ****             
 710:.\main.c      ****             
 711:.\main.c      ****             // Tilt compensated Magnetic field X:
 712:.\main.c      ****             //  MAG_X = c_magnetom_x*cos_pitch+c_magnetom_y*sin_roll*sin_pitch+c_magnetom_z*cos_rol
 713:.\main.c      ****             //  // Tilt compensated Magnetic filed Y:
 714:.\main.c      ****             //  MAG_Y = c_magnetom_y*cos_roll-c_magnetom_z*sin_roll;
 715:.\main.c      ****             //  // Magnetic Heading
 716:.\main.c      ****             //  MAG_Heading = atan2(-MAG_Y,MAG_X);
 717:.\main.c      ****             
 718:.\main.c      ****             // cos of radian angles
 719:.\main.c      **** //            Mag_x = mag_x_g*cos(Theta) + mag_y_g*sin(Phi)*sin(Theta) + mag_z_g*cos(Phi)*sin(Theta
 720:.\main.c      **** //            Mag_y = mag_y_g*cos(Phi) - mag_z_g*sin(Phi);
 721:.\main.c      **** //
 722:.\main.c      ****             //Mag_x = mag_x_g*cos(Theta);//+ mag_y_g*sin(Phi)*sin(Theta)+ mag_z_g*cos(Phi)*sin(Thet
 723:.\main.c      ****             //Mag_y = mag_y_g*cos(Phi);// - mag_z_g*sin(Phi);
 724:.\main.c      ****             //Mag_Heading = atan2(-(mag_y_g),(mag_x_g))*180/PI;
 725:.\main.c      ****             //UART_1_UartPutNum(Mag_Heading);
 726:.\main.c      ****             //UART_1_UartPutNum(Bar_press);   //Print Baro Press
 727:.\main.c      ****             //UART_1_UartPutString(";\r\n");
 728:.\main.c      ****             
 729:.\main.c      **** 
 730:.\main.c      **** 			/*=======================================================*/
 731:.\main.c      ****             /* MAVLINK */
 732:.\main.c      ****             /*=======================================================*/
 733:.\main.c      ****             
 734:.\main.c      **** 		    if(MAVLINK_TASK == TRUE)
 735:.\main.c      ****             {
 736:.\main.c      ****                 if((cnt_ML_HEARTBEAT_send % 10) == 0)  // 10*10ms = 100ms
 737:.\main.c      ****                 {
 738:.\main.c      ****                     mavlink_msg_attitude_pack(mavlink_system.sysid, mavlink_system.compid, &msg, 0,
 739:.\main.c      ****                     uint16_t len = mavlink_msg_to_send_buffer(buf, &msg);
 740:.\main.c      ****                     UART_1_UartSendMavlink(buf, len);
 741:.\main.c      ****                     
 742:.\main.c      ****                 }
 743:.\main.c      ****                 
 744:.\main.c      ****                 #ifdef MP_ON /* MISSION PLANNER ONLY */
 745:.\main.c      ****                 if((cnt_ML_HEARTBEAT_send % 15) == 0)  // 100*10ms = 110ms
 746:.\main.c      ****                 {
 747:.\main.c      ****                     // GLOBAL_POSITION_INT
 748:.\main.c      ****                     //mavlink_msg_vfr_hud_pack(mavlink_system.sysid, mavlink_system.compid, &msg,
 749:.\main.c      **** 					//99/*speed*/, 0 /*groundspeed */, 110/*heading*/, 0/*throttle*/, 400/*alt*/, 10/*climb*/);
 750:.\main.c      ****                     
 751:.\main.c      ****                     /* USE THIS FOR MISSION PLANNER IF REQUIRED */
 752:.\main.c      ****                     
 753:.\main.c      ****                     mavlink_msg_global_position_int_pack(mavlink_system.sysid, mavlink_system.compi
 754:.\main.c      **** 						        0/*time_boot_ms*/, 0/*lat*/, 0/*lon*/, 
 755:.\main.c      ****                                 0/*alt DO NOT USE */, 
 756:.\main.c      ****                                 (15*1000)/* in mm relative_alt USE THIS FOR OSD/MP*/, 
 757:.\main.c      ****                                 0/*vx*/, 0/*vy*/, 0/*vz*/, (240*100)/*hdg*/);
 758:.\main.c      ****                     
 759:.\main.c      ****                     uint16_t len = mavlink_msg_to_send_buffer(buf, &msg);
 760:.\main.c      ****                     UART_1_UartSendMavlink(buf, len);
 761:.\main.c      ****                 }
 762:.\main.c      ****                 #endif
 763:.\main.c      ****                 
ARM GAS  C:\Users\Sven\AppData\Local\Temp\cc7IOcoT.s 			page 33


 764:.\main.c      ****                 if((cnt_ML_HEARTBEAT_send % 20) == 0)  // 20*10ms = 200ms
 765:.\main.c      ****                 {
 766:.\main.c      ****                     /* This is used for the OSD */
 767:.\main.c      ****                     mavlink_msg_vfr_hud_pack(mavlink_system.sysid, mavlink_system.compid, &msg,
 768:.\main.c      **** 					    0,  /* speed - not displayed */ 
 769:.\main.c      ****                         speed, /* groundspeed [m/s] - use for speed */
 770:.\main.c      ****                         0,/* heading [deg] */
 771:.\main.c      ****                         0,  /* throttle [%] */
 772:.\main.c      ****                         alt,/* alt [m] */
 773:.\main.c      ****                         climb_rate   /* climb rate [m/s] */);
 774:.\main.c      ****                     uint16_t len = mavlink_msg_to_send_buffer(buf, &msg);
 775:.\main.c      ****                     UART_1_UartSendMavlink(buf, len);
 776:.\main.c      ****                 }
 777:.\main.c      ****                 
 778:.\main.c      ****                 if((cnt_ML_HEARTBEAT_send % 100) == 0)  // 100*10ms = 1000ms
 779:.\main.c      ****                 {
 780:.\main.c      ****                     cnt_ML_HEARTBEAT_send = 0;
 781:.\main.c      ****                     mavlink_msg_heartbeat_pack(mavlink_system.sysid, mavlink_system.compid, &msg, s
 782:.\main.c      **** 
 783:.\main.c      ****                     // Copy the message to the send buffer
 784:.\main.c      ****                     uint16_t len = mavlink_msg_to_send_buffer(buf, &msg);
 785:.\main.c      ****                       
 786:.\main.c      ****                       UART_1_UartSendMavlink(buf, len);
 787:.\main.c      ****                 }
 788:.\main.c      ****                 cnt_ML_HEARTBEAT_send++;
 789:.\main.c      ****             }
 790:.\main.c      ****             /*=======================================
 791:.\main.c      ****                 Airplane Control
 792:.\main.c      ****               =======================================*/
 793:.\main.c      ****             //uint8_t debug = 0;
 794:.\main.c      ****             
 795:.\main.c      ****            
 796:.\main.c      ****             if(receiver_connected == TRUE)
 1023              		.loc 1 796 0
 1024 04c0 2B1C     		mov	r3, r5
 1025 04c2 5833     		add	r3, r3, #88
 1026 04c4 1978     		ldrb	r1, [r3]
 1027 04c6 0129     		cmp	r1, #1
 1028 04c8 00D0     		beq	.LCB824
 1029 04ca C0E1     		b	.L38	@long jump
 1030              	.LCB824:
 1031              	.LBB3:
 797:.\main.c      ****             //if(debug == 0)
 798:.\main.c      ****             {                     
 799:.\main.c      **** 				uint8_t PrevCtrl_Mode = Ctrl_Mode;
 800:.\main.c      **** 				uint8_t state_change = FALSE;
 801:.\main.c      ****                 if (ctrl_in[in_mod]<1250) Ctrl_Mode = damped;       /* up:      damped mode */
 1032              		.loc 1 801 0
 1033 04cc 4448     		ldr	r0, .L86+96
 799:.\main.c      **** 				uint8_t PrevCtrl_Mode = Ctrl_Mode;
 1034              		.loc 1 799 0
 1035 04ce 2B1C     		mov	r3, r5
 1036              		.loc 1 801 0
 1037 04d0 8289     		ldrh	r2, [r0, #12]
 1038 04d2 4448     		ldr	r0, .L86+100
 799:.\main.c      **** 				uint8_t PrevCtrl_Mode = Ctrl_Mode;
 1039              		.loc 1 799 0
ARM GAS  C:\Users\Sven\AppData\Local\Temp\cc7IOcoT.s 			page 34


 1040 04d4 5933     		add	r3, r3, #89
 1041 04d6 1E78     		ldrb	r6, [r3]
 1042              	.LVL121:
 1043 04d8 434F     		ldr	r7, .L86+104
 1044              		.loc 1 801 0
 1045 04da 8242     		cmp	r2, r0
 1046 04dc 01D8     		bhi	.L39
 1047              		.loc 1 801 0 is_stmt 0 discriminator 1
 1048 04de 1970     		strb	r1, [r3]
 1049 04e0 05E0     		b	.L40
 1050              	.L39:
 802:.\main.c      ****                 else if (ctrl_in[in_mod]>1750) Ctrl_Mode = autonom;    /* down:    auto mode */
 1051              		.loc 1 802 0 is_stmt 1
 1052 04e2 BA42     		cmp	r2, r7
 1053 04e4 01D9     		bls	.L41
 1054              		.loc 1 802 0 is_stmt 0 discriminator 1
 1055 04e6 0322     		mov	r2, #3
 1056 04e8 00E0     		b	.L79
 1057              	.L41:
 803:.\main.c      ****                 else Ctrl_Mode = manual;                            /* mid:     manual mode */
 1058              		.loc 1 803 0 is_stmt 1
 1059 04ea 0022     		mov	r2, #0
 1060              	.L79:
 1061 04ec 1A70     		strb	r2, [r3]
 1062              	.L40:
 804:.\main.c      ****                  
 805:.\main.c      **** 				/* Indicate State Change */
 806:.\main.c      **** 				if(PrevCtrl_Mode != Ctrl_Mode) state_change = TRUE;
 1063              		.loc 1 806 0
 1064 04ee 3F4A     		ldr	r2, .L86+108
 807:.\main.c      **** 				 
 808:.\main.c      ****                 //uint16_t aileron_offset = 0;
 809:.\main.c      ****                 //uint16_t elevator_offset = 0;
 810:.\main.c      ****                 
 811:.\main.c      ****                 /* Step Input Control Lateral */
 812:.\main.c      ****                 //if(ctrl_in[in_sp2]>1750)
 813:.\main.c      ****                 //{
 814:.\main.c      ****                 //    aileron_offset = 200;
 815:.\main.c      ****                 //}
 816:.\main.c      ****                 
 817:.\main.c      ****                 static uint8_t flap_target = 0;
 818:.\main.c      ****                 static uint8_t flap_cmd = FALSE;
 819:.\main.c      ****                 static uint8_t flap_offset = 0;
 820:.\main.c      ****                 
 821:.\main.c      ****                 if(ctrl_in[in_sp2]>1750)
 1065              		.loc 1 821 0
 1066 04f0 918C     		ldrh	r1, [r2, #36]
 806:.\main.c      **** 				if(PrevCtrl_Mode != Ctrl_Mode) state_change = TRUE;
 1067              		.loc 1 806 0
 1068 04f2 131C     		mov	r3, r2
 1069 04f4 5933     		add	r3, r3, #89
 1070              		.loc 1 821 0
 1071 04f6 8C46     		mov	ip, r1
 1072 04f8 141C     		mov	r4, r2
 1073 04fa 111C     		mov	r1, r2
 806:.\main.c      **** 				if(PrevCtrl_Mode != Ctrl_Mode) state_change = TRUE;
 1074              		.loc 1 806 0
ARM GAS  C:\Users\Sven\AppData\Local\Temp\cc7IOcoT.s 			page 35


 1075 04fc 1878     		ldrb	r0, [r3]
 1076              	.LVL122:
 1077 04fe 5A34     		add	r4, r4, #90
 1078 0500 131C     		mov	r3, r2
 1079 0502 5B31     		add	r1, r1, #91
 1080              		.loc 1 821 0
 1081 0504 BC45     		cmp	ip, r7
 1082 0506 06D9     		bls	.L42
 822:.\main.c      ****                 {
 823:.\main.c      ****                     
 824:.\main.c      ****                     flap_target = 200;
 1083              		.loc 1 824 0
 1084 0508 C827     		mov	r7, #200
 1085 050a 2770     		strb	r7, [r4]
 825:.\main.c      ****                     if(flap_offset < flap_target)
 1086              		.loc 1 825 0
 1087 050c 0C78     		ldrb	r4, [r1]
 1088 050e C72C     		cmp	r4, #199
 1089 0510 08D8     		bhi	.L44
 826:.\main.c      ****                     {
 827:.\main.c      ****                         flap_offset += 1;
 1090              		.loc 1 827 0
 1091 0512 0134     		add	r4, r4, #1
 1092 0514 05E0     		b	.L80
 1093              	.L42:
 828:.\main.c      ****                     }
 829:.\main.c      ****                     
 830:.\main.c      ****                 }
 831:.\main.c      ****                 else
 832:.\main.c      ****                 {
 833:.\main.c      ****                     flap_target = 0;
 1094              		.loc 1 833 0
 1095 0516 0027     		mov	r7, #0
 1096 0518 2770     		strb	r7, [r4]
 834:.\main.c      ****                     if(flap_offset > flap_target)
 1097              		.loc 1 834 0
 1098 051a 0C78     		ldrb	r4, [r1]
 1099 051c BC42     		cmp	r4, r7
 1100 051e 01D0     		beq	.L44
 835:.\main.c      ****                     {
 836:.\main.c      ****                         flap_offset-= 1;
 1101              		.loc 1 836 0
 1102 0520 013C     		sub	r4, r4, #1
 1103              	.L80:
 1104 0522 0C70     		strb	r4, [r1]
 1105              	.L44:
 837:.\main.c      ****                     }
 838:.\main.c      ****                 }
 839:.\main.c      ****                 // Flap Control
 840:.\main.c      ****                
 841:.\main.c      ****                 /* Step Input Control Longitudinal */
 842:.\main.c      ****                 //if(ctrl_in[in_gear]>1750)
 843:.\main.c      ****                 //{
 844:.\main.c      ****                 //    elevator_offset = 200;
 845:.\main.c      ****                 //}
 846:.\main.c      ****                 
 847:.\main.c      ****                 switch (Ctrl_Mode)
ARM GAS  C:\Users\Sven\AppData\Local\Temp\cc7IOcoT.s 			page 36


 1106              		.loc 1 847 0
 1107 0524 0328     		cmp	r0, #3
 1108 0526 00D9     		bls	.LCB892
 1109 0528 A8E1     		b	.L46	@long jump
 1110              	.LCB892:
 1111 052a FFF7FEFF 		bl	__gnu_thumb1_case_uqi
 1112              	.L48:
 1113 052e 02       		.byte	(.L47-.L48)/2
 1114 052f 65       		.byte	(.L49-.L48)/2
 1115 0530 9F       		.byte	(.L50-.L48)/2
 1116 0531 CE       		.byte	(.L51-.L48)/2
 1117              		.p2align 1
 1118              	.L47:
 1119              	.LBB4:
 848:.\main.c      ****                 {
 849:.\main.c      ****                     case manual:
 850:.\main.c      ****                         tune_cnt= 0;    // Reset in case tune cnt was used before...
 851:.\main.c      ****                     #ifdef T_50
 852:.\main.c      ****                         ctrl_out[out_mot] = ctrl_in[in_mot];//ctrl_in[in_mot];            // motor:
 1120              		.loc 1 852 0
 1121 0532 2F4C     		ldr	r4, .L86+112
 850:.\main.c      ****                         tune_cnt= 0;    // Reset in case tune cnt was used before...
 1122              		.loc 1 850 0
 1123 0534 191C     		mov	r1, r3
 1124              		.loc 1 852 0
 1125 0536 D58A     		ldrh	r5, [r2, #22]
 850:.\main.c      ****                         tune_cnt= 0;    // Reset in case tune cnt was used before...
 1126              		.loc 1 850 0
 1127 0538 5C31     		add	r1, r1, #92
 1128 053a 0020     		mov	r0, #0
 1129              	.LVL123:
 1130              		.loc 1 852 0
 1131 053c A581     		strh	r5, [r4, #12]
 850:.\main.c      ****                         tune_cnt= 0;    // Reset in case tune cnt was used before...
 1132              		.loc 1 850 0
 1133 053e 0870     		strb	r0, [r1]
 853:.\main.c      ****                         //ctrl_out[out_mot] = 800;
 854:.\main.c      ****                         ctrl_out[out_ail1] = ctrl_in[in_ail]+flap_offset;           // ail:     lef
 1134              		.loc 1 854 0
 1135 0540 1A8B     		ldrh	r2, [r3, #24]
 852:.\main.c      ****                         ctrl_out[out_mot] = ctrl_in[in_mot];//ctrl_in[in_mot];            // motor:
 1136              		.loc 1 852 0
 1137 0542 191C     		mov	r1, r3
 1138              		.loc 1 854 0
 1139 0544 5B33     		add	r3, r3, #91
 1140 0546 1B78     		ldrb	r3, [r3]
 1141 0548 9818     		add	r0, r3, r2
 855:.\main.c      ****                         ctrl_out[out_ail2] = ctrl_in[in_ail]-flap_offset;
 1142              		.loc 1 855 0
 1143 054a D31A     		sub	r3, r2, r3
 854:.\main.c      ****                         ctrl_out[out_ail1] = ctrl_in[in_ail]+flap_offset;           // ail:     lef
 1144              		.loc 1 854 0
 1145 054c E081     		strh	r0, [r4, #14]
 1146              		.loc 1 855 0
 1147 054e 2382     		strh	r3, [r4, #16]
 856:.\main.c      ****                         ctrl_out[out_ele1] = ctrl_in[in_ele];           // ele:     low: 2000   hig
 1148              		.loc 1 856 0
ARM GAS  C:\Users\Sven\AppData\Local\Temp\cc7IOcoT.s 			page 37


 1149 0550 4B8B     		ldrh	r3, [r1, #26]
 857:.\main.c      ****                         ctrl_out[out_ele2] = ctrl_in[in_ele];
 858:.\main.c      ****                         ctrl_out[out_rud] = ctrl_in[in_rud];            // rud:     left: 1000  rig
 859:.\main.c      ****                         ctrl_out[out_ge1] = ctrl_in[in_gear];           // gear:    down: 1000  ret
 860:.\main.c      ****                         ctrl_out[out_ge2] = ctrl_in[in_gear];
 861:.\main.c      ****                         ctrl_out[out_ge3] = ctrl_in[in_gear];             
 862:.\main.c      ****                         /* Camera Control Start - Signal on 0.4 or 0.5 */
 863:.\main.c      ****                         ctrl_out[out_fl1] = 600 + ((ctrl_in[in_can]) - 1000)*(18)/(10);            
 1150              		.loc 1 863 0
 1151 0552 284A     		ldr	r2, .L86+116
 856:.\main.c      ****                         ctrl_out[out_ele1] = ctrl_in[in_ele];           // ele:     low: 2000   hig
 1152              		.loc 1 856 0
 1153 0554 6382     		strh	r3, [r4, #18]
 857:.\main.c      ****                         ctrl_out[out_ele2] = ctrl_in[in_ele];
 1154              		.loc 1 857 0
 1155 0556 A382     		strh	r3, [r4, #20]
 858:.\main.c      ****                         ctrl_out[out_rud] = ctrl_in[in_rud];            // rud:     left: 1000  rig
 1156              		.loc 1 858 0
 1157 0558 8B8B     		ldrh	r3, [r1, #28]
 1158 055a E382     		strh	r3, [r4, #22]
 859:.\main.c      ****                         ctrl_out[out_ge1] = ctrl_in[in_gear];           // gear:    down: 1000  ret
 1159              		.loc 1 859 0
 1160 055c CB8B     		ldrh	r3, [r1, #30]
 1161 055e A383     		strh	r3, [r4, #28]
 860:.\main.c      ****                         ctrl_out[out_ge2] = ctrl_in[in_gear];
 1162              		.loc 1 860 0
 1163 0560 E383     		strh	r3, [r4, #30]
 861:.\main.c      ****                         ctrl_out[out_ge3] = ctrl_in[in_gear];             
 1164              		.loc 1 861 0
 1165 0562 2384     		strh	r3, [r4, #32]
 1166              		.loc 1 863 0
 1167 0564 088C     		ldrh	r0, [r1, #32]
 1168 0566 1223     		mov	r3, #18
 1169 0568 8018     		add	r0, r0, r2
 1170 056a 5843     		mul	r0, r3
 1171 056c 0A21     		mov	r1, #10
 1172 056e FFF7FEFF 		bl	__aeabi_idiv
 1173              	.LVL124:
 1174 0572 9623     		mov	r3, #150
 1175 0574 9B00     		lsl	r3, r3, #2
 1176 0576 C018     		add	r0, r0, r3
 1177 0578 72E0     		b	.L83
 1178              	.L87:
 1179 057a C046C046 		.align	3
 1179      C046
 1180              	.L86:
 1181 0580 00000000 		.word	0
 1182 0584 00806640 		.word	1080459264
 1183 0588 182D4454 		.word	1413754136
 1184 058c FB210940 		.word	1074340347
 1185 0590 07070000 		.word	1799
 1186 0594 3B000000 		.word	.LANCHOR1+59
 1187 0598 3A000000 		.word	.LANCHOR1+58
 1188 059c 3C000000 		.word	.LANCHOR1+60
 1189 05a0 00000000 		.word	Theta_acc
 1190 05a4 00000000 		.word	Phi_acc
 1191 05a8 0000A041 		.word	1101004800
ARM GAS  C:\Users\Sven\AppData\Local\Temp\cc7IOcoT.s 			page 38


 1192 05ac 0000A841 		.word	1101529088
 1193 05b0 50000000 		.word	.LANCHOR1+80
 1194 05b4 51000000 		.word	.LANCHOR1+81
 1195 05b8 52000000 		.word	.LANCHOR1+82
 1196 05bc 53000000 		.word	.LANCHOR1+83
 1197 05c0 0000A040 		.word	1084227584
 1198 05c4 00000000 		.word	Phi
 1199 05c8 54000000 		.word	.LANCHOR1+84
 1200 05cc 55000000 		.word	.LANCHOR1+85
 1201 05d0 56000000 		.word	.LANCHOR1+86
 1202 05d4 00000000 		.word	Theta
 1203 05d8 00000000 		.word	Theta_Mav
 1204 05dc 00000000 		.word	Phi_Mav
 1205 05e0 16000000 		.word	.LANCHOR1+22
 1206 05e4 E1040000 		.word	1249
 1207 05e8 D6060000 		.word	1750
 1208 05ec 00000000 		.word	.LANCHOR1
 1209 05f0 00000000 		.word	.LANCHOR0
 1210 05f4 18FCFFFF 		.word	-1000
 1211              	.LVL125:
 1212              	.L49:
 864:.\main.c      ****                         ctrl_out[out_fl2] = ctrl_out[out_fl1];
 865:.\main.c      ****                         /* Camera Control End */
 866:.\main.c      ****                         ctrl_out[out_sp1] = ctrl_in[in_mot];            // mode:    down: 2000 mid:
 867:.\main.c      ****                         ctrl_out[out_sp2] = ctrl_in[in_mot];
 868:.\main.c      ****                     #else // FUNCUB
 869:.\main.c      ****                         ctrl_out[out_mot] = ctrl_in[in_mot];//ctrl_in[in_mot];            // motor:
 870:.\main.c      ****                         //ctrl_out[out_mot] = 800;
 871:.\main.c      ****                         ctrl_out[out_ail1] = ctrl_in[in_ail]+aileron_offset;           // ail:     
 872:.\main.c      ****                         ctrl_out[out_ail2] = ctrl_in[in_ail]+aileron_offset;
 873:.\main.c      ****                         ctrl_out[out_ele1] = ctrl_in[in_ele]+elevator_offset;           // ele:    
 874:.\main.c      ****                         ctrl_out[out_ele2] = ctrl_in[in_ele]+elevator_offset;
 875:.\main.c      ****                         ctrl_out[out_rud] = ctrl_in[in_rud];            // rud:     left: 1000  rig
 876:.\main.c      ****                         ctrl_out[out_ge1] = ctrl_in[in_gear];           // gear:    down: 1000  ret
 877:.\main.c      ****                         ctrl_out[out_ge2] = ctrl_in[in_gear];
 878:.\main.c      ****                         ctrl_out[out_ge3] = ctrl_in[in_gear];
 879:.\main.c      ****                         /* Camera Control Start - Signal on 0.4 or 0.5 */
 880:.\main.c      ****                         ctrl_out[out_fl1] = 600 + ((ctrl_in[in_can]) - 1000)*(2400-600)/(2000-1000)
 881:.\main.c      ****                         ctrl_out[out_fl2] = ctrl_out[out_fl1];
 882:.\main.c      ****                         /* Camera Control End */
 883:.\main.c      ****                         ctrl_out[out_sp1] = ctrl_in[in_mot];            // mode:    down: 2000 mid:
 884:.\main.c      ****                         ctrl_out[out_sp2] = ctrl_in[in_mot];
 885:.\main.c      ****                     #endif
 886:.\main.c      ****                     
 887:.\main.c      ****                     break;
 888:.\main.c      ****                     
 889:.\main.c      ****                     case damped:
 890:.\main.c      ****                         
 891:.\main.c      ****                         /* Speed related damp GAINs */
 892:.\main.c      ****                         if (speed > 25)
 893:.\main.c      **** 						{
 894:.\main.c      **** 
 895:.\main.c      **** 						}
 896:.\main.c      **** 						else if (speed >16)
 897:.\main.c      **** 						{
 898:.\main.c      **** 
 899:.\main.c      **** 						}
ARM GAS  C:\Users\Sven\AppData\Local\Temp\cc7IOcoT.s 			page 39


 900:.\main.c      **** 						else
 901:.\main.c      **** 						{
 902:.\main.c      **** 
 903:.\main.c      **** 						}
 904:.\main.c      ****                         
 905:.\main.c      ****                         
 906:.\main.c      ****                         ctrl_out[out_mot] = ctrl_in[in_mot];            // motor:   low: 1000   hig
 1213              		.loc 1 906 0
 1214 05f8 BD4C     		ldr	r4, .L88
 1215 05fa D58A     		ldrh	r5, [r2, #22]
 907:.\main.c      ****                         //ctrl_out[out_mot] = 800;
 908:.\main.c      ****                         #ifdef T_50
 909:.\main.c      ****                         ctrl_out[out_ail1] = ctrl_in[in_ail]+(K_d_p*(turn_rate_p))+flap_offset;    
 1216              		.loc 1 909 0
 1217 05fc E21D     		add	r2, r4, #7
 1218 05fe D07F     		ldrb	r0, [r2, #31]
 1219              	.LVL126:
 1220 0600 049A     		ldr	r2, [sp, #16]
 906:.\main.c      ****                         ctrl_out[out_mot] = ctrl_in[in_mot];            // motor:   low: 1000   hig
 1221              		.loc 1 906 0
 1222 0602 A581     		strh	r5, [r4, #12]
 1223              		.loc 1 909 0
 1224 0604 5043     		mul	r0, r2
 1225 0606 1A8B     		ldrh	r2, [r3, #24]
 906:.\main.c      ****                         ctrl_out[out_mot] = ctrl_in[in_mot];            // motor:   low: 1000   hig
 1226              		.loc 1 906 0
 1227 0608 191C     		mov	r1, r3
 1228              		.loc 1 909 0
 1229 060a 8018     		add	r0, r0, r2
 1230 060c 1A1C     		mov	r2, r3
 1231 060e 5B32     		add	r2, r2, #91
 1232 0610 1278     		ldrb	r2, [r2]
 1233 0612 80B2     		uxth	r0, r0
 1234 0614 8618     		add	r6, r0, r2
 1235              	.LVL127:
 910:.\main.c      ****                         ctrl_out[out_ail2] = ctrl_in[in_ail]+(K_d_p*(turn_rate_p))-flap_offset;
 1236              		.loc 1 910 0
 1237 0616 821A     		sub	r2, r0, r2
 1238 0618 2282     		strh	r2, [r4, #16]
 911:.\main.c      ****                         ctrl_out[out_ele1] = ctrl_in[in_ele]+(K_d_q*(turn_rate_q));           // el
 1239              		.loc 1 911 0
 1240 061a 221C     		mov	r2, r4
 1241 061c 0832     		add	r2, r2, #8
 1242 061e 0298     		ldr	r0, [sp, #8]
 1243 0620 D27F     		ldrb	r2, [r2, #31]
 909:.\main.c      ****                         ctrl_out[out_ail1] = ctrl_in[in_ail]+(K_d_p*(turn_rate_p))+flap_offset;    
 1244              		.loc 1 909 0
 1245 0622 E681     		strh	r6, [r4, #14]
 1246              		.loc 1 911 0
 1247 0624 4243     		mul	r2, r0
 1248 0626 588B     		ldrh	r0, [r3, #26]
 912:.\main.c      ****                         ctrl_out[out_ele2] = ctrl_in[in_ele]+(K_d_q*(turn_rate_q));
 913:.\main.c      ****                         ctrl_out[out_rud] = ctrl_in[in_rud]+((K_d_r*turn_rate_r));            // ru
 1249              		.loc 1 913 0
 1250 0628 5E33     		add	r3, r3, #94
 911:.\main.c      ****                         ctrl_out[out_ele1] = ctrl_in[in_ele]+(K_d_q*(turn_rate_q));           // el
 1251              		.loc 1 911 0
ARM GAS  C:\Users\Sven\AppData\Local\Temp\cc7IOcoT.s 			page 40


 1252 062a 1218     		add	r2, r2, r0
 1253 062c 92B2     		uxth	r2, r2
 1254 062e 6282     		strh	r2, [r4, #18]
 912:.\main.c      ****                         ctrl_out[out_ele2] = ctrl_in[in_ele]+(K_d_q*(turn_rate_q));
 1255              		.loc 1 912 0
 1256 0630 A282     		strh	r2, [r4, #20]
 1257              		.loc 1 913 0
 1258 0632 221C     		mov	r2, r4
 1259 0634 2832     		add	r2, r2, #40
 1260 0636 1278     		ldrb	r2, [r2]
 1261 0638 1B88     		ldrh	r3, [r3]
 1262 063a 5343     		mul	r3, r2
 1263 063c 8A8B     		ldrh	r2, [r1, #28]
 914:.\main.c      ****                         ctrl_out[out_ge1] = ctrl_in[in_mot];           // gear:    down: 1000  retr
 1264              		.loc 1 914 0
 1265 063e A583     		strh	r5, [r4, #28]
 913:.\main.c      ****                         ctrl_out[out_rud] = ctrl_in[in_rud]+((K_d_r*turn_rate_r));            // ru
 1266              		.loc 1 913 0
 1267 0640 9B18     		add	r3, r3, r2
 1268 0642 E382     		strh	r3, [r4, #22]
 915:.\main.c      ****                         ctrl_out[out_ge2] = ctrl_in[in_gear];
 1269              		.loc 1 915 0
 1270 0644 CB8B     		ldrh	r3, [r1, #30]
 1271 0646 E383     		strh	r3, [r4, #30]
 916:.\main.c      ****                         ctrl_out[out_ge3] = ctrl_in[in_gear];             
 1272              		.loc 1 916 0
 1273 0648 2384     		strh	r3, [r4, #32]
 917:.\main.c      ****                         /* Camera Control Start - Signal on 0.4 or 0.5 */
 918:.\main.c      ****                         ctrl_out[out_fl1] = 600 + ((ctrl_in[in_can]) - 1000)*(18)/(10);            
 1274              		.loc 1 918 0
 1275 064a 088C     		ldrh	r0, [r1, #32]
 1276 064c A949     		ldr	r1, .L88+4
 1277 064e 1223     		mov	r3, #18
 1278 0650 4018     		add	r0, r0, r1
 1279 0652 5843     		mul	r0, r3
 1280 0654 0A21     		mov	r1, #10
 1281 0656 FFF7FEFF 		bl	__aeabi_idiv
 1282              	.LVL128:
 1283 065a 9622     		mov	r2, #150
 1284 065c 9200     		lsl	r2, r2, #2
 1285 065e 8018     		add	r0, r0, r2
 1286              	.L83:
 1287 0660 80B2     		uxth	r0, r0
 1288 0662 2083     		strh	r0, [r4, #24]
 919:.\main.c      ****                         ctrl_out[out_fl2] = ctrl_out[out_fl1];
 1289              		.loc 1 919 0
 1290 0664 6083     		strh	r0, [r4, #26]
 920:.\main.c      ****                         /* Camera Control End */
 921:.\main.c      ****                         ctrl_out[out_sp1] = ctrl_in[in_mot];            // mode:    down: 2000 mid:
 1291              		.loc 1 921 0
 1292 0666 6584     		strh	r5, [r4, #34]
 922:.\main.c      ****                         ctrl_out[out_sp2] = ctrl_in[in_mot];
 1293              		.loc 1 922 0
 1294 0668 A584     		strh	r5, [r4, #36]
 923:.\main.c      ****                         #else // Funcub
 924:.\main.c      ****                         ctrl_out[out_ail1] = ctrl_in[in_ail]-(K_d_p*(turn_rate_p));//+flap_offset; 
 925:.\main.c      ****                         ctrl_out[out_ail2] = ctrl_in[in_ail]-(K_d_p*(turn_rate_p));//-flap_offset;
ARM GAS  C:\Users\Sven\AppData\Local\Temp\cc7IOcoT.s 			page 41


 926:.\main.c      ****                         ctrl_out[out_ele1] = ctrl_in[in_ele]-(K_d_q*(turn_rate_q));           // el
 927:.\main.c      ****                         ctrl_out[out_ele2] = ctrl_in[in_ele]-(K_d_q*(turn_rate_q));
 928:.\main.c      ****                         ctrl_out[out_rud] = ctrl_in[in_rud]+((K_d_r*turn_rate_r));            // ru
 929:.\main.c      ****                         ctrl_out[out_ge1] = ctrl_in[in_mot];           // gear:    down: 1000  retr
 930:.\main.c      ****                         ctrl_out[out_ge2] = ctrl_in[in_gear];
 931:.\main.c      ****                         ctrl_out[out_ge3] = ctrl_in[in_gear];             
 932:.\main.c      ****                         /* Camera Control Start - Signal on 0.4 or 0.5 */
 933:.\main.c      ****                         ctrl_out[out_fl1] = 600 + ((ctrl_in[in_can]) - 1000)*(2400-600)/(2000-1000)
 934:.\main.c      ****                         ctrl_out[out_fl2] = ctrl_out[out_fl1];
 935:.\main.c      ****                         /* Camera Control End */
 936:.\main.c      ****                         ctrl_out[out_sp1] = ctrl_in[in_mot];            // mode:    down: 2000 mid:
 937:.\main.c      ****                         ctrl_out[out_sp2] = ctrl_in[in_mot];    
 938:.\main.c      ****                         #endif
 939:.\main.c      ****                     break;
 1295              		.loc 1 939 0
 1296 066a 07E1     		b	.L46
 1297              	.LVL129:
 1298              	.L50:
 940:.\main.c      ****                         
 941:.\main.c      ****                     case tune:
 942:.\main.c      ****                         if(tune_cnt == 0)
 1299              		.loc 1 942 0
 1300 066c 191C     		mov	r1, r3
 1301 066e 5C31     		add	r1, r1, #92
 1302 0670 0878     		ldrb	r0, [r1]
 1303              	.LVL130:
 1304 0672 0028     		cmp	r0, #0
 1305 0674 0AD1     		bne	.L52
 943:.\main.c      ****                         {
 944:.\main.c      ****                             ctrl_out[out_mot] = ctrl_in[in_mot];            // motor:   low: 1000  
 1306              		.loc 1 944 0
 1307 0676 9E49     		ldr	r1, .L88
 1308 0678 D28A     		ldrh	r2, [r2, #22]
 1309 067a 8A81     		strh	r2, [r1, #12]
 945:.\main.c      ****                             ctrl_out[out_ail1] = ctrl_in[in_ail];           // ail:     left: 1000 
 1310              		.loc 1 945 0
 1311 067c 1A8B     		ldrh	r2, [r3, #24]
 1312 067e CA81     		strh	r2, [r1, #14]
 946:.\main.c      ****                             ctrl_out[out_ail2] = ctrl_in[in_ail];
 1313              		.loc 1 946 0
 1314 0680 0A82     		strh	r2, [r1, #16]
 947:.\main.c      ****                             ctrl_out[out_ele1] = ctrl_in[in_ele];           // ele:     low: 2000  
 1315              		.loc 1 947 0
 1316 0682 5A8B     		ldrh	r2, [r3, #26]
 1317 0684 4A82     		strh	r2, [r1, #18]
 948:.\main.c      ****                             ctrl_out[out_ele2] = ctrl_in[in_ele];
 1318              		.loc 1 948 0
 1319 0686 8A82     		strh	r2, [r1, #20]
 949:.\main.c      ****                             ctrl_out[out_rud] = ctrl_in[in_rud];
 1320              		.loc 1 949 0
 1321 0688 9A8B     		ldrh	r2, [r3, #28]
 1322 068a CA82     		strh	r2, [r1, #22]
 1323              	.L52:
 950:.\main.c      ****                         }
 951:.\main.c      ****                         if(ctrl_in[in_can] < 1500 && (tune_cnt == 100))
 1324              		.loc 1 951 0
 1325 068c 1A8C     		ldrh	r2, [r3, #32]
ARM GAS  C:\Users\Sven\AppData\Local\Temp\cc7IOcoT.s 			page 42


 1326 068e 9A49     		ldr	r1, .L88+8
 1327 0690 8A42     		cmp	r2, r1
 1328 0692 09D8     		bhi	.L53
 1329              		.loc 1 951 0 is_stmt 0 discriminator 1
 1330 0694 6428     		cmp	r0, #100
 1331 0696 11D1     		bne	.L54
 952:.\main.c      ****                         {
 953:.\main.c      ****                             // step Aileron
 954:.\main.c      ****                             ctrl_out[out_ail1]+= 150;
 1332              		.loc 1 954 0 is_stmt 1
 1333 0698 954A     		ldr	r2, .L88
 1334 069a D189     		ldrh	r1, [r2, #14]
 1335 069c 9631     		add	r1, r1, #150
 1336 069e D181     		strh	r1, [r2, #14]
 955:.\main.c      ****                             ctrl_out[out_ail2]-= 150;
 1337              		.loc 1 955 0
 1338 06a0 118A     		ldrh	r1, [r2, #16]
 1339 06a2 9639     		sub	r1, r1, #150
 1340 06a4 1182     		strh	r1, [r2, #16]
 1341 06a6 0CE0     		b	.L70
 1342              	.L53:
 956:.\main.c      ****                         }
 957:.\main.c      ****                         else if (ctrl_in[in_can] > 1500 && (tune_cnt == 100))
 1343              		.loc 1 957 0
 1344 06a8 9449     		ldr	r1, .L88+12
 1345 06aa 8A42     		cmp	r2, r1
 1346 06ac 06D0     		beq	.L54
 1347              		.loc 1 957 0 is_stmt 0 discriminator 1
 1348 06ae 6428     		cmp	r0, #100
 1349 06b0 04D1     		bne	.L54
 958:.\main.c      ****                         {
 959:.\main.c      ****                             // step Elevator
 960:.\main.c      ****                             ctrl_out[out_ele1]+= 150;   // positive step -> Up
 1350              		.loc 1 960 0 is_stmt 1
 1351 06b2 8F4A     		ldr	r2, .L88
 1352 06b4 518A     		ldrh	r1, [r2, #18]
 1353 06b6 9631     		add	r1, r1, #150
 1354 06b8 5182     		strh	r1, [r2, #18]
 1355 06ba 02E0     		b	.L70
 1356              	.L54:
 961:.\main.c      ****                         }
 962:.\main.c      ****                         
 963:.\main.c      ****                         if(tune_cnt < 250) tune_cnt++;
 1357              		.loc 1 963 0
 1358 06bc F928     		cmp	r0, #249
 1359 06be 00D9     		bls	.LCB1099
 1360 06c0 DCE0     		b	.L46	@long jump
 1361              	.LCB1099:
 1362              	.L70:
 1363              		.loc 1 963 0 is_stmt 0 discriminator 1
 1364 06c2 5C33     		add	r3, r3, #92
 1365 06c4 0130     		add	r0, r0, #1
 1366 06c6 1870     		strb	r0, [r3]
 1367 06c8 D8E0     		b	.L46
 1368              	.LVL131:
 1369              	.L51:
 964:.\main.c      ****                         
ARM GAS  C:\Users\Sven\AppData\Local\Temp\cc7IOcoT.s 			page 43


 965:.\main.c      ****                     break;
 966:.\main.c      ****                     
 967:.\main.c      ****                    // case autonom:
 968:.\main.c      ****                         
 969:.\main.c      ****                     //    break;
 970:.\main.c      ****                         
 971:.\main.c      ****                     case autonom:
 972:.\main.c      ****                         /* autonomous mode */
 973:.\main.c      **** 
 974:.\main.c      **** 						
 975:.\main.c      **** 						if(state_change == TRUE)
 1370              		.loc 1 975 0 is_stmt 1
 1371 06ca 032E     		cmp	r6, #3
 1372 06cc 15D0     		beq	.L56
 976:.\main.c      **** 						{
 977:.\main.c      ****                             /* Entering Autonomous Mode */
 978:.\main.c      **** 							/* Store current ctrl inputs in trim vecotr*/
 979:.\main.c      **** 							ctrl_in_trim[in_mot] = ctrl_in[in_mot];  /* Set trimmed Motor input */
 1373              		.loc 1 979 0
 1374 06ce 8C4B     		ldr	r3, .L88+16
 1375 06d0 8748     		ldr	r0, .L88
 1376              	.LVL132:
 1377 06d2 DC8A     		ldrh	r4, [r3, #22]
 1378 06d4 021C     		mov	r2, r0
 1379 06d6 4485     		strh	r4, [r0, #42]
 980:.\main.c      ****                             ctrl_in_trim[in_ele] = ctrl_in[in_ele];  /* Set trimmed Elevator input 
 1380              		.loc 1 980 0
 1381 06d8 588B     		ldrh	r0, [r3, #26]
 979:.\main.c      **** 							ctrl_in_trim[in_mot] = ctrl_in[in_mot];  /* Set trimmed Motor input */
 1382              		.loc 1 979 0
 1383 06da 191C     		mov	r1, r3
 1384              		.loc 1 980 0
 1385 06dc D085     		strh	r0, [r2, #46]
 981:.\main.c      **** 							ctrl_in_trim[in_ail] = ctrl_in[in_ail];  /* Set trimmed Aileron input */
 1386              		.loc 1 981 0
 1387 06de 188B     		ldrh	r0, [r3, #24]
 979:.\main.c      **** 							ctrl_in_trim[in_mot] = ctrl_in[in_mot];  /* Set trimmed Motor input */
 1388              		.loc 1 979 0
 1389 06e0 1631     		add	r1, r1, #22
 1390              		.loc 1 981 0
 1391 06e2 9085     		strh	r0, [r2, #44]
 982:.\main.c      ****                             ctrl_in_trim[in_rud] = ctrl_in[in_rud];  /* Set trimmed Rudder input */
 1392              		.loc 1 982 0
 1393 06e4 C988     		ldrh	r1, [r1, #6]
 983:.\main.c      ****                             /* In case the autonomous mode is entered 
 984:.\main.c      **** 							all errors etc need to be reset */
 985:.\main.c      **** 							
 986:.\main.c      ****                             /* Theta Control */
 987:.\main.c      **** 							Theta_Error = 0;					/* Needs to be reset always when this state is entered */
 988:.\main.c      **** 							Theta_Error_sum = 0;				/* Theta Sum to be reset */
 989:.\main.c      **** 							Theta_Target = -5; /* = 0 */		/* Set Theta Target */
 1394              		.loc 1 989 0
 1395 06e6 FB20     		mov	r0, #251
 982:.\main.c      ****                             ctrl_in_trim[in_rud] = ctrl_in[in_rud];  /* Set trimmed Rudder input */
 1396              		.loc 1 982 0
 1397 06e8 1186     		strh	r1, [r2, #48]
 988:.\main.c      **** 							Theta_Error_sum = 0;				/* Theta Sum to be reset */
ARM GAS  C:\Users\Sven\AppData\Local\Temp\cc7IOcoT.s 			page 44


 1398              		.loc 1 988 0
 1399 06ea 0022     		mov	r2, #0
 1400              		.loc 1 989 0
 1401 06ec 191C     		mov	r1, r3
 988:.\main.c      **** 							Theta_Error_sum = 0;				/* Theta Sum to be reset */
 1402              		.loc 1 988 0
 1403 06ee 1A66     		str	r2, [r3, #96]
 1404              		.loc 1 989 0
 1405 06f0 6431     		add	r1, r1, #100
 990:.\main.c      **** 							
 991:.\main.c      ****                             /* Phi Control */
 992:.\main.c      ****                             Phi_Error = 0;					/* Needs to be reset always when this state is enter
 993:.\main.c      **** 							Phi_Error_sum = 0;				/* Phi Sum to be reset */
 1406              		.loc 1 993 0
 1407 06f2 9A66     		str	r2, [r3, #104]
 994:.\main.c      **** 							Phi_Target = 0; /* = 0 */		/* Set Phi Target */
 1408              		.loc 1 994 0
 1409 06f4 6C33     		add	r3, r3, #108
 989:.\main.c      **** 							Theta_Target = -5; /* = 0 */		/* Set Theta Target */
 1410              		.loc 1 989 0
 1411 06f6 0870     		strb	r0, [r1]
 1412              		.loc 1 994 0
 1413 06f8 1A70     		strb	r2, [r3]
 1414              	.L56:
 1415              	.LVL133:
 995:.\main.c      **** 						}
 996:.\main.c      ****                         #ifdef FUNCUB
 997:.\main.c      ****                     	// Flap control enable during auto mode
 998:.\main.c      ****                         ctrl_out[out_fl1] = ctrl_in[in_can];            // canopy:  open: 1000  clo
 999:.\main.c      ****                         ctrl_out[out_fl2] = ctrl_in[in_can];         
1000:.\main.c      ****                         #endif
1001:.\main.c      ****                             // For changing if Lat Auto or Long Auto Test
1002:.\main.c      ****                         //if(ctrl_in[in_gear] > 1750)
1003:.\main.c      ****                         //{
1004:.\main.c      **** 
1005:.\main.c      ****                         //#ifdef THCTRL
1006:.\main.c      **** 						//******************************************************
1007:.\main.c      ****  						// Theta control with elevator
1008:.\main.c      ****  						// Input: Theta command from Altitude Hold loop
1009:.\main.c      ****  						// Output: elevator command pid loop
1010:.\main.c      ****  						// Controller: PID Controller
1011:.\main.c      **** 						// Gains: K_p = 10 K_i = 10 K_d = 5
1012:.\main.c      **** 						uint8_t Kp_Theta = 5;
1013:.\main.c      **** 						uint8_t Ki_Theta = 5;
1014:.\main.c      **** 						uint8_t Kd_Theta = 0;
1015:.\main.c      **** 						
1016:.\main.c      ****  						Theta_Error = Theta - Theta_Target; // as per Simulation in SCILAB this convention is best
 1416              		.loc 1 1016 0
 1417 06fa 814C     		ldr	r4, .L88+16
 1418 06fc 6420     		mov	r0, #100
 1419 06fe 2056     		ldrsb	r0, [r4, r0]
 1420 0700 FFF7FEFF 		bl	__aeabi_i2f
 1421              	.LVL134:
 1422 0704 011C     		add	r1, r0, #0
 1423 0706 0398     		ldr	r0, [sp, #12]
 1424 0708 FFF7FEFF 		bl	__aeabi_fsub
 1425              	.LVL135:
ARM GAS  C:\Users\Sven\AppData\Local\Temp\cc7IOcoT.s 			page 45


 1426 070c FFF7FEFF 		bl	__aeabi_f2iz
 1427              	.LVL136:
 1428 0710 231C     		mov	r3, r4
 1429 0712 C5B2     		uxtb	r5, r0
 1430 0714 6D33     		add	r3, r3, #109
 1431 0716 1D70     		strb	r5, [r3]
1017:.\main.c      ****  						Theta_Error_sum += Theta_Error;
 1432              		.loc 1 1017 0
 1433 0718 236E     		ldr	r3, [r4, #96]
 1434 071a 6FB2     		sxtb	r7, r5
 1435 071c FB18     		add	r3, r7, r3
 1436 071e 2366     		str	r3, [r4, #96]
1018:.\main.c      ****  						// controller formula for the necessary control change						 
1019:.\main.c      **** 
1020:.\main.c      ****  						ctrl_out_PID[out_ele1] = (Kp_Theta*Theta_Error + Ki_Theta*Theta_Error_sum*sample_time + Kd_T
 1437              		.loc 1 1020 0
 1438 0720 0099     		ldr	r1, [sp]
 1439 0722 0020     		mov	r0, #0
1017:.\main.c      ****  						Theta_Error_sum += Theta_Error;
 1440              		.loc 1 1017 0
 1441 0724 0393     		str	r3, [sp, #12]
 1442              		.loc 1 1020 0
 1443 0726 FFF7FEFF 		bl	__aeabi_fdiv
 1444              	.LVL137:
 1445 072a 0526     		mov	r6, #5
 1446              	.LVL138:
 1447 072c 0690     		str	r0, [sp, #24]
 1448 072e 301C     		mov	r0, r6
 1449 0730 7843     		mul	r0, r7
 1450 0732 FFF7FEFF 		bl	__aeabi_i2f
 1451              	.LVL139:
 1452 0736 071C     		add	r7, r0, #0
 1453 0738 0398     		ldr	r0, [sp, #12]
 1454 073a 7043     		mul	r0, r6
 1455 073c FFF7FEFF 		bl	__aeabi_i2f
 1456              	.LVL140:
 1457 0740 0099     		ldr	r1, [sp]
 1458 0742 FFF7FEFF 		bl	__aeabi_fmul
 1459              	.LVL141:
 1460 0746 011C     		add	r1, r0, #0
 1461 0748 381C     		add	r0, r7, #0
 1462 074a FFF7FEFF 		bl	__aeabi_fadd
 1463              	.LVL142:
 1464 074e 0699     		ldr	r1, [sp, #24]
 1465 0750 FFF7FEFF 		bl	__aeabi_fadd
 1466              	.LVL143:
 1467 0754 FFF7FEFF 		bl	__aeabi_f2uiz
 1468              	.LVL144:
 1469 0758 231C     		mov	r3, r4
 1470 075a 80B2     		uxth	r0, r0
 1471 075c 6E33     		add	r3, r3, #110
 1472 075e D880     		strh	r0, [r3, #6]
1021:.\main.c      **** 
1022:.\main.c      ****                         Theta_Error_prev = Theta_Error;
 1473              		.loc 1 1022 0
 1474 0760 231C     		mov	r3, r4
 1475 0762 7833     		add	r3, r3, #120
ARM GAS  C:\Users\Sven\AppData\Local\Temp\cc7IOcoT.s 			page 46


 1476 0764 1D70     		strb	r5, [r3]
1023:.\main.c      **** 						//******************************************************
1024:.\main.c      **** 						
1025:.\main.c      **** 						//******************************************************
1026:.\main.c      **** 						// Pitch damping
1027:.\main.c      **** 						// Input: turn rate q
1028:.\main.c      **** 						// Output: elevator command damping
1029:.\main.c      **** 						// Gains: K_d_q
1030:.\main.c      **** 						ctrl_out_DAMP[out_ele1] = K_d_q * (turn_rate_q);
 1477              		.loc 1 1030 0
 1478 0766 624D     		ldr	r5, .L88
 1479 0768 0299     		ldr	r1, [sp, #8]
 1480 076a 2B1C     		mov	r3, r5
 1481 076c 0833     		add	r3, r3, #8
 1482 076e DB7F     		ldrb	r3, [r3, #31]
 1483 0770 221C     		mov	r2, r4
 1484 0772 4B43     		mul	r3, r1
 1485 0774 7A32     		add	r2, r2, #122
 1486 0776 9BB2     		uxth	r3, r3
 1487 0778 D380     		strh	r3, [r2, #6]
1031:.\main.c      **** 						//******************************************************
1032:.\main.c      **** 						
1033:.\main.c      **** 						//******************************************************
1034:.\main.c      **** 						// Combining the calculated inputs elevator and limiting elevator command
1035:.\main.c      **** 						ctrl_out[out_ele1] = ctrl_in_trim[in_ele] - ctrl_out_PID[out_ele1] - ctrl_out_DAMP[out_ele1];
 1488              		.loc 1 1035 0
 1489 077a EA8D     		ldrh	r2, [r5, #46]
 1490 077c 271C     		mov	r7, r4
 1491 077e 101A     		sub	r0, r2, r0
 1492 0780 C01A     		sub	r0, r0, r3
 1493 0782 80B2     		uxth	r0, r0
1036:.\main.c      **** 						if(ctrl_out[out_ele1] > 2000) ctrl_out[out_ele1] = 2000;
 1494              		.loc 1 1036 0
 1495 0784 FA23     		mov	r3, #250
 1496 0786 DB00     		lsl	r3, r3, #3
 1497 0788 9842     		cmp	r0, r3
 1498 078a 06D8     		bhi	.L81
1037:.\main.c      **** 						else if (ctrl_out[out_ele1] < 900) ctrl_out[out_ele1] = 900;
 1499              		.loc 1 1037 0
 1500 078c 5D4B     		ldr	r3, .L88+20
 1501 078e 9842     		cmp	r0, r3
 1502 0790 01D9     		bls	.L59
1035:.\main.c      **** 						ctrl_out[out_ele1] = ctrl_in_trim[in_ele] - ctrl_out_PID[out_ele1] - ctrl_out_DAMP[out_ele1];
 1503              		.loc 1 1035 0
 1504 0792 6882     		strh	r0, [r5, #18]
 1505 0794 02E0     		b	.L58
 1506              	.L59:
 1507              		.loc 1 1037 0 discriminator 1
 1508 0796 E123     		mov	r3, #225
 1509 0798 9B00     		lsl	r3, r3, #2
 1510              	.L81:
 1511 079a 6B82     		strh	r3, [r5, #18]
 1512              	.L58:
1038:.\main.c      **** 						//******************************************************
1039:.\main.c      **** 						//#endif
1040:.\main.c      ****                         
1041:.\main.c      ****          // rud:     left: 1000  right: 2000
ARM GAS  C:\Users\Sven\AppData\Local\Temp\cc7IOcoT.s 			page 47


1042:.\main.c      ****                         
1043:.\main.c      ****                         //}
1044:.\main.c      ****                         //else
1045:.\main.c      ****                         //{
1046:.\main.c      ****                         
1047:.\main.c      ****                         //#ifdef PHICTRL
1048:.\main.c      ****                         //******************************************************
1049:.\main.c      ****  						// Phi control with Aileron
1050:.\main.c      ****  						// Input: Phi command from Heading hold loop
1051:.\main.c      ****  						// Output: aileron command pid loop
1052:.\main.c      ****  						// Controller: PID Controller
1053:.\main.c      **** 						// Gains: K_p = 10 K_i = 10 K_d = 5
1054:.\main.c      ****                            
1055:.\main.c      ****                         ctrl_out[out_mot] = ctrl_in[in_mot];//ctrl_in[in_mot];            // motor:
 1513              		.loc 1 1055 0
 1514 079c E38A     		ldrh	r3, [r4, #22]
1056:.\main.c      ****                         //ctrl_out[out_mot] = 800;
1057:.\main.c      ****                         //ctrl_out[out_ail1] = ctrl_in[in_ail]+aileron_offset;           // ail:   
1058:.\main.c      ****                         //ctrl_out[out_ail2] = ctrl_in[in_ail]+aileron_offset;
1059:.\main.c      ****                         //ctrl_out[out_ele1] = ctrl_in[in_ele]+elevator_offset;           // ele:  
1060:.\main.c      ****                         //ctrl_out[out_ele2] = ctrl_in[in_ele]+elevator_offset;    
1061:.\main.c      ****                         
1062:.\main.c      **** 						uint8_t Kp_Phi = 10;
1063:.\main.c      **** 						uint8_t Ki_Phi = 5;
1064:.\main.c      **** 						uint8_t Kd_Phi = 0;
1065:.\main.c      **** 						
1066:.\main.c      ****  						Phi_Error = Phi_Target - Phi; // as per Simulation in SCILAB this convention is best
 1515              		.loc 1 1066 0
 1516 079e 6C20     		mov	r0, #108
1055:.\main.c      ****                         ctrl_out[out_mot] = ctrl_in[in_mot];//ctrl_in[in_mot];            // motor:
 1517              		.loc 1 1055 0
 1518 07a0 AB81     		strh	r3, [r5, #12]
 1519              	.LVL145:
 1520              		.loc 1 1066 0
 1521 07a2 3856     		ldrsb	r0, [r7, r0]
 1522 07a4 FFF7FEFF 		bl	__aeabi_i2f
 1523              	.LVL146:
 1524 07a8 0599     		ldr	r1, [sp, #20]
 1525 07aa FFF7FEFF 		bl	__aeabi_fsub
 1526              	.LVL147:
 1527 07ae FFF7FEFF 		bl	__aeabi_f2iz
 1528              	.LVL148:
 1529 07b2 3B1C     		mov	r3, r7
 1530 07b4 C6B2     		uxtb	r6, r0
1067:.\main.c      ****  						Phi_Error_sum += Phi_Error;
 1531              		.loc 1 1067 0
 1532 07b6 A26E     		ldr	r2, [r4, #104]
1066:.\main.c      ****  						Phi_Error = Phi_Target - Phi; // as per Simulation in SCILAB this convention is best
 1533              		.loc 1 1066 0
 1534 07b8 6533     		add	r3, r3, #101
 1535 07ba 1E70     		strb	r6, [r3]
 1536              		.loc 1 1067 0
 1537 07bc 73B2     		sxtb	r3, r6
 1538 07be 9A18     		add	r2, r3, r2
1068:.\main.c      ****  						// controller formula for the necessary control change						 
1069:.\main.c      ****  						ctrl_out_PID[out_ail1] = (Kp_Phi*Phi_Error) + (Ki_Phi*Phi_Error_sum*sample_time) + (Kd_Phi*(
 1539              		.loc 1 1069 0
ARM GAS  C:\Users\Sven\AppData\Local\Temp\cc7IOcoT.s 			page 48


 1540 07c0 0A20     		mov	r0, #10
1067:.\main.c      ****  						Phi_Error_sum += Phi_Error;
 1541              		.loc 1 1067 0
 1542 07c2 A266     		str	r2, [r4, #104]
 1543              		.loc 1 1069 0
 1544 07c4 5843     		mul	r0, r3
1067:.\main.c      ****  						Phi_Error_sum += Phi_Error;
 1545              		.loc 1 1067 0
 1546 07c6 0292     		str	r2, [sp, #8]
 1547              		.loc 1 1069 0
 1548 07c8 FFF7FEFF 		bl	__aeabi_i2f
 1549              	.LVL149:
 1550 07cc 029B     		ldr	r3, [sp, #8]
 1551 07ce 041C     		add	r4, r0, #0
 1552 07d0 0520     		mov	r0, #5
 1553 07d2 5843     		mul	r0, r3
 1554 07d4 FFF7FEFF 		bl	__aeabi_i2f
 1555              	.LVL150:
 1556 07d8 0099     		ldr	r1, [sp]
 1557 07da FFF7FEFF 		bl	__aeabi_fmul
 1558              	.LVL151:
 1559 07de 011C     		add	r1, r0, #0
 1560 07e0 201C     		add	r0, r4, #0
 1561 07e2 FFF7FEFF 		bl	__aeabi_fadd
 1562              	.LVL152:
 1563 07e6 0699     		ldr	r1, [sp, #24]
 1564 07e8 FFF7FEFF 		bl	__aeabi_fadd
 1565              	.LVL153:
 1566 07ec FFF7FEFF 		bl	__aeabi_f2uiz
 1567              	.LVL154:
 1568 07f0 3B1C     		mov	r3, r7
 1569 07f2 80B2     		uxth	r0, r0
 1570 07f4 6E33     		add	r3, r3, #110
 1571 07f6 5880     		strh	r0, [r3, #2]
1070:.\main.c      ****                         Phi_Error_prev = Phi_Error;
 1572              		.loc 1 1070 0
 1573 07f8 434B     		ldr	r3, .L88+24
1071:.\main.c      **** 						//******************************************************
1072:.\main.c      **** 						
1073:.\main.c      **** 						//uint8_t Kp_Phi = 5;
1074:.\main.c      **** 						//uint8_t Ki_Phi = 5;
1075:.\main.c      **** 						//uint8_t Kd_Phi = 1;
1076:.\main.c      **** 						
1077:.\main.c      ****  						//Phi_Error = Phi_Target - Phi; // as per Simulation in SCILAB this convention is best
1078:.\main.c      ****  						//Phi_Error_sum += Phi_Error;
1079:.\main.c      ****  						// controller formula for the necessary control change						 
1080:.\main.c      ****  						//ctrl_out_PID[out_ail1] = (Kp_Phi*Phi_Error);// + Ki_Phi*Phi_Error_sum*sample_time + Kd_Phi
1081:.\main.c      ****                         //Phi_Error_prev = Phi_Error;
1082:.\main.c      **** 						//******************************************************
1083:.\main.c      **** 						
1084:.\main.c      **** 
1085:.\main.c      **** 						//******************************************************
1086:.\main.c      **** 						// Pitch damping
1087:.\main.c      **** 						// Input: turn rate q
1088:.\main.c      **** 						// Output: elevator command damping
1089:.\main.c      **** 						// Gains: K_d_q
1090:.\main.c      **** 						ctrl_out_DAMP[out_ail1] = K_d_p * (turn_rate_p);
ARM GAS  C:\Users\Sven\AppData\Local\Temp\cc7IOcoT.s 			page 49


 1574              		.loc 1 1090 0
 1575 07fa 0499     		ldr	r1, [sp, #16]
1070:.\main.c      ****                         Phi_Error_prev = Phi_Error;
 1576              		.loc 1 1070 0
 1577 07fc 1E71     		strb	r6, [r3, #4]
 1578              		.loc 1 1090 0
 1579 07fe 3C4B     		ldr	r3, .L88
 1580 0800 3A1C     		mov	r2, r7
 1581 0802 0733     		add	r3, r3, #7
 1582 0804 DB7F     		ldrb	r3, [r3, #31]
 1583 0806 7A32     		add	r2, r2, #122
 1584 0808 4B43     		mul	r3, r1
1091:.\main.c      **** 						//******************************************************
1092:.\main.c      **** 						
1093:.\main.c      **** 						//******************************************************
1094:.\main.c      **** 						// Combining the calculated inputs elevator and limiting elevator command
1095:.\main.c      **** 
1096:.\main.c      **** 						ctrl_out[out_ail1] = ctrl_in_trim[in_ail] + ctrl_out_PID[out_ail1] - ctrl_out_DAMP[out_ail1];
 1585              		.loc 1 1096 0
 1586 080a 3949     		ldr	r1, .L88
1090:.\main.c      **** 						ctrl_out_DAMP[out_ail1] = K_d_p * (turn_rate_p);
 1587              		.loc 1 1090 0
 1588 080c 9BB2     		uxth	r3, r3
 1589 080e 5380     		strh	r3, [r2, #2]
 1590              		.loc 1 1096 0
 1591 0810 8A8D     		ldrh	r2, [r1, #44]
 1592 0812 D31A     		sub	r3, r2, r3
 1593 0814 C018     		add	r0, r0, r3
 1594 0816 80B2     		uxth	r0, r0
1097:.\main.c      **** 
1098:.\main.c      **** 						if(ctrl_out[out_ail1] > 2000) ctrl_out[out_ail1] = 2000;
 1595              		.loc 1 1098 0
 1596 0818 FA23     		mov	r3, #250
 1597 081a DB00     		lsl	r3, r3, #3
 1598 081c 9842     		cmp	r0, r3
 1599 081e 06D8     		bhi	.L82
1099:.\main.c      **** 						else if (ctrl_out[out_ail1] < 900) ctrl_out[out_ail1] = 900;
 1600              		.loc 1 1099 0
 1601 0820 384B     		ldr	r3, .L88+20
 1602 0822 9842     		cmp	r0, r3
 1603 0824 01D9     		bls	.L62
1096:.\main.c      **** 						ctrl_out[out_ail1] = ctrl_in_trim[in_ail] + ctrl_out_PID[out_ail1] - ctrl_out_DAMP[out_ail1];
 1604              		.loc 1 1096 0
 1605 0826 E881     		strh	r0, [r5, #14]
 1606 0828 02E0     		b	.L61
 1607              	.L62:
 1608              		.loc 1 1099 0 discriminator 1
 1609 082a E123     		mov	r3, #225
 1610 082c 9B00     		lsl	r3, r3, #2
 1611              	.L82:
 1612 082e EB81     		strh	r3, [r5, #14]
 1613              	.L61:
1100:.\main.c      ****                         ctrl_out[out_ail2] = ctrl_out[out_ail1];    /* Both Servos need to be contr
 1614              		.loc 1 1100 0
 1615 0830 2F4B     		ldr	r3, .L88
 1616 0832 DA89     		ldrh	r2, [r3, #14]
1101:.\main.c      **** 						//******************************************************
ARM GAS  C:\Users\Sven\AppData\Local\Temp\cc7IOcoT.s 			page 50


1102:.\main.c      ****                         //#endif
1103:.\main.c      **** 
1104:.\main.c      ****                        
1105:.\main.c      ****                         /********************************************************************
1106:.\main.c      ****                                     YAW Damping is also required to stabilize the lateral movement
1107:.\main.c      ****                         **********************************************************************/
1108:.\main.c      ****                         
1109:.\main.c      **** 
1110:.\main.c      ****                         ctrl_out[out_rud] = ctrl_in[in_rud]+((K_d_r*turn_rate_r));//-ctrl_out_PID[o
 1617              		.loc 1 1110 0
 1618 0834 181C     		mov	r0, r3
1100:.\main.c      ****                         ctrl_out[out_ail2] = ctrl_out[out_ail1];    /* Both Servos need to be contr
 1619              		.loc 1 1100 0
 1620 0836 1A82     		strh	r2, [r3, #16]
 1621              		.loc 1 1110 0
 1622 0838 314A     		ldr	r2, .L88+16
 1623 083a 2830     		add	r0, r0, #40
 1624 083c 111C     		mov	r1, r2
 1625 083e 5E31     		add	r1, r1, #94
 1626 0840 0988     		ldrh	r1, [r1]
 1627 0842 0078     		ldrb	r0, [r0]
 1628 0844 4843     		mul	r0, r1
 1629 0846 918B     		ldrh	r1, [r2, #28]
 1630 0848 4218     		add	r2, r0, r1
 1631 084a DA82     		strh	r2, [r3, #22]
1111:.\main.c      ****                         //}
1112:.\main.c      ****                     break;
 1632              		.loc 1 1112 0
 1633 084c 16E0     		b	.L46
 1634              	.LVL155:
 1635              	.L38:
 1636              	.LBE4:
 1637              	.LBE3:
1113:.\main.c      ****                         
1114:.\main.c      ****                 }
1115:.\main.c      ****             }
1116:.\main.c      ****             else    // for debug use only (no receiver connected)
1117:.\main.c      ****             {
1118:.\main.c      ****                 ctrl_in[in_mot] = 1000;
1119:.\main.c      ****                 ctrl_out[out_mot] = ctrl_in[in_mot];    
1120:.\main.c      ****                 ctrl_out[out_ail1] = 1500 +(K_d_p*turn_rate_p);    
 1638              		.loc 1 1120 0
 1639 084e 284A     		ldr	r2, .L88
 1640 0850 0498     		ldr	r0, [sp, #16]
 1641 0852 0732     		add	r2, r2, #7
 1642 0854 D27F     		ldrb	r2, [r2, #31]
 1643 0856 2949     		ldr	r1, .L88+12
 1644 0858 4243     		mul	r2, r0
1118:.\main.c      ****                 ctrl_in[in_mot] = 1000;
 1645              		.loc 1 1118 0
 1646 085a FA23     		mov	r3, #250
 1647 085c 9B00     		lsl	r3, r3, #2
 1648              		.loc 1 1120 0
 1649 085e 5218     		add	r2, r2, r1
1118:.\main.c      ****                 ctrl_in[in_mot] = 1000;
 1650              		.loc 1 1118 0
 1651 0860 FB82     		strh	r3, [r7, #22]
ARM GAS  C:\Users\Sven\AppData\Local\Temp\cc7IOcoT.s 			page 51


1119:.\main.c      ****                 ctrl_out[out_mot] = ctrl_in[in_mot];    
 1652              		.loc 1 1119 0
 1653 0862 B381     		strh	r3, [r6, #12]
 1654              		.loc 1 1120 0
 1655 0864 F281     		strh	r2, [r6, #14]
1121:.\main.c      ****                 ctrl_out[out_ail2] = ctrl_in[in_mot];
 1656              		.loc 1 1121 0
 1657 0866 3382     		strh	r3, [r6, #16]
1122:.\main.c      ****                 ctrl_out[out_ele1] = ctrl_in[in_mot];
 1658              		.loc 1 1122 0
 1659 0868 7382     		strh	r3, [r6, #18]
1123:.\main.c      ****                 ctrl_out[out_ele2] = ctrl_in[in_mot];
 1660              		.loc 1 1123 0
 1661 086a B382     		strh	r3, [r6, #20]
1124:.\main.c      ****                 ctrl_out[out_rud] = ctrl_in[in_mot];
 1662              		.loc 1 1124 0
 1663 086c F382     		strh	r3, [r6, #22]
1125:.\main.c      ****                 ctrl_out[out_fl1] = ctrl_in[in_mot];
 1664              		.loc 1 1125 0
 1665 086e 3383     		strh	r3, [r6, #24]
1126:.\main.c      ****                 ctrl_out[out_fl2] = ctrl_in[in_mot];
 1666              		.loc 1 1126 0
 1667 0870 7383     		strh	r3, [r6, #26]
1127:.\main.c      ****                 ctrl_out[out_ge1] = ctrl_in[in_mot];
 1668              		.loc 1 1127 0
 1669 0872 B383     		strh	r3, [r6, #28]
1128:.\main.c      ****                 ctrl_out[out_ge2] = ctrl_in[in_mot];
 1670              		.loc 1 1128 0
 1671 0874 F383     		strh	r3, [r6, #30]
1129:.\main.c      ****                 ctrl_out[out_ge3] = ctrl_in[in_mot];
 1672              		.loc 1 1129 0
 1673 0876 3384     		strh	r3, [r6, #32]
1130:.\main.c      ****                 ctrl_out[out_sp1] = ctrl_in[in_mot];
 1674              		.loc 1 1130 0
 1675 0878 7384     		strh	r3, [r6, #34]
1131:.\main.c      ****                 ctrl_out[out_sp2] = ctrl_in[in_mot];
 1676              		.loc 1 1131 0
 1677 087a B384     		strh	r3, [r6, #36]
 1678              	.L46:
1132:.\main.c      ****             }
1133:.\main.c      ****             
1134:.\main.c      ****             /*=======================================
1135:.\main.c      ****                 Data Logging
1136:.\main.c      ****               =======================================*/
1137:.\main.c      ****             static uint8_t tx_counter = 0;
1138:.\main.c      ****             if(DATA_LOG == TRUE && tx_counter == 2) // data every 20ms
1139:.\main.c      ****             {
1140:.\main.c      ****                 tx_counter = 0;
1141:.\main.c      ****                 UART_1_UartPutNum(ctrl_out[out_mot]);
1142:.\main.c      ****                 UART_1_UartPutString(";");
1143:.\main.c      ****                 UART_1_UartPutNum(ctrl_out[out_ail1]);
1144:.\main.c      ****                 UART_1_UartPutString(";");
1145:.\main.c      ****                 UART_1_UartPutNum(ctrl_out[out_ele1]);
1146:.\main.c      ****                 UART_1_UartPutString(";");
1147:.\main.c      ****                 UART_1_UartPutNum(ctrl_out[out_rud]);
1148:.\main.c      ****                 UART_1_UartPutString(";");
1149:.\main.c      ****                 UART_1_UartPutNum(ctrl_out[out_ge2]);
ARM GAS  C:\Users\Sven\AppData\Local\Temp\cc7IOcoT.s 			page 52


1150:.\main.c      ****                 UART_1_UartPutString(";");
1151:.\main.c      ****                 UART_1_UartPutNum(ctrl_out[out_fl1]);
1152:.\main.c      ****                 UART_1_UartPutString(";");
1153:.\main.c      ****                 //UART_1_UartPutNum(ctrl_in[7]);
1154:.\main.c      ****                 //UART_1_UartPutString("\r\n");
1155:.\main.c      ****                 UART_1_UartPutNum(Phi);
1156:.\main.c      ****                 UART_1_UartPutString(";");
1157:.\main.c      ****                 UART_1_UartPutNum(Theta);
1158:.\main.c      ****                 UART_1_UartPutString(";");
1159:.\main.c      ****                 UART_1_UartPutNum(speed);
1160:.\main.c      ****                 UART_1_UartPutString(";");
1161:.\main.c      ****                 UART_1_UartPutNum(press);
1162:.\main.c      ****                 UART_1_UartPutString(";");
1163:.\main.c      ****                 UART_1_UartPutNum(alt);
1164:.\main.c      ****                 UART_1_UartPutString(";");
1165:.\main.c      ****                 UART_1_UartPutNum(Mag_Heading);
1166:.\main.c      ****                 UART_1_UartPutString(";");
1167:.\main.c      ****                 UART_1_UartPutNum(Ctrl_Mode);
1168:.\main.c      ****                 UART_1_UartPutString(";\r\n");
1169:.\main.c      ****             }
1170:.\main.c      ****             tx_counter++;
 1679              		.loc 1 1170 0
 1680 087c 2248     		ldr	r0, .L88+24
 1681 087e 4379     		ldrb	r3, [r0, #5]
 1682 0880 0133     		add	r3, r3, #1
 1683 0882 4371     		strb	r3, [r0, #5]
1171:.\main.c      ****                 //UART_1_UartPutNum(Phi);
1172:.\main.c      ****                 //UART_1_UartPutString(";");
1173:.\main.c      ****                 //UART_1_UartPutNum(Theta);
1174:.\main.c      ****                 //UART_1_UartPutString(";");
1175:.\main.c      ****                 //UART_1_UartPutNum(speed);
1176:.\main.c      ****                 //UART_1_UartPutString(";\r\n");
1177:.\main.c      ****             if(Rx_flag == 1)
 1684              		.loc 1 1177 0
 1685 0884 8379     		ldrb	r3, [r0, #6]
 1686 0886 012B     		cmp	r3, #1
 1687 0888 16D1     		bne	.L64
1178:.\main.c      ****             {
1179:.\main.c      ****                 Rx_flag = 0;
 1688              		.loc 1 1179 0
 1689 088a 0023     		mov	r3, #0
1180:.\main.c      ****                 UART_1_UartPutString(Rx_String);
 1690              		.loc 1 1180 0
 1691 088c C41D     		add	r4, r0, #7
1179:.\main.c      ****                 Rx_flag = 0;
 1692              		.loc 1 1179 0
 1693 088e 8371     		strb	r3, [r0, #6]
 1694              		.loc 1 1180 0
 1695 0890 201C     		mov	r0, r4
 1696 0892 FFF7FEFF 		bl	UART_1_UartPutString
 1697              	.LVL156:
1181:.\main.c      ****                 UART_1_UartPutString("\r\n");
 1698              		.loc 1 1181 0
 1699 0896 1D48     		ldr	r0, .L88+28
 1700 0898 FFF7FEFF 		bl	UART_1_UartPutString
 1701              	.LVL157:
1182:.\main.c      ****                 // In case "Boot" is received -> Bootloader gets enabled
ARM GAS  C:\Users\Sven\AppData\Local\Temp\cc7IOcoT.s 			page 53


1183:.\main.c      ****                 if(strcmp(Rx_String,"Boot")==0)
 1702              		.loc 1 1183 0
 1703 089c 201C     		mov	r0, r4
 1704 089e 1C49     		ldr	r1, .L88+32
 1705 08a0 FFF7FEFF 		bl	strcmp
 1706              	.LVL158:
 1707 08a4 0028     		cmp	r0, #0
 1708 08a6 07D1     		bne	.L64
1184:.\main.c      ****                 {
1185:.\main.c      ****                     //CySysWdtUnlock();   // Stop The Watchdog...?
1186:.\main.c      ****                     //CySysWdtDisable(CY_SYS_WDT_COUNTER0_MASK);
1187:.\main.c      ****                     UART_1_UartPutString("BootEnabl\r\n");
 1709              		.loc 1 1187 0
 1710 08a8 1A48     		ldr	r0, .L88+36
 1711 08aa FFF7FEFF 		bl	UART_1_UartPutString
 1712              	.LVL159:
1188:.\main.c      ****                     CyDelay(100);
 1713              		.loc 1 1188 0
 1714 08ae 6420     		mov	r0, #100
 1715 08b0 FFF7FEFF 		bl	CyDelay
 1716              	.LVL160:
1189:.\main.c      ****                     Bootloadable_1_Load(); 
 1717              		.loc 1 1189 0
 1718 08b4 FFF7FEFF 		bl	Bootloadable_1_Load
 1719              	.LVL161:
 1720              	.L64:
1190:.\main.c      ****                 }
1191:.\main.c      ****             }
1192:.\main.c      ****             // Feed the Watchdog
1193:.\main.c      ****             //CySysWdtClearInterrupt(CY_SYS_WDT_COUNTER0);
1194:.\main.c      ****             //CySysWdtClearInterrupt(CY_SYS_WDT_COUNTER0_MASK);
1195:.\main.c      ****             //CySysWdtClearInterrupt(CY_SYS_WDT_COUNTER0_INT);
1196:.\main.c      ****             //CySysWdtClearInterrupt(CY_SYS_WDT_COUNTER0_);
1197:.\main.c      ****             CySysWdtResetCounters(CY_SYS_WDT_COUNTER0_RESET);
 1721              		.loc 1 1197 0
 1722 08b8 0820     		mov	r0, #8
 1723 08ba FFF7FEFF 		bl	CySysWdtResetCounters
 1724              	.LVL162:
 1725              	.L20:
 1726              	.LBE2:
1198:.\main.c      ****         }
1199:.\main.c      ****         // Reading the serial data and putting it to a string
1200:.\main.c      ****         Rx_char = UART_1_UartGetChar(); // Poll for Characters
 1727              		.loc 1 1200 0
 1728 08be FFF7FEFF 		bl	UART_1_UartGetChar
 1729              	.LVL163:
 1730 08c2 114B     		ldr	r3, .L88+24
 1731 08c4 C0B2     		uxtb	r0, r0
 1732 08c6 5874     		strb	r0, [r3, #17]
1201:.\main.c      ****         if(Rx_char > 0u)  
 1733              		.loc 1 1201 0
 1734 08c8 0028     		cmp	r0, #0
 1735 08ca 01D1     		bne	.LCB1418
 1736 08cc FFF7F3FB 		bl	.L67	@far jump
 1737              	.LCB1418:
 1738 08d0 D91D     		add	r1, r3, #7
 1739 08d2 9A7C     		ldrb	r2, [r3, #18]
ARM GAS  C:\Users\Sven\AppData\Local\Temp\cc7IOcoT.s 			page 54


1202:.\main.c      ****             {
1203:.\main.c      ****                 if(Rx_char == '\r')
 1740              		.loc 1 1203 0
 1741 08d4 0D28     		cmp	r0, #13
 1742 08d6 06D1     		bne	.L68
1204:.\main.c      ****                 {
1205:.\main.c      ****                     Rx_String[Rx_index] = '\0';
 1743              		.loc 1 1205 0
 1744 08d8 0020     		mov	r0, #0
 1745 08da 8854     		strb	r0, [r1, r2]
1206:.\main.c      ****                     Rx_flag = 1;
 1746              		.loc 1 1206 0
 1747 08dc 0122     		mov	r2, #1
 1748 08de 9A71     		strb	r2, [r3, #6]
1207:.\main.c      ****                     Rx_index = 0;
 1749              		.loc 1 1207 0
 1750 08e0 9874     		strb	r0, [r3, #18]
 1751 08e2 FFF7E8FB 		bl	.L67	@ far jump
 1752              	.L68:
1208:.\main.c      ****                 }
1209:.\main.c      ****                 else
1210:.\main.c      ****                 {
1211:.\main.c      ****                     Rx_String[Rx_index] = Rx_char;
 1753              		.loc 1 1211 0
 1754 08e6 8854     		strb	r0, [r1, r2]
1212:.\main.c      ****                     Rx_index++;
 1755              		.loc 1 1212 0
 1756 08e8 0132     		add	r2, r2, #1
 1757 08ea 9A74     		strb	r2, [r3, #18]
 1758 08ec FFF7E3FB 		bl	.L67	@ far jump
 1759              	.L89:
 1760              		.align	2
 1761              	.L88:
 1762 08f0 00000000 		.word	.LANCHOR0
 1763 08f4 18FCFFFF 		.word	-1000
 1764 08f8 DB050000 		.word	1499
 1765 08fc DC050000 		.word	1500
 1766 0900 00000000 		.word	.LANCHOR1
 1767 0904 83030000 		.word	899
 1768 0908 80000000 		.word	.LANCHOR2
 1769 090c 1D000000 		.word	.LC11
 1770 0910 41000000 		.word	.LC25
 1771 0914 46000000 		.word	.LC27
 1772              		.cfi_endproc
 1773              	.LFE1493:
 1774              		.size	main, .-main
 1775              		.global	cnt_ML_ATTITUDE_send
 1776              		.global	cnt_ML_HEARTBEAT_send
 1777              		.comm	buf,263,1
 1778              		.comm	msg,272,1
 1779              		.global	system_state
 1780              		.global	custom_mode
 1781              		.global	system_mode
 1782              		.global	autopilot_type
 1783              		.global	system_type
 1784              		.comm	mavlink_system,2,1
 1785              		.global	Rx_flag
ARM GAS  C:\Users\Sven\AppData\Local\Temp\cc7IOcoT.s 			page 55


 1786              		.global	Rx_index
 1787              		.global	Rx_String
 1788              		.global	Rx_char
 1789              		.global	Phi_Error_prev
 1790              		.global	Phi_Error_sum
 1791              		.global	Phi_Error
 1792              		.global	Phi_Target
 1793              		.global	Theta_Error_prev
 1794              		.global	Theta_Error_sum
 1795              		.global	Theta_Error
 1796              		.global	Theta_Target
 1797              		.global	tune_cnt
 1798              		.global	K_d_r
 1799              		.global	K_d_q
 1800              		.global	K_d_p
 1801              		.global	QFE
 1802              		.global	press
 1803              		.global	temp
 1804              		.global	cnt_baro
 1805              		.global	climb_rate
 1806              		.global	alt_previous
 1807              		.global	alt
 1808              		.global	speed_cal_compl
 1809              		.global	cal_cnt
 1810              		.global	speed
 1811              		.global	speed_offset
 1812              		.global	Bar_press
 1813              		.global	Mag_y
 1814              		.comm	Mag_x,4,4
 1815              		.global	Mag_Heading
 1816              		.global	Psi_acc
 1817              		.comm	Psi,4,4
 1818              		.global	Phi_meas
 1819              		.comm	Phi_acc,4,4
 1820              		.comm	Phi_Mav,4,4
 1821              		.comm	Phi,4,4
 1822              		.global	Theta_meas
 1823              		.comm	Theta_acc,4,4
 1824              		.comm	Theta_Mav,4,4
 1825              		.comm	Theta,4,4
 1826              		.global	mag_z_g
 1827              		.global	mag_y_g
 1828              		.global	mag_x_g
 1829              		.global	acc_z_g
 1830              		.global	acc_y_g
 1831              		.global	acc_x_g
 1832              		.global	turn_rate_r
 1833              		.global	turn_rate_q
 1834              		.global	turn_rate_p
 1835              		.global	cnt_StrobeLight
 1836              		.global	NavLightCompare
 1837              		.global	NavLightStep
 1838              		.global	NavLightDim
 1839              		.global	NavLightBright
 1840              		.global	flag_NavLightPulse
 1841              		.global	flag_LightsEnabled
 1842              		.global	Ctrl_Mode
ARM GAS  C:\Users\Sven\AppData\Local\Temp\cc7IOcoT.s 			page 56


 1843              		.global	receiver_connected
 1844              		.global	ctrl_out_DAMP
 1845              		.global	ctrl_out_PID
 1846              		.global	ctrl_in_trim
 1847              		.global	ctrl_out
 1848              		.global	ctrl_in
 1849              		.global	PPM_channel
 1850              		.global	sample_time
 1851              		.global	blink_cnt
 1852              		.global	task_flag
 1853              		.section	.rodata.str1.1,"aMS",%progbits,1
 1854              	.LC0:
 1855 0000 256400   		.ascii	"%d\000"
 1856              	.LC4:
 1857 0003 43616C20 		.ascii	"Cal Compl\015\012\000"
 1857      436F6D70 
 1857      6C0D0A00 
 1858              	.LC9:
 1859 000f 43757272 		.ascii	"Current QFE: \000"
 1859      656E7420 
 1859      5146453A 
 1859      2000
 1860              	.LC11:
 1861 001d 0D0A00   		.ascii	"\015\012\000"
 1862              	.LC13:
 1863 0020 496E6974 		.ascii	"Init Complete\015\012\000"
 1863      20436F6D 
 1863      706C6574 
 1863      650D0A00 
 1864              	.LC16:
 1865 0030 41444320 		.ascii	"ADC Calibrated\015\012\000"
 1865      43616C69 
 1865      62726174 
 1865      65640D0A 
 1865      00
 1866              	.LC25:
 1867 0041 426F6F74 		.ascii	"Boot\000"
 1867      00
 1868              	.LC27:
 1869 0046 426F6F74 		.ascii	"BootEnabl\015\012\000"
 1869      456E6162 
 1869      6C0D0A00 
 1870              		.data
 1871              		.align	2
 1872              		.set	.LANCHOR0,. + 0
 1873              		.type	speed_offset, %object
 1874              		.size	speed_offset, 2
 1875              	speed_offset:
 1876 0000 AC00     		.short	172
 1877              		.type	flag_LightsEnabled, %object
 1878              		.size	flag_LightsEnabled, 1
 1879              	flag_LightsEnabled:
 1880 0002 01       		.byte	1
 1881 0003 00       		.space	1
 1882              		.type	NavLightBright, %object
 1883              		.size	NavLightBright, 2
 1884              	NavLightBright:
ARM GAS  C:\Users\Sven\AppData\Local\Temp\cc7IOcoT.s 			page 57


 1885 0004 6400     		.short	100
 1886              		.type	NavLightStep, %object
 1887              		.size	NavLightStep, 2
 1888              	NavLightStep:
 1889 0006 0100     		.short	1
 1890              		.type	sample_time, %object
 1891              		.size	sample_time, 4
 1892              	sample_time:
 1893 0008 0AD7233C 		.word	1008981770
 1894              		.type	ctrl_out, %object
 1895              		.size	ctrl_out, 26
 1896              	ctrl_out:
 1897 000c DC05     		.short	1500
 1898 000e DC05     		.short	1500
 1899 0010 DC05     		.short	1500
 1900 0012 DC05     		.short	1500
 1901 0014 DC05     		.short	1500
 1902 0016 DC05     		.short	1500
 1903 0018 DC05     		.short	1500
 1904 001a DC05     		.short	1500
 1905 001c DC05     		.short	1500
 1906 001e DC05     		.short	1500
 1907 0020 DC05     		.short	1500
 1908 0022 DC05     		.short	1500
 1909 0024 DC05     		.short	1500
 1910              		.type	K_d_p, %object
 1911              		.size	K_d_p, 1
 1912              	K_d_p:
 1913 0026 01       		.byte	1
 1914              		.type	K_d_q, %object
 1915              		.size	K_d_q, 1
 1916              	K_d_q:
 1917 0027 01       		.byte	1
 1918              		.type	K_d_r, %object
 1919              		.size	K_d_r, 1
 1920              	K_d_r:
 1921 0028 01       		.byte	1
 1922 0029 00       		.space	1
 1923              		.type	ctrl_in_trim, %object
 1924              		.size	ctrl_in_trim, 10
 1925              	ctrl_in_trim:
 1926 002a DC05     		.short	1500
 1927 002c DC05     		.short	1500
 1928 002e DC05     		.short	1500
 1929 0030 DC05     		.short	1500
 1930 0032 DC05     		.short	1500
 1931              		.type	system_state, %object
 1932              		.size	system_state, 1
 1933              	system_state:
 1934 0034 03       		.byte	3
 1935              		.type	system_type, %object
 1936              		.size	system_type, 1
 1937              	system_type:
 1938 0035 01       		.byte	1
 1939 0036 0000     		.bss
 1940              		.align	2
 1941              		.set	.LANCHOR1,. + 0
ARM GAS  C:\Users\Sven\AppData\Local\Temp\cc7IOcoT.s 			page 58


 1942              		.set	.LANCHOR2,. + 128
 1943              		.type	cal_cnt, %object
 1944              		.size	cal_cnt, 1
 1945              	cal_cnt:
 1946 0000 00       		.space	1
 1947 0001 00       		.space	1
 1948              		.type	speed, %object
 1949              		.size	speed, 2
 1950              	speed:
 1951 0002 0000     		.space	2
 1952              		.type	temp, %object
 1953              		.size	temp, 4
 1954              	temp:
 1955 0004 00000000 		.space	4
 1956              		.type	QFE, %object
 1957              		.size	QFE, 4
 1958              	QFE:
 1959 0008 00000000 		.space	4
 1960              		.type	task_flag, %object
 1961              		.size	task_flag, 1
 1962              	task_flag:
 1963 000c 00       		.space	1
 1964 000d 00       		.space	1
 1965              		.type	NavLightCompare, %object
 1966              		.size	NavLightCompare, 2
 1967              	NavLightCompare:
 1968 000e 0000     		.space	2
 1969              		.type	flag_NavLightPulse, %object
 1970              		.size	flag_NavLightPulse, 1
 1971              	flag_NavLightPulse:
 1972 0010 00       		.space	1
 1973 0011 00       		.space	1
 1974              		.type	NavLightDim, %object
 1975              		.size	NavLightDim, 2
 1976              	NavLightDim:
 1977 0012 0000     		.space	2
 1978              		.type	cnt_StrobeLight, %object
 1979              		.size	cnt_StrobeLight, 1
 1980              	cnt_StrobeLight:
 1981 0014 00       		.space	1
 1982 0015 00       		.space	1
 1983              		.type	ctrl_in, %object
 1984              		.size	ctrl_in, 16
 1985              	ctrl_in:
 1986 0016 00000000 		.space	16
 1986      00000000 
 1986      00000000 
 1986      00000000 
 1987              		.type	cnt_baro, %object
 1988              		.size	cnt_baro, 1
 1989              	cnt_baro:
 1990 0026 00       		.space	1
 1991 0027 00       		.space	1
 1992              		.type	press, %object
 1993              		.size	press, 4
 1994              	press:
 1995 0028 00000000 		.space	4
ARM GAS  C:\Users\Sven\AppData\Local\Temp\cc7IOcoT.s 			page 59


 1996              		.type	alt, %object
 1997              		.size	alt, 4
 1998              	alt:
 1999 002c 00000000 		.space	4
 2000              		.type	climb_rate, %object
 2001              		.size	climb_rate, 2
 2002              	climb_rate:
 2003 0030 0000     		.space	2
 2004 0032 0000     		.space	2
 2005              		.type	alt_previous, %object
 2006              		.size	alt_previous, 4
 2007              	alt_previous:
 2008 0034 00000000 		.space	4
 2009              		.type	speed_cal_compl, %object
 2010              		.size	speed_cal_compl, 1
 2011              	speed_cal_compl:
 2012 0038 00       		.space	1
 2013              		.type	Speed_Prev1.17449, %object
 2014              		.size	Speed_Prev1.17449, 1
 2015              	Speed_Prev1.17449:
 2016 0039 00       		.space	1
 2017              		.type	Speed_Prev2.17450, %object
 2018              		.size	Speed_Prev2.17450, 1
 2019              	Speed_Prev2.17450:
 2020 003a 00       		.space	1
 2021              		.type	Speed_Prev3.17451, %object
 2022              		.size	Speed_Prev3.17451, 1
 2023              	Speed_Prev3.17451:
 2024 003b 00       		.space	1
 2025              		.type	Speed_Prev4.17452, %object
 2026              		.size	Speed_Prev4.17452, 1
 2027              	Speed_Prev4.17452:
 2028 003c 00       		.space	1
 2029 003d 00       		.space	1
 2030              		.type	acc_x_g, %object
 2031              		.size	acc_x_g, 2
 2032              	acc_x_g:
 2033 003e 0000     		.space	2
 2034              		.type	acc_z_g, %object
 2035              		.size	acc_z_g, 2
 2036              	acc_z_g:
 2037 0040 0000     		.space	2
 2038              		.type	acc_y_g, %object
 2039              		.size	acc_y_g, 2
 2040              	acc_y_g:
 2041 0042 0000     		.space	2
 2042              		.type	turn_rate_p, %object
 2043              		.size	turn_rate_p, 2
 2044              	turn_rate_p:
 2045 0044 0000     		.space	2
 2046              		.type	turn_rate_q, %object
 2047              		.size	turn_rate_q, 2
 2048              	turn_rate_q:
 2049 0046 0000     		.space	2
 2050              		.type	Theta_meas, %object
 2051              		.size	Theta_meas, 4
 2052              	Theta_meas:
ARM GAS  C:\Users\Sven\AppData\Local\Temp\cc7IOcoT.s 			page 60


 2053 0048 00000000 		.space	4
 2054              		.type	Phi_meas, %object
 2055              		.size	Phi_meas, 4
 2056              	Phi_meas:
 2057 004c 00000000 		.space	4
 2058              		.type	Phi_Prev1.17441, %object
 2059              		.size	Phi_Prev1.17441, 1
 2060              	Phi_Prev1.17441:
 2061 0050 00       		.space	1
 2062              		.type	Phi_Prev2.17442, %object
 2063              		.size	Phi_Prev2.17442, 1
 2064              	Phi_Prev2.17442:
 2065 0051 00       		.space	1
 2066              		.type	Phi_Prev3.17443, %object
 2067              		.size	Phi_Prev3.17443, 1
 2068              	Phi_Prev3.17443:
 2069 0052 00       		.space	1
 2070              		.type	Phi_Prev4.17444, %object
 2071              		.size	Phi_Prev4.17444, 1
 2072              	Phi_Prev4.17444:
 2073 0053 00       		.space	1
 2074              		.type	Theta_Prev1.17445, %object
 2075              		.size	Theta_Prev1.17445, 1
 2076              	Theta_Prev1.17445:
 2077 0054 00       		.space	1
 2078              		.type	Theta_Prev2.17446, %object
 2079              		.size	Theta_Prev2.17446, 1
 2080              	Theta_Prev2.17446:
 2081 0055 00       		.space	1
 2082              		.type	Theta_Prev3.17447, %object
 2083              		.size	Theta_Prev3.17447, 1
 2084              	Theta_Prev3.17447:
 2085 0056 00       		.space	1
 2086              		.type	Theta_Prev4.17448, %object
 2087              		.size	Theta_Prev4.17448, 1
 2088              	Theta_Prev4.17448:
 2089 0057 00       		.space	1
 2090              		.type	receiver_connected, %object
 2091              		.size	receiver_connected, 1
 2092              	receiver_connected:
 2093 0058 00       		.space	1
 2094              		.type	Ctrl_Mode, %object
 2095              		.size	Ctrl_Mode, 1
 2096              	Ctrl_Mode:
 2097 0059 00       		.space	1
 2098              		.type	flap_target.17459, %object
 2099              		.size	flap_target.17459, 1
 2100              	flap_target.17459:
 2101 005a 00       		.space	1
 2102              		.type	flap_offset.17461, %object
 2103              		.size	flap_offset.17461, 1
 2104              	flap_offset.17461:
 2105 005b 00       		.space	1
 2106              		.type	tune_cnt, %object
 2107              		.size	tune_cnt, 1
 2108              	tune_cnt:
 2109 005c 00       		.space	1
ARM GAS  C:\Users\Sven\AppData\Local\Temp\cc7IOcoT.s 			page 61


 2110 005d 00       		.space	1
 2111              		.type	turn_rate_r, %object
 2112              		.size	turn_rate_r, 2
 2113              	turn_rate_r:
 2114 005e 0000     		.space	2
 2115              		.type	Theta_Error_sum, %object
 2116              		.size	Theta_Error_sum, 4
 2117              	Theta_Error_sum:
 2118 0060 00000000 		.space	4
 2119              		.type	Theta_Target, %object
 2120              		.size	Theta_Target, 1
 2121              	Theta_Target:
 2122 0064 00       		.space	1
 2123              		.type	Phi_Error, %object
 2124              		.size	Phi_Error, 1
 2125              	Phi_Error:
 2126 0065 00       		.space	1
 2127 0066 0000     		.space	2
 2128              		.type	Phi_Error_sum, %object
 2129              		.size	Phi_Error_sum, 4
 2130              	Phi_Error_sum:
 2131 0068 00000000 		.space	4
 2132              		.type	Phi_Target, %object
 2133              		.size	Phi_Target, 1
 2134              	Phi_Target:
 2135 006c 00       		.space	1
 2136              		.type	Theta_Error, %object
 2137              		.size	Theta_Error, 1
 2138              	Theta_Error:
 2139 006d 00       		.space	1
 2140              		.type	ctrl_out_PID, %object
 2141              		.size	ctrl_out_PID, 10
 2142              	ctrl_out_PID:
 2143 006e 00000000 		.space	10
 2143      00000000 
 2143      0000
 2144              		.type	Theta_Error_prev, %object
 2145              		.size	Theta_Error_prev, 1
 2146              	Theta_Error_prev:
 2147 0078 00       		.space	1
 2148 0079 00       		.space	1
 2149              		.type	ctrl_out_DAMP, %object
 2150              		.size	ctrl_out_DAMP, 10
 2151              	ctrl_out_DAMP:
 2152 007a 00000000 		.space	10
 2152      00000000 
 2152      0000
 2153              		.type	Phi_Error_prev, %object
 2154              		.size	Phi_Error_prev, 1
 2155              	Phi_Error_prev:
 2156 0084 00       		.space	1
 2157              		.type	tx_counter.17473, %object
 2158              		.size	tx_counter.17473, 1
 2159              	tx_counter.17473:
 2160 0085 00       		.space	1
 2161              		.type	Rx_flag, %object
 2162              		.size	Rx_flag, 1
ARM GAS  C:\Users\Sven\AppData\Local\Temp\cc7IOcoT.s 			page 62


 2163              	Rx_flag:
 2164 0086 00       		.space	1
 2165              		.type	Rx_String, %object
 2166              		.size	Rx_String, 10
 2167              	Rx_String:
 2168 0087 00000000 		.space	10
 2168      00000000 
 2168      0000
 2169              		.type	Rx_char, %object
 2170              		.size	Rx_char, 1
 2171              	Rx_char:
 2172 0091 00       		.space	1
 2173              		.type	Rx_index, %object
 2174              		.size	Rx_index, 1
 2175              	Rx_index:
 2176 0092 00       		.space	1
 2177              		.type	cnt_ML_ATTITUDE_send, %object
 2178              		.size	cnt_ML_ATTITUDE_send, 1
 2179              	cnt_ML_ATTITUDE_send:
 2180 0093 00       		.space	1
 2181              		.type	cnt_ML_HEARTBEAT_send, %object
 2182              		.size	cnt_ML_HEARTBEAT_send, 1
 2183              	cnt_ML_HEARTBEAT_send:
 2184 0094 00       		.space	1
 2185 0095 000000   		.space	3
 2186              		.type	custom_mode, %object
 2187              		.size	custom_mode, 4
 2188              	custom_mode:
 2189 0098 00000000 		.space	4
 2190              		.type	system_mode, %object
 2191              		.size	system_mode, 1
 2192              	system_mode:
 2193 009c 00       		.space	1
 2194              		.type	autopilot_type, %object
 2195              		.size	autopilot_type, 1
 2196              	autopilot_type:
 2197 009d 00       		.space	1
 2198 009e 0000     		.space	2
 2199              		.type	Bar_press, %object
 2200              		.size	Bar_press, 4
 2201              	Bar_press:
 2202 00a0 00000000 		.space	4
 2203              		.type	Mag_y, %object
 2204              		.size	Mag_y, 4
 2205              	Mag_y:
 2206 00a4 00000000 		.space	4
 2207              		.type	Mag_Heading, %object
 2208              		.size	Mag_Heading, 4
 2209              	Mag_Heading:
 2210 00a8 00000000 		.space	4
 2211              		.type	Psi_acc, %object
 2212              		.size	Psi_acc, 4
 2213              	Psi_acc:
 2214 00ac 00000000 		.space	4
 2215              		.type	mag_z_g, %object
 2216              		.size	mag_z_g, 2
 2217              	mag_z_g:
ARM GAS  C:\Users\Sven\AppData\Local\Temp\cc7IOcoT.s 			page 63


 2218 00b0 0000     		.space	2
 2219              		.type	mag_y_g, %object
 2220              		.size	mag_y_g, 2
 2221              	mag_y_g:
 2222 00b2 0000     		.space	2
 2223              		.type	mag_x_g, %object
 2224              		.size	mag_x_g, 2
 2225              	mag_x_g:
 2226 00b4 0000     		.space	2
 2227              		.type	PPM_channel, %object
 2228              		.size	PPM_channel, 1
 2229              	PPM_channel:
 2230 00b6 00       		.space	1
 2231              		.type	blink_cnt, %object
 2232              		.size	blink_cnt, 1
 2233              	blink_cnt:
 2234 00b7 00       		.space	1
 2235              		.text
 2236              	.Letext0:
 2237              		.file 2 "e:\\program files (x86)\\cypress\\psoc creator\\3.1\\psoc creator\\import\\gnu_cs\\arm\\4
 2238              		.file 3 "e:\\program files (x86)\\cypress\\psoc creator\\3.1\\psoc creator\\import\\gnu_cs\\arm\\4
 2239              		.file 4 ".\\Generated_Source\\PSoC4/cytypes.h"
 2240              		.file 5 ".\\MAVLINK\\common/../mavlink_types.h"
 2241              		.file 6 ".\\MAVLINK\\common/common.h"
 2242              		.file 7 ".\\Generated_Source\\PSoC4/UART_1_SPI_UART.h"
 2243              		.file 8 "e:\\program files (x86)\\cypress\\psoc creator\\3.1\\psoc creator\\import\\gnu_cs\\arm\\4
 2244              		.file 9 ".\\Generated_Source\\PSoC4/ADC.h"
 2245              		.file 10 ".\\Generated_Source\\PSoC4/NavLightPWM.h"
 2246              		.file 11 ".\\Generated_Source\\PSoC4/Strobes.h"
 2247              		.file 12 ".\\Generated_Source\\PSoC4/Ldg.h"
 2248              		.file 13 "./Baro.h"
 2249              		.file 14 "e:\\program files (x86)\\cypress\\psoc creator\\3.1\\psoc creator\\import\\gnu_cs\\arm\\
 2250              		.file 15 "e:\\program files (x86)\\cypress\\psoc creator\\3.1\\psoc creator\\import\\gnu_cs\\arm\\
 2251              		.file 16 ".\\Generated_Source\\PSoC4/CyLib.h"
 2252              		.file 17 ".\\Generated_Source\\PSoC4/Bootloadable_1.h"
 2253              		.file 18 ".\\Generated_Source\\PSoC4/UART_1.h"
 2254              		.file 19 ".\\Generated_Source\\PSoC4/I2CM.h"
 2255              		.file 20 ".\\Generated_Source\\PSoC4/TaskTimer.h"
 2256              		.file 21 ".\\Generated_Source\\PSoC4/PPMCounter.h"
 2257              		.file 22 ".\\Generated_Source\\PSoC4/ServoTimer.h"
 2258              		.file 23 ".\\Generated_Source\\PSoC4/PPMISR.h"
 2259              		.file 24 ".\\Generated_Source\\PSoC4/PPMRstISR.h"
 2260              		.file 25 ".\\Generated_Source\\PSoC4/ServoISR.h"
 2261              		.file 26 ".\\Generated_Source\\PSoC4/TaskISR.h"
 2262              		.file 27 ".\\Generated_Source\\PSoC4/BootISR.h"
 2263              		.section	.debug_info,"",%progbits
 2264              	.Ldebug_info0:
 2265 0000 92120000 		.4byte	0x1292
 2266 0004 0400     		.2byte	0x4
 2267 0006 00000000 		.4byte	.Ldebug_abbrev0
 2268 000a 04       		.byte	0x4
 2269 000b 01       		.uleb128 0x1
 2270 000c 90030000 		.4byte	.LASF279
 2271 0010 01       		.byte	0x1
 2272 0011 22100000 		.4byte	.LASF280
 2273 0015 97080000 		.4byte	.LASF281
 2274 0019 00000000 		.4byte	.Ldebug_ranges0+0
ARM GAS  C:\Users\Sven\AppData\Local\Temp\cc7IOcoT.s 			page 64


 2275 001d 00000000 		.4byte	0
 2276 0021 00000000 		.4byte	.Ldebug_line0
 2277 0025 02       		.uleb128 0x2
 2278 0026 08       		.byte	0x8
 2279 0027 04       		.byte	0x4
 2280 0028 D0040000 		.4byte	.LASF0
 2281 002c 03       		.uleb128 0x3
 2282 002d 2D0C0000 		.4byte	.LASF2
 2283 0031 02       		.byte	0x2
 2284 0032 1B       		.byte	0x1b
 2285 0033 37000000 		.4byte	0x37
 2286 0037 02       		.uleb128 0x2
 2287 0038 01       		.byte	0x1
 2288 0039 06       		.byte	0x6
 2289 003a 71020000 		.4byte	.LASF1
 2290 003e 03       		.uleb128 0x3
 2291 003f A70B0000 		.4byte	.LASF3
 2292 0043 02       		.byte	0x2
 2293 0044 1C       		.byte	0x1c
 2294 0045 49000000 		.4byte	0x49
 2295 0049 02       		.uleb128 0x2
 2296 004a 01       		.byte	0x1
 2297 004b 08       		.byte	0x8
 2298 004c 280D0000 		.4byte	.LASF4
 2299 0050 03       		.uleb128 0x3
 2300 0051 8D070000 		.4byte	.LASF5
 2301 0055 02       		.byte	0x2
 2302 0056 25       		.byte	0x25
 2303 0057 5B000000 		.4byte	0x5b
 2304 005b 02       		.uleb128 0x2
 2305 005c 02       		.byte	0x2
 2306 005d 05       		.byte	0x5
 2307 005e 720A0000 		.4byte	.LASF6
 2308 0062 03       		.uleb128 0x3
 2309 0063 3C040000 		.4byte	.LASF7
 2310 0067 02       		.byte	0x2
 2311 0068 26       		.byte	0x26
 2312 0069 6D000000 		.4byte	0x6d
 2313 006d 02       		.uleb128 0x2
 2314 006e 02       		.byte	0x2
 2315 006f 07       		.byte	0x7
 2316 0070 B20E0000 		.4byte	.LASF8
 2317 0074 03       		.uleb128 0x3
 2318 0075 18010000 		.4byte	.LASF9
 2319 0079 02       		.byte	0x2
 2320 007a 37       		.byte	0x37
 2321 007b 7F000000 		.4byte	0x7f
 2322 007f 02       		.uleb128 0x2
 2323 0080 04       		.byte	0x4
 2324 0081 05       		.byte	0x5
 2325 0082 9F0A0000 		.4byte	.LASF10
 2326 0086 03       		.uleb128 0x3
 2327 0087 360D0000 		.4byte	.LASF11
 2328 008b 02       		.byte	0x2
 2329 008c 38       		.byte	0x38
 2330 008d 91000000 		.4byte	0x91
 2331 0091 02       		.uleb128 0x2
ARM GAS  C:\Users\Sven\AppData\Local\Temp\cc7IOcoT.s 			page 65


 2332 0092 04       		.byte	0x4
 2333 0093 07       		.byte	0x7
 2334 0094 970C0000 		.4byte	.LASF12
 2335 0098 02       		.uleb128 0x2
 2336 0099 08       		.byte	0x8
 2337 009a 05       		.byte	0x5
 2338 009b 81050000 		.4byte	.LASF13
 2339 009f 03       		.uleb128 0x3
 2340 00a0 05050000 		.4byte	.LASF14
 2341 00a4 02       		.byte	0x2
 2342 00a5 4E       		.byte	0x4e
 2343 00a6 AA000000 		.4byte	0xaa
 2344 00aa 02       		.uleb128 0x2
 2345 00ab 08       		.byte	0x8
 2346 00ac 07       		.byte	0x7
 2347 00ad 69030000 		.4byte	.LASF15
 2348 00b1 04       		.uleb128 0x4
 2349 00b2 04       		.byte	0x4
 2350 00b3 05       		.byte	0x5
 2351 00b4 696E7400 		.ascii	"int\000"
 2352 00b8 02       		.uleb128 0x2
 2353 00b9 04       		.byte	0x4
 2354 00ba 07       		.byte	0x7
 2355 00bb 2C060000 		.4byte	.LASF16
 2356 00bf 03       		.uleb128 0x3
 2357 00c0 8F020000 		.4byte	.LASF17
 2358 00c4 03       		.byte	0x3
 2359 00c5 29       		.byte	0x29
 2360 00c6 2C000000 		.4byte	0x2c
 2361 00ca 03       		.uleb128 0x3
 2362 00cb 60060000 		.4byte	.LASF18
 2363 00cf 03       		.byte	0x3
 2364 00d0 2A       		.byte	0x2a
 2365 00d1 3E000000 		.4byte	0x3e
 2366 00d5 03       		.uleb128 0x3
 2367 00d6 2C030000 		.4byte	.LASF19
 2368 00da 03       		.byte	0x3
 2369 00db 35       		.byte	0x35
 2370 00dc 50000000 		.4byte	0x50
 2371 00e0 03       		.uleb128 0x3
 2372 00e1 CA090000 		.4byte	.LASF20
 2373 00e5 03       		.byte	0x3
 2374 00e6 36       		.byte	0x36
 2375 00e7 62000000 		.4byte	0x62
 2376 00eb 03       		.uleb128 0x3
 2377 00ec C60C0000 		.4byte	.LASF21
 2378 00f0 03       		.byte	0x3
 2379 00f1 41       		.byte	0x41
 2380 00f2 74000000 		.4byte	0x74
 2381 00f6 03       		.uleb128 0x3
 2382 00f7 86020000 		.4byte	.LASF22
 2383 00fb 03       		.byte	0x3
 2384 00fc 42       		.byte	0x42
 2385 00fd 86000000 		.4byte	0x86
 2386 0101 03       		.uleb128 0x3
 2387 0102 2D0B0000 		.4byte	.LASF23
 2388 0106 03       		.byte	0x3
ARM GAS  C:\Users\Sven\AppData\Local\Temp\cc7IOcoT.s 			page 66


 2389 0107 4E       		.byte	0x4e
 2390 0108 9F000000 		.4byte	0x9f
 2391 010c 03       		.uleb128 0x3
 2392 010d 220F0000 		.4byte	.LASF24
 2393 0111 04       		.byte	0x4
 2394 0112 A1       		.byte	0xa1
 2395 0113 49000000 		.4byte	0x49
 2396 0117 03       		.uleb128 0x3
 2397 0118 4D080000 		.4byte	.LASF25
 2398 011c 04       		.byte	0x4
 2399 011d A3       		.byte	0xa3
 2400 011e 91000000 		.4byte	0x91
 2401 0122 03       		.uleb128 0x3
 2402 0123 22010000 		.4byte	.LASF26
 2403 0127 04       		.byte	0x4
 2404 0128 A5       		.byte	0xa5
 2405 0129 5B000000 		.4byte	0x5b
 2406 012d 02       		.uleb128 0x2
 2407 012e 04       		.byte	0x4
 2408 012f 04       		.byte	0x4
 2409 0130 EC020000 		.4byte	.LASF27
 2410 0134 03       		.uleb128 0x3
 2411 0135 A3060000 		.4byte	.LASF28
 2412 0139 04       		.byte	0x4
 2413 013a B2       		.byte	0xb2
 2414 013b 3F010000 		.4byte	0x13f
 2415 013f 02       		.uleb128 0x2
 2416 0140 01       		.byte	0x1
 2417 0141 08       		.byte	0x8
 2418 0142 AF050000 		.4byte	.LASF29
 2419 0146 05       		.uleb128 0x5
 2420 0147 C40F0000 		.4byte	.LASF30
 2421 014b 04       		.byte	0x4
 2422 014c 4D01     		.2byte	0x14d
 2423 014e 52010000 		.4byte	0x152
 2424 0152 06       		.uleb128 0x6
 2425 0153 17010000 		.4byte	0x117
 2426 0157 02       		.uleb128 0x2
 2427 0158 04       		.byte	0x4
 2428 0159 07       		.byte	0x7
 2429 015a 8E0C0000 		.4byte	.LASF31
 2430 015e 07       		.uleb128 0x7
 2431 015f 04       		.byte	0x4
 2432 0160 3F010000 		.4byte	0x13f
 2433 0164 07       		.uleb128 0x7
 2434 0165 04       		.byte	0x4
 2435 0166 6A010000 		.4byte	0x16a
 2436 016a 08       		.uleb128 0x8
 2437 016b 3F010000 		.4byte	0x13f
 2438 016f 02       		.uleb128 0x2
 2439 0170 08       		.byte	0x8
 2440 0171 04       		.byte	0x4
 2441 0172 2B080000 		.4byte	.LASF32
 2442 0176 09       		.uleb128 0x9
 2443 0177 41070000 		.4byte	.LASF36
 2444 017b 02       		.byte	0x2
 2445 017c 05       		.byte	0x5
ARM GAS  C:\Users\Sven\AppData\Local\Temp\cc7IOcoT.s 			page 67


 2446 017d 6A       		.byte	0x6a
 2447 017e 9B010000 		.4byte	0x19b
 2448 0182 0A       		.uleb128 0xa
 2449 0183 59020000 		.4byte	.LASF33
 2450 0187 05       		.byte	0x5
 2451 0188 6A       		.byte	0x6a
 2452 0189 CA000000 		.4byte	0xca
 2453 018d 00       		.byte	0
 2454 018e 0A       		.uleb128 0xa
 2455 018f 67000000 		.4byte	.LASF34
 2456 0193 05       		.byte	0x5
 2457 0194 6A       		.byte	0x6a
 2458 0195 CA000000 		.4byte	0xca
 2459 0199 01       		.byte	0x1
 2460 019a 00       		.byte	0
 2461 019b 03       		.uleb128 0x3
 2462 019c 8A090000 		.4byte	.LASF35
 2463 01a0 05       		.byte	0x5
 2464 01a1 6E       		.byte	0x6e
 2465 01a2 76010000 		.4byte	0x176
 2466 01a6 0B       		.uleb128 0xb
 2467 01a7 B90B0000 		.4byte	.LASF37
 2468 01ab 1001     		.2byte	0x110
 2469 01ad 05       		.byte	0x5
 2470 01ae 70       		.byte	0x70
 2471 01af 14020000 		.4byte	0x214
 2472 01b3 0A       		.uleb128 0xa
 2473 01b4 F2020000 		.4byte	.LASF38
 2474 01b8 05       		.byte	0x5
 2475 01b9 70       		.byte	0x70
 2476 01ba E0000000 		.4byte	0xe0
 2477 01be 00       		.byte	0
 2478 01bf 0A       		.uleb128 0xa
 2479 01c0 270C0000 		.4byte	.LASF39
 2480 01c4 05       		.byte	0x5
 2481 01c5 70       		.byte	0x70
 2482 01c6 CA000000 		.4byte	0xca
 2483 01ca 02       		.byte	0x2
 2484 01cb 0C       		.uleb128 0xc
 2485 01cc 6C656E00 		.ascii	"len\000"
 2486 01d0 05       		.byte	0x5
 2487 01d1 70       		.byte	0x70
 2488 01d2 CA000000 		.4byte	0xca
 2489 01d6 03       		.byte	0x3
 2490 01d7 0C       		.uleb128 0xc
 2491 01d8 73657100 		.ascii	"seq\000"
 2492 01dc 05       		.byte	0x5
 2493 01dd 70       		.byte	0x70
 2494 01de CA000000 		.4byte	0xca
 2495 01e2 04       		.byte	0x4
 2496 01e3 0A       		.uleb128 0xa
 2497 01e4 59020000 		.4byte	.LASF33
 2498 01e8 05       		.byte	0x5
 2499 01e9 70       		.byte	0x70
 2500 01ea CA000000 		.4byte	0xca
 2501 01ee 05       		.byte	0x5
 2502 01ef 0A       		.uleb128 0xa
ARM GAS  C:\Users\Sven\AppData\Local\Temp\cc7IOcoT.s 			page 68


 2503 01f0 67000000 		.4byte	.LASF34
 2504 01f4 05       		.byte	0x5
 2505 01f5 70       		.byte	0x70
 2506 01f6 CA000000 		.4byte	0xca
 2507 01fa 06       		.byte	0x6
 2508 01fb 0A       		.uleb128 0xa
 2509 01fc 1A020000 		.4byte	.LASF40
 2510 0200 05       		.byte	0x5
 2511 0201 70       		.byte	0x70
 2512 0202 CA000000 		.4byte	0xca
 2513 0206 07       		.byte	0x7
 2514 0207 0A       		.uleb128 0xa
 2515 0208 720B0000 		.4byte	.LASF41
 2516 020c 05       		.byte	0x5
 2517 020d 70       		.byte	0x70
 2518 020e 14020000 		.4byte	0x214
 2519 0212 08       		.byte	0x8
 2520 0213 00       		.byte	0
 2521 0214 0D       		.uleb128 0xd
 2522 0215 01010000 		.4byte	0x101
 2523 0219 24020000 		.4byte	0x224
 2524 021d 0E       		.uleb128 0xe
 2525 021e 57010000 		.4byte	0x157
 2526 0222 20       		.byte	0x20
 2527 0223 00       		.byte	0
 2528 0224 03       		.uleb128 0x3
 2529 0225 72070000 		.4byte	.LASF42
 2530 0229 05       		.byte	0x5
 2531 022a 7A       		.byte	0x7a
 2532 022b A6010000 		.4byte	0x1a6
 2533 022f 0F       		.uleb128 0xf
 2534 0230 880B0000 		.4byte	.LASF62
 2535 0234 01       		.byte	0x1
 2536 0235 06       		.byte	0x6
 2537 0236 28       		.byte	0x28
 2538 0237 AE020000 		.4byte	0x2ae
 2539 023b 10       		.uleb128 0x10
 2540 023c E4070000 		.4byte	.LASF43
 2541 0240 00       		.sleb128 0
 2542 0241 10       		.uleb128 0x10
 2543 0242 2B070000 		.4byte	.LASF44
 2544 0246 01       		.sleb128 1
 2545 0247 10       		.uleb128 0x10
 2546 0248 0A000000 		.4byte	.LASF45
 2547 024c 02       		.sleb128 2
 2548 024d 10       		.uleb128 0x10
 2549 024e 68060000 		.4byte	.LASF46
 2550 0252 03       		.sleb128 3
 2551 0253 10       		.uleb128 0x10
 2552 0254 520C0000 		.4byte	.LASF47
 2553 0258 04       		.sleb128 4
 2554 0259 10       		.uleb128 0x10
 2555 025a D9060000 		.4byte	.LASF48
 2556 025e 05       		.sleb128 5
 2557 025f 10       		.uleb128 0x10
 2558 0260 310F0000 		.4byte	.LASF49
 2559 0264 06       		.sleb128 6
ARM GAS  C:\Users\Sven\AppData\Local\Temp\cc7IOcoT.s 			page 69


 2560 0265 10       		.uleb128 0x10
 2561 0266 7C0A0000 		.4byte	.LASF50
 2562 026a 07       		.sleb128 7
 2563 026b 10       		.uleb128 0x10
 2564 026c 37080000 		.4byte	.LASF51
 2565 0270 08       		.sleb128 8
 2566 0271 10       		.uleb128 0x10
 2567 0272 CA0F0000 		.4byte	.LASF52
 2568 0276 09       		.sleb128 9
 2569 0277 10       		.uleb128 0x10
 2570 0278 D5010000 		.4byte	.LASF53
 2571 027c 0A       		.sleb128 10
 2572 027d 10       		.uleb128 0x10
 2573 027e C8060000 		.4byte	.LASF54
 2574 0282 0B       		.sleb128 11
 2575 0283 10       		.uleb128 0x10
 2576 0284 91060000 		.4byte	.LASF55
 2577 0288 0C       		.sleb128 12
 2578 0289 10       		.uleb128 0x10
 2579 028a 95050000 		.4byte	.LASF56
 2580 028e 0D       		.sleb128 13
 2581 028f 10       		.uleb128 0x10
 2582 0290 E40D0000 		.4byte	.LASF57
 2583 0294 0E       		.sleb128 14
 2584 0295 10       		.uleb128 0x10
 2585 0296 9A0F0000 		.4byte	.LASF58
 2586 029a 0F       		.sleb128 15
 2587 029b 10       		.uleb128 0x10
 2588 029c 17080000 		.4byte	.LASF59
 2589 02a0 10       		.sleb128 16
 2590 02a1 10       		.uleb128 0x10
 2591 02a2 C9020000 		.4byte	.LASF60
 2592 02a6 11       		.sleb128 17
 2593 02a7 10       		.uleb128 0x10
 2594 02a8 34030000 		.4byte	.LASF61
 2595 02ac 12       		.sleb128 18
 2596 02ad 00       		.byte	0
 2597 02ae 0F       		.uleb128 0xf
 2598 02af A80A0000 		.4byte	.LASF63
 2599 02b3 01       		.byte	0x1
 2600 02b4 06       		.byte	0x6
 2601 02b5 43       		.byte	0x43
 2602 02b6 63030000 		.4byte	0x363
 2603 02ba 10       		.uleb128 0x10
 2604 02bb 3F060000 		.4byte	.LASF64
 2605 02bf 00       		.sleb128 0
 2606 02c0 10       		.uleb128 0x10
 2607 02c1 AD070000 		.4byte	.LASF65
 2608 02c5 01       		.sleb128 1
 2609 02c6 10       		.uleb128 0x10
 2610 02c7 46020000 		.4byte	.LASF66
 2611 02cb 02       		.sleb128 2
 2612 02cc 10       		.uleb128 0x10
 2613 02cd 610A0000 		.4byte	.LASF67
 2614 02d1 03       		.sleb128 3
 2615 02d2 10       		.uleb128 0x10
 2616 02d3 17070000 		.4byte	.LASF68
ARM GAS  C:\Users\Sven\AppData\Local\Temp\cc7IOcoT.s 			page 70


 2617 02d7 04       		.sleb128 4
 2618 02d8 10       		.uleb128 0x10
 2619 02d9 3E0E0000 		.4byte	.LASF69
 2620 02dd 05       		.sleb128 5
 2621 02de 10       		.uleb128 0x10
 2622 02df 2B090000 		.4byte	.LASF70
 2623 02e3 06       		.sleb128 6
 2624 02e4 10       		.uleb128 0x10
 2625 02e5 4B030000 		.4byte	.LASF71
 2626 02e9 07       		.sleb128 7
 2627 02ea 10       		.uleb128 0x10
 2628 02eb 3D000000 		.4byte	.LASF72
 2629 02ef 08       		.sleb128 8
 2630 02f0 10       		.uleb128 0x10
 2631 02f1 DE0B0000 		.4byte	.LASF73
 2632 02f5 09       		.sleb128 9
 2633 02f6 10       		.uleb128 0x10
 2634 02f7 1F040000 		.4byte	.LASF74
 2635 02fb 0A       		.sleb128 10
 2636 02fc 10       		.uleb128 0x10
 2637 02fd 5C090000 		.4byte	.LASF75
 2638 0301 0B       		.sleb128 11
 2639 0302 10       		.uleb128 0x10
 2640 0303 B10F0000 		.4byte	.LASF76
 2641 0307 0C       		.sleb128 12
 2642 0308 10       		.uleb128 0x10
 2643 0309 FB0B0000 		.4byte	.LASF77
 2644 030d 0D       		.sleb128 13
 2645 030e 10       		.uleb128 0x10
 2646 030f 5B040000 		.4byte	.LASF78
 2647 0313 0E       		.sleb128 14
 2648 0314 10       		.uleb128 0x10
 2649 0315 19060000 		.4byte	.LASF79
 2650 0319 0F       		.sleb128 15
 2651 031a 10       		.uleb128 0x10
 2652 031b 98040000 		.4byte	.LASF80
 2653 031f 10       		.sleb128 16
 2654 0320 10       		.uleb128 0x10
 2655 0321 CA050000 		.4byte	.LASF81
 2656 0325 11       		.sleb128 17
 2657 0326 10       		.uleb128 0x10
 2658 0327 C40A0000 		.4byte	.LASF82
 2659 032b 12       		.sleb128 18
 2660 032c 10       		.uleb128 0x10
 2661 032d 96020000 		.4byte	.LASF83
 2662 0331 13       		.sleb128 19
 2663 0332 10       		.uleb128 0x10
 2664 0333 56010000 		.4byte	.LASF84
 2665 0337 14       		.sleb128 20
 2666 0338 10       		.uleb128 0x10
 2667 0339 CE0C0000 		.4byte	.LASF85
 2668 033d 15       		.sleb128 21
 2669 033e 10       		.uleb128 0x10
 2670 033f D3090000 		.4byte	.LASF86
 2671 0343 16       		.sleb128 22
 2672 0344 10       		.uleb128 0x10
 2673 0345 EB090000 		.4byte	.LASF87
ARM GAS  C:\Users\Sven\AppData\Local\Temp\cc7IOcoT.s 			page 71


 2674 0349 17       		.sleb128 23
 2675 034a 10       		.uleb128 0x10
 2676 034b 030A0000 		.4byte	.LASF88
 2677 034f 18       		.sleb128 24
 2678 0350 10       		.uleb128 0x10
 2679 0351 FB020000 		.4byte	.LASF89
 2680 0355 19       		.sleb128 25
 2681 0356 10       		.uleb128 0x10
 2682 0357 A0000000 		.4byte	.LASF90
 2683 035b 1A       		.sleb128 26
 2684 035c 10       		.uleb128 0x10
 2685 035d F5080000 		.4byte	.LASF91
 2686 0361 1B       		.sleb128 27
 2687 0362 00       		.byte	0
 2688 0363 0F       		.uleb128 0xf
 2689 0364 570E0000 		.4byte	.LASF92
 2690 0368 01       		.byte	0x1
 2691 0369 06       		.byte	0x6
 2692 036a 97       		.byte	0x97
 2693 036b C3030000 		.4byte	0x3c3
 2694 036f 10       		.uleb128 0x10
 2695 0370 F2040000 		.4byte	.LASF93
 2696 0374 00       		.sleb128 0
 2697 0375 10       		.uleb128 0x10
 2698 0376 7B0E0000 		.4byte	.LASF94
 2699 037a C000     		.sleb128 64
 2700 037c 10       		.uleb128 0x10
 2701 037d 7F000000 		.4byte	.LASF95
 2702 0381 C200     		.sleb128 66
 2703 0383 10       		.uleb128 0x10
 2704 0384 AD020000 		.4byte	.LASF96
 2705 0388 D000     		.sleb128 80
 2706 038a 10       		.uleb128 0x10
 2707 038b CA0E0000 		.4byte	.LASF97
 2708 038f D800     		.sleb128 88
 2709 0391 10       		.uleb128 0x10
 2710 0392 E30E0000 		.4byte	.LASF98
 2711 0396 DC00     		.sleb128 92
 2712 0398 10       		.uleb128 0x10
 2713 0399 23050000 		.4byte	.LASF99
 2714 039d C001     		.sleb128 192
 2715 039f 10       		.uleb128 0x10
 2716 03a0 890D0000 		.4byte	.LASF100
 2717 03a4 C201     		.sleb128 194
 2718 03a6 10       		.uleb128 0x10
 2719 03a7 EF000000 		.4byte	.LASF101
 2720 03ab D001     		.sleb128 208
 2721 03ad 10       		.uleb128 0x10
 2722 03ae E00A0000 		.4byte	.LASF102
 2723 03b2 D801     		.sleb128 216
 2724 03b4 10       		.uleb128 0x10
 2725 03b5 5B080000 		.4byte	.LASF103
 2726 03b9 DC01     		.sleb128 220
 2727 03bb 10       		.uleb128 0x10
 2728 03bc FC0C0000 		.4byte	.LASF104
 2729 03c0 DD01     		.sleb128 221
 2730 03c2 00       		.byte	0
ARM GAS  C:\Users\Sven\AppData\Local\Temp\cc7IOcoT.s 			page 72


 2731 03c3 0F       		.uleb128 0xf
 2732 03c4 36020000 		.4byte	.LASF105
 2733 03c8 01       		.byte	0x1
 2734 03c9 06       		.byte	0x6
 2735 03ca AB       		.byte	0xab
 2736 03cb 06040000 		.4byte	0x406
 2737 03cf 10       		.uleb128 0x10
 2738 03d0 E7010000 		.4byte	.LASF106
 2739 03d4 00       		.sleb128 0
 2740 03d5 10       		.uleb128 0x10
 2741 03d6 01060000 		.4byte	.LASF107
 2742 03da 01       		.sleb128 1
 2743 03db 10       		.uleb128 0x10
 2744 03dc 7F010000 		.4byte	.LASF108
 2745 03e0 02       		.sleb128 2
 2746 03e1 10       		.uleb128 0x10
 2747 03e2 6C0F0000 		.4byte	.LASF109
 2748 03e6 03       		.sleb128 3
 2749 03e7 10       		.uleb128 0x10
 2750 03e8 6E000000 		.4byte	.LASF110
 2751 03ec 04       		.sleb128 4
 2752 03ed 10       		.uleb128 0x10
 2753 03ee 0B0E0000 		.4byte	.LASF111
 2754 03f2 05       		.sleb128 5
 2755 03f3 10       		.uleb128 0x10
 2756 03f4 E1080000 		.4byte	.LASF112
 2757 03f8 06       		.sleb128 6
 2758 03f9 10       		.uleb128 0x10
 2759 03fa D10D0000 		.4byte	.LASF113
 2760 03fe 07       		.sleb128 7
 2761 03ff 10       		.uleb128 0x10
 2762 0400 4B050000 		.4byte	.LASF114
 2763 0404 08       		.sleb128 8
 2764 0405 00       		.byte	0
 2765 0406 0D       		.uleb128 0xd
 2766 0407 3F010000 		.4byte	0x13f
 2767 040b 16040000 		.4byte	0x416
 2768 040f 0E       		.uleb128 0xe
 2769 0410 57010000 		.4byte	0x157
 2770 0414 09       		.byte	0x9
 2771 0415 00       		.byte	0
 2772 0416 0F       		.uleb128 0xf
 2773 0417 52070000 		.4byte	.LASF115
 2774 041b 01       		.byte	0x1
 2775 041c 01       		.byte	0x1
 2776 041d 50       		.byte	0x50
 2777 041e 53040000 		.4byte	0x453
 2778 0422 10       		.uleb128 0x10
 2779 0423 20020000 		.4byte	.LASF116
 2780 0427 00       		.sleb128 0
 2781 0428 10       		.uleb128 0x10
 2782 0429 2B100000 		.4byte	.LASF117
 2783 042d 01       		.sleb128 1
 2784 042e 10       		.uleb128 0x10
 2785 042f 6A0C0000 		.4byte	.LASF118
 2786 0433 02       		.sleb128 2
 2787 0434 10       		.uleb128 0x10
ARM GAS  C:\Users\Sven\AppData\Local\Temp\cc7IOcoT.s 			page 73


 2788 0435 57070000 		.4byte	.LASF119
 2789 0439 03       		.sleb128 3
 2790 043a 10       		.uleb128 0x10
 2791 043b 0F070000 		.4byte	.LASF120
 2792 043f 04       		.sleb128 4
 2793 0440 10       		.uleb128 0x10
 2794 0441 35040000 		.4byte	.LASF121
 2795 0445 05       		.sleb128 5
 2796 0446 10       		.uleb128 0x10
 2797 0447 C2010000 		.4byte	.LASF122
 2798 044b 06       		.sleb128 6
 2799 044c 10       		.uleb128 0x10
 2800 044d D0070000 		.4byte	.LASF123
 2801 0451 07       		.sleb128 7
 2802 0452 00       		.byte	0
 2803 0453 0F       		.uleb128 0xf
 2804 0454 39050000 		.4byte	.LASF124
 2805 0458 01       		.byte	0x1
 2806 0459 01       		.byte	0x1
 2807 045a 5B       		.byte	0x5b
 2808 045b AE040000 		.4byte	0x4ae
 2809 045f 10       		.uleb128 0x10
 2810 0460 5F020000 		.4byte	.LASF125
 2811 0464 00       		.sleb128 0
 2812 0465 10       		.uleb128 0x10
 2813 0466 690E0000 		.4byte	.LASF126
 2814 046a 01       		.sleb128 1
 2815 046b 10       		.uleb128 0x10
 2816 046c 720E0000 		.4byte	.LASF127
 2817 0470 02       		.sleb128 2
 2818 0471 10       		.uleb128 0x10
 2819 0472 280F0000 		.4byte	.LASF128
 2820 0476 03       		.sleb128 3
 2821 0477 10       		.uleb128 0x10
 2822 0478 12100000 		.4byte	.LASF129
 2823 047c 04       		.sleb128 4
 2824 047d 10       		.uleb128 0x10
 2825 047e 410D0000 		.4byte	.LASF130
 2826 0482 05       		.sleb128 5
 2827 0483 10       		.uleb128 0x10
 2828 0484 B2010000 		.4byte	.LASF131
 2829 0488 06       		.sleb128 6
 2830 0489 10       		.uleb128 0x10
 2831 048a BA010000 		.4byte	.LASF132
 2832 048e 07       		.sleb128 7
 2833 048f 10       		.uleb128 0x10
 2834 0490 B0000000 		.4byte	.LASF133
 2835 0494 08       		.sleb128 8
 2836 0495 10       		.uleb128 0x10
 2837 0496 B8000000 		.4byte	.LASF134
 2838 049a 09       		.sleb128 9
 2839 049b 10       		.uleb128 0x10
 2840 049c C0000000 		.4byte	.LASF135
 2841 04a0 0A       		.sleb128 10
 2842 04a1 10       		.uleb128 0x10
 2843 04a2 07080000 		.4byte	.LASF136
 2844 04a6 0B       		.sleb128 11
ARM GAS  C:\Users\Sven\AppData\Local\Temp\cc7IOcoT.s 			page 74


 2845 04a7 10       		.uleb128 0x10
 2846 04a8 0F080000 		.4byte	.LASF137
 2847 04ac 0C       		.sleb128 12
 2848 04ad 00       		.byte	0
 2849 04ae 0F       		.uleb128 0xf
 2850 04af 00000000 		.4byte	.LASF138
 2851 04b3 01       		.byte	0x1
 2852 04b4 01       		.byte	0x1
 2853 04b5 71       		.byte	0x71
 2854 04b6 D3040000 		.4byte	0x4d3
 2855 04ba 10       		.uleb128 0x10
 2856 04bb 60000000 		.4byte	.LASF139
 2857 04bf 00       		.sleb128 0
 2858 04c0 10       		.uleb128 0x10
 2859 04c1 C2040000 		.4byte	.LASF140
 2860 04c5 01       		.sleb128 1
 2861 04c6 10       		.uleb128 0x10
 2862 04c7 F70F0000 		.4byte	.LASF141
 2863 04cb 02       		.sleb128 2
 2864 04cc 10       		.uleb128 0x10
 2865 04cd 1E000000 		.4byte	.LASF142
 2866 04d1 03       		.sleb128 3
 2867 04d2 00       		.byte	0
 2868 04d3 11       		.uleb128 0x11
 2869 04d4 1E0E0000 		.4byte	.LASF143
 2870 04d8 01       		.byte	0x1
 2871 04d9 1C01     		.2byte	0x11c
 2872 04db 00000000 		.4byte	.LFB1489
 2873 04df 1C000000 		.4byte	.LFE1489-.LFB1489
 2874 04e3 01       		.uleb128 0x1
 2875 04e4 9C       		.byte	0x9c
 2876 04e5 3B050000 		.4byte	0x53b
 2877 04e9 12       		.uleb128 0x12
 2878 04ea 6E756D00 		.ascii	"num\000"
 2879 04ee 01       		.byte	0x1
 2880 04ef 1C01     		.2byte	0x11c
 2881 04f1 EB000000 		.4byte	0xeb
 2882 04f5 00000000 		.4byte	.LLST0
 2883 04f9 13       		.uleb128 0x13
 2884 04fa 6B00     		.ascii	"k\000"
 2885 04fc 01       		.byte	0x1
 2886 04fd 1E01     		.2byte	0x11e
 2887 04ff 3B050000 		.4byte	0x53b
 2888 0503 02       		.uleb128 0x2
 2889 0504 91       		.byte	0x91
 2890 0505 58       		.sleb128 -40
 2891 0506 14       		.uleb128 0x14
 2892 0507 0E000000 		.4byte	.LVL2
 2893 050b B6100000 		.4byte	0x10b6
 2894 050f 2A050000 		.4byte	0x52a
 2895 0513 15       		.uleb128 0x15
 2896 0514 01       		.uleb128 0x1
 2897 0515 52       		.byte	0x52
 2898 0516 03       		.uleb128 0x3
 2899 0517 F3       		.byte	0xf3
 2900 0518 01       		.uleb128 0x1
 2901 0519 50       		.byte	0x50
ARM GAS  C:\Users\Sven\AppData\Local\Temp\cc7IOcoT.s 			page 75


 2902 051a 15       		.uleb128 0x15
 2903 051b 01       		.uleb128 0x1
 2904 051c 51       		.byte	0x51
 2905 051d 05       		.uleb128 0x5
 2906 051e 03       		.byte	0x3
 2907 051f 00000000 		.4byte	.LC0
 2908 0523 15       		.uleb128 0x15
 2909 0524 01       		.uleb128 0x1
 2910 0525 50       		.byte	0x50
 2911 0526 02       		.uleb128 0x2
 2912 0527 7D       		.byte	0x7d
 2913 0528 00       		.sleb128 0
 2914 0529 00       		.byte	0
 2915 052a 16       		.uleb128 0x16
 2916 052b 14000000 		.4byte	.LVL3
 2917 052f D1100000 		.4byte	0x10d1
 2918 0533 15       		.uleb128 0x15
 2919 0534 01       		.uleb128 0x1
 2920 0535 50       		.byte	0x50
 2921 0536 02       		.uleb128 0x2
 2922 0537 7D       		.byte	0x7d
 2923 0538 00       		.sleb128 0
 2924 0539 00       		.byte	0
 2925 053a 00       		.byte	0
 2926 053b 0D       		.uleb128 0xd
 2927 053c 3F010000 		.4byte	0x13f
 2928 0540 4B050000 		.4byte	0x54b
 2929 0544 0E       		.uleb128 0xe
 2930 0545 57010000 		.4byte	0x157
 2931 0549 1E       		.byte	0x1e
 2932 054a 00       		.byte	0
 2933 054b 11       		.uleb128 0x11
 2934 054c FA0E0000 		.4byte	.LASF144
 2935 0550 01       		.byte	0x1
 2936 0551 2401     		.2byte	0x124
 2937 0553 00000000 		.4byte	.LFB1490
 2938 0557 20000000 		.4byte	.LFE1490-.LFB1490
 2939 055b 01       		.uleb128 0x1
 2940 055c 9C       		.byte	0x9c
 2941 055d AD050000 		.4byte	0x5ad
 2942 0561 12       		.uleb128 0x12
 2943 0562 62756600 		.ascii	"buf\000"
 2944 0566 01       		.byte	0x1
 2945 0567 2401     		.2byte	0x124
 2946 0569 AD050000 		.4byte	0x5ad
 2947 056d 2C000000 		.4byte	.LLST1
 2948 0571 12       		.uleb128 0x12
 2949 0572 6C656E00 		.ascii	"len\000"
 2950 0576 01       		.byte	0x1
 2951 0577 2401     		.2byte	0x124
 2952 0579 E0000000 		.4byte	0xe0
 2953 057d 58000000 		.4byte	.LLST2
 2954 0581 17       		.uleb128 0x17
 2955 0582 6900     		.ascii	"i\000"
 2956 0584 01       		.byte	0x1
 2957 0585 2601     		.2byte	0x126
 2958 0587 E0000000 		.4byte	0xe0
ARM GAS  C:\Users\Sven\AppData\Local\Temp\cc7IOcoT.s 			page 76


 2959 058b 79000000 		.4byte	.LLST3
 2960 058f 14       		.uleb128 0x14
 2961 0590 0C000000 		.4byte	.LVL6
 2962 0594 EE100000 		.4byte	0x10ee
 2963 0598 A3050000 		.4byte	0x5a3
 2964 059c 15       		.uleb128 0x15
 2965 059d 01       		.uleb128 0x1
 2966 059e 50       		.byte	0x50
 2967 059f 02       		.uleb128 0x2
 2968 05a0 08       		.byte	0x8
 2969 05a1 FE       		.byte	0xfe
 2970 05a2 00       		.byte	0
 2971 05a3 18       		.uleb128 0x18
 2972 05a4 1C000000 		.4byte	.LVL10
 2973 05a8 EE100000 		.4byte	0x10ee
 2974 05ac 00       		.byte	0
 2975 05ad 07       		.uleb128 0x7
 2976 05ae 04       		.byte	0x4
 2977 05af CA000000 		.4byte	0xca
 2978 05b3 19       		.uleb128 0x19
 2979 05b4 2E000000 		.4byte	.LASF282
 2980 05b8 01       		.byte	0x1
 2981 05b9 3001     		.2byte	0x130
 2982 05bb D5000000 		.4byte	0xd5
 2983 05bf 00000000 		.4byte	.LFB1491
 2984 05c3 16000000 		.4byte	.LFE1491-.LFB1491
 2985 05c7 01       		.uleb128 0x1
 2986 05c8 9C       		.byte	0x9c
 2987 05c9 03060000 		.4byte	0x603
 2988 05cd 1A       		.uleb128 0x1a
 2989 05ce 40020000 		.4byte	.LASF145
 2990 05d2 01       		.byte	0x1
 2991 05d3 3301     		.2byte	0x133
 2992 05d5 D5000000 		.4byte	0xd5
 2993 05d9 B0000000 		.4byte	.LLST4
 2994 05dd 18       		.uleb128 0x18
 2995 05de 06000000 		.4byte	.LVL13
 2996 05e2 00110000 		.4byte	0x1100
 2997 05e6 14       		.uleb128 0x14
 2998 05e7 0C000000 		.4byte	.LVL14
 2999 05eb 07110000 		.4byte	0x1107
 3000 05ef F9050000 		.4byte	0x5f9
 3001 05f3 15       		.uleb128 0x15
 3002 05f4 01       		.uleb128 0x1
 3003 05f5 50       		.byte	0x50
 3004 05f6 01       		.uleb128 0x1
 3005 05f7 30       		.byte	0x30
 3006 05f8 00       		.byte	0
 3007 05f9 18       		.uleb128 0x18
 3008 05fa 12000000 		.4byte	.LVL16
 3009 05fe 1C110000 		.4byte	0x111c
 3010 0602 00       		.byte	0
 3011 0603 1B       		.uleb128 0x1b
 3012 0604 9B090000 		.4byte	.LASF146
 3013 0608 01       		.byte	0x1
 3014 0609 3901     		.2byte	0x139
 3015 060b 00000000 		.4byte	.LFB1492
ARM GAS  C:\Users\Sven\AppData\Local\Temp\cc7IOcoT.s 			page 77


 3016 060f 44000000 		.4byte	.LFE1492-.LFB1492
 3017 0613 01       		.uleb128 0x1
 3018 0614 9C       		.byte	0x9c
 3019 0615 3F060000 		.4byte	0x63f
 3020 0619 18       		.uleb128 0x18
 3021 061a 16000000 		.4byte	.LVL18
 3022 061e B3050000 		.4byte	0x5b3
 3023 0622 18       		.uleb128 0x18
 3024 0623 30000000 		.4byte	.LVL20
 3025 0627 D3040000 		.4byte	0x4d3
 3026 062b 16       		.uleb128 0x16
 3027 062c 36000000 		.4byte	.LVL21
 3028 0630 D1100000 		.4byte	0x10d1
 3029 0634 15       		.uleb128 0x15
 3030 0635 01       		.uleb128 0x1
 3031 0636 50       		.byte	0x50
 3032 0637 05       		.uleb128 0x5
 3033 0638 03       		.byte	0x3
 3034 0639 03000000 		.4byte	.LC4
 3035 063d 00       		.byte	0
 3036 063e 00       		.byte	0
 3037 063f 1C       		.uleb128 0x1c
 3038 0640 C50E0000 		.4byte	.LASF147
 3039 0644 01       		.byte	0x1
 3040 0645 4D01     		.2byte	0x14d
 3041 0647 B1000000 		.4byte	0xb1
 3042 064b 00000000 		.4byte	.LFB1493
 3043 064f 18090000 		.4byte	.LFE1493-.LFB1493
 3044 0653 01       		.uleb128 0x1
 3045 0654 9C       		.byte	0x9c
 3046 0655 360B0000 		.4byte	0xb36
 3047 0659 1D       		.uleb128 0x1d
 3048 065a 6F080000 		.4byte	.LASF148
 3049 065e 01       		.byte	0x1
 3050 065f 5D01     		.2byte	0x15d
 3051 0661 BF000000 		.4byte	0xbf
 3052 0665 05       		.uleb128 0x5
 3053 0666 03       		.byte	0x3
 3054 0667 50000000 		.4byte	Phi_Prev1.17441
 3055 066b 1D       		.uleb128 0x1d
 3056 066c 79080000 		.4byte	.LASF149
 3057 0670 01       		.byte	0x1
 3058 0671 5D01     		.2byte	0x15d
 3059 0673 BF000000 		.4byte	0xbf
 3060 0677 05       		.uleb128 0x5
 3061 0678 03       		.byte	0x3
 3062 0679 51000000 		.4byte	Phi_Prev2.17442
 3063 067d 1D       		.uleb128 0x1d
 3064 067e 83080000 		.4byte	.LASF150
 3065 0682 01       		.byte	0x1
 3066 0683 5D01     		.2byte	0x15d
 3067 0685 BF000000 		.4byte	0xbf
 3068 0689 05       		.uleb128 0x5
 3069 068a 03       		.byte	0x3
 3070 068b 52000000 		.4byte	Phi_Prev3.17443
 3071 068f 1D       		.uleb128 0x1d
 3072 0690 8D080000 		.4byte	.LASF151
ARM GAS  C:\Users\Sven\AppData\Local\Temp\cc7IOcoT.s 			page 78


 3073 0694 01       		.byte	0x1
 3074 0695 5D01     		.2byte	0x15d
 3075 0697 BF000000 		.4byte	0xbf
 3076 069b 05       		.uleb128 0x5
 3077 069c 03       		.byte	0x3
 3078 069d 53000000 		.4byte	Phi_Prev4.17444
 3079 06a1 1D       		.uleb128 0x1d
 3080 06a2 3F050000 		.4byte	.LASF152
 3081 06a6 01       		.byte	0x1
 3082 06a7 5E01     		.2byte	0x15e
 3083 06a9 BF000000 		.4byte	0xbf
 3084 06ad 05       		.uleb128 0x5
 3085 06ae 03       		.byte	0x3
 3086 06af 54000000 		.4byte	Theta_Prev1.17445
 3087 06b3 1D       		.uleb128 0x1d
 3088 06b4 C9010000 		.4byte	.LASF153
 3089 06b8 01       		.byte	0x1
 3090 06b9 5E01     		.2byte	0x15e
 3091 06bb BF000000 		.4byte	0xbf
 3092 06bf 05       		.uleb128 0x5
 3093 06c0 03       		.byte	0x3
 3094 06c1 55000000 		.4byte	Theta_Prev2.17446
 3095 06c5 1D       		.uleb128 0x1d
 3096 06c6 5E050000 		.4byte	.LASF154
 3097 06ca 01       		.byte	0x1
 3098 06cb 5E01     		.2byte	0x15e
 3099 06cd BF000000 		.4byte	0xbf
 3100 06d1 05       		.uleb128 0x5
 3101 06d2 03       		.byte	0x3
 3102 06d3 56000000 		.4byte	Theta_Prev3.17447
 3103 06d7 1D       		.uleb128 0x1d
 3104 06d8 6A050000 		.4byte	.LASF155
 3105 06dc 01       		.byte	0x1
 3106 06dd 5E01     		.2byte	0x15e
 3107 06df BF000000 		.4byte	0xbf
 3108 06e3 05       		.uleb128 0x5
 3109 06e4 03       		.byte	0x3
 3110 06e5 57000000 		.4byte	Theta_Prev4.17448
 3111 06e9 1D       		.uleb128 0x1d
 3112 06ea 440B0000 		.4byte	.LASF156
 3113 06ee 01       		.byte	0x1
 3114 06ef 5F01     		.2byte	0x15f
 3115 06f1 BF000000 		.4byte	0xbf
 3116 06f5 05       		.uleb128 0x5
 3117 06f6 03       		.byte	0x3
 3118 06f7 39000000 		.4byte	Speed_Prev1.17449
 3119 06fb 1D       		.uleb128 0x1d
 3120 06fc 500B0000 		.4byte	.LASF157
 3121 0700 01       		.byte	0x1
 3122 0701 5F01     		.2byte	0x15f
 3123 0703 BF000000 		.4byte	0xbf
 3124 0707 05       		.uleb128 0x5
 3125 0708 03       		.byte	0x3
 3126 0709 3A000000 		.4byte	Speed_Prev2.17450
 3127 070d 1D       		.uleb128 0x1d
 3128 070e 6E040000 		.4byte	.LASF158
 3129 0712 01       		.byte	0x1
ARM GAS  C:\Users\Sven\AppData\Local\Temp\cc7IOcoT.s 			page 79


 3130 0713 5F01     		.2byte	0x15f
 3131 0715 BF000000 		.4byte	0xbf
 3132 0719 05       		.uleb128 0x5
 3133 071a 03       		.byte	0x3
 3134 071b 3B000000 		.4byte	Speed_Prev3.17451
 3135 071f 1D       		.uleb128 0x1d
 3136 0720 660B0000 		.4byte	.LASF159
 3137 0724 01       		.byte	0x1
 3138 0725 5F01     		.2byte	0x15f
 3139 0727 BF000000 		.4byte	0xbf
 3140 072b 05       		.uleb128 0x5
 3141 072c 03       		.byte	0x3
 3142 072d 3C000000 		.4byte	Speed_Prev4.17452
 3143 0731 1E       		.uleb128 0x1e
 3144 0732 C4000000 		.4byte	.LBB2
 3145 0736 FA070000 		.4byte	.LBE2-.LBB2
 3146 073a 8C090000 		.4byte	0x98c
 3147 073e 1D       		.uleb128 0x1d
 3148 073f A9060000 		.4byte	.LASF160
 3149 0743 01       		.byte	0x1
 3150 0744 7104     		.2byte	0x471
 3151 0746 CA000000 		.4byte	0xca
 3152 074a 05       		.uleb128 0x5
 3153 074b 03       		.byte	0x3
 3154 074c 85000000 		.4byte	tx_counter.17473
 3155 0750 1E       		.uleb128 0x1e
 3156 0751 CC040000 		.4byte	.LBB3
 3157 0755 82030000 		.4byte	.LBE3-.LBB3
 3158 0759 19080000 		.4byte	0x819
 3159 075d 1A       		.uleb128 0x1a
 3160 075e 360B0000 		.4byte	.LASF161
 3161 0762 01       		.byte	0x1
 3162 0763 1F03     		.2byte	0x31f
 3163 0765 CA000000 		.4byte	0xca
 3164 0769 D9000000 		.4byte	.LLST5
 3165 076d 1A       		.uleb128 0x1a
 3166 076e FA070000 		.4byte	.LASF162
 3167 0772 01       		.byte	0x1
 3168 0773 2003     		.2byte	0x320
 3169 0775 CA000000 		.4byte	0xca
 3170 0779 24010000 		.4byte	.LLST6
 3171 077d 1D       		.uleb128 0x1d
 3172 077e 35010000 		.4byte	.LASF163
 3173 0782 01       		.byte	0x1
 3174 0783 3103     		.2byte	0x331
 3175 0785 CA000000 		.4byte	0xca
 3176 0789 05       		.uleb128 0x5
 3177 078a 03       		.byte	0x3
 3178 078b 5A000000 		.4byte	flap_target.17459
 3179 078f 1F       		.uleb128 0x1f
 3180 0790 240B0000 		.4byte	.LASF164
 3181 0794 01       		.byte	0x1
 3182 0795 3203     		.2byte	0x332
 3183 0797 CA000000 		.4byte	0xca
 3184 079b 00       		.byte	0
 3185 079c 1D       		.uleb128 0x1d
 3186 079d 1C0D0000 		.4byte	.LASF165
ARM GAS  C:\Users\Sven\AppData\Local\Temp\cc7IOcoT.s 			page 80


 3187 07a1 01       		.byte	0x1
 3188 07a2 3303     		.2byte	0x333
 3189 07a4 CA000000 		.4byte	0xca
 3190 07a8 05       		.uleb128 0x5
 3191 07a9 03       		.byte	0x3
 3192 07aa 5B000000 		.4byte	flap_offset.17461
 3193 07ae 20       		.uleb128 0x20
 3194 07af 32050000 		.4byte	.LBB4
 3195 07b3 1C030000 		.4byte	.LBE4-.LBB4
 3196 07b7 1A       		.uleb128 0x1a
 3197 07b8 7D020000 		.4byte	.LASF166
 3198 07bc 01       		.byte	0x1
 3199 07bd F403     		.2byte	0x3f4
 3200 07bf CA000000 		.4byte	0xca
 3201 07c3 F8010000 		.4byte	.LLST7
 3202 07c7 1A       		.uleb128 0x1a
 3203 07c8 190F0000 		.4byte	.LASF167
 3204 07cc 01       		.byte	0x1
 3205 07cd F503     		.2byte	0x3f5
 3206 07cf CA000000 		.4byte	0xca
 3207 07d3 F8010000 		.4byte	.LLST7
 3208 07d7 1A       		.uleb128 0x1a
 3209 07d8 84070000 		.4byte	.LASF168
 3210 07dc 01       		.byte	0x1
 3211 07dd F603     		.2byte	0x3f6
 3212 07df CA000000 		.4byte	0xca
 3213 07e3 0C020000 		.4byte	.LLST9
 3214 07e7 1A       		.uleb128 0x1a
 3215 07e8 19090000 		.4byte	.LASF169
 3216 07ec 01       		.byte	0x1
 3217 07ed 2604     		.2byte	0x426
 3218 07ef CA000000 		.4byte	0xca
 3219 07f3 20020000 		.4byte	.LLST10
 3220 07f7 1A       		.uleb128 0x1a
 3221 07f8 C9040000 		.4byte	.LASF170
 3222 07fc 01       		.byte	0x1
 3223 07fd 2704     		.2byte	0x427
 3224 07ff CA000000 		.4byte	0xca
 3225 0803 34020000 		.4byte	.LLST11
 3226 0807 1A       		.uleb128 0x1a
 3227 0808 54080000 		.4byte	.LASF171
 3228 080c 01       		.byte	0x1
 3229 080d 2804     		.2byte	0x428
 3230 080f CA000000 		.4byte	0xca
 3231 0813 48020000 		.4byte	.LLST12
 3232 0817 00       		.byte	0
 3233 0818 00       		.byte	0
 3234 0819 18       		.uleb128 0x18
 3235 081a FA000000 		.4byte	.LVL52
 3236 081e 23110000 		.4byte	0x1123
 3237 0822 14       		.uleb128 0x14
 3238 0823 06010000 		.4byte	.LVL53
 3239 0827 35110000 		.4byte	0x1135
 3240 082b 36080000 		.4byte	0x836
 3241 082f 15       		.uleb128 0x15
 3242 0830 01       		.uleb128 0x1
 3243 0831 50       		.byte	0x50
ARM GAS  C:\Users\Sven\AppData\Local\Temp\cc7IOcoT.s 			page 81


 3244 0832 02       		.uleb128 0x2
 3245 0833 74       		.byte	0x74
 3246 0834 00       		.sleb128 0
 3247 0835 00       		.byte	0
 3248 0836 14       		.uleb128 0x14
 3249 0837 16010000 		.4byte	.LVL54
 3250 083b 35110000 		.4byte	0x1135
 3251 083f 4A080000 		.4byte	0x84a
 3252 0843 15       		.uleb128 0x15
 3253 0844 01       		.uleb128 0x1
 3254 0845 50       		.byte	0x50
 3255 0846 02       		.uleb128 0x2
 3256 0847 09       		.byte	0x9
 3257 0848 FF       		.byte	0xff
 3258 0849 00       		.byte	0
 3259 084a 14       		.uleb128 0x14
 3260 084b 30010000 		.4byte	.LVL55
 3261 084f 23110000 		.4byte	0x1123
 3262 0853 5E080000 		.4byte	0x85e
 3263 0857 15       		.uleb128 0x15
 3264 0858 01       		.uleb128 0x1
 3265 0859 50       		.byte	0x50
 3266 085a 02       		.uleb128 0x2
 3267 085b 74       		.byte	0x74
 3268 085c 00       		.sleb128 0
 3269 085d 00       		.byte	0
 3270 085e 14       		.uleb128 0x14
 3271 085f 36010000 		.4byte	.LVL56
 3272 0863 35110000 		.4byte	0x1135
 3273 0867 72080000 		.4byte	0x872
 3274 086b 15       		.uleb128 0x15
 3275 086c 01       		.uleb128 0x1
 3276 086d 50       		.byte	0x50
 3277 086e 02       		.uleb128 0x2
 3278 086f 09       		.byte	0x9
 3279 0870 FF       		.byte	0xff
 3280 0871 00       		.byte	0
 3281 0872 18       		.uleb128 0x18
 3282 0873 3C010000 		.4byte	.LVL57
 3283 0877 46110000 		.4byte	0x1146
 3284 087b 18       		.uleb128 0x18
 3285 087c 4E010000 		.4byte	.LVL58
 3286 0880 57110000 		.4byte	0x1157
 3287 0884 18       		.uleb128 0x18
 3288 0885 5A010000 		.4byte	.LVL59
 3289 0889 5E110000 		.4byte	0x115e
 3290 088d 18       		.uleb128 0x18
 3291 088e 68010000 		.4byte	.LVL60
 3292 0892 69110000 		.4byte	0x1169
 3293 0896 18       		.uleb128 0x18
 3294 0897 74010000 		.4byte	.LVL61
 3295 089b 70110000 		.4byte	0x1170
 3296 089f 18       		.uleb128 0x18
 3297 08a0 DE010000 		.4byte	.LVL65
 3298 08a4 03060000 		.4byte	0x603
 3299 08a8 14       		.uleb128 0x14
 3300 08a9 E4010000 		.4byte	.LVL66
ARM GAS  C:\Users\Sven\AppData\Local\Temp\cc7IOcoT.s 			page 82


 3301 08ad D1100000 		.4byte	0x10d1
 3302 08b1 BF080000 		.4byte	0x8bf
 3303 08b5 15       		.uleb128 0x15
 3304 08b6 01       		.uleb128 0x1
 3305 08b7 50       		.byte	0x50
 3306 08b8 05       		.uleb128 0x5
 3307 08b9 03       		.byte	0x3
 3308 08ba 30000000 		.4byte	.LC16
 3309 08be 00       		.byte	0
 3310 08bf 18       		.uleb128 0x18
 3311 08c0 46020000 		.4byte	.LVL67
 3312 08c4 B3050000 		.4byte	0x5b3
 3313 08c8 14       		.uleb128 0x14
 3314 08c9 B6020000 		.4byte	.LVL71
 3315 08cd 7B110000 		.4byte	0x117b
 3316 08d1 E4080000 		.4byte	0x8e4
 3317 08d5 15       		.uleb128 0x15
 3318 08d6 06       		.uleb128 0x6
 3319 08d7 50       		.byte	0x50
 3320 08d8 93       		.byte	0x93
 3321 08d9 04       		.uleb128 0x4
 3322 08da 51       		.byte	0x51
 3323 08db 93       		.byte	0x93
 3324 08dc 04       		.uleb128 0x4
 3325 08dd 05       		.uleb128 0x5
 3326 08de 7D       		.byte	0x7d
 3327 08df 00       		.sleb128 0
 3328 08e0 F6       		.byte	0xf6
 3329 08e1 08       		.byte	0x8
 3330 08e2 25       		.uleb128 0x25
 3331 08e3 00       		.byte	0
 3332 08e4 14       		.uleb128 0x14
 3333 08e5 F2020000 		.4byte	.LVL77
 3334 08e9 7B110000 		.4byte	0x117b
 3335 08ed 00090000 		.4byte	0x900
 3336 08f1 15       		.uleb128 0x15
 3337 08f2 06       		.uleb128 0x6
 3338 08f3 50       		.byte	0x50
 3339 08f4 93       		.byte	0x93
 3340 08f5 04       		.uleb128 0x4
 3341 08f6 51       		.byte	0x51
 3342 08f7 93       		.byte	0x93
 3343 08f8 04       		.uleb128 0x4
 3344 08f9 05       		.uleb128 0x5
 3345 08fa 7D       		.byte	0x7d
 3346 08fb 00       		.sleb128 0
 3347 08fc F6       		.byte	0xf6
 3348 08fd 08       		.byte	0x8
 3349 08fe 25       		.uleb128 0x25
 3350 08ff 00       		.byte	0
 3351 0900 14       		.uleb128 0x14
 3352 0901 96080000 		.4byte	.LVL156
 3353 0905 D1100000 		.4byte	0x10d1
 3354 0909 14090000 		.4byte	0x914
 3355 090d 15       		.uleb128 0x15
 3356 090e 01       		.uleb128 0x1
 3357 090f 50       		.byte	0x50
ARM GAS  C:\Users\Sven\AppData\Local\Temp\cc7IOcoT.s 			page 83


 3358 0910 02       		.uleb128 0x2
 3359 0911 74       		.byte	0x74
 3360 0912 00       		.sleb128 0
 3361 0913 00       		.byte	0
 3362 0914 14       		.uleb128 0x14
 3363 0915 9C080000 		.4byte	.LVL157
 3364 0919 D1100000 		.4byte	0x10d1
 3365 091d 2B090000 		.4byte	0x92b
 3366 0921 15       		.uleb128 0x15
 3367 0922 01       		.uleb128 0x1
 3368 0923 50       		.byte	0x50
 3369 0924 05       		.uleb128 0x5
 3370 0925 03       		.byte	0x3
 3371 0926 1D000000 		.4byte	.LC11
 3372 092a 00       		.byte	0
 3373 092b 14       		.uleb128 0x14
 3374 092c A4080000 		.4byte	.LVL158
 3375 0930 95110000 		.4byte	0x1195
 3376 0934 48090000 		.4byte	0x948
 3377 0938 15       		.uleb128 0x15
 3378 0939 01       		.uleb128 0x1
 3379 093a 51       		.byte	0x51
 3380 093b 05       		.uleb128 0x5
 3381 093c 03       		.byte	0x3
 3382 093d 41000000 		.4byte	.LC25
 3383 0941 15       		.uleb128 0x15
 3384 0942 01       		.uleb128 0x1
 3385 0943 50       		.byte	0x50
 3386 0944 02       		.uleb128 0x2
 3387 0945 74       		.byte	0x74
 3388 0946 00       		.sleb128 0
 3389 0947 00       		.byte	0
 3390 0948 14       		.uleb128 0x14
 3391 0949 AE080000 		.4byte	.LVL159
 3392 094d D1100000 		.4byte	0x10d1
 3393 0951 5F090000 		.4byte	0x95f
 3394 0955 15       		.uleb128 0x15
 3395 0956 01       		.uleb128 0x1
 3396 0957 50       		.byte	0x50
 3397 0958 05       		.uleb128 0x5
 3398 0959 03       		.byte	0x3
 3399 095a 46000000 		.4byte	.LC27
 3400 095e 00       		.byte	0
 3401 095f 14       		.uleb128 0x14
 3402 0960 B4080000 		.4byte	.LVL160
 3403 0964 AF110000 		.4byte	0x11af
 3404 0968 73090000 		.4byte	0x973
 3405 096c 15       		.uleb128 0x15
 3406 096d 01       		.uleb128 0x1
 3407 096e 50       		.byte	0x50
 3408 096f 02       		.uleb128 0x2
 3409 0970 08       		.byte	0x8
 3410 0971 64       		.byte	0x64
 3411 0972 00       		.byte	0
 3412 0973 18       		.uleb128 0x18
 3413 0974 B8080000 		.4byte	.LVL161
 3414 0978 C0110000 		.4byte	0x11c0
ARM GAS  C:\Users\Sven\AppData\Local\Temp\cc7IOcoT.s 			page 84


 3415 097c 16       		.uleb128 0x16
 3416 097d BE080000 		.4byte	.LVL162
 3417 0981 C7110000 		.4byte	0x11c7
 3418 0985 15       		.uleb128 0x15
 3419 0986 01       		.uleb128 0x1
 3420 0987 50       		.byte	0x50
 3421 0988 01       		.uleb128 0x1
 3422 0989 38       		.byte	0x38
 3423 098a 00       		.byte	0
 3424 098b 00       		.byte	0
 3425 098c 14       		.uleb128 0x14
 3426 098d 0A000000 		.4byte	.LVL22
 3427 0991 D8110000 		.4byte	0x11d8
 3428 0995 9F090000 		.4byte	0x99f
 3429 0999 15       		.uleb128 0x15
 3430 099a 01       		.uleb128 0x1
 3431 099b 50       		.byte	0x50
 3432 099c 01       		.uleb128 0x1
 3433 099d 31       		.byte	0x31
 3434 099e 00       		.byte	0
 3435 099f 14       		.uleb128 0x14
 3436 09a0 1A000000 		.4byte	.LVL23
 3437 09a4 AF110000 		.4byte	0x11af
 3438 09a8 B3090000 		.4byte	0x9b3
 3439 09ac 15       		.uleb128 0x15
 3440 09ad 01       		.uleb128 0x1
 3441 09ae 50       		.byte	0x50
 3442 09af 02       		.uleb128 0x2
 3443 09b0 08       		.byte	0x8
 3444 09b1 64       		.byte	0x64
 3445 09b2 00       		.byte	0
 3446 09b3 18       		.uleb128 0x18
 3447 09b4 20000000 		.4byte	.LVL24
 3448 09b8 ED110000 		.4byte	0x11ed
 3449 09bc 18       		.uleb128 0x18
 3450 09bd 24000000 		.4byte	.LVL25
 3451 09c1 F4110000 		.4byte	0x11f4
 3452 09c5 18       		.uleb128 0x18
 3453 09c6 28000000 		.4byte	.LVL26
 3454 09ca FB110000 		.4byte	0x11fb
 3455 09ce 14       		.uleb128 0x14
 3456 09cf 30000000 		.4byte	.LVL27
 3457 09d3 02120000 		.4byte	0x1202
 3458 09d7 E6090000 		.4byte	0x9e6
 3459 09db 15       		.uleb128 0x15
 3460 09dc 01       		.uleb128 0x1
 3461 09dd 51       		.byte	0x51
 3462 09de 01       		.uleb128 0x1
 3463 09df 32       		.byte	0x32
 3464 09e0 15       		.uleb128 0x15
 3465 09e1 01       		.uleb128 0x1
 3466 09e2 50       		.byte	0x50
 3467 09e3 01       		.uleb128 0x1
 3468 09e4 30       		.byte	0x30
 3469 09e5 00       		.byte	0
 3470 09e6 14       		.uleb128 0x14
 3471 09e7 3A000000 		.4byte	.LVL28
ARM GAS  C:\Users\Sven\AppData\Local\Temp\cc7IOcoT.s 			page 85


 3472 09eb 18120000 		.4byte	0x1218
 3473 09ef 000A0000 		.4byte	0xa00
 3474 09f3 15       		.uleb128 0x15
 3475 09f4 01       		.uleb128 0x1
 3476 09f5 51       		.byte	0x51
 3477 09f6 03       		.uleb128 0x3
 3478 09f7 0A       		.byte	0xa
 3479 09f8 803E     		.2byte	0x3e80
 3480 09fa 15       		.uleb128 0x15
 3481 09fb 01       		.uleb128 0x1
 3482 09fc 50       		.byte	0x50
 3483 09fd 01       		.uleb128 0x1
 3484 09fe 30       		.byte	0x30
 3485 09ff 00       		.byte	0
 3486 0a00 14       		.uleb128 0x14
 3487 0a01 40000000 		.4byte	.LVL29
 3488 0a05 AF110000 		.4byte	0x11af
 3489 0a09 140A0000 		.4byte	0xa14
 3490 0a0d 15       		.uleb128 0x15
 3491 0a0e 01       		.uleb128 0x1
 3492 0a0f 50       		.byte	0x50
 3493 0a10 02       		.uleb128 0x2
 3494 0a11 08       		.byte	0x8
 3495 0a12 64       		.byte	0x64
 3496 0a13 00       		.byte	0
 3497 0a14 18       		.uleb128 0x18
 3498 0a15 44000000 		.4byte	.LVL30
 3499 0a19 2E120000 		.4byte	0x122e
 3500 0a1d 18       		.uleb128 0x18
 3501 0a1e 48000000 		.4byte	.LVL31
 3502 0a22 36120000 		.4byte	0x1236
 3503 0a26 18       		.uleb128 0x18
 3504 0a27 4C000000 		.4byte	.LVL32
 3505 0a2b 3E120000 		.4byte	0x123e
 3506 0a2f 18       		.uleb128 0x18
 3507 0a30 50000000 		.4byte	.LVL33
 3508 0a34 46120000 		.4byte	0x1246
 3509 0a38 18       		.uleb128 0x18
 3510 0a39 54000000 		.4byte	.LVL34
 3511 0a3d 4E120000 		.4byte	0x124e
 3512 0a41 18       		.uleb128 0x18
 3513 0a42 58000000 		.4byte	.LVL35
 3514 0a46 55120000 		.4byte	0x1255
 3515 0a4a 18       		.uleb128 0x18
 3516 0a4b 5C000000 		.4byte	.LVL36
 3517 0a4f 5C120000 		.4byte	0x125c
 3518 0a53 18       		.uleb128 0x18
 3519 0a54 60000000 		.4byte	.LVL37
 3520 0a58 63120000 		.4byte	0x1263
 3521 0a5c 18       		.uleb128 0x18
 3522 0a5d 64000000 		.4byte	.LVL38
 3523 0a61 6A120000 		.4byte	0x126a
 3524 0a65 18       		.uleb128 0x18
 3525 0a66 70000000 		.4byte	.LVL39
 3526 0a6a 71120000 		.4byte	0x1271
 3527 0a6e 18       		.uleb128 0x18
 3528 0a6f 74000000 		.4byte	.LVL40
ARM GAS  C:\Users\Sven\AppData\Local\Temp\cc7IOcoT.s 			page 86


 3529 0a73 57110000 		.4byte	0x1157
 3530 0a77 14       		.uleb128 0x14
 3531 0a78 7A000000 		.4byte	.LVL41
 3532 0a7c AF110000 		.4byte	0x11af
 3533 0a80 8A0A0000 		.4byte	0xa8a
 3534 0a84 15       		.uleb128 0x15
 3535 0a85 01       		.uleb128 0x1
 3536 0a86 50       		.byte	0x50
 3537 0a87 01       		.uleb128 0x1
 3538 0a88 35       		.byte	0x35
 3539 0a89 00       		.byte	0
 3540 0a8a 18       		.uleb128 0x18
 3541 0a8b 7E000000 		.4byte	.LVL42
 3542 0a8f 5E110000 		.4byte	0x115e
 3543 0a93 14       		.uleb128 0x14
 3544 0a94 88000000 		.4byte	.LVL43
 3545 0a98 AF110000 		.4byte	0x11af
 3546 0a9c A60A0000 		.4byte	0xaa6
 3547 0aa0 15       		.uleb128 0x15
 3548 0aa1 01       		.uleb128 0x1
 3549 0aa2 50       		.byte	0x50
 3550 0aa3 01       		.uleb128 0x1
 3551 0aa4 35       		.byte	0x35
 3552 0aa5 00       		.byte	0
 3553 0aa6 18       		.uleb128 0x18
 3554 0aa7 8C000000 		.4byte	.LVL44
 3555 0aab 69110000 		.4byte	0x1169
 3556 0aaf 14       		.uleb128 0x14
 3557 0ab0 92000000 		.4byte	.LVL45
 3558 0ab4 AF110000 		.4byte	0x11af
 3559 0ab8 C20A0000 		.4byte	0xac2
 3560 0abc 15       		.uleb128 0x15
 3561 0abd 01       		.uleb128 0x1
 3562 0abe 50       		.byte	0x50
 3563 0abf 01       		.uleb128 0x1
 3564 0ac0 35       		.byte	0x35
 3565 0ac1 00       		.byte	0
 3566 0ac2 18       		.uleb128 0x18
 3567 0ac3 96000000 		.4byte	.LVL46
 3568 0ac7 70110000 		.4byte	0x1170
 3569 0acb 14       		.uleb128 0x14
 3570 0acc 9E000000 		.4byte	.LVL47
 3571 0ad0 D1100000 		.4byte	0x10d1
 3572 0ad4 E20A0000 		.4byte	0xae2
 3573 0ad8 15       		.uleb128 0x15
 3574 0ad9 01       		.uleb128 0x1
 3575 0ada 50       		.byte	0x50
 3576 0adb 05       		.uleb128 0x5
 3577 0adc 03       		.byte	0x3
 3578 0add 0F000000 		.4byte	.LC9
 3579 0ae1 00       		.byte	0
 3580 0ae2 18       		.uleb128 0x18
 3581 0ae3 A4000000 		.4byte	.LVL48
 3582 0ae7 D3040000 		.4byte	0x4d3
 3583 0aeb 14       		.uleb128 0x14
 3584 0aec AA000000 		.4byte	.LVL49
 3585 0af0 D1100000 		.4byte	0x10d1
ARM GAS  C:\Users\Sven\AppData\Local\Temp\cc7IOcoT.s 			page 87


 3586 0af4 020B0000 		.4byte	0xb02
 3587 0af8 15       		.uleb128 0x15
 3588 0af9 01       		.uleb128 0x1
 3589 0afa 50       		.byte	0x50
 3590 0afb 05       		.uleb128 0x5
 3591 0afc 03       		.byte	0x3
 3592 0afd 1D000000 		.4byte	.LC11
 3593 0b01 00       		.byte	0
 3594 0b02 14       		.uleb128 0x14
 3595 0b03 B0000000 		.4byte	.LVL50
 3596 0b07 78120000 		.4byte	0x1278
 3597 0b0b 150B0000 		.4byte	0xb15
 3598 0b0f 15       		.uleb128 0x15
 3599 0b10 01       		.uleb128 0x1
 3600 0b11 50       		.byte	0x50
 3601 0b12 01       		.uleb128 0x1
 3602 0b13 31       		.byte	0x31
 3603 0b14 00       		.byte	0
 3604 0b15 14       		.uleb128 0x14
 3605 0b16 B6000000 		.4byte	.LVL51
 3606 0b1a D1100000 		.4byte	0x10d1
 3607 0b1e 2C0B0000 		.4byte	0xb2c
 3608 0b22 15       		.uleb128 0x15
 3609 0b23 01       		.uleb128 0x1
 3610 0b24 50       		.byte	0x50
 3611 0b25 05       		.uleb128 0x5
 3612 0b26 03       		.byte	0x3
 3613 0b27 20000000 		.4byte	.LC13
 3614 0b2b 00       		.byte	0
 3615 0b2c 18       		.uleb128 0x18
 3616 0b2d C2080000 		.4byte	.LVL163
 3617 0b31 89120000 		.4byte	0x1289
 3618 0b35 00       		.byte	0
 3619 0b36 21       		.uleb128 0x21
 3620 0b37 B4060000 		.4byte	.LASF172
 3621 0b3b 01       		.byte	0x1
 3622 0b3c 31       		.byte	0x31
 3623 0b3d 470B0000 		.4byte	0xb47
 3624 0b41 05       		.uleb128 0x5
 3625 0b42 03       		.byte	0x3
 3626 0b43 00000000 		.4byte	task_flag
 3627 0b47 06       		.uleb128 0x6
 3628 0b48 CA000000 		.4byte	0xca
 3629 0b4c 21       		.uleb128 0x21
 3630 0b4d 96000000 		.4byte	.LASF173
 3631 0b51 01       		.byte	0x1
 3632 0b52 32       		.byte	0x32
 3633 0b53 470B0000 		.4byte	0xb47
 3634 0b57 05       		.uleb128 0x5
 3635 0b58 03       		.byte	0x3
 3636 0b59 00000000 		.4byte	blink_cnt
 3637 0b5d 21       		.uleb128 0x21
 3638 0b5e 8E0F0000 		.4byte	.LASF174
 3639 0b62 01       		.byte	0x1
 3640 0b63 33       		.byte	0x33
 3641 0b64 2D010000 		.4byte	0x12d
 3642 0b68 05       		.uleb128 0x5
ARM GAS  C:\Users\Sven\AppData\Local\Temp\cc7IOcoT.s 			page 88


 3643 0b69 03       		.byte	0x3
 3644 0b6a 00000000 		.4byte	sample_time
 3645 0b6e 21       		.uleb128 0x21
 3646 0b6f 820C0000 		.4byte	.LASF175
 3647 0b73 01       		.byte	0x1
 3648 0b74 38       		.byte	0x38
 3649 0b75 CA000000 		.4byte	0xca
 3650 0b79 05       		.uleb128 0x5
 3651 0b7a 03       		.byte	0x3
 3652 0b7b 00000000 		.4byte	PPM_channel
 3653 0b7f 0D       		.uleb128 0xd
 3654 0b80 E0000000 		.4byte	0xe0
 3655 0b84 8F0B0000 		.4byte	0xb8f
 3656 0b88 0E       		.uleb128 0xe
 3657 0b89 57010000 		.4byte	0x157
 3658 0b8d 07       		.byte	0x7
 3659 0b8e 00       		.byte	0
 3660 0b8f 21       		.uleb128 0x21
 3661 0b90 6E010000 		.4byte	.LASF176
 3662 0b94 01       		.byte	0x1
 3663 0b95 39       		.byte	0x39
 3664 0b96 7F0B0000 		.4byte	0xb7f
 3665 0b9a 05       		.uleb128 0x5
 3666 0b9b 03       		.byte	0x3
 3667 0b9c 00000000 		.4byte	ctrl_in
 3668 0ba0 0D       		.uleb128 0xd
 3669 0ba1 E0000000 		.4byte	0xe0
 3670 0ba5 B00B0000 		.4byte	0xbb0
 3671 0ba9 0E       		.uleb128 0xe
 3672 0baa 57010000 		.4byte	0x157
 3673 0bae 0C       		.byte	0xc
 3674 0baf 00       		.byte	0
 3675 0bb0 21       		.uleb128 0x21
 3676 0bb1 76010000 		.4byte	.LASF177
 3677 0bb5 01       		.byte	0x1
 3678 0bb6 3A       		.byte	0x3a
 3679 0bb7 A00B0000 		.4byte	0xba0
 3680 0bbb 05       		.uleb128 0x5
 3681 0bbc 03       		.byte	0x3
 3682 0bbd 00000000 		.4byte	ctrl_out
 3683 0bc1 0D       		.uleb128 0xd
 3684 0bc2 E0000000 		.4byte	0xe0
 3685 0bc6 D10B0000 		.4byte	0xbd1
 3686 0bca 0E       		.uleb128 0xe
 3687 0bcb 57010000 		.4byte	0x157
 3688 0bcf 04       		.byte	0x4
 3689 0bd0 00       		.byte	0
 3690 0bd1 21       		.uleb128 0x21
 3691 0bd2 84060000 		.4byte	.LASF178
 3692 0bd6 01       		.byte	0x1
 3693 0bd7 48       		.byte	0x48
 3694 0bd8 C10B0000 		.4byte	0xbc1
 3695 0bdc 05       		.uleb128 0x5
 3696 0bdd 03       		.byte	0x3
 3697 0bde 00000000 		.4byte	ctrl_in_trim
 3698 0be2 21       		.uleb128 0x21
 3699 0be3 53000000 		.4byte	.LASF179
ARM GAS  C:\Users\Sven\AppData\Local\Temp\cc7IOcoT.s 			page 89


 3700 0be7 01       		.byte	0x1
 3701 0be8 4D       		.byte	0x4d
 3702 0be9 C10B0000 		.4byte	0xbc1
 3703 0bed 05       		.uleb128 0x5
 3704 0bee 03       		.byte	0x3
 3705 0bef 00000000 		.4byte	ctrl_out_PID
 3706 0bf3 21       		.uleb128 0x21
 3707 0bf4 7B0D0000 		.4byte	.LASF180
 3708 0bf8 01       		.byte	0x1
 3709 0bf9 4E       		.byte	0x4e
 3710 0bfa C10B0000 		.4byte	0xbc1
 3711 0bfe 05       		.uleb128 0x5
 3712 0bff 03       		.byte	0x3
 3713 0c00 00000000 		.4byte	ctrl_out_DAMP
 3714 0c04 21       		.uleb128 0x21
 3715 0c05 AF040000 		.4byte	.LASF181
 3716 0c09 01       		.byte	0x1
 3717 0c0a 6B       		.byte	0x6b
 3718 0c0b CA000000 		.4byte	0xca
 3719 0c0f 05       		.uleb128 0x5
 3720 0c10 03       		.byte	0x3
 3721 0c11 00000000 		.4byte	receiver_connected
 3722 0c15 21       		.uleb128 0x21
 3723 0c16 EB050000 		.4byte	.LASF182
 3724 0c1a 01       		.byte	0x1
 3725 0c1b 70       		.byte	0x70
 3726 0c1c CA000000 		.4byte	0xca
 3727 0c20 05       		.uleb128 0x5
 3728 0c21 03       		.byte	0x3
 3729 0c22 00000000 		.4byte	Ctrl_Mode
 3730 0c26 21       		.uleb128 0x21
 3731 0c27 680D0000 		.4byte	.LASF183
 3732 0c2b 01       		.byte	0x1
 3733 0c2c 87       		.byte	0x87
 3734 0c2d CA000000 		.4byte	0xca
 3735 0c31 05       		.uleb128 0x5
 3736 0c32 03       		.byte	0x3
 3737 0c33 00000000 		.4byte	flag_LightsEnabled
 3738 0c37 21       		.uleb128 0x21
 3739 0c38 10050000 		.4byte	.LASF184
 3740 0c3c 01       		.byte	0x1
 3741 0c3d 8A       		.byte	0x8a
 3742 0c3e CA000000 		.4byte	0xca
 3743 0c42 05       		.uleb128 0x5
 3744 0c43 03       		.byte	0x3
 3745 0c44 00000000 		.4byte	flag_NavLightPulse
 3746 0c48 21       		.uleb128 0x21
 3747 0c49 2D0A0000 		.4byte	.LASF185
 3748 0c4d 01       		.byte	0x1
 3749 0c4e 8B       		.byte	0x8b
 3750 0c4f E0000000 		.4byte	0xe0
 3751 0c53 05       		.uleb128 0x5
 3752 0c54 03       		.byte	0x3
 3753 0c55 00000000 		.4byte	NavLightBright
 3754 0c59 21       		.uleb128 0x21
 3755 0c5a E6040000 		.4byte	.LASF186
 3756 0c5e 01       		.byte	0x1
ARM GAS  C:\Users\Sven\AppData\Local\Temp\cc7IOcoT.s 			page 90


 3757 0c5f 8C       		.byte	0x8c
 3758 0c60 E0000000 		.4byte	0xe0
 3759 0c64 05       		.uleb128 0x5
 3760 0c65 03       		.byte	0x3
 3761 0c66 00000000 		.4byte	NavLightDim
 3762 0c6a 21       		.uleb128 0x21
 3763 0c6b 1F030000 		.4byte	.LASF187
 3764 0c6f 01       		.byte	0x1
 3765 0c70 8D       		.byte	0x8d
 3766 0c71 E0000000 		.4byte	0xe0
 3767 0c75 05       		.uleb128 0x5
 3768 0c76 03       		.byte	0x3
 3769 0c77 00000000 		.4byte	NavLightStep
 3770 0c7b 21       		.uleb128 0x21
 3771 0c7c 7E0F0000 		.4byte	.LASF188
 3772 0c80 01       		.byte	0x1
 3773 0c81 8E       		.byte	0x8e
 3774 0c82 E0000000 		.4byte	0xe0
 3775 0c86 05       		.uleb128 0x5
 3776 0c87 03       		.byte	0x3
 3777 0c88 00000000 		.4byte	NavLightCompare
 3778 0c8c 21       		.uleb128 0x21
 3779 0c8d F60A0000 		.4byte	.LASF189
 3780 0c91 01       		.byte	0x1
 3781 0c92 90       		.byte	0x90
 3782 0c93 CA000000 		.4byte	0xca
 3783 0c97 05       		.uleb128 0x5
 3784 0c98 03       		.byte	0x3
 3785 0c99 00000000 		.4byte	cnt_StrobeLight
 3786 0c9d 21       		.uleb128 0x21
 3787 0c9e 38090000 		.4byte	.LASF190
 3788 0ca2 01       		.byte	0x1
 3789 0ca3 98       		.byte	0x98
 3790 0ca4 D5000000 		.4byte	0xd5
 3791 0ca8 05       		.uleb128 0x5
 3792 0ca9 03       		.byte	0x3
 3793 0caa 00000000 		.4byte	turn_rate_p
 3794 0cae 21       		.uleb128 0x21
 3795 0caf 44090000 		.4byte	.LASF191
 3796 0cb3 01       		.byte	0x1
 3797 0cb4 99       		.byte	0x99
 3798 0cb5 D5000000 		.4byte	0xd5
 3799 0cb9 05       		.uleb128 0x5
 3800 0cba 03       		.byte	0x3
 3801 0cbb 00000000 		.4byte	turn_rate_q
 3802 0cbf 21       		.uleb128 0x21
 3803 0cc0 50090000 		.4byte	.LASF192
 3804 0cc4 01       		.byte	0x1
 3805 0cc5 9A       		.byte	0x9a
 3806 0cc6 D5000000 		.4byte	0xd5
 3807 0cca 05       		.uleb128 0x5
 3808 0ccb 03       		.byte	0x3
 3809 0ccc 00000000 		.4byte	turn_rate_r
 3810 0cd0 21       		.uleb128 0x21
 3811 0cd1 B10B0000 		.4byte	.LASF193
 3812 0cd5 01       		.byte	0x1
 3813 0cd6 9C       		.byte	0x9c
ARM GAS  C:\Users\Sven\AppData\Local\Temp\cc7IOcoT.s 			page 91


 3814 0cd7 D5000000 		.4byte	0xd5
 3815 0cdb 05       		.uleb128 0x5
 3816 0cdc 03       		.byte	0x3
 3817 0cdd 00000000 		.4byte	acc_x_g
 3818 0ce1 21       		.uleb128 0x21
 3819 0ce2 F8010000 		.4byte	.LASF194
 3820 0ce6 01       		.byte	0x1
 3821 0ce7 9D       		.byte	0x9d
 3822 0ce8 D5000000 		.4byte	0xd5
 3823 0cec 05       		.uleb128 0x5
 3824 0ced 03       		.byte	0x3
 3825 0cee 00000000 		.4byte	acc_y_g
 3826 0cf2 21       		.uleb128 0x21
 3827 0cf3 82090000 		.4byte	.LASF195
 3828 0cf7 01       		.byte	0x1
 3829 0cf8 9E       		.byte	0x9e
 3830 0cf9 D5000000 		.4byte	0xd5
 3831 0cfd 05       		.uleb128 0x5
 3832 0cfe 03       		.byte	0x3
 3833 0cff 00000000 		.4byte	acc_z_g
 3834 0d03 21       		.uleb128 0x21
 3835 0d04 600D0000 		.4byte	.LASF196
 3836 0d08 01       		.byte	0x1
 3837 0d09 A0       		.byte	0xa0
 3838 0d0a D5000000 		.4byte	0xd5
 3839 0d0e 05       		.uleb128 0x5
 3840 0d0f 03       		.byte	0x3
 3841 0d10 00000000 		.4byte	mag_x_g
 3842 0d14 21       		.uleb128 0x21
 3843 0d15 88030000 		.4byte	.LASF197
 3844 0d19 01       		.byte	0x1
 3845 0d1a A1       		.byte	0xa1
 3846 0d1b D5000000 		.4byte	0xd5
 3847 0d1f 05       		.uleb128 0x5
 3848 0d20 03       		.byte	0x3
 3849 0d21 00000000 		.4byte	mag_y_g
 3850 0d25 21       		.uleb128 0x21
 3851 0d26 3C0A0000 		.4byte	.LASF198
 3852 0d2a 01       		.byte	0x1
 3853 0d2b A2       		.byte	0xa2
 3854 0d2c D5000000 		.4byte	0xd5
 3855 0d30 05       		.uleb128 0x5
 3856 0d31 03       		.byte	0x3
 3857 0d32 00000000 		.4byte	mag_z_g
 3858 0d36 21       		.uleb128 0x21
 3859 0d37 39060000 		.4byte	.LASF199
 3860 0d3b 01       		.byte	0x1
 3861 0d3c A5       		.byte	0xa5
 3862 0d3d 2D010000 		.4byte	0x12d
 3863 0d41 05       		.uleb128 0x5
 3864 0d42 03       		.byte	0x3
 3865 0d43 00000000 		.4byte	Theta
 3866 0d47 21       		.uleb128 0x21
 3867 0d48 E1050000 		.4byte	.LASF200
 3868 0d4c 01       		.byte	0x1
 3869 0d4d A5       		.byte	0xa5
 3870 0d4e 2D010000 		.4byte	0x12d
ARM GAS  C:\Users\Sven\AppData\Local\Temp\cc7IOcoT.s 			page 92


 3871 0d52 05       		.uleb128 0x5
 3872 0d53 03       		.byte	0x3
 3873 0d54 00000000 		.4byte	Theta_Mav
 3874 0d58 21       		.uleb128 0x21
 3875 0d59 BE060000 		.4byte	.LASF201
 3876 0d5d 01       		.byte	0x1
 3877 0d5e A5       		.byte	0xa5
 3878 0d5f 2D010000 		.4byte	0x12d
 3879 0d63 05       		.uleb128 0x5
 3880 0d64 03       		.byte	0x3
 3881 0d65 00000000 		.4byte	Theta_acc
 3882 0d69 21       		.uleb128 0x21
 3883 0d6a 76050000 		.4byte	.LASF202
 3884 0d6e 01       		.byte	0x1
 3885 0d6f A5       		.byte	0xa5
 3886 0d70 2D010000 		.4byte	0x12d
 3887 0d74 05       		.uleb128 0x5
 3888 0d75 03       		.byte	0x3
 3889 0d76 00000000 		.4byte	Theta_meas
 3890 0d7a 22       		.uleb128 0x22
 3891 0d7b 50686900 		.ascii	"Phi\000"
 3892 0d7f 01       		.byte	0x1
 3893 0d80 A6       		.byte	0xa6
 3894 0d81 2D010000 		.4byte	0x12d
 3895 0d85 05       		.uleb128 0x5
 3896 0d86 03       		.byte	0x3
 3897 0d87 00000000 		.4byte	Phi
 3898 0d8b 21       		.uleb128 0x21
 3899 0d8c 80030000 		.4byte	.LASF203
 3900 0d90 01       		.byte	0x1
 3901 0d91 A6       		.byte	0xa6
 3902 0d92 2D010000 		.4byte	0x12d
 3903 0d96 05       		.uleb128 0x5
 3904 0d97 03       		.byte	0x3
 3905 0d98 00000000 		.4byte	Phi_Mav
 3906 0d9c 21       		.uleb128 0x21
 3907 0d9d 86040000 		.4byte	.LASF204
 3908 0da1 01       		.byte	0x1
 3909 0da2 A6       		.byte	0xa6
 3910 0da3 2D010000 		.4byte	0x12d
 3911 0da7 05       		.uleb128 0x5
 3912 0da8 03       		.byte	0x3
 3913 0da9 00000000 		.4byte	Phi_acc
 3914 0dad 21       		.uleb128 0x21
 3915 0dae 10060000 		.4byte	.LASF205
 3916 0db2 01       		.byte	0x1
 3917 0db3 A6       		.byte	0xa6
 3918 0db4 2D010000 		.4byte	0x12d
 3919 0db8 05       		.uleb128 0x5
 3920 0db9 03       		.byte	0x3
 3921 0dba 00000000 		.4byte	Phi_meas
 3922 0dbe 22       		.uleb128 0x22
 3923 0dbf 50736900 		.ascii	"Psi\000"
 3924 0dc3 01       		.byte	0x1
 3925 0dc4 A7       		.byte	0xa7
 3926 0dc5 2D010000 		.4byte	0x12d
 3927 0dc9 05       		.uleb128 0x5
ARM GAS  C:\Users\Sven\AppData\Local\Temp\cc7IOcoT.s 			page 93


 3928 0dca 03       		.byte	0x3
 3929 0dcb 00000000 		.4byte	Psi
 3930 0dcf 21       		.uleb128 0x21
 3931 0dd0 32100000 		.4byte	.LASF206
 3932 0dd4 01       		.byte	0x1
 3933 0dd5 A7       		.byte	0xa7
 3934 0dd6 2D010000 		.4byte	0x12d
 3935 0dda 05       		.uleb128 0x5
 3936 0ddb 03       		.byte	0x3
 3937 0ddc 00000000 		.4byte	Psi_acc
 3938 0de0 21       		.uleb128 0x21
 3939 0de1 7C0B0000 		.4byte	.LASF207
 3940 0de5 01       		.byte	0x1
 3941 0de6 AA       		.byte	0xaa
 3942 0de7 EB000000 		.4byte	0xeb
 3943 0deb 05       		.uleb128 0x5
 3944 0dec 03       		.byte	0x3
 3945 0ded 00000000 		.4byte	Mag_Heading
 3946 0df1 21       		.uleb128 0x21
 3947 0df2 7A040000 		.4byte	.LASF208
 3948 0df6 01       		.byte	0x1
 3949 0df7 AB       		.byte	0xab
 3950 0df8 2D010000 		.4byte	0x12d
 3951 0dfc 05       		.uleb128 0x5
 3952 0dfd 03       		.byte	0x3
 3953 0dfe 00000000 		.4byte	Mag_x
 3954 0e02 21       		.uleb128 0x21
 3955 0e03 80040000 		.4byte	.LASF209
 3956 0e07 01       		.byte	0x1
 3957 0e08 AB       		.byte	0xab
 3958 0e09 2D010000 		.4byte	0x12d
 3959 0e0d 05       		.uleb128 0x5
 3960 0e0e 03       		.byte	0x3
 3961 0e0f 00000000 		.4byte	Mag_y
 3962 0e13 21       		.uleb128 0x21
 3963 0e14 5C0B0000 		.4byte	.LASF210
 3964 0e18 01       		.byte	0x1
 3965 0e19 AE       		.byte	0xae
 3966 0e1a EB000000 		.4byte	0xeb
 3967 0e1e 05       		.uleb128 0x5
 3968 0e1f 03       		.byte	0x3
 3969 0e20 00000000 		.4byte	Bar_press
 3970 0e24 21       		.uleb128 0x21
 3971 0e25 5C030000 		.4byte	.LASF211
 3972 0e29 01       		.byte	0x1
 3973 0e2a B4       		.byte	0xb4
 3974 0e2b E0000000 		.4byte	0xe0
 3975 0e2f 05       		.uleb128 0x5
 3976 0e30 03       		.byte	0x3
 3977 0e31 00000000 		.4byte	speed_offset
 3978 0e35 21       		.uleb128 0x21
 3979 0e36 40020000 		.4byte	.LASF145
 3980 0e3a 01       		.byte	0x1
 3981 0e3b B5       		.byte	0xb5
 3982 0e3c D5000000 		.4byte	0xd5
 3983 0e40 05       		.uleb128 0x5
 3984 0e41 03       		.byte	0x3
ARM GAS  C:\Users\Sven\AppData\Local\Temp\cc7IOcoT.s 			page 94


 3985 0e42 00000000 		.4byte	speed
 3986 0e46 21       		.uleb128 0x21
 3987 0e47 AA010000 		.4byte	.LASF212
 3988 0e4b 01       		.byte	0x1
 3989 0e4c B6       		.byte	0xb6
 3990 0e4d CA000000 		.4byte	0xca
 3991 0e51 05       		.uleb128 0x5
 3992 0e52 03       		.byte	0x3
 3993 0e53 00000000 		.4byte	cal_cnt
 3994 0e57 21       		.uleb128 0x21
 3995 0e58 50060000 		.4byte	.LASF213
 3996 0e5c 01       		.byte	0x1
 3997 0e5d B7       		.byte	0xb7
 3998 0e5e CA000000 		.4byte	0xca
 3999 0e62 05       		.uleb128 0x5
 4000 0e63 03       		.byte	0x3
 4001 0e64 00000000 		.4byte	speed_cal_compl
 4002 0e68 22       		.uleb128 0x22
 4003 0e69 616C7400 		.ascii	"alt\000"
 4004 0e6d 01       		.byte	0x1
 4005 0e6e BE       		.byte	0xbe
 4006 0e6f EB000000 		.4byte	0xeb
 4007 0e73 05       		.uleb128 0x5
 4008 0e74 03       		.byte	0x3
 4009 0e75 00000000 		.4byte	alt
 4010 0e79 21       		.uleb128 0x21
 4011 0e7a A50E0000 		.4byte	.LASF214
 4012 0e7e 01       		.byte	0x1
 4013 0e7f BF       		.byte	0xbf
 4014 0e80 EB000000 		.4byte	0xeb
 4015 0e84 05       		.uleb128 0x5
 4016 0e85 03       		.byte	0x3
 4017 0e86 00000000 		.4byte	alt_previous
 4018 0e8a 21       		.uleb128 0x21
 4019 0e8b 470C0000 		.4byte	.LASF215
 4020 0e8f 01       		.byte	0x1
 4021 0e90 C0       		.byte	0xc0
 4022 0e91 D5000000 		.4byte	0xd5
 4023 0e95 05       		.uleb128 0x5
 4024 0e96 03       		.byte	0x3
 4025 0e97 00000000 		.4byte	climb_rate
 4026 0e9b 21       		.uleb128 0x21
 4027 0e9c D8050000 		.4byte	.LASF216
 4028 0ea0 01       		.byte	0x1
 4029 0ea1 C3       		.byte	0xc3
 4030 0ea2 CA000000 		.4byte	0xca
 4031 0ea6 05       		.uleb128 0x5
 4032 0ea7 03       		.byte	0x3
 4033 0ea8 00000000 		.4byte	cnt_baro
 4034 0eac 21       		.uleb128 0x21
 4035 0ead 060B0000 		.4byte	.LASF217
 4036 0eb1 01       		.byte	0x1
 4037 0eb2 C4       		.byte	0xc4
 4038 0eb3 EB000000 		.4byte	0xeb
 4039 0eb7 05       		.uleb128 0x5
 4040 0eb8 03       		.byte	0x3
 4041 0eb9 00000000 		.4byte	temp
ARM GAS  C:\Users\Sven\AppData\Local\Temp\cc7IOcoT.s 			page 95


 4042 0ebd 21       		.uleb128 0x21
 4043 0ebe 8F050000 		.4byte	.LASF218
 4044 0ec2 01       		.byte	0x1
 4045 0ec3 C5       		.byte	0xc5
 4046 0ec4 EB000000 		.4byte	0xeb
 4047 0ec8 05       		.uleb128 0x5
 4048 0ec9 03       		.byte	0x3
 4049 0eca 00000000 		.4byte	press
 4050 0ece 22       		.uleb128 0x22
 4051 0ecf 51464500 		.ascii	"QFE\000"
 4052 0ed3 01       		.byte	0x1
 4053 0ed4 C6       		.byte	0xc6
 4054 0ed5 EB000000 		.4byte	0xeb
 4055 0ed9 05       		.uleb128 0x5
 4056 0eda 03       		.byte	0x3
 4057 0edb 00000000 		.4byte	QFE
 4058 0edf 21       		.uleb128 0x21
 4059 0ee0 1B0A0000 		.4byte	.LASF219
 4060 0ee4 01       		.byte	0x1
 4061 0ee5 E5       		.byte	0xe5
 4062 0ee6 CA000000 		.4byte	0xca
 4063 0eea 05       		.uleb128 0x5
 4064 0eeb 03       		.byte	0x3
 4065 0eec 00000000 		.4byte	K_d_p
 4066 0ef0 21       		.uleb128 0x21
 4067 0ef1 210A0000 		.4byte	.LASF220
 4068 0ef5 01       		.byte	0x1
 4069 0ef6 E6       		.byte	0xe6
 4070 0ef7 CA000000 		.4byte	0xca
 4071 0efb 05       		.uleb128 0x5
 4072 0efc 03       		.byte	0x3
 4073 0efd 00000000 		.4byte	K_d_q
 4074 0f01 21       		.uleb128 0x21
 4075 0f02 270A0000 		.4byte	.LASF221
 4076 0f06 01       		.byte	0x1
 4077 0f07 E7       		.byte	0xe7
 4078 0f08 CA000000 		.4byte	0xca
 4079 0f0c 05       		.uleb128 0x5
 4080 0f0d 03       		.byte	0x3
 4081 0f0e 00000000 		.4byte	K_d_r
 4082 0f12 21       		.uleb128 0x21
 4083 0f13 B9090000 		.4byte	.LASF222
 4084 0f17 01       		.byte	0x1
 4085 0f18 EC       		.byte	0xec
 4086 0f19 CA000000 		.4byte	0xca
 4087 0f1d 05       		.uleb128 0x5
 4088 0f1e 03       		.byte	0x3
 4089 0f1f 00000000 		.4byte	tune_cnt
 4090 0f23 21       		.uleb128 0x21
 4091 0f24 D7070000 		.4byte	.LASF223
 4092 0f28 01       		.byte	0x1
 4093 0f29 F1       		.byte	0xf1
 4094 0f2a BF000000 		.4byte	0xbf
 4095 0f2e 05       		.uleb128 0x5
 4096 0f2f 03       		.byte	0x3
 4097 0f30 00000000 		.4byte	Theta_Target
 4098 0f34 21       		.uleb128 0x21
ARM GAS  C:\Users\Sven\AppData\Local\Temp\cc7IOcoT.s 			page 96


 4099 0f35 EB0F0000 		.4byte	.LASF224
 4100 0f39 01       		.byte	0x1
 4101 0f3a F2       		.byte	0xf2
 4102 0f3b BF000000 		.4byte	0xbf
 4103 0f3f 05       		.uleb128 0x5
 4104 0f40 03       		.byte	0x3
 4105 0f41 00000000 		.4byte	Theta_Error
 4106 0f45 21       		.uleb128 0x21
 4107 0f46 9D0D0000 		.4byte	.LASF225
 4108 0f4a 01       		.byte	0x1
 4109 0f4b F3       		.byte	0xf3
 4110 0f4c EB000000 		.4byte	0xeb
 4111 0f50 05       		.uleb128 0x5
 4112 0f51 03       		.byte	0x3
 4113 0f52 00000000 		.4byte	Theta_Error_sum
 4114 0f56 21       		.uleb128 0x21
 4115 0f57 960B0000 		.4byte	.LASF226
 4116 0f5b 01       		.byte	0x1
 4117 0f5c F4       		.byte	0xf4
 4118 0f5d BF000000 		.4byte	0xbf
 4119 0f61 05       		.uleb128 0x5
 4120 0f62 03       		.byte	0x3
 4121 0f63 00000000 		.4byte	Theta_Error_prev
 4122 0f67 21       		.uleb128 0x21
 4123 0f68 20090000 		.4byte	.LASF227
 4124 0f6c 01       		.byte	0x1
 4125 0f6d F6       		.byte	0xf6
 4126 0f6e BF000000 		.4byte	0xbf
 4127 0f72 05       		.uleb128 0x5
 4128 0f73 03       		.byte	0x3
 4129 0f74 00000000 		.4byte	Phi_Target
 4130 0f78 21       		.uleb128 0x21
 4131 0f79 67020000 		.4byte	.LASF228
 4132 0f7d 01       		.byte	0x1
 4133 0f7e F7       		.byte	0xf7
 4134 0f7f BF000000 		.4byte	0xbf
 4135 0f83 05       		.uleb128 0x5
 4136 0f84 03       		.byte	0x3
 4137 0f85 00000000 		.4byte	Phi_Error
 4138 0f89 21       		.uleb128 0x21
 4139 0f8a DE020000 		.4byte	.LASF229
 4140 0f8e 01       		.byte	0x1
 4141 0f8f F8       		.byte	0xf8
 4142 0f90 EB000000 		.4byte	0xeb
 4143 0f94 05       		.uleb128 0x5
 4144 0f95 03       		.byte	0x3
 4145 0f96 00000000 		.4byte	Phi_Error_sum
 4146 0f9a 21       		.uleb128 0x21
 4147 0f9b C1070000 		.4byte	.LASF230
 4148 0f9f 01       		.byte	0x1
 4149 0fa0 F9       		.byte	0xf9
 4150 0fa1 BF000000 		.4byte	0xbf
 4151 0fa5 05       		.uleb128 0x5
 4152 0fa6 03       		.byte	0x3
 4153 0fa7 00000000 		.4byte	Phi_Error_prev
 4154 0fab 21       		.uleb128 0x21
 4155 0fac 110F0000 		.4byte	.LASF231
ARM GAS  C:\Users\Sven\AppData\Local\Temp\cc7IOcoT.s 			page 97


 4156 0fb0 01       		.byte	0x1
 4157 0fb1 FE       		.byte	0xfe
 4158 0fb2 CA000000 		.4byte	0xca
 4159 0fb6 05       		.uleb128 0x5
 4160 0fb7 03       		.byte	0x3
 4161 0fb8 00000000 		.4byte	Rx_char
 4162 0fbc 21       		.uleb128 0x21
 4163 0fbd AF090000 		.4byte	.LASF232
 4164 0fc1 01       		.byte	0x1
 4165 0fc2 FF       		.byte	0xff
 4166 0fc3 06040000 		.4byte	0x406
 4167 0fc7 05       		.uleb128 0x5
 4168 0fc8 03       		.byte	0x3
 4169 0fc9 00000000 		.4byte	Rx_String
 4170 0fcd 23       		.uleb128 0x23
 4171 0fce 600E0000 		.4byte	.LASF233
 4172 0fd2 01       		.byte	0x1
 4173 0fd3 0001     		.2byte	0x100
 4174 0fd5 CA000000 		.4byte	0xca
 4175 0fd9 05       		.uleb128 0x5
 4176 0fda 03       		.byte	0x3
 4177 0fdb 00000000 		.4byte	Rx_index
 4178 0fdf 23       		.uleb128 0x23
 4179 0fe0 BF0D0000 		.4byte	.LASF234
 4180 0fe4 01       		.byte	0x1
 4181 0fe5 0101     		.2byte	0x101
 4182 0fe7 CA000000 		.4byte	0xca
 4183 0feb 05       		.uleb128 0x5
 4184 0fec 03       		.byte	0x3
 4185 0fed 00000000 		.4byte	Rx_flag
 4186 0ff1 23       		.uleb128 0x23
 4187 0ff2 D7040000 		.4byte	.LASF235
 4188 0ff6 01       		.byte	0x1
 4189 0ff7 0701     		.2byte	0x107
 4190 0ff9 9B010000 		.4byte	0x19b
 4191 0ffd 05       		.uleb128 0x5
 4192 0ffe 03       		.byte	0x3
 4193 0fff 00000000 		.4byte	mavlink_system
 4194 1003 23       		.uleb128 0x23
 4195 1004 13030000 		.4byte	.LASF236
 4196 1008 01       		.byte	0x1
 4197 1009 0901     		.2byte	0x109
 4198 100b CA000000 		.4byte	0xca
 4199 100f 05       		.uleb128 0x5
 4200 1010 03       		.byte	0x3
 4201 1011 00000000 		.4byte	system_type
 4202 1015 23       		.uleb128 0x23
 4203 1016 27020000 		.4byte	.LASF237
 4204 101a 01       		.byte	0x1
 4205 101b 0A01     		.2byte	0x10a
 4206 101d CA000000 		.4byte	0xca
 4207 1021 05       		.uleb128 0x5
 4208 1022 03       		.byte	0x3
 4209 1023 00000000 		.4byte	autopilot_type
 4210 1027 23       		.uleb128 0x23
 4211 1028 F5050000 		.4byte	.LASF238
 4212 102c 01       		.byte	0x1
ARM GAS  C:\Users\Sven\AppData\Local\Temp\cc7IOcoT.s 			page 98


 4213 102d 0C01     		.2byte	0x10c
 4214 102f CA000000 		.4byte	0xca
 4215 1033 05       		.uleb128 0x5
 4216 1034 03       		.byte	0x3
 4217 1035 00000000 		.4byte	system_mode
 4218 1039 23       		.uleb128 0x23
 4219 103a 490D0000 		.4byte	.LASF239
 4220 103e 01       		.byte	0x1
 4221 103f 0D01     		.2byte	0x10d
 4222 1041 F6000000 		.4byte	0xf6
 4223 1045 05       		.uleb128 0x5
 4224 1046 03       		.byte	0x3
 4225 1047 00000000 		.4byte	custom_mode
 4226 104b 23       		.uleb128 0x23
 4227 104c 28010000 		.4byte	.LASF240
 4228 1050 01       		.byte	0x1
 4229 1051 0E01     		.2byte	0x10e
 4230 1053 CA000000 		.4byte	0xca
 4231 1057 05       		.uleb128 0x5
 4232 1058 03       		.byte	0x3
 4233 1059 00000000 		.4byte	system_state
 4234 105d 24       		.uleb128 0x24
 4235 105e 6D736700 		.ascii	"msg\000"
 4236 1062 01       		.byte	0x1
 4237 1063 1101     		.2byte	0x111
 4238 1065 24020000 		.4byte	0x224
 4239 1069 05       		.uleb128 0x5
 4240 106a 03       		.byte	0x3
 4241 106b 00000000 		.4byte	msg
 4242 106f 0D       		.uleb128 0xd
 4243 1070 CA000000 		.4byte	0xca
 4244 1074 80100000 		.4byte	0x1080
 4245 1078 25       		.uleb128 0x25
 4246 1079 57010000 		.4byte	0x157
 4247 107d 0601     		.2byte	0x106
 4248 107f 00       		.byte	0
 4249 1080 24       		.uleb128 0x24
 4250 1081 62756600 		.ascii	"buf\000"
 4251 1085 01       		.byte	0x1
 4252 1086 1201     		.2byte	0x112
 4253 1088 6F100000 		.4byte	0x106f
 4254 108c 05       		.uleb128 0x5
 4255 108d 03       		.byte	0x3
 4256 108e 00000000 		.4byte	buf
 4257 1092 23       		.uleb128 0x23
 4258 1093 B4050000 		.4byte	.LASF241
 4259 1097 01       		.byte	0x1
 4260 1098 1401     		.2byte	0x114
 4261 109a CA000000 		.4byte	0xca
 4262 109e 05       		.uleb128 0x5
 4263 109f 03       		.byte	0x3
 4264 10a0 00000000 		.4byte	cnt_ML_HEARTBEAT_send
 4265 10a4 23       		.uleb128 0x23
 4266 10a5 41010000 		.4byte	.LASF242
 4267 10a9 01       		.byte	0x1
 4268 10aa 1501     		.2byte	0x115
 4269 10ac CA000000 		.4byte	0xca
ARM GAS  C:\Users\Sven\AppData\Local\Temp\cc7IOcoT.s 			page 99


 4270 10b0 05       		.uleb128 0x5
 4271 10b1 03       		.byte	0x3
 4272 10b2 00000000 		.4byte	cnt_ML_ATTITUDE_send
 4273 10b6 26       		.uleb128 0x26
 4274 10b7 C2090000 		.4byte	.LASF245
 4275 10bb 08       		.byte	0x8
 4276 10bc D9       		.byte	0xd9
 4277 10bd B1000000 		.4byte	0xb1
 4278 10c1 D1100000 		.4byte	0x10d1
 4279 10c5 27       		.uleb128 0x27
 4280 10c6 5E010000 		.4byte	0x15e
 4281 10ca 27       		.uleb128 0x27
 4282 10cb 64010000 		.4byte	0x164
 4283 10cf 28       		.uleb128 0x28
 4284 10d0 00       		.byte	0
 4285 10d1 29       		.uleb128 0x29
 4286 10d2 95010000 		.4byte	.LASF243
 4287 10d6 07       		.byte	0x7
 4288 10d7 6801     		.2byte	0x168
 4289 10d9 E3100000 		.4byte	0x10e3
 4290 10dd 27       		.uleb128 0x27
 4291 10de E3100000 		.4byte	0x10e3
 4292 10e2 00       		.byte	0
 4293 10e3 07       		.uleb128 0x7
 4294 10e4 04       		.byte	0x4
 4295 10e5 E9100000 		.4byte	0x10e9
 4296 10e9 08       		.uleb128 0x8
 4297 10ea 34010000 		.4byte	0x134
 4298 10ee 29       		.uleb128 0x29
 4299 10ef 00020000 		.4byte	.LASF244
 4300 10f3 07       		.byte	0x7
 4301 10f4 7D01     		.2byte	0x17d
 4302 10f6 00110000 		.4byte	0x1100
 4303 10fa 27       		.uleb128 0x27
 4304 10fb 17010000 		.4byte	0x117
 4305 10ff 00       		.byte	0
 4306 1100 2A       		.uleb128 0x2a
 4307 1101 360C0000 		.4byte	.LASF247
 4308 1105 09       		.byte	0x9
 4309 1106 9C       		.byte	0x9c
 4310 1107 26       		.uleb128 0x26
 4311 1108 E60C0000 		.4byte	.LASF246
 4312 110c 09       		.byte	0x9
 4313 110d 9F       		.byte	0x9f
 4314 110e 22010000 		.4byte	0x122
 4315 1112 1C110000 		.4byte	0x111c
 4316 1116 27       		.uleb128 0x27
 4317 1117 17010000 		.4byte	0x117
 4318 111b 00       		.byte	0
 4319 111c 2A       		.uleb128 0x2a
 4320 111d FB0D0000 		.4byte	.LASF248
 4321 1121 09       		.byte	0x9
 4322 1122 9D       		.byte	0x9d
 4323 1123 29       		.uleb128 0x29
 4324 1124 0E0C0000 		.4byte	.LASF249
 4325 1128 0A       		.byte	0xa
 4326 1129 5401     		.2byte	0x154
ARM GAS  C:\Users\Sven\AppData\Local\Temp\cc7IOcoT.s 			page 100


 4327 112b 35110000 		.4byte	0x1135
 4328 112f 27       		.uleb128 0x27
 4329 1130 17010000 		.4byte	0x117
 4330 1134 00       		.byte	0
 4331 1135 2B       		.uleb128 0x2b
 4332 1136 300E0000 		.4byte	.LASF250
 4333 113a 0B       		.byte	0xb
 4334 113b 1D       		.byte	0x1d
 4335 113c 46110000 		.4byte	0x1146
 4336 1140 27       		.uleb128 0x27
 4337 1141 0C010000 		.4byte	0x10c
 4338 1145 00       		.byte	0
 4339 1146 2B       		.uleb128 0x2b
 4340 1147 C70D0000 		.4byte	.LASF251
 4341 114b 0C       		.byte	0xc
 4342 114c 1D       		.byte	0x1d
 4343 114d 57110000 		.4byte	0x1157
 4344 1151 27       		.uleb128 0x27
 4345 1152 0C010000 		.4byte	0x10c
 4346 1156 00       		.byte	0
 4347 1157 2A       		.uleb128 0x2a
 4348 1158 0B0B0000 		.4byte	.LASF252
 4349 115c 0D       		.byte	0xd
 4350 115d 24       		.byte	0x24
 4351 115e 2C       		.uleb128 0x2c
 4352 115f FC0F0000 		.4byte	.LASF254
 4353 1163 0D       		.byte	0xd
 4354 1164 25       		.byte	0x25
 4355 1165 EB000000 		.4byte	0xeb
 4356 1169 2A       		.uleb128 0x2a
 4357 116a A90C0000 		.4byte	.LASF253
 4358 116e 0D       		.byte	0xd
 4359 116f 27       		.byte	0x27
 4360 1170 2C       		.uleb128 0x2c
 4361 1171 C8000000 		.4byte	.LASF255
 4362 1175 0D       		.byte	0xd
 4363 1176 28       		.byte	0x28
 4364 1177 EB000000 		.4byte	0xeb
 4365 117b 26       		.uleb128 0x26
 4366 117c F60C0000 		.4byte	.LASF256
 4367 1180 0E       		.byte	0xe
 4368 1181 7E       		.byte	0x7e
 4369 1182 25000000 		.4byte	0x25
 4370 1186 95110000 		.4byte	0x1195
 4371 118a 27       		.uleb128 0x27
 4372 118b 25000000 		.4byte	0x25
 4373 118f 27       		.uleb128 0x27
 4374 1190 25000000 		.4byte	0x25
 4375 1194 00       		.byte	0
 4376 1195 26       		.uleb128 0x26
 4377 1196 1B100000 		.4byte	.LASF257
 4378 119a 0F       		.byte	0xf
 4379 119b 1C       		.byte	0x1c
 4380 119c B1000000 		.4byte	0xb1
 4381 11a0 AF110000 		.4byte	0x11af
 4382 11a4 27       		.uleb128 0x27
 4383 11a5 64010000 		.4byte	0x164
ARM GAS  C:\Users\Sven\AppData\Local\Temp\cc7IOcoT.s 			page 101


 4384 11a9 27       		.uleb128 0x27
 4385 11aa 64010000 		.4byte	0x164
 4386 11ae 00       		.byte	0
 4387 11af 2B       		.uleb128 0x2b
 4388 11b0 26000000 		.4byte	.LASF258
 4389 11b4 10       		.byte	0x10
 4390 11b5 7B       		.byte	0x7b
 4391 11b6 C0110000 		.4byte	0x11c0
 4392 11ba 27       		.uleb128 0x27
 4393 11bb 17010000 		.4byte	0x117
 4394 11bf 00       		.byte	0
 4395 11c0 2A       		.uleb128 0x2a
 4396 11c1 47040000 		.4byte	.LASF259
 4397 11c5 11       		.byte	0x11
 4398 11c6 58       		.byte	0x58
 4399 11c7 2B       		.uleb128 0x2b
 4400 11c8 97070000 		.4byte	.LASF260
 4401 11cc 10       		.byte	0x10
 4402 11cd 4C       		.byte	0x4c
 4403 11ce D8110000 		.4byte	0x11d8
 4404 11d2 27       		.uleb128 0x27
 4405 11d3 17010000 		.4byte	0x117
 4406 11d7 00       		.byte	0
 4407 11d8 26       		.uleb128 0x26
 4408 11d9 5E070000 		.4byte	.LASF261
 4409 11dd 10       		.byte	0x10
 4410 11de 85       		.byte	0x85
 4411 11df 17010000 		.4byte	0x117
 4412 11e3 ED110000 		.4byte	0x11ed
 4413 11e7 27       		.uleb128 0x27
 4414 11e8 17010000 		.4byte	0x117
 4415 11ec 00       		.byte	0
 4416 11ed 2A       		.uleb128 0x2a
 4417 11ee EE0B0000 		.4byte	.LASF262
 4418 11f2 12       		.byte	0x12
 4419 11f3 65       		.byte	0x65
 4420 11f4 2A       		.uleb128 0x2a
 4421 11f5 550D0000 		.4byte	.LASF263
 4422 11f9 13       		.byte	0x13
 4423 11fa 65       		.byte	0x65
 4424 11fb 2A       		.uleb128 0x2a
 4425 11fc 8E040000 		.4byte	.LASF264
 4426 1200 09       		.byte	0x9
 4427 1201 98       		.byte	0x98
 4428 1202 2B       		.uleb128 0x2b
 4429 1203 AD0D0000 		.4byte	.LASF265
 4430 1207 10       		.byte	0x10
 4431 1208 3C       		.byte	0x3c
 4432 1209 18120000 		.4byte	0x1218
 4433 120d 27       		.uleb128 0x27
 4434 120e 17010000 		.4byte	0x117
 4435 1212 27       		.uleb128 0x27
 4436 1213 17010000 		.4byte	0x117
 4437 1217 00       		.byte	0
 4438 1218 2B       		.uleb128 0x2b
 4439 1219 CB0B0000 		.4byte	.LASF266
 4440 121d 10       		.byte	0x10
ARM GAS  C:\Users\Sven\AppData\Local\Temp\cc7IOcoT.s 			page 102


 4441 121e 45       		.byte	0x45
 4442 121f 2E120000 		.4byte	0x122e
 4443 1223 27       		.uleb128 0x27
 4444 1224 17010000 		.4byte	0x117
 4445 1228 27       		.uleb128 0x27
 4446 1229 17010000 		.4byte	0x117
 4447 122d 00       		.byte	0
 4448 122e 2D       		.uleb128 0x2d
 4449 122f 08010000 		.4byte	.LASF267
 4450 1233 14       		.byte	0x14
 4451 1234 3101     		.2byte	0x131
 4452 1236 2D       		.uleb128 0x2d
 4453 1237 07090000 		.4byte	.LASF268
 4454 123b 0A       		.byte	0xa
 4455 123c 3101     		.2byte	0x131
 4456 123e 2D       		.uleb128 0x2d
 4457 123f 710C0000 		.4byte	.LASF269
 4458 1243 15       		.byte	0x15
 4459 1244 3101     		.2byte	0x131
 4460 1246 2D       		.uleb128 0x2d
 4461 1247 FE060000 		.4byte	.LASF270
 4462 124b 16       		.byte	0x16
 4463 124c 3101     		.2byte	0x131
 4464 124e 2A       		.uleb128 0x2a
 4465 124f E2000000 		.4byte	.LASF271
 4466 1253 17       		.byte	0x17
 4467 1254 17       		.byte	0x17
 4468 1255 2A       		.uleb128 0x2a
 4469 1256 72090000 		.4byte	.LASF272
 4470 125a 18       		.byte	0x18
 4471 125b 17       		.byte	0x17
 4472 125c 2A       		.uleb128 0x2a
 4473 125d DC0F0000 		.4byte	.LASF273
 4474 1261 19       		.byte	0x19
 4475 1262 17       		.byte	0x17
 4476 1263 2A       		.uleb128 0x2a
 4477 1264 0E0D0000 		.4byte	.LASF274
 4478 1268 1A       		.byte	0x1a
 4479 1269 17       		.byte	0x17
 4480 126a 2A       		.uleb128 0x2a
 4481 126b 530A0000 		.4byte	.LASF275
 4482 126f 1B       		.byte	0x1b
 4483 1270 17       		.byte	0x17
 4484 1271 2A       		.uleb128 0x2a
 4485 1272 940E0000 		.4byte	.LASF276
 4486 1276 0D       		.byte	0xd
 4487 1277 22       		.byte	0x22
 4488 1278 2B       		.uleb128 0x2b
 4489 1279 440A0000 		.4byte	.LASF277
 4490 127d 10       		.byte	0x10
 4491 127e 41       		.byte	0x41
 4492 127f 89120000 		.4byte	0x1289
 4493 1283 27       		.uleb128 0x27
 4494 1284 17010000 		.4byte	0x117
 4495 1288 00       		.byte	0
 4496 1289 2E       		.uleb128 0x2e
 4497 128a B10A0000 		.4byte	.LASF278
ARM GAS  C:\Users\Sven\AppData\Local\Temp\cc7IOcoT.s 			page 103


 4498 128e 07       		.byte	0x7
 4499 128f 5B01     		.2byte	0x15b
 4500 1291 17010000 		.4byte	0x117
 4501 1295 00       		.byte	0
 4502              		.section	.debug_abbrev,"",%progbits
 4503              	.Ldebug_abbrev0:
 4504 0000 01       		.uleb128 0x1
 4505 0001 11       		.uleb128 0x11
 4506 0002 01       		.byte	0x1
 4507 0003 25       		.uleb128 0x25
 4508 0004 0E       		.uleb128 0xe
 4509 0005 13       		.uleb128 0x13
 4510 0006 0B       		.uleb128 0xb
 4511 0007 03       		.uleb128 0x3
 4512 0008 0E       		.uleb128 0xe
 4513 0009 1B       		.uleb128 0x1b
 4514 000a 0E       		.uleb128 0xe
 4515 000b 55       		.uleb128 0x55
 4516 000c 17       		.uleb128 0x17
 4517 000d 11       		.uleb128 0x11
 4518 000e 01       		.uleb128 0x1
 4519 000f 10       		.uleb128 0x10
 4520 0010 17       		.uleb128 0x17
 4521 0011 00       		.byte	0
 4522 0012 00       		.byte	0
 4523 0013 02       		.uleb128 0x2
 4524 0014 24       		.uleb128 0x24
 4525 0015 00       		.byte	0
 4526 0016 0B       		.uleb128 0xb
 4527 0017 0B       		.uleb128 0xb
 4528 0018 3E       		.uleb128 0x3e
 4529 0019 0B       		.uleb128 0xb
 4530 001a 03       		.uleb128 0x3
 4531 001b 0E       		.uleb128 0xe
 4532 001c 00       		.byte	0
 4533 001d 00       		.byte	0
 4534 001e 03       		.uleb128 0x3
 4535 001f 16       		.uleb128 0x16
 4536 0020 00       		.byte	0
 4537 0021 03       		.uleb128 0x3
 4538 0022 0E       		.uleb128 0xe
 4539 0023 3A       		.uleb128 0x3a
 4540 0024 0B       		.uleb128 0xb
 4541 0025 3B       		.uleb128 0x3b
 4542 0026 0B       		.uleb128 0xb
 4543 0027 49       		.uleb128 0x49
 4544 0028 13       		.uleb128 0x13
 4545 0029 00       		.byte	0
 4546 002a 00       		.byte	0
 4547 002b 04       		.uleb128 0x4
 4548 002c 24       		.uleb128 0x24
 4549 002d 00       		.byte	0
 4550 002e 0B       		.uleb128 0xb
 4551 002f 0B       		.uleb128 0xb
 4552 0030 3E       		.uleb128 0x3e
 4553 0031 0B       		.uleb128 0xb
 4554 0032 03       		.uleb128 0x3
ARM GAS  C:\Users\Sven\AppData\Local\Temp\cc7IOcoT.s 			page 104


 4555 0033 08       		.uleb128 0x8
 4556 0034 00       		.byte	0
 4557 0035 00       		.byte	0
 4558 0036 05       		.uleb128 0x5
 4559 0037 16       		.uleb128 0x16
 4560 0038 00       		.byte	0
 4561 0039 03       		.uleb128 0x3
 4562 003a 0E       		.uleb128 0xe
 4563 003b 3A       		.uleb128 0x3a
 4564 003c 0B       		.uleb128 0xb
 4565 003d 3B       		.uleb128 0x3b
 4566 003e 05       		.uleb128 0x5
 4567 003f 49       		.uleb128 0x49
 4568 0040 13       		.uleb128 0x13
 4569 0041 00       		.byte	0
 4570 0042 00       		.byte	0
 4571 0043 06       		.uleb128 0x6
 4572 0044 35       		.uleb128 0x35
 4573 0045 00       		.byte	0
 4574 0046 49       		.uleb128 0x49
 4575 0047 13       		.uleb128 0x13
 4576 0048 00       		.byte	0
 4577 0049 00       		.byte	0
 4578 004a 07       		.uleb128 0x7
 4579 004b 0F       		.uleb128 0xf
 4580 004c 00       		.byte	0
 4581 004d 0B       		.uleb128 0xb
 4582 004e 0B       		.uleb128 0xb
 4583 004f 49       		.uleb128 0x49
 4584 0050 13       		.uleb128 0x13
 4585 0051 00       		.byte	0
 4586 0052 00       		.byte	0
 4587 0053 08       		.uleb128 0x8
 4588 0054 26       		.uleb128 0x26
 4589 0055 00       		.byte	0
 4590 0056 49       		.uleb128 0x49
 4591 0057 13       		.uleb128 0x13
 4592 0058 00       		.byte	0
 4593 0059 00       		.byte	0
 4594 005a 09       		.uleb128 0x9
 4595 005b 13       		.uleb128 0x13
 4596 005c 01       		.byte	0x1
 4597 005d 03       		.uleb128 0x3
 4598 005e 0E       		.uleb128 0xe
 4599 005f 0B       		.uleb128 0xb
 4600 0060 0B       		.uleb128 0xb
 4601 0061 3A       		.uleb128 0x3a
 4602 0062 0B       		.uleb128 0xb
 4603 0063 3B       		.uleb128 0x3b
 4604 0064 0B       		.uleb128 0xb
 4605 0065 01       		.uleb128 0x1
 4606 0066 13       		.uleb128 0x13
 4607 0067 00       		.byte	0
 4608 0068 00       		.byte	0
 4609 0069 0A       		.uleb128 0xa
 4610 006a 0D       		.uleb128 0xd
 4611 006b 00       		.byte	0
ARM GAS  C:\Users\Sven\AppData\Local\Temp\cc7IOcoT.s 			page 105


 4612 006c 03       		.uleb128 0x3
 4613 006d 0E       		.uleb128 0xe
 4614 006e 3A       		.uleb128 0x3a
 4615 006f 0B       		.uleb128 0xb
 4616 0070 3B       		.uleb128 0x3b
 4617 0071 0B       		.uleb128 0xb
 4618 0072 49       		.uleb128 0x49
 4619 0073 13       		.uleb128 0x13
 4620 0074 38       		.uleb128 0x38
 4621 0075 0B       		.uleb128 0xb
 4622 0076 00       		.byte	0
 4623 0077 00       		.byte	0
 4624 0078 0B       		.uleb128 0xb
 4625 0079 13       		.uleb128 0x13
 4626 007a 01       		.byte	0x1
 4627 007b 03       		.uleb128 0x3
 4628 007c 0E       		.uleb128 0xe
 4629 007d 0B       		.uleb128 0xb
 4630 007e 05       		.uleb128 0x5
 4631 007f 3A       		.uleb128 0x3a
 4632 0080 0B       		.uleb128 0xb
 4633 0081 3B       		.uleb128 0x3b
 4634 0082 0B       		.uleb128 0xb
 4635 0083 01       		.uleb128 0x1
 4636 0084 13       		.uleb128 0x13
 4637 0085 00       		.byte	0
 4638 0086 00       		.byte	0
 4639 0087 0C       		.uleb128 0xc
 4640 0088 0D       		.uleb128 0xd
 4641 0089 00       		.byte	0
 4642 008a 03       		.uleb128 0x3
 4643 008b 08       		.uleb128 0x8
 4644 008c 3A       		.uleb128 0x3a
 4645 008d 0B       		.uleb128 0xb
 4646 008e 3B       		.uleb128 0x3b
 4647 008f 0B       		.uleb128 0xb
 4648 0090 49       		.uleb128 0x49
 4649 0091 13       		.uleb128 0x13
 4650 0092 38       		.uleb128 0x38
 4651 0093 0B       		.uleb128 0xb
 4652 0094 00       		.byte	0
 4653 0095 00       		.byte	0
 4654 0096 0D       		.uleb128 0xd
 4655 0097 01       		.uleb128 0x1
 4656 0098 01       		.byte	0x1
 4657 0099 49       		.uleb128 0x49
 4658 009a 13       		.uleb128 0x13
 4659 009b 01       		.uleb128 0x1
 4660 009c 13       		.uleb128 0x13
 4661 009d 00       		.byte	0
 4662 009e 00       		.byte	0
 4663 009f 0E       		.uleb128 0xe
 4664 00a0 21       		.uleb128 0x21
 4665 00a1 00       		.byte	0
 4666 00a2 49       		.uleb128 0x49
 4667 00a3 13       		.uleb128 0x13
 4668 00a4 2F       		.uleb128 0x2f
ARM GAS  C:\Users\Sven\AppData\Local\Temp\cc7IOcoT.s 			page 106


 4669 00a5 0B       		.uleb128 0xb
 4670 00a6 00       		.byte	0
 4671 00a7 00       		.byte	0
 4672 00a8 0F       		.uleb128 0xf
 4673 00a9 04       		.uleb128 0x4
 4674 00aa 01       		.byte	0x1
 4675 00ab 03       		.uleb128 0x3
 4676 00ac 0E       		.uleb128 0xe
 4677 00ad 0B       		.uleb128 0xb
 4678 00ae 0B       		.uleb128 0xb
 4679 00af 3A       		.uleb128 0x3a
 4680 00b0 0B       		.uleb128 0xb
 4681 00b1 3B       		.uleb128 0x3b
 4682 00b2 0B       		.uleb128 0xb
 4683 00b3 01       		.uleb128 0x1
 4684 00b4 13       		.uleb128 0x13
 4685 00b5 00       		.byte	0
 4686 00b6 00       		.byte	0
 4687 00b7 10       		.uleb128 0x10
 4688 00b8 28       		.uleb128 0x28
 4689 00b9 00       		.byte	0
 4690 00ba 03       		.uleb128 0x3
 4691 00bb 0E       		.uleb128 0xe
 4692 00bc 1C       		.uleb128 0x1c
 4693 00bd 0D       		.uleb128 0xd
 4694 00be 00       		.byte	0
 4695 00bf 00       		.byte	0
 4696 00c0 11       		.uleb128 0x11
 4697 00c1 2E       		.uleb128 0x2e
 4698 00c2 01       		.byte	0x1
 4699 00c3 3F       		.uleb128 0x3f
 4700 00c4 19       		.uleb128 0x19
 4701 00c5 03       		.uleb128 0x3
 4702 00c6 0E       		.uleb128 0xe
 4703 00c7 3A       		.uleb128 0x3a
 4704 00c8 0B       		.uleb128 0xb
 4705 00c9 3B       		.uleb128 0x3b
 4706 00ca 05       		.uleb128 0x5
 4707 00cb 27       		.uleb128 0x27
 4708 00cc 19       		.uleb128 0x19
 4709 00cd 11       		.uleb128 0x11
 4710 00ce 01       		.uleb128 0x1
 4711 00cf 12       		.uleb128 0x12
 4712 00d0 06       		.uleb128 0x6
 4713 00d1 40       		.uleb128 0x40
 4714 00d2 18       		.uleb128 0x18
 4715 00d3 9742     		.uleb128 0x2117
 4716 00d5 19       		.uleb128 0x19
 4717 00d6 01       		.uleb128 0x1
 4718 00d7 13       		.uleb128 0x13
 4719 00d8 00       		.byte	0
 4720 00d9 00       		.byte	0
 4721 00da 12       		.uleb128 0x12
 4722 00db 05       		.uleb128 0x5
 4723 00dc 00       		.byte	0
 4724 00dd 03       		.uleb128 0x3
 4725 00de 08       		.uleb128 0x8
ARM GAS  C:\Users\Sven\AppData\Local\Temp\cc7IOcoT.s 			page 107


 4726 00df 3A       		.uleb128 0x3a
 4727 00e0 0B       		.uleb128 0xb
 4728 00e1 3B       		.uleb128 0x3b
 4729 00e2 05       		.uleb128 0x5
 4730 00e3 49       		.uleb128 0x49
 4731 00e4 13       		.uleb128 0x13
 4732 00e5 02       		.uleb128 0x2
 4733 00e6 17       		.uleb128 0x17
 4734 00e7 00       		.byte	0
 4735 00e8 00       		.byte	0
 4736 00e9 13       		.uleb128 0x13
 4737 00ea 34       		.uleb128 0x34
 4738 00eb 00       		.byte	0
 4739 00ec 03       		.uleb128 0x3
 4740 00ed 08       		.uleb128 0x8
 4741 00ee 3A       		.uleb128 0x3a
 4742 00ef 0B       		.uleb128 0xb
 4743 00f0 3B       		.uleb128 0x3b
 4744 00f1 05       		.uleb128 0x5
 4745 00f2 49       		.uleb128 0x49
 4746 00f3 13       		.uleb128 0x13
 4747 00f4 02       		.uleb128 0x2
 4748 00f5 18       		.uleb128 0x18
 4749 00f6 00       		.byte	0
 4750 00f7 00       		.byte	0
 4751 00f8 14       		.uleb128 0x14
 4752 00f9 898201   		.uleb128 0x4109
 4753 00fc 01       		.byte	0x1
 4754 00fd 11       		.uleb128 0x11
 4755 00fe 01       		.uleb128 0x1
 4756 00ff 31       		.uleb128 0x31
 4757 0100 13       		.uleb128 0x13
 4758 0101 01       		.uleb128 0x1
 4759 0102 13       		.uleb128 0x13
 4760 0103 00       		.byte	0
 4761 0104 00       		.byte	0
 4762 0105 15       		.uleb128 0x15
 4763 0106 8A8201   		.uleb128 0x410a
 4764 0109 00       		.byte	0
 4765 010a 02       		.uleb128 0x2
 4766 010b 18       		.uleb128 0x18
 4767 010c 9142     		.uleb128 0x2111
 4768 010e 18       		.uleb128 0x18
 4769 010f 00       		.byte	0
 4770 0110 00       		.byte	0
 4771 0111 16       		.uleb128 0x16
 4772 0112 898201   		.uleb128 0x4109
 4773 0115 01       		.byte	0x1
 4774 0116 11       		.uleb128 0x11
 4775 0117 01       		.uleb128 0x1
 4776 0118 31       		.uleb128 0x31
 4777 0119 13       		.uleb128 0x13
 4778 011a 00       		.byte	0
 4779 011b 00       		.byte	0
 4780 011c 17       		.uleb128 0x17
 4781 011d 34       		.uleb128 0x34
 4782 011e 00       		.byte	0
ARM GAS  C:\Users\Sven\AppData\Local\Temp\cc7IOcoT.s 			page 108


 4783 011f 03       		.uleb128 0x3
 4784 0120 08       		.uleb128 0x8
 4785 0121 3A       		.uleb128 0x3a
 4786 0122 0B       		.uleb128 0xb
 4787 0123 3B       		.uleb128 0x3b
 4788 0124 05       		.uleb128 0x5
 4789 0125 49       		.uleb128 0x49
 4790 0126 13       		.uleb128 0x13
 4791 0127 02       		.uleb128 0x2
 4792 0128 17       		.uleb128 0x17
 4793 0129 00       		.byte	0
 4794 012a 00       		.byte	0
 4795 012b 18       		.uleb128 0x18
 4796 012c 898201   		.uleb128 0x4109
 4797 012f 00       		.byte	0
 4798 0130 11       		.uleb128 0x11
 4799 0131 01       		.uleb128 0x1
 4800 0132 31       		.uleb128 0x31
 4801 0133 13       		.uleb128 0x13
 4802 0134 00       		.byte	0
 4803 0135 00       		.byte	0
 4804 0136 19       		.uleb128 0x19
 4805 0137 2E       		.uleb128 0x2e
 4806 0138 01       		.byte	0x1
 4807 0139 3F       		.uleb128 0x3f
 4808 013a 19       		.uleb128 0x19
 4809 013b 03       		.uleb128 0x3
 4810 013c 0E       		.uleb128 0xe
 4811 013d 3A       		.uleb128 0x3a
 4812 013e 0B       		.uleb128 0xb
 4813 013f 3B       		.uleb128 0x3b
 4814 0140 05       		.uleb128 0x5
 4815 0141 27       		.uleb128 0x27
 4816 0142 19       		.uleb128 0x19
 4817 0143 49       		.uleb128 0x49
 4818 0144 13       		.uleb128 0x13
 4819 0145 11       		.uleb128 0x11
 4820 0146 01       		.uleb128 0x1
 4821 0147 12       		.uleb128 0x12
 4822 0148 06       		.uleb128 0x6
 4823 0149 40       		.uleb128 0x40
 4824 014a 18       		.uleb128 0x18
 4825 014b 9742     		.uleb128 0x2117
 4826 014d 19       		.uleb128 0x19
 4827 014e 01       		.uleb128 0x1
 4828 014f 13       		.uleb128 0x13
 4829 0150 00       		.byte	0
 4830 0151 00       		.byte	0
 4831 0152 1A       		.uleb128 0x1a
 4832 0153 34       		.uleb128 0x34
 4833 0154 00       		.byte	0
 4834 0155 03       		.uleb128 0x3
 4835 0156 0E       		.uleb128 0xe
 4836 0157 3A       		.uleb128 0x3a
 4837 0158 0B       		.uleb128 0xb
 4838 0159 3B       		.uleb128 0x3b
 4839 015a 05       		.uleb128 0x5
ARM GAS  C:\Users\Sven\AppData\Local\Temp\cc7IOcoT.s 			page 109


 4840 015b 49       		.uleb128 0x49
 4841 015c 13       		.uleb128 0x13
 4842 015d 02       		.uleb128 0x2
 4843 015e 17       		.uleb128 0x17
 4844 015f 00       		.byte	0
 4845 0160 00       		.byte	0
 4846 0161 1B       		.uleb128 0x1b
 4847 0162 2E       		.uleb128 0x2e
 4848 0163 01       		.byte	0x1
 4849 0164 3F       		.uleb128 0x3f
 4850 0165 19       		.uleb128 0x19
 4851 0166 03       		.uleb128 0x3
 4852 0167 0E       		.uleb128 0xe
 4853 0168 3A       		.uleb128 0x3a
 4854 0169 0B       		.uleb128 0xb
 4855 016a 3B       		.uleb128 0x3b
 4856 016b 05       		.uleb128 0x5
 4857 016c 27       		.uleb128 0x27
 4858 016d 19       		.uleb128 0x19
 4859 016e 11       		.uleb128 0x11
 4860 016f 01       		.uleb128 0x1
 4861 0170 12       		.uleb128 0x12
 4862 0171 06       		.uleb128 0x6
 4863 0172 40       		.uleb128 0x40
 4864 0173 18       		.uleb128 0x18
 4865 0174 9642     		.uleb128 0x2116
 4866 0176 19       		.uleb128 0x19
 4867 0177 01       		.uleb128 0x1
 4868 0178 13       		.uleb128 0x13
 4869 0179 00       		.byte	0
 4870 017a 00       		.byte	0
 4871 017b 1C       		.uleb128 0x1c
 4872 017c 2E       		.uleb128 0x2e
 4873 017d 01       		.byte	0x1
 4874 017e 3F       		.uleb128 0x3f
 4875 017f 19       		.uleb128 0x19
 4876 0180 03       		.uleb128 0x3
 4877 0181 0E       		.uleb128 0xe
 4878 0182 3A       		.uleb128 0x3a
 4879 0183 0B       		.uleb128 0xb
 4880 0184 3B       		.uleb128 0x3b
 4881 0185 05       		.uleb128 0x5
 4882 0186 49       		.uleb128 0x49
 4883 0187 13       		.uleb128 0x13
 4884 0188 11       		.uleb128 0x11
 4885 0189 01       		.uleb128 0x1
 4886 018a 12       		.uleb128 0x12
 4887 018b 06       		.uleb128 0x6
 4888 018c 40       		.uleb128 0x40
 4889 018d 18       		.uleb128 0x18
 4890 018e 9642     		.uleb128 0x2116
 4891 0190 19       		.uleb128 0x19
 4892 0191 01       		.uleb128 0x1
 4893 0192 13       		.uleb128 0x13
 4894 0193 00       		.byte	0
 4895 0194 00       		.byte	0
 4896 0195 1D       		.uleb128 0x1d
ARM GAS  C:\Users\Sven\AppData\Local\Temp\cc7IOcoT.s 			page 110


 4897 0196 34       		.uleb128 0x34
 4898 0197 00       		.byte	0
 4899 0198 03       		.uleb128 0x3
 4900 0199 0E       		.uleb128 0xe
 4901 019a 3A       		.uleb128 0x3a
 4902 019b 0B       		.uleb128 0xb
 4903 019c 3B       		.uleb128 0x3b
 4904 019d 05       		.uleb128 0x5
 4905 019e 49       		.uleb128 0x49
 4906 019f 13       		.uleb128 0x13
 4907 01a0 02       		.uleb128 0x2
 4908 01a1 18       		.uleb128 0x18
 4909 01a2 00       		.byte	0
 4910 01a3 00       		.byte	0
 4911 01a4 1E       		.uleb128 0x1e
 4912 01a5 0B       		.uleb128 0xb
 4913 01a6 01       		.byte	0x1
 4914 01a7 11       		.uleb128 0x11
 4915 01a8 01       		.uleb128 0x1
 4916 01a9 12       		.uleb128 0x12
 4917 01aa 06       		.uleb128 0x6
 4918 01ab 01       		.uleb128 0x1
 4919 01ac 13       		.uleb128 0x13
 4920 01ad 00       		.byte	0
 4921 01ae 00       		.byte	0
 4922 01af 1F       		.uleb128 0x1f
 4923 01b0 34       		.uleb128 0x34
 4924 01b1 00       		.byte	0
 4925 01b2 03       		.uleb128 0x3
 4926 01b3 0E       		.uleb128 0xe
 4927 01b4 3A       		.uleb128 0x3a
 4928 01b5 0B       		.uleb128 0xb
 4929 01b6 3B       		.uleb128 0x3b
 4930 01b7 05       		.uleb128 0x5
 4931 01b8 49       		.uleb128 0x49
 4932 01b9 13       		.uleb128 0x13
 4933 01ba 1C       		.uleb128 0x1c
 4934 01bb 0B       		.uleb128 0xb
 4935 01bc 00       		.byte	0
 4936 01bd 00       		.byte	0
 4937 01be 20       		.uleb128 0x20
 4938 01bf 0B       		.uleb128 0xb
 4939 01c0 01       		.byte	0x1
 4940 01c1 11       		.uleb128 0x11
 4941 01c2 01       		.uleb128 0x1
 4942 01c3 12       		.uleb128 0x12
 4943 01c4 06       		.uleb128 0x6
 4944 01c5 00       		.byte	0
 4945 01c6 00       		.byte	0
 4946 01c7 21       		.uleb128 0x21
 4947 01c8 34       		.uleb128 0x34
 4948 01c9 00       		.byte	0
 4949 01ca 03       		.uleb128 0x3
 4950 01cb 0E       		.uleb128 0xe
 4951 01cc 3A       		.uleb128 0x3a
 4952 01cd 0B       		.uleb128 0xb
 4953 01ce 3B       		.uleb128 0x3b
ARM GAS  C:\Users\Sven\AppData\Local\Temp\cc7IOcoT.s 			page 111


 4954 01cf 0B       		.uleb128 0xb
 4955 01d0 49       		.uleb128 0x49
 4956 01d1 13       		.uleb128 0x13
 4957 01d2 3F       		.uleb128 0x3f
 4958 01d3 19       		.uleb128 0x19
 4959 01d4 02       		.uleb128 0x2
 4960 01d5 18       		.uleb128 0x18
 4961 01d6 00       		.byte	0
 4962 01d7 00       		.byte	0
 4963 01d8 22       		.uleb128 0x22
 4964 01d9 34       		.uleb128 0x34
 4965 01da 00       		.byte	0
 4966 01db 03       		.uleb128 0x3
 4967 01dc 08       		.uleb128 0x8
 4968 01dd 3A       		.uleb128 0x3a
 4969 01de 0B       		.uleb128 0xb
 4970 01df 3B       		.uleb128 0x3b
 4971 01e0 0B       		.uleb128 0xb
 4972 01e1 49       		.uleb128 0x49
 4973 01e2 13       		.uleb128 0x13
 4974 01e3 3F       		.uleb128 0x3f
 4975 01e4 19       		.uleb128 0x19
 4976 01e5 02       		.uleb128 0x2
 4977 01e6 18       		.uleb128 0x18
 4978 01e7 00       		.byte	0
 4979 01e8 00       		.byte	0
 4980 01e9 23       		.uleb128 0x23
 4981 01ea 34       		.uleb128 0x34
 4982 01eb 00       		.byte	0
 4983 01ec 03       		.uleb128 0x3
 4984 01ed 0E       		.uleb128 0xe
 4985 01ee 3A       		.uleb128 0x3a
 4986 01ef 0B       		.uleb128 0xb
 4987 01f0 3B       		.uleb128 0x3b
 4988 01f1 05       		.uleb128 0x5
 4989 01f2 49       		.uleb128 0x49
 4990 01f3 13       		.uleb128 0x13
 4991 01f4 3F       		.uleb128 0x3f
 4992 01f5 19       		.uleb128 0x19
 4993 01f6 02       		.uleb128 0x2
 4994 01f7 18       		.uleb128 0x18
 4995 01f8 00       		.byte	0
 4996 01f9 00       		.byte	0
 4997 01fa 24       		.uleb128 0x24
 4998 01fb 34       		.uleb128 0x34
 4999 01fc 00       		.byte	0
 5000 01fd 03       		.uleb128 0x3
 5001 01fe 08       		.uleb128 0x8
 5002 01ff 3A       		.uleb128 0x3a
 5003 0200 0B       		.uleb128 0xb
 5004 0201 3B       		.uleb128 0x3b
 5005 0202 05       		.uleb128 0x5
 5006 0203 49       		.uleb128 0x49
 5007 0204 13       		.uleb128 0x13
 5008 0205 3F       		.uleb128 0x3f
 5009 0206 19       		.uleb128 0x19
 5010 0207 02       		.uleb128 0x2
ARM GAS  C:\Users\Sven\AppData\Local\Temp\cc7IOcoT.s 			page 112


 5011 0208 18       		.uleb128 0x18
 5012 0209 00       		.byte	0
 5013 020a 00       		.byte	0
 5014 020b 25       		.uleb128 0x25
 5015 020c 21       		.uleb128 0x21
 5016 020d 00       		.byte	0
 5017 020e 49       		.uleb128 0x49
 5018 020f 13       		.uleb128 0x13
 5019 0210 2F       		.uleb128 0x2f
 5020 0211 05       		.uleb128 0x5
 5021 0212 00       		.byte	0
 5022 0213 00       		.byte	0
 5023 0214 26       		.uleb128 0x26
 5024 0215 2E       		.uleb128 0x2e
 5025 0216 01       		.byte	0x1
 5026 0217 3F       		.uleb128 0x3f
 5027 0218 19       		.uleb128 0x19
 5028 0219 03       		.uleb128 0x3
 5029 021a 0E       		.uleb128 0xe
 5030 021b 3A       		.uleb128 0x3a
 5031 021c 0B       		.uleb128 0xb
 5032 021d 3B       		.uleb128 0x3b
 5033 021e 0B       		.uleb128 0xb
 5034 021f 27       		.uleb128 0x27
 5035 0220 19       		.uleb128 0x19
 5036 0221 49       		.uleb128 0x49
 5037 0222 13       		.uleb128 0x13
 5038 0223 3C       		.uleb128 0x3c
 5039 0224 19       		.uleb128 0x19
 5040 0225 01       		.uleb128 0x1
 5041 0226 13       		.uleb128 0x13
 5042 0227 00       		.byte	0
 5043 0228 00       		.byte	0
 5044 0229 27       		.uleb128 0x27
 5045 022a 05       		.uleb128 0x5
 5046 022b 00       		.byte	0
 5047 022c 49       		.uleb128 0x49
 5048 022d 13       		.uleb128 0x13
 5049 022e 00       		.byte	0
 5050 022f 00       		.byte	0
 5051 0230 28       		.uleb128 0x28
 5052 0231 18       		.uleb128 0x18
 5053 0232 00       		.byte	0
 5054 0233 00       		.byte	0
 5055 0234 00       		.byte	0
 5056 0235 29       		.uleb128 0x29
 5057 0236 2E       		.uleb128 0x2e
 5058 0237 01       		.byte	0x1
 5059 0238 3F       		.uleb128 0x3f
 5060 0239 19       		.uleb128 0x19
 5061 023a 03       		.uleb128 0x3
 5062 023b 0E       		.uleb128 0xe
 5063 023c 3A       		.uleb128 0x3a
 5064 023d 0B       		.uleb128 0xb
 5065 023e 3B       		.uleb128 0x3b
 5066 023f 05       		.uleb128 0x5
 5067 0240 27       		.uleb128 0x27
ARM GAS  C:\Users\Sven\AppData\Local\Temp\cc7IOcoT.s 			page 113


 5068 0241 19       		.uleb128 0x19
 5069 0242 3C       		.uleb128 0x3c
 5070 0243 19       		.uleb128 0x19
 5071 0244 01       		.uleb128 0x1
 5072 0245 13       		.uleb128 0x13
 5073 0246 00       		.byte	0
 5074 0247 00       		.byte	0
 5075 0248 2A       		.uleb128 0x2a
 5076 0249 2E       		.uleb128 0x2e
 5077 024a 00       		.byte	0
 5078 024b 3F       		.uleb128 0x3f
 5079 024c 19       		.uleb128 0x19
 5080 024d 03       		.uleb128 0x3
 5081 024e 0E       		.uleb128 0xe
 5082 024f 3A       		.uleb128 0x3a
 5083 0250 0B       		.uleb128 0xb
 5084 0251 3B       		.uleb128 0x3b
 5085 0252 0B       		.uleb128 0xb
 5086 0253 27       		.uleb128 0x27
 5087 0254 19       		.uleb128 0x19
 5088 0255 3C       		.uleb128 0x3c
 5089 0256 19       		.uleb128 0x19
 5090 0257 00       		.byte	0
 5091 0258 00       		.byte	0
 5092 0259 2B       		.uleb128 0x2b
 5093 025a 2E       		.uleb128 0x2e
 5094 025b 01       		.byte	0x1
 5095 025c 3F       		.uleb128 0x3f
 5096 025d 19       		.uleb128 0x19
 5097 025e 03       		.uleb128 0x3
 5098 025f 0E       		.uleb128 0xe
 5099 0260 3A       		.uleb128 0x3a
 5100 0261 0B       		.uleb128 0xb
 5101 0262 3B       		.uleb128 0x3b
 5102 0263 0B       		.uleb128 0xb
 5103 0264 27       		.uleb128 0x27
 5104 0265 19       		.uleb128 0x19
 5105 0266 3C       		.uleb128 0x3c
 5106 0267 19       		.uleb128 0x19
 5107 0268 01       		.uleb128 0x1
 5108 0269 13       		.uleb128 0x13
 5109 026a 00       		.byte	0
 5110 026b 00       		.byte	0
 5111 026c 2C       		.uleb128 0x2c
 5112 026d 2E       		.uleb128 0x2e
 5113 026e 00       		.byte	0
 5114 026f 3F       		.uleb128 0x3f
 5115 0270 19       		.uleb128 0x19
 5116 0271 03       		.uleb128 0x3
 5117 0272 0E       		.uleb128 0xe
 5118 0273 3A       		.uleb128 0x3a
 5119 0274 0B       		.uleb128 0xb
 5120 0275 3B       		.uleb128 0x3b
 5121 0276 0B       		.uleb128 0xb
 5122 0277 27       		.uleb128 0x27
 5123 0278 19       		.uleb128 0x19
 5124 0279 49       		.uleb128 0x49
ARM GAS  C:\Users\Sven\AppData\Local\Temp\cc7IOcoT.s 			page 114


 5125 027a 13       		.uleb128 0x13
 5126 027b 3C       		.uleb128 0x3c
 5127 027c 19       		.uleb128 0x19
 5128 027d 00       		.byte	0
 5129 027e 00       		.byte	0
 5130 027f 2D       		.uleb128 0x2d
 5131 0280 2E       		.uleb128 0x2e
 5132 0281 00       		.byte	0
 5133 0282 3F       		.uleb128 0x3f
 5134 0283 19       		.uleb128 0x19
 5135 0284 03       		.uleb128 0x3
 5136 0285 0E       		.uleb128 0xe
 5137 0286 3A       		.uleb128 0x3a
 5138 0287 0B       		.uleb128 0xb
 5139 0288 3B       		.uleb128 0x3b
 5140 0289 05       		.uleb128 0x5
 5141 028a 27       		.uleb128 0x27
 5142 028b 19       		.uleb128 0x19
 5143 028c 3C       		.uleb128 0x3c
 5144 028d 19       		.uleb128 0x19
 5145 028e 00       		.byte	0
 5146 028f 00       		.byte	0
 5147 0290 2E       		.uleb128 0x2e
 5148 0291 2E       		.uleb128 0x2e
 5149 0292 00       		.byte	0
 5150 0293 3F       		.uleb128 0x3f
 5151 0294 19       		.uleb128 0x19
 5152 0295 03       		.uleb128 0x3
 5153 0296 0E       		.uleb128 0xe
 5154 0297 3A       		.uleb128 0x3a
 5155 0298 0B       		.uleb128 0xb
 5156 0299 3B       		.uleb128 0x3b
 5157 029a 05       		.uleb128 0x5
 5158 029b 27       		.uleb128 0x27
 5159 029c 19       		.uleb128 0x19
 5160 029d 49       		.uleb128 0x49
 5161 029e 13       		.uleb128 0x13
 5162 029f 3C       		.uleb128 0x3c
 5163 02a0 19       		.uleb128 0x19
 5164 02a1 00       		.byte	0
 5165 02a2 00       		.byte	0
 5166 02a3 00       		.byte	0
 5167              		.section	.debug_loc,"",%progbits
 5168              	.Ldebug_loc0:
 5169              	.LLST0:
 5170 0000 00000000 		.4byte	.LVL0
 5171 0004 0A000000 		.4byte	.LVL1
 5172 0008 0100     		.2byte	0x1
 5173 000a 50       		.byte	0x50
 5174 000b 0A000000 		.4byte	.LVL1
 5175 000f 0D000000 		.4byte	.LVL2-1
 5176 0013 0100     		.2byte	0x1
 5177 0015 52       		.byte	0x52
 5178 0016 0D000000 		.4byte	.LVL2-1
 5179 001a 1C000000 		.4byte	.LFE1489
 5180 001e 0400     		.2byte	0x4
 5181 0020 F3       		.byte	0xf3
ARM GAS  C:\Users\Sven\AppData\Local\Temp\cc7IOcoT.s 			page 115


 5182 0021 01       		.uleb128 0x1
 5183 0022 50       		.byte	0x50
 5184 0023 9F       		.byte	0x9f
 5185 0024 00000000 		.4byte	0
 5186 0028 00000000 		.4byte	0
 5187              	.LLST1:
 5188 002c 00000000 		.4byte	.LVL4
 5189 0030 06000000 		.4byte	.LVL5
 5190 0034 0100     		.2byte	0x1
 5191 0036 50       		.byte	0x50
 5192 0037 06000000 		.4byte	.LVL5
 5193 003b 1E000000 		.4byte	.LVL12
 5194 003f 0100     		.2byte	0x1
 5195 0041 56       		.byte	0x56
 5196 0042 1E000000 		.4byte	.LVL12
 5197 0046 20000000 		.4byte	.LFE1490
 5198 004a 0400     		.2byte	0x4
 5199 004c F3       		.byte	0xf3
 5200 004d 01       		.uleb128 0x1
 5201 004e 50       		.byte	0x50
 5202 004f 9F       		.byte	0x9f
 5203 0050 00000000 		.4byte	0
 5204 0054 00000000 		.4byte	0
 5205              	.LLST2:
 5206 0058 00000000 		.4byte	.LVL4
 5207 005c 0B000000 		.4byte	.LVL6-1
 5208 0060 0100     		.2byte	0x1
 5209 0062 51       		.byte	0x51
 5210 0063 0B000000 		.4byte	.LVL6-1
 5211 0067 20000000 		.4byte	.LFE1490
 5212 006b 0400     		.2byte	0x4
 5213 006d F3       		.byte	0xf3
 5214 006e 01       		.uleb128 0x1
 5215 006f 51       		.byte	0x51
 5216 0070 9F       		.byte	0x9f
 5217 0071 00000000 		.4byte	0
 5218 0075 00000000 		.4byte	0
 5219              	.LLST3:
 5220 0079 00000000 		.4byte	.LVL4
 5221 007d 0E000000 		.4byte	.LVL7
 5222 0081 0200     		.2byte	0x2
 5223 0083 30       		.byte	0x30
 5224 0084 9F       		.byte	0x9f
 5225 0085 0E000000 		.4byte	.LVL7
 5226 0089 14000000 		.4byte	.LVL8
 5227 008d 0100     		.2byte	0x1
 5228 008f 54       		.byte	0x54
 5229 0090 14000000 		.4byte	.LVL8
 5230 0094 16000000 		.4byte	.LVL9
 5231 0098 0300     		.2byte	0x3
 5232 009a 74       		.byte	0x74
 5233 009b 7F       		.sleb128 -1
 5234 009c 9F       		.byte	0x9f
 5235 009d 16000000 		.4byte	.LVL9
 5236 00a1 1E000000 		.4byte	.LVL11
 5237 00a5 0100     		.2byte	0x1
 5238 00a7 54       		.byte	0x54
ARM GAS  C:\Users\Sven\AppData\Local\Temp\cc7IOcoT.s 			page 116


 5239 00a8 00000000 		.4byte	0
 5240 00ac 00000000 		.4byte	0
 5241              	.LLST4:
 5242 00b0 0E000000 		.4byte	.LVL15
 5243 00b4 11000000 		.4byte	.LVL16-1
 5244 00b8 0100     		.2byte	0x1
 5245 00ba 50       		.byte	0x50
 5246 00bb 11000000 		.4byte	.LVL16-1
 5247 00bf 14000000 		.4byte	.LVL17
 5248 00c3 0100     		.2byte	0x1
 5249 00c5 54       		.byte	0x54
 5250 00c6 14000000 		.4byte	.LVL17
 5251 00ca 16000000 		.4byte	.LFE1491
 5252 00ce 0100     		.2byte	0x1
 5253 00d0 50       		.byte	0x50
 5254 00d1 00000000 		.4byte	0
 5255 00d5 00000000 		.4byte	0
 5256              	.LLST5:
 5257 00d9 D8040000 		.4byte	.LVL121
 5258 00dd 71050000 		.4byte	.LVL124-1
 5259 00e1 0500     		.2byte	0x5
 5260 00e3 03       		.byte	0x3
 5261 00e4 00000000 		.4byte	Ctrl_Mode
 5262 00e8 71050000 		.4byte	.LVL124-1
 5263 00ec F8050000 		.4byte	.LVL125
 5264 00f0 0100     		.2byte	0x1
 5265 00f2 56       		.byte	0x56
 5266 00f3 F8050000 		.4byte	.LVL125
 5267 00f7 59060000 		.4byte	.LVL128-1
 5268 00fb 0500     		.2byte	0x5
 5269 00fd 03       		.byte	0x3
 5270 00fe 00000000 		.4byte	Ctrl_Mode
 5271 0102 6C060000 		.4byte	.LVL129
 5272 0106 03070000 		.4byte	.LVL134-1
 5273 010a 0500     		.2byte	0x5
 5274 010c 03       		.byte	0x3
 5275 010d 00000000 		.4byte	Ctrl_Mode
 5276 0111 03070000 		.4byte	.LVL134-1
 5277 0115 2C070000 		.4byte	.LVL138
 5278 0119 0100     		.2byte	0x1
 5279 011b 56       		.byte	0x56
 5280 011c 00000000 		.4byte	0
 5281 0120 00000000 		.4byte	0
 5282              	.LLST6:
 5283 0124 D8040000 		.4byte	.LVL121
 5284 0128 FE040000 		.4byte	.LVL122
 5285 012c 0200     		.2byte	0x2
 5286 012e 30       		.byte	0x30
 5287 012f 9F       		.byte	0x9f
 5288 0130 FE040000 		.4byte	.LVL122
 5289 0134 3C050000 		.4byte	.LVL123
 5290 0138 0A00     		.2byte	0xa
 5291 013a 76       		.byte	0x76
 5292 013b 00       		.sleb128 0
 5293 013c 48       		.byte	0x48
 5294 013d 24       		.byte	0x24
 5295 013e 70       		.byte	0x70
ARM GAS  C:\Users\Sven\AppData\Local\Temp\cc7IOcoT.s 			page 117


 5296 013f 00       		.sleb128 0
 5297 0140 48       		.byte	0x48
 5298 0141 24       		.byte	0x24
 5299 0142 2E       		.byte	0x2e
 5300 0143 9F       		.byte	0x9f
 5301 0144 3C050000 		.4byte	.LVL123
 5302 0148 71050000 		.4byte	.LVL124-1
 5303 014c 0F00     		.2byte	0xf
 5304 014e 76       		.byte	0x76
 5305 014f 00       		.sleb128 0
 5306 0150 48       		.byte	0x48
 5307 0151 24       		.byte	0x24
 5308 0152 03       		.byte	0x3
 5309 0153 00000000 		.4byte	Ctrl_Mode
 5310 0157 94       		.byte	0x94
 5311 0158 01       		.byte	0x1
 5312 0159 48       		.byte	0x48
 5313 015a 24       		.byte	0x24
 5314 015b 2E       		.byte	0x2e
 5315 015c 9F       		.byte	0x9f
 5316 015d F8050000 		.4byte	.LVL125
 5317 0161 00060000 		.4byte	.LVL126
 5318 0165 0A00     		.2byte	0xa
 5319 0167 76       		.byte	0x76
 5320 0168 00       		.sleb128 0
 5321 0169 48       		.byte	0x48
 5322 016a 24       		.byte	0x24
 5323 016b 70       		.byte	0x70
 5324 016c 00       		.sleb128 0
 5325 016d 48       		.byte	0x48
 5326 016e 24       		.byte	0x24
 5327 016f 2E       		.byte	0x2e
 5328 0170 9F       		.byte	0x9f
 5329 0171 00060000 		.4byte	.LVL126
 5330 0175 16060000 		.4byte	.LVL127
 5331 0179 0F00     		.2byte	0xf
 5332 017b 76       		.byte	0x76
 5333 017c 00       		.sleb128 0
 5334 017d 48       		.byte	0x48
 5335 017e 24       		.byte	0x24
 5336 017f 03       		.byte	0x3
 5337 0180 00000000 		.4byte	Ctrl_Mode
 5338 0184 94       		.byte	0x94
 5339 0185 01       		.byte	0x1
 5340 0186 48       		.byte	0x48
 5341 0187 24       		.byte	0x24
 5342 0188 2E       		.byte	0x2e
 5343 0189 9F       		.byte	0x9f
 5344 018a 16060000 		.4byte	.LVL127
 5345 018e 59060000 		.4byte	.LVL128-1
 5346 0192 0200     		.2byte	0x2
 5347 0194 30       		.byte	0x30
 5348 0195 9F       		.byte	0x9f
 5349 0196 6C060000 		.4byte	.LVL129
 5350 019a 72060000 		.4byte	.LVL130
 5351 019e 0A00     		.2byte	0xa
 5352 01a0 76       		.byte	0x76
ARM GAS  C:\Users\Sven\AppData\Local\Temp\cc7IOcoT.s 			page 118


 5353 01a1 00       		.sleb128 0
 5354 01a2 48       		.byte	0x48
 5355 01a3 24       		.byte	0x24
 5356 01a4 70       		.byte	0x70
 5357 01a5 00       		.sleb128 0
 5358 01a6 48       		.byte	0x48
 5359 01a7 24       		.byte	0x24
 5360 01a8 2E       		.byte	0x2e
 5361 01a9 9F       		.byte	0x9f
 5362 01aa 72060000 		.4byte	.LVL130
 5363 01ae CA060000 		.4byte	.LVL131
 5364 01b2 0F00     		.2byte	0xf
 5365 01b4 76       		.byte	0x76
 5366 01b5 00       		.sleb128 0
 5367 01b6 48       		.byte	0x48
 5368 01b7 24       		.byte	0x24
 5369 01b8 03       		.byte	0x3
 5370 01b9 00000000 		.4byte	Ctrl_Mode
 5371 01bd 94       		.byte	0x94
 5372 01be 01       		.byte	0x1
 5373 01bf 48       		.byte	0x48
 5374 01c0 24       		.byte	0x24
 5375 01c1 2E       		.byte	0x2e
 5376 01c2 9F       		.byte	0x9f
 5377 01c3 CA060000 		.4byte	.LVL131
 5378 01c7 D2060000 		.4byte	.LVL132
 5379 01cb 0A00     		.2byte	0xa
 5380 01cd 76       		.byte	0x76
 5381 01ce 00       		.sleb128 0
 5382 01cf 48       		.byte	0x48
 5383 01d0 24       		.byte	0x24
 5384 01d1 70       		.byte	0x70
 5385 01d2 00       		.sleb128 0
 5386 01d3 48       		.byte	0x48
 5387 01d4 24       		.byte	0x24
 5388 01d5 2E       		.byte	0x2e
 5389 01d6 9F       		.byte	0x9f
 5390 01d7 D2060000 		.4byte	.LVL132
 5391 01db 03070000 		.4byte	.LVL134-1
 5392 01df 0F00     		.2byte	0xf
 5393 01e1 76       		.byte	0x76
 5394 01e2 00       		.sleb128 0
 5395 01e3 48       		.byte	0x48
 5396 01e4 24       		.byte	0x24
 5397 01e5 03       		.byte	0x3
 5398 01e6 00000000 		.4byte	Ctrl_Mode
 5399 01ea 94       		.byte	0x94
 5400 01eb 01       		.byte	0x1
 5401 01ec 48       		.byte	0x48
 5402 01ed 24       		.byte	0x24
 5403 01ee 2E       		.byte	0x2e
 5404 01ef 9F       		.byte	0x9f
 5405 01f0 00000000 		.4byte	0
 5406 01f4 00000000 		.4byte	0
 5407              	.LLST7:
 5408 01f8 FA060000 		.4byte	.LVL133
 5409 01fc 4E080000 		.4byte	.LVL155
ARM GAS  C:\Users\Sven\AppData\Local\Temp\cc7IOcoT.s 			page 119


 5410 0200 0200     		.2byte	0x2
 5411 0202 35       		.byte	0x35
 5412 0203 9F       		.byte	0x9f
 5413 0204 00000000 		.4byte	0
 5414 0208 00000000 		.4byte	0
 5415              	.LLST9:
 5416 020c FA060000 		.4byte	.LVL133
 5417 0210 4E080000 		.4byte	.LVL155
 5418 0214 0200     		.2byte	0x2
 5419 0216 30       		.byte	0x30
 5420 0217 9F       		.byte	0x9f
 5421 0218 00000000 		.4byte	0
 5422 021c 00000000 		.4byte	0
 5423              	.LLST10:
 5424 0220 A2070000 		.4byte	.LVL145
 5425 0224 4E080000 		.4byte	.LVL155
 5426 0228 0200     		.2byte	0x2
 5427 022a 3A       		.byte	0x3a
 5428 022b 9F       		.byte	0x9f
 5429 022c 00000000 		.4byte	0
 5430 0230 00000000 		.4byte	0
 5431              	.LLST11:
 5432 0234 A2070000 		.4byte	.LVL145
 5433 0238 4E080000 		.4byte	.LVL155
 5434 023c 0200     		.2byte	0x2
 5435 023e 35       		.byte	0x35
 5436 023f 9F       		.byte	0x9f
 5437 0240 00000000 		.4byte	0
 5438 0244 00000000 		.4byte	0
 5439              	.LLST12:
 5440 0248 A2070000 		.4byte	.LVL145
 5441 024c 4E080000 		.4byte	.LVL155
 5442 0250 0200     		.2byte	0x2
 5443 0252 30       		.byte	0x30
 5444 0253 9F       		.byte	0x9f
 5445 0254 00000000 		.4byte	0
 5446 0258 00000000 		.4byte	0
 5447              		.section	.debug_aranges,"",%progbits
 5448 0000 3C000000 		.4byte	0x3c
 5449 0004 0200     		.2byte	0x2
 5450 0006 00000000 		.4byte	.Ldebug_info0
 5451 000a 04       		.byte	0x4
 5452 000b 00       		.byte	0
 5453 000c 0000     		.2byte	0
 5454 000e 0000     		.2byte	0
 5455 0010 00000000 		.4byte	.LFB1489
 5456 0014 1C000000 		.4byte	.LFE1489-.LFB1489
 5457 0018 00000000 		.4byte	.LFB1490
 5458 001c 20000000 		.4byte	.LFE1490-.LFB1490
 5459 0020 00000000 		.4byte	.LFB1491
 5460 0024 16000000 		.4byte	.LFE1491-.LFB1491
 5461 0028 00000000 		.4byte	.LFB1492
 5462 002c 44000000 		.4byte	.LFE1492-.LFB1492
 5463 0030 00000000 		.4byte	.LFB1493
 5464 0034 18090000 		.4byte	.LFE1493-.LFB1493
 5465 0038 00000000 		.4byte	0
 5466 003c 00000000 		.4byte	0
ARM GAS  C:\Users\Sven\AppData\Local\Temp\cc7IOcoT.s 			page 120


 5467              		.section	.debug_ranges,"",%progbits
 5468              	.Ldebug_ranges0:
 5469 0000 00000000 		.4byte	.LFB1489
 5470 0004 1C000000 		.4byte	.LFE1489
 5471 0008 00000000 		.4byte	.LFB1490
 5472 000c 20000000 		.4byte	.LFE1490
 5473 0010 00000000 		.4byte	.LFB1491
 5474 0014 16000000 		.4byte	.LFE1491
 5475 0018 00000000 		.4byte	.LFB1492
 5476 001c 44000000 		.4byte	.LFE1492
 5477 0020 00000000 		.4byte	.LFB1493
 5478 0024 18090000 		.4byte	.LFE1493
 5479 0028 00000000 		.4byte	0
 5480 002c 00000000 		.4byte	0
 5481              		.section	.debug_line,"",%progbits
 5482              	.Ldebug_line0:
 5483 0000 FD040000 		.section	.debug_str,"MS",%progbits,1
 5483      0200A002 
 5483      00000201 
 5483      FB0E0D00 
 5483      01010101 
 5484              	.LASF138:
 5485 0000 6374726C 		.ascii	"ctrl_mode\000"
 5485      5F6D6F64 
 5485      6500
 5486              	.LASF45:
 5487 000a 4D41565F 		.ascii	"MAV_AUTOPILOT_SLUGS\000"
 5487      4155544F 
 5487      50494C4F 
 5487      545F534C 
 5487      55475300 
 5488              	.LASF142:
 5489 001e 6175746F 		.ascii	"autonom\000"
 5489      6E6F6D00 
 5490              	.LASF258:
 5491 0026 43794465 		.ascii	"CyDelay\000"
 5491      6C617900 
 5492              	.LASF282:
 5493 002e 4144435F 		.ascii	"ADC_read_speed\000"
 5493      72656164 
 5493      5F737065 
 5493      656400
 5494              	.LASF72:
 5495 003d 4D41565F 		.ascii	"MAV_TYPE_FREE_BALLOON\000"
 5495      54595045 
 5495      5F465245 
 5495      455F4241 
 5495      4C4C4F4F 
 5496              	.LASF179:
 5497 0053 6374726C 		.ascii	"ctrl_out_PID\000"
 5497      5F6F7574 
 5497      5F504944 
 5497      00
 5498              	.LASF139:
 5499 0060 6D616E75 		.ascii	"manual\000"
 5499      616C00
 5500              	.LASF34:
ARM GAS  C:\Users\Sven\AppData\Local\Temp\cc7IOcoT.s 			page 121


 5501 0067 636F6D70 		.ascii	"compid\000"
 5501      696400
 5502              	.LASF110:
 5503 006e 4D41565F 		.ascii	"MAV_STATE_ACTIVE\000"
 5503      53544154 
 5503      455F4143 
 5503      54495645 
 5503      00
 5504              	.LASF95:
 5505 007f 4D41565F 		.ascii	"MAV_MODE_TEST_DISARMED\000"
 5505      4D4F4445 
 5505      5F544553 
 5505      545F4449 
 5505      5341524D 
 5506              	.LASF173:
 5507 0096 626C696E 		.ascii	"blink_cnt\000"
 5507      6B5F636E 
 5507      7400
 5508              	.LASF90:
 5509 00a0 4D41565F 		.ascii	"MAV_TYPE_GIMBAL\000"
 5509      54595045 
 5509      5F47494D 
 5509      42414C00 
 5510              	.LASF133:
 5511 00b0 6F75745F 		.ascii	"out_ge1\000"
 5511      67653100 
 5512              	.LASF134:
 5513 00b8 6F75745F 		.ascii	"out_ge2\000"
 5513      67653200 
 5514              	.LASF135:
 5515 00c0 6F75745F 		.ascii	"out_ge3\000"
 5515      67653300 
 5516              	.LASF255:
 5517 00c8 424D5031 		.ascii	"BMP180_baro_read_pressure\000"
 5517      38305F62 
 5517      61726F5F 
 5517      72656164 
 5517      5F707265 
 5518              	.LASF271:
 5519 00e2 50504D49 		.ascii	"PPMISR_Start\000"
 5519      53525F53 
 5519      74617274 
 5519      00
 5520              	.LASF101:
 5521 00ef 4D41565F 		.ascii	"MAV_MODE_STABILIZE_ARMED\000"
 5521      4D4F4445 
 5521      5F535441 
 5521      42494C49 
 5521      5A455F41 
 5522              	.LASF267:
 5523 0108 5461736B 		.ascii	"TaskTimer_Start\000"
 5523      54696D65 
 5523      725F5374 
 5523      61727400 
 5524              	.LASF9:
 5525 0118 5F5F696E 		.ascii	"__int32_t\000"
 5525      7433325F 
ARM GAS  C:\Users\Sven\AppData\Local\Temp\cc7IOcoT.s 			page 122


 5525      7400
 5526              	.LASF26:
 5527 0122 696E7431 		.ascii	"int16\000"
 5527      3600
 5528              	.LASF240:
 5529 0128 73797374 		.ascii	"system_state\000"
 5529      656D5F73 
 5529      74617465 
 5529      00
 5530              	.LASF163:
 5531 0135 666C6170 		.ascii	"flap_target\000"
 5531      5F746172 
 5531      67657400 
 5532              	.LASF242:
 5533 0141 636E745F 		.ascii	"cnt_ML_ATTITUDE_send\000"
 5533      4D4C5F41 
 5533      54544954 
 5533      5544455F 
 5533      73656E64 
 5534              	.LASF84:
 5535 0156 4D41565F 		.ascii	"MAV_TYPE_VTOL_QUADROTOR\000"
 5535      54595045 
 5535      5F56544F 
 5535      4C5F5155 
 5535      4144524F 
 5536              	.LASF176:
 5537 016e 6374726C 		.ascii	"ctrl_in\000"
 5537      5F696E00 
 5538              	.LASF177:
 5539 0176 6374726C 		.ascii	"ctrl_out\000"
 5539      5F6F7574 
 5539      00
 5540              	.LASF108:
 5541 017f 4D41565F 		.ascii	"MAV_STATE_CALIBRATING\000"
 5541      53544154 
 5541      455F4341 
 5541      4C494252 
 5541      4154494E 
 5542              	.LASF243:
 5543 0195 55415254 		.ascii	"UART_1_UartPutString\000"
 5543      5F315F55 
 5543      61727450 
 5543      75745374 
 5543      72696E67 
 5544              	.LASF212:
 5545 01aa 63616C5F 		.ascii	"cal_cnt\000"
 5545      636E7400 
 5546              	.LASF131:
 5547 01b2 6F75745F 		.ascii	"out_fl1\000"
 5547      666C3100 
 5548              	.LASF132:
 5549 01ba 6F75745F 		.ascii	"out_fl2\000"
 5549      666C3200 
 5550              	.LASF122:
 5551 01c2 696E5F6D 		.ascii	"in_mod\000"
 5551      6F6400
 5552              	.LASF153:
ARM GAS  C:\Users\Sven\AppData\Local\Temp\cc7IOcoT.s 			page 123


 5553 01c9 54686574 		.ascii	"Theta_Prev2\000"
 5553      615F5072 
 5553      65763200 
 5554              	.LASF53:
 5555 01d5 4D41565F 		.ascii	"MAV_AUTOPILOT_UDB\000"
 5555      4155544F 
 5555      50494C4F 
 5555      545F5544 
 5555      4200
 5556              	.LASF106:
 5557 01e7 4D41565F 		.ascii	"MAV_STATE_UNINIT\000"
 5557      53544154 
 5557      455F554E 
 5557      494E4954 
 5557      00
 5558              	.LASF194:
 5559 01f8 6163635F 		.ascii	"acc_y_g\000"
 5559      795F6700 
 5560              	.LASF244:
 5561 0200 55415254 		.ascii	"UART_1_SpiUartWriteTxData\000"
 5561      5F315F53 
 5561      70695561 
 5561      72745772 
 5561      69746554 
 5562              	.LASF40:
 5563 021a 6D736769 		.ascii	"msgid\000"
 5563      6400
 5564              	.LASF116:
 5565 0220 696E5F6D 		.ascii	"in_mot\000"
 5565      6F7400
 5566              	.LASF237:
 5567 0227 6175746F 		.ascii	"autopilot_type\000"
 5567      70696C6F 
 5567      745F7479 
 5567      706500
 5568              	.LASF105:
 5569 0236 4D41565F 		.ascii	"MAV_STATE\000"
 5569      53544154 
 5569      4500
 5570              	.LASF145:
 5571 0240 73706565 		.ascii	"speed\000"
 5571      6400
 5572              	.LASF66:
 5573 0246 4D41565F 		.ascii	"MAV_TYPE_QUADROTOR\000"
 5573      54595045 
 5573      5F515541 
 5573      44524F54 
 5573      4F5200
 5574              	.LASF33:
 5575 0259 73797369 		.ascii	"sysid\000"
 5575      6400
 5576              	.LASF125:
 5577 025f 6F75745F 		.ascii	"out_mot\000"
 5577      6D6F7400 
 5578              	.LASF228:
 5579 0267 5068695F 		.ascii	"Phi_Error\000"
 5579      4572726F 
ARM GAS  C:\Users\Sven\AppData\Local\Temp\cc7IOcoT.s 			page 124


 5579      7200
 5580              	.LASF1:
 5581 0271 7369676E 		.ascii	"signed char\000"
 5581      65642063 
 5581      68617200 
 5582              	.LASF166:
 5583 027d 4B705F54 		.ascii	"Kp_Theta\000"
 5583      68657461 
 5583      00
 5584              	.LASF22:
 5585 0286 75696E74 		.ascii	"uint32_t\000"
 5585      33325F74 
 5585      00
 5586              	.LASF17:
 5587 028f 696E7438 		.ascii	"int8_t\000"
 5587      5F7400
 5588              	.LASF83:
 5589 0296 4D41565F 		.ascii	"MAV_TYPE_VTOL_DUOROTOR\000"
 5589      54595045 
 5589      5F56544F 
 5589      4C5F4455 
 5589      4F524F54 
 5590              	.LASF96:
 5591 02ad 4D41565F 		.ascii	"MAV_MODE_STABILIZE_DISARMED\000"
 5591      4D4F4445 
 5591      5F535441 
 5591      42494C49 
 5591      5A455F44 
 5592              	.LASF60:
 5593 02c9 4D41565F 		.ascii	"MAV_AUTOPILOT_ASLUAV\000"
 5593      4155544F 
 5593      50494C4F 
 5593      545F4153 
 5593      4C554156 
 5594              	.LASF229:
 5595 02de 5068695F 		.ascii	"Phi_Error_sum\000"
 5595      4572726F 
 5595      725F7375 
 5595      6D00
 5596              	.LASF27:
 5597 02ec 666C6F61 		.ascii	"float\000"
 5597      7400
 5598              	.LASF38:
 5599 02f2 63686563 		.ascii	"checksum\000"
 5599      6B73756D 
 5599      00
 5600              	.LASF89:
 5601 02fb 4D41565F 		.ascii	"MAV_TYPE_VTOL_RESERVED5\000"
 5601      54595045 
 5601      5F56544F 
 5601      4C5F5245 
 5601      53455256 
 5602              	.LASF236:
 5603 0313 73797374 		.ascii	"system_type\000"
 5603      656D5F74 
 5603      79706500 
 5604              	.LASF187:
ARM GAS  C:\Users\Sven\AppData\Local\Temp\cc7IOcoT.s 			page 125


 5605 031f 4E61764C 		.ascii	"NavLightStep\000"
 5605      69676874 
 5605      53746570 
 5605      00
 5606              	.LASF19:
 5607 032c 696E7431 		.ascii	"int16_t\000"
 5607      365F7400 
 5608              	.LASF61:
 5609 0334 4D41565F 		.ascii	"MAV_AUTOPILOT_ENUM_END\000"
 5609      4155544F 
 5609      50494C4F 
 5609      545F454E 
 5609      554D5F45 
 5610              	.LASF71:
 5611 034b 4D41565F 		.ascii	"MAV_TYPE_AIRSHIP\000"
 5611      54595045 
 5611      5F414952 
 5611      53484950 
 5611      00
 5612              	.LASF211:
 5613 035c 73706565 		.ascii	"speed_offset\000"
 5613      645F6F66 
 5613      66736574 
 5613      00
 5614              	.LASF15:
 5615 0369 6C6F6E67 		.ascii	"long long unsigned int\000"
 5615      206C6F6E 
 5615      6720756E 
 5615      7369676E 
 5615      65642069 
 5616              	.LASF203:
 5617 0380 5068695F 		.ascii	"Phi_Mav\000"
 5617      4D617600 
 5618              	.LASF197:
 5619 0388 6D61675F 		.ascii	"mag_y_g\000"
 5619      795F6700 
 5620              	.LASF279:
 5621 0390 474E5520 		.ascii	"GNU C 4.8.4 20140526 (release) [ARM/embedded-4_8-br"
 5621      4320342E 
 5621      382E3420 
 5621      32303134 
 5621      30353236 
 5622 03c3 616E6368 		.ascii	"anch revision 211358] -mcpu=cortex-m0 -mthumb -g -O"
 5622      20726576 
 5622      6973696F 
 5622      6E203231 
 5622      31333538 
 5623 03f6 73202D66 		.ascii	"s -ffunction-sections -finline-functions\000"
 5623      66756E63 
 5623      74696F6E 
 5623      2D736563 
 5623      74696F6E 
 5624              	.LASF74:
 5625 041f 4D41565F 		.ascii	"MAV_TYPE_GROUND_ROVER\000"
 5625      54595045 
 5625      5F47524F 
 5625      554E445F 
ARM GAS  C:\Users\Sven\AppData\Local\Temp\cc7IOcoT.s 			page 126


 5625      524F5645 
 5626              	.LASF121:
 5627 0435 696E5F63 		.ascii	"in_can\000"
 5627      616E00
 5628              	.LASF7:
 5629 043c 5F5F7569 		.ascii	"__uint16_t\000"
 5629      6E743136 
 5629      5F7400
 5630              	.LASF259:
 5631 0447 426F6F74 		.ascii	"Bootloadable_1_Load\000"
 5631      6C6F6164 
 5631      61626C65 
 5631      5F315F4C 
 5631      6F616400 
 5632              	.LASF78:
 5633 045b 4D41565F 		.ascii	"MAV_TYPE_OCTOROTOR\000"
 5633      54595045 
 5633      5F4F4354 
 5633      4F524F54 
 5633      4F5200
 5634              	.LASF158:
 5635 046e 53706565 		.ascii	"Speed_Prev3\000"
 5635      645F5072 
 5635      65763300 
 5636              	.LASF208:
 5637 047a 4D61675F 		.ascii	"Mag_x\000"
 5637      7800
 5638              	.LASF209:
 5639 0480 4D61675F 		.ascii	"Mag_y\000"
 5639      7900
 5640              	.LASF204:
 5641 0486 5068695F 		.ascii	"Phi_acc\000"
 5641      61636300 
 5642              	.LASF264:
 5643 048e 4144435F 		.ascii	"ADC_Start\000"
 5643      53746172 
 5643      7400
 5644              	.LASF80:
 5645 0498 4D41565F 		.ascii	"MAV_TYPE_FLAPPING_WING\000"
 5645      54595045 
 5645      5F464C41 
 5645      5050494E 
 5645      475F5749 
 5646              	.LASF181:
 5647 04af 72656365 		.ascii	"receiver_connected\000"
 5647      69766572 
 5647      5F636F6E 
 5647      6E656374 
 5647      656400
 5648              	.LASF140:
 5649 04c2 64616D70 		.ascii	"damped\000"
 5649      656400
 5650              	.LASF170:
 5651 04c9 4B695F50 		.ascii	"Ki_Phi\000"
 5651      686900
 5652              	.LASF0:
 5653 04d0 646F7562 		.ascii	"double\000"
ARM GAS  C:\Users\Sven\AppData\Local\Temp\cc7IOcoT.s 			page 127


 5653      6C6500
 5654              	.LASF235:
 5655 04d7 6D61766C 		.ascii	"mavlink_system\000"
 5655      696E6B5F 
 5655      73797374 
 5655      656D00
 5656              	.LASF186:
 5657 04e6 4E61764C 		.ascii	"NavLightDim\000"
 5657      69676874 
 5657      44696D00 
 5658              	.LASF93:
 5659 04f2 4D41565F 		.ascii	"MAV_MODE_PREFLIGHT\000"
 5659      4D4F4445 
 5659      5F505245 
 5659      464C4947 
 5659      485400
 5660              	.LASF14:
 5661 0505 5F5F7569 		.ascii	"__uint64_t\000"
 5661      6E743634 
 5661      5F7400
 5662              	.LASF184:
 5663 0510 666C6167 		.ascii	"flag_NavLightPulse\000"
 5663      5F4E6176 
 5663      4C696768 
 5663      7450756C 
 5663      736500
 5664              	.LASF99:
 5665 0523 4D41565F 		.ascii	"MAV_MODE_MANUAL_ARMED\000"
 5665      4D4F4445 
 5665      5F4D414E 
 5665      55414C5F 
 5665      41524D45 
 5666              	.LASF124:
 5667 0539 655F6F75 		.ascii	"e_out\000"
 5667      7400
 5668              	.LASF152:
 5669 053f 54686574 		.ascii	"Theta_Prev1\000"
 5669      615F5072 
 5669      65763100 
 5670              	.LASF114:
 5671 054b 4D41565F 		.ascii	"MAV_STATE_ENUM_END\000"
 5671      53544154 
 5671      455F454E 
 5671      554D5F45 
 5671      4E4400
 5672              	.LASF154:
 5673 055e 54686574 		.ascii	"Theta_Prev3\000"
 5673      615F5072 
 5673      65763300 
 5674              	.LASF155:
 5675 056a 54686574 		.ascii	"Theta_Prev4\000"
 5675      615F5072 
 5675      65763400 
 5676              	.LASF202:
 5677 0576 54686574 		.ascii	"Theta_meas\000"
 5677      615F6D65 
 5677      617300
ARM GAS  C:\Users\Sven\AppData\Local\Temp\cc7IOcoT.s 			page 128


 5678              	.LASF13:
 5679 0581 6C6F6E67 		.ascii	"long long int\000"
 5679      206C6F6E 
 5679      6720696E 
 5679      7400
 5680              	.LASF218:
 5681 058f 70726573 		.ascii	"press\000"
 5681      7300
 5682              	.LASF56:
 5683 0595 4D41565F 		.ascii	"MAV_AUTOPILOT_SMACCMPILOT\000"
 5683      4155544F 
 5683      50494C4F 
 5683      545F534D 
 5683      4143434D 
 5684              	.LASF29:
 5685 05af 63686172 		.ascii	"char\000"
 5685      00
 5686              	.LASF241:
 5687 05b4 636E745F 		.ascii	"cnt_ML_HEARTBEAT_send\000"
 5687      4D4C5F48 
 5687      45415254 
 5687      42454154 
 5687      5F73656E 
 5688              	.LASF81:
 5689 05ca 4D41565F 		.ascii	"MAV_TYPE_KITE\000"
 5689      54595045 
 5689      5F4B4954 
 5689      4500
 5690              	.LASF216:
 5691 05d8 636E745F 		.ascii	"cnt_baro\000"
 5691      6261726F 
 5691      00
 5692              	.LASF200:
 5693 05e1 54686574 		.ascii	"Theta_Mav\000"
 5693      615F4D61 
 5693      7600
 5694              	.LASF182:
 5695 05eb 4374726C 		.ascii	"Ctrl_Mode\000"
 5695      5F4D6F64 
 5695      6500
 5696              	.LASF238:
 5697 05f5 73797374 		.ascii	"system_mode\000"
 5697      656D5F6D 
 5697      6F646500 
 5698              	.LASF107:
 5699 0601 4D41565F 		.ascii	"MAV_STATE_BOOT\000"
 5699      53544154 
 5699      455F424F 
 5699      4F5400
 5700              	.LASF205:
 5701 0610 5068695F 		.ascii	"Phi_meas\000"
 5701      6D656173 
 5701      00
 5702              	.LASF79:
 5703 0619 4D41565F 		.ascii	"MAV_TYPE_TRICOPTER\000"
 5703      54595045 
 5703      5F545249 
ARM GAS  C:\Users\Sven\AppData\Local\Temp\cc7IOcoT.s 			page 129


 5703      434F5054 
 5703      455200
 5704              	.LASF16:
 5705 062c 756E7369 		.ascii	"unsigned int\000"
 5705      676E6564 
 5705      20696E74 
 5705      00
 5706              	.LASF199:
 5707 0639 54686574 		.ascii	"Theta\000"
 5707      6100
 5708              	.LASF64:
 5709 063f 4D41565F 		.ascii	"MAV_TYPE_GENERIC\000"
 5709      54595045 
 5709      5F47454E 
 5709      45524943 
 5709      00
 5710              	.LASF213:
 5711 0650 73706565 		.ascii	"speed_cal_compl\000"
 5711      645F6361 
 5711      6C5F636F 
 5711      6D706C00 
 5712              	.LASF18:
 5713 0660 75696E74 		.ascii	"uint8_t\000"
 5713      385F7400 
 5714              	.LASF46:
 5715 0668 4D41565F 		.ascii	"MAV_AUTOPILOT_ARDUPILOTMEGA\000"
 5715      4155544F 
 5715      50494C4F 
 5715      545F4152 
 5715      44555049 
 5716              	.LASF178:
 5717 0684 6374726C 		.ascii	"ctrl_in_trim\000"
 5717      5F696E5F 
 5717      7472696D 
 5717      00
 5718              	.LASF55:
 5719 0691 4D41565F 		.ascii	"MAV_AUTOPILOT_PX4\000"
 5719      4155544F 
 5719      50494C4F 
 5719      545F5058 
 5719      3400
 5720              	.LASF28:
 5721 06a3 63686172 		.ascii	"char8\000"
 5721      3800
 5722              	.LASF160:
 5723 06a9 74785F63 		.ascii	"tx_counter\000"
 5723      6F756E74 
 5723      657200
 5724              	.LASF172:
 5725 06b4 7461736B 		.ascii	"task_flag\000"
 5725      5F666C61 
 5725      6700
 5726              	.LASF201:
 5727 06be 54686574 		.ascii	"Theta_acc\000"
 5727      615F6163 
 5727      6300
 5728              	.LASF54:
ARM GAS  C:\Users\Sven\AppData\Local\Temp\cc7IOcoT.s 			page 130


 5729 06c8 4D41565F 		.ascii	"MAV_AUTOPILOT_FP\000"
 5729      4155544F 
 5729      50494C4F 
 5729      545F4650 
 5729      00
 5730              	.LASF48:
 5731 06d9 4D41565F 		.ascii	"MAV_AUTOPILOT_GENERIC_WAYPOINTS_ONLY\000"
 5731      4155544F 
 5731      50494C4F 
 5731      545F4745 
 5731      4E455249 
 5732              	.LASF270:
 5733 06fe 53657276 		.ascii	"ServoTimer_Start\000"
 5733      6F54696D 
 5733      65725F53 
 5733      74617274 
 5733      00
 5734              	.LASF120:
 5735 070f 696E5F67 		.ascii	"in_gear\000"
 5735      65617200 
 5736              	.LASF68:
 5737 0717 4D41565F 		.ascii	"MAV_TYPE_HELICOPTER\000"
 5737      54595045 
 5737      5F48454C 
 5737      49434F50 
 5737      54455200 
 5738              	.LASF44:
 5739 072b 4D41565F 		.ascii	"MAV_AUTOPILOT_PIXHAWK\000"
 5739      4155544F 
 5739      50494C4F 
 5739      545F5049 
 5739      58484157 
 5740              	.LASF36:
 5741 0741 5F5F6D61 		.ascii	"__mavlink_system\000"
 5741      766C696E 
 5741      6B5F7379 
 5741      7374656D 
 5741      00
 5742              	.LASF115:
 5743 0752 655F696E 		.ascii	"e_in\000"
 5743      00
 5744              	.LASF119:
 5745 0757 696E5F72 		.ascii	"in_rud\000"
 5745      756400
 5746              	.LASF261:
 5747 075e 43795379 		.ascii	"CySysGetResetReason\000"
 5747      73476574 
 5747      52657365 
 5747      74526561 
 5747      736F6E00 
 5748              	.LASF42:
 5749 0772 6D61766C 		.ascii	"mavlink_message_t\000"
 5749      696E6B5F 
 5749      6D657373 
 5749      6167655F 
 5749      7400
 5750              	.LASF168:
ARM GAS  C:\Users\Sven\AppData\Local\Temp\cc7IOcoT.s 			page 131


 5751 0784 4B645F54 		.ascii	"Kd_Theta\000"
 5751      68657461 
 5751      00
 5752              	.LASF5:
 5753 078d 5F5F696E 		.ascii	"__int16_t\000"
 5753      7431365F 
 5753      7400
 5754              	.LASF260:
 5755 0797 43795379 		.ascii	"CySysWdtResetCounters\000"
 5755      73576474 
 5755      52657365 
 5755      74436F75 
 5755      6E746572 
 5756              	.LASF65:
 5757 07ad 4D41565F 		.ascii	"MAV_TYPE_FIXED_WING\000"
 5757      54595045 
 5757      5F464958 
 5757      45445F57 
 5757      494E4700 
 5758              	.LASF230:
 5759 07c1 5068695F 		.ascii	"Phi_Error_prev\000"
 5759      4572726F 
 5759      725F7072 
 5759      657600
 5760              	.LASF123:
 5761 07d0 696E5F73 		.ascii	"in_sp2\000"
 5761      703200
 5762              	.LASF223:
 5763 07d7 54686574 		.ascii	"Theta_Target\000"
 5763      615F5461 
 5763      72676574 
 5763      00
 5764              	.LASF43:
 5765 07e4 4D41565F 		.ascii	"MAV_AUTOPILOT_GENERIC\000"
 5765      4155544F 
 5765      50494C4F 
 5765      545F4745 
 5765      4E455249 
 5766              	.LASF162:
 5767 07fa 73746174 		.ascii	"state_change\000"
 5767      655F6368 
 5767      616E6765 
 5767      00
 5768              	.LASF136:
 5769 0807 6F75745F 		.ascii	"out_sp1\000"
 5769      73703100 
 5770              	.LASF137:
 5771 080f 6F75745F 		.ascii	"out_sp2\000"
 5771      73703200 
 5772              	.LASF59:
 5773 0817 4D41565F 		.ascii	"MAV_AUTOPILOT_AEROB\000"
 5773      4155544F 
 5773      50494C4F 
 5773      545F4145 
 5773      524F4200 
 5774              	.LASF32:
 5775 082b 6C6F6E67 		.ascii	"long double\000"
ARM GAS  C:\Users\Sven\AppData\Local\Temp\cc7IOcoT.s 			page 132


 5775      20646F75 
 5775      626C6500 
 5776              	.LASF51:
 5777 0837 4D41565F 		.ascii	"MAV_AUTOPILOT_INVALID\000"
 5777      4155544F 
 5777      50494C4F 
 5777      545F494E 
 5777      56414C49 
 5778              	.LASF25:
 5779 084d 75696E74 		.ascii	"uint32\000"
 5779      333200
 5780              	.LASF171:
 5781 0854 4B645F50 		.ascii	"Kd_Phi\000"
 5781      686900
 5782              	.LASF103:
 5783 085b 4D41565F 		.ascii	"MAV_MODE_AUTO_ARMED\000"
 5783      4D4F4445 
 5783      5F415554 
 5783      4F5F4152 
 5783      4D454400 
 5784              	.LASF148:
 5785 086f 5068695F 		.ascii	"Phi_Prev1\000"
 5785      50726576 
 5785      3100
 5786              	.LASF149:
 5787 0879 5068695F 		.ascii	"Phi_Prev2\000"
 5787      50726576 
 5787      3200
 5788              	.LASF150:
 5789 0883 5068695F 		.ascii	"Phi_Prev3\000"
 5789      50726576 
 5789      3300
 5790              	.LASF151:
 5791 088d 5068695F 		.ascii	"Phi_Prev4\000"
 5791      50726576 
 5791      3400
 5792              	.LASF281:
 5793 0897 453A5C44 		.ascii	"E:\\Dokumente\\GitHub\\T-50_Project\\Software\\T-50"
 5793      6F6B756D 
 5793      656E7465 
 5793      5C476974 
 5793      4875625C 
 5794 08c5 5F50726F 		.ascii	"_Project\\T-50_Project.cydsn\000"
 5794      6A656374 
 5794      5C542D35 
 5794      305F5072 
 5794      6F6A6563 
 5795              	.LASF112:
 5796 08e1 4D41565F 		.ascii	"MAV_STATE_EMERGENCY\000"
 5796      53544154 
 5796      455F454D 
 5796      45524745 
 5796      4E435900 
 5797              	.LASF91:
 5798 08f5 4D41565F 		.ascii	"MAV_TYPE_ENUM_END\000"
 5798      54595045 
 5798      5F454E55 
ARM GAS  C:\Users\Sven\AppData\Local\Temp\cc7IOcoT.s 			page 133


 5798      4D5F454E 
 5798      4400
 5799              	.LASF268:
 5800 0907 4E61764C 		.ascii	"NavLightPWM_Start\000"
 5800      69676874 
 5800      50574D5F 
 5800      53746172 
 5800      7400
 5801              	.LASF169:
 5802 0919 4B705F50 		.ascii	"Kp_Phi\000"
 5802      686900
 5803              	.LASF227:
 5804 0920 5068695F 		.ascii	"Phi_Target\000"
 5804      54617267 
 5804      657400
 5805              	.LASF70:
 5806 092b 4D41565F 		.ascii	"MAV_TYPE_GCS\000"
 5806      54595045 
 5806      5F474353 
 5806      00
 5807              	.LASF190:
 5808 0938 7475726E 		.ascii	"turn_rate_p\000"
 5808      5F726174 
 5808      655F7000 
 5809              	.LASF191:
 5810 0944 7475726E 		.ascii	"turn_rate_q\000"
 5810      5F726174 
 5810      655F7100 
 5811              	.LASF192:
 5812 0950 7475726E 		.ascii	"turn_rate_r\000"
 5812      5F726174 
 5812      655F7200 
 5813              	.LASF75:
 5814 095c 4D41565F 		.ascii	"MAV_TYPE_SURFACE_BOAT\000"
 5814      54595045 
 5814      5F535552 
 5814      46414345 
 5814      5F424F41 
 5815              	.LASF272:
 5816 0972 50504D52 		.ascii	"PPMRstISR_Start\000"
 5816      73744953 
 5816      525F5374 
 5816      61727400 
 5817              	.LASF195:
 5818 0982 6163635F 		.ascii	"acc_z_g\000"
 5818      7A5F6700 
 5819              	.LASF35:
 5820 098a 6D61766C 		.ascii	"mavlink_system_t\000"
 5820      696E6B5F 
 5820      73797374 
 5820      656D5F74 
 5820      00
 5821              	.LASF146:
 5822 099b 4144435F 		.ascii	"ADC_calibrate_speed\000"
 5822      63616C69 
 5822      62726174 
 5822      655F7370 
ARM GAS  C:\Users\Sven\AppData\Local\Temp\cc7IOcoT.s 			page 134


 5822      65656400 
 5823              	.LASF232:
 5824 09af 52785F53 		.ascii	"Rx_String\000"
 5824      7472696E 
 5824      6700
 5825              	.LASF222:
 5826 09b9 74756E65 		.ascii	"tune_cnt\000"
 5826      5F636E74 
 5826      00
 5827              	.LASF245:
 5828 09c2 73707269 		.ascii	"sprintf\000"
 5828      6E746600 
 5829              	.LASF20:
 5830 09ca 75696E74 		.ascii	"uint16_t\000"
 5830      31365F74 
 5830      00
 5831              	.LASF86:
 5832 09d3 4D41565F 		.ascii	"MAV_TYPE_VTOL_RESERVED2\000"
 5832      54595045 
 5832      5F56544F 
 5832      4C5F5245 
 5832      53455256 
 5833              	.LASF87:
 5834 09eb 4D41565F 		.ascii	"MAV_TYPE_VTOL_RESERVED3\000"
 5834      54595045 
 5834      5F56544F 
 5834      4C5F5245 
 5834      53455256 
 5835              	.LASF88:
 5836 0a03 4D41565F 		.ascii	"MAV_TYPE_VTOL_RESERVED4\000"
 5836      54595045 
 5836      5F56544F 
 5836      4C5F5245 
 5836      53455256 
 5837              	.LASF219:
 5838 0a1b 4B5F645F 		.ascii	"K_d_p\000"
 5838      7000
 5839              	.LASF220:
 5840 0a21 4B5F645F 		.ascii	"K_d_q\000"
 5840      7100
 5841              	.LASF221:
 5842 0a27 4B5F645F 		.ascii	"K_d_r\000"
 5842      7200
 5843              	.LASF185:
 5844 0a2d 4E61764C 		.ascii	"NavLightBright\000"
 5844      69676874 
 5844      42726967 
 5844      687400
 5845              	.LASF198:
 5846 0a3c 6D61675F 		.ascii	"mag_z_g\000"
 5846      7A5F6700 
 5847              	.LASF277:
 5848 0a44 43795379 		.ascii	"CySysWdtEnable\000"
 5848      73576474 
 5848      456E6162 
 5848      6C6500
 5849              	.LASF275:
ARM GAS  C:\Users\Sven\AppData\Local\Temp\cc7IOcoT.s 			page 135


 5850 0a53 426F6F74 		.ascii	"BootISR_Start\000"
 5850      4953525F 
 5850      53746172 
 5850      7400
 5851              	.LASF67:
 5852 0a61 4D41565F 		.ascii	"MAV_TYPE_COAXIAL\000"
 5852      54595045 
 5852      5F434F41 
 5852      5849414C 
 5852      00
 5853              	.LASF6:
 5854 0a72 73686F72 		.ascii	"short int\000"
 5854      7420696E 
 5854      7400
 5855              	.LASF50:
 5856 0a7c 4D41565F 		.ascii	"MAV_AUTOPILOT_GENERIC_MISSION_FULL\000"
 5856      4155544F 
 5856      50494C4F 
 5856      545F4745 
 5856      4E455249 
 5857              	.LASF10:
 5858 0a9f 6C6F6E67 		.ascii	"long int\000"
 5858      20696E74 
 5858      00
 5859              	.LASF63:
 5860 0aa8 4D41565F 		.ascii	"MAV_TYPE\000"
 5860      54595045 
 5860      00
 5861              	.LASF278:
 5862 0ab1 55415254 		.ascii	"UART_1_UartGetChar\000"
 5862      5F315F55 
 5862      61727447 
 5862      65744368 
 5862      617200
 5863              	.LASF82:
 5864 0ac4 4D41565F 		.ascii	"MAV_TYPE_ONBOARD_CONTROLLER\000"
 5864      54595045 
 5864      5F4F4E42 
 5864      4F415244 
 5864      5F434F4E 
 5865              	.LASF102:
 5866 0ae0 4D41565F 		.ascii	"MAV_MODE_GUIDED_ARMED\000"
 5866      4D4F4445 
 5866      5F475549 
 5866      4445445F 
 5866      41524D45 
 5867              	.LASF189:
 5868 0af6 636E745F 		.ascii	"cnt_StrobeLight\000"
 5868      5374726F 
 5868      62654C69 
 5868      67687400 
 5869              	.LASF217:
 5870 0b06 74656D70 		.ascii	"temp\000"
 5870      00
 5871              	.LASF252:
 5872 0b0b 424D5031 		.ascii	"BMP180_baro_trigger_temp\000"
 5872      38305F62 
ARM GAS  C:\Users\Sven\AppData\Local\Temp\cc7IOcoT.s 			page 136


 5872      61726F5F 
 5872      74726967 
 5872      6765725F 
 5873              	.LASF164:
 5874 0b24 666C6170 		.ascii	"flap_cmd\000"
 5874      5F636D64 
 5874      00
 5875              	.LASF23:
 5876 0b2d 75696E74 		.ascii	"uint64_t\000"
 5876      36345F74 
 5876      00
 5877              	.LASF161:
 5878 0b36 50726576 		.ascii	"PrevCtrl_Mode\000"
 5878      4374726C 
 5878      5F4D6F64 
 5878      6500
 5879              	.LASF156:
 5880 0b44 53706565 		.ascii	"Speed_Prev1\000"
 5880      645F5072 
 5880      65763100 
 5881              	.LASF157:
 5882 0b50 53706565 		.ascii	"Speed_Prev2\000"
 5882      645F5072 
 5882      65763200 
 5883              	.LASF210:
 5884 0b5c 4261725F 		.ascii	"Bar_press\000"
 5884      70726573 
 5884      7300
 5885              	.LASF159:
 5886 0b66 53706565 		.ascii	"Speed_Prev4\000"
 5886      645F5072 
 5886      65763400 
 5887              	.LASF41:
 5888 0b72 7061796C 		.ascii	"payload64\000"
 5888      6F616436 
 5888      3400
 5889              	.LASF207:
 5890 0b7c 4D61675F 		.ascii	"Mag_Heading\000"
 5890      48656164 
 5890      696E6700 
 5891              	.LASF62:
 5892 0b88 4D41565F 		.ascii	"MAV_AUTOPILOT\000"
 5892      4155544F 
 5892      50494C4F 
 5892      5400
 5893              	.LASF226:
 5894 0b96 54686574 		.ascii	"Theta_Error_prev\000"
 5894      615F4572 
 5894      726F725F 
 5894      70726576 
 5894      00
 5895              	.LASF3:
 5896 0ba7 5F5F7569 		.ascii	"__uint8_t\000"
 5896      6E74385F 
 5896      7400
 5897              	.LASF193:
 5898 0bb1 6163635F 		.ascii	"acc_x_g\000"
ARM GAS  C:\Users\Sven\AppData\Local\Temp\cc7IOcoT.s 			page 137


 5898      785F6700 
 5899              	.LASF37:
 5900 0bb9 5F5F6D61 		.ascii	"__mavlink_message\000"
 5900      766C696E 
 5900      6B5F6D65 
 5900      73736167 
 5900      6500
 5901              	.LASF266:
 5902 0bcb 43795379 		.ascii	"CySysWdtWriteMatch\000"
 5902      73576474 
 5902      57726974 
 5902      654D6174 
 5902      636800
 5903              	.LASF73:
 5904 0bde 4D41565F 		.ascii	"MAV_TYPE_ROCKET\000"
 5904      54595045 
 5904      5F524F43 
 5904      4B455400 
 5905              	.LASF262:
 5906 0bee 55415254 		.ascii	"UART_1_Start\000"
 5906      5F315F53 
 5906      74617274 
 5906      00
 5907              	.LASF77:
 5908 0bfb 4D41565F 		.ascii	"MAV_TYPE_HEXAROTOR\000"
 5908      54595045 
 5908      5F484558 
 5908      41524F54 
 5908      4F5200
 5909              	.LASF249:
 5910 0c0e 4E61764C 		.ascii	"NavLightPWM_WriteCompare\000"
 5910      69676874 
 5910      50574D5F 
 5910      57726974 
 5910      65436F6D 
 5911              	.LASF39:
 5912 0c27 6D616769 		.ascii	"magic\000"
 5912      6300
 5913              	.LASF2:
 5914 0c2d 5F5F696E 		.ascii	"__int8_t\000"
 5914      74385F74 
 5914      00
 5915              	.LASF247:
 5916 0c36 4144435F 		.ascii	"ADC_StartConvert\000"
 5916      53746172 
 5916      74436F6E 
 5916      76657274 
 5916      00
 5917              	.LASF215:
 5918 0c47 636C696D 		.ascii	"climb_rate\000"
 5918      625F7261 
 5918      746500
 5919              	.LASF47:
 5920 0c52 4D41565F 		.ascii	"MAV_AUTOPILOT_OPENPILOT\000"
 5920      4155544F 
 5920      50494C4F 
 5920      545F4F50 
ARM GAS  C:\Users\Sven\AppData\Local\Temp\cc7IOcoT.s 			page 138


 5920      454E5049 
 5921              	.LASF118:
 5922 0c6a 696E5F65 		.ascii	"in_ele\000"
 5922      6C6500
 5923              	.LASF269:
 5924 0c71 50504D43 		.ascii	"PPMCounter_Start\000"
 5924      6F756E74 
 5924      65725F53 
 5924      74617274 
 5924      00
 5925              	.LASF175:
 5926 0c82 50504D5F 		.ascii	"PPM_channel\000"
 5926      6368616E 
 5926      6E656C00 
 5927              	.LASF31:
 5928 0c8e 73697A65 		.ascii	"sizetype\000"
 5928      74797065 
 5928      00
 5929              	.LASF12:
 5930 0c97 6C6F6E67 		.ascii	"long unsigned int\000"
 5930      20756E73 
 5930      69676E65 
 5930      6420696E 
 5930      7400
 5931              	.LASF253:
 5932 0ca9 424D5031 		.ascii	"BMP180_baro_trigger_pressure\000"
 5932      38305F62 
 5932      61726F5F 
 5932      74726967 
 5932      6765725F 
 5933              	.LASF21:
 5934 0cc6 696E7433 		.ascii	"int32_t\000"
 5934      325F7400 
 5935              	.LASF85:
 5936 0cce 4D41565F 		.ascii	"MAV_TYPE_VTOL_RESERVED1\000"
 5936      54595045 
 5936      5F56544F 
 5936      4C5F5245 
 5936      53455256 
 5937              	.LASF246:
 5938 0ce6 4144435F 		.ascii	"ADC_GetResult16\000"
 5938      47657452 
 5938      6573756C 
 5938      74313600 
 5939              	.LASF256:
 5940 0cf6 6174616E 		.ascii	"atan2\000"
 5940      3200
 5941              	.LASF104:
 5942 0cfc 4D41565F 		.ascii	"MAV_MODE_ENUM_END\000"
 5942      4D4F4445 
 5942      5F454E55 
 5942      4D5F454E 
 5942      4400
 5943              	.LASF274:
 5944 0d0e 5461736B 		.ascii	"TaskISR_Start\000"
 5944      4953525F 
 5944      53746172 
ARM GAS  C:\Users\Sven\AppData\Local\Temp\cc7IOcoT.s 			page 139


 5944      7400
 5945              	.LASF165:
 5946 0d1c 666C6170 		.ascii	"flap_offset\000"
 5946      5F6F6666 
 5946      73657400 
 5947              	.LASF4:
 5948 0d28 756E7369 		.ascii	"unsigned char\000"
 5948      676E6564 
 5948      20636861 
 5948      7200
 5949              	.LASF11:
 5950 0d36 5F5F7569 		.ascii	"__uint32_t\000"
 5950      6E743332 
 5950      5F7400
 5951              	.LASF130:
 5952 0d41 6F75745F 		.ascii	"out_rud\000"
 5952      72756400 
 5953              	.LASF239:
 5954 0d49 63757374 		.ascii	"custom_mode\000"
 5954      6F6D5F6D 
 5954      6F646500 
 5955              	.LASF263:
 5956 0d55 4932434D 		.ascii	"I2CM_Start\000"
 5956      5F537461 
 5956      727400
 5957              	.LASF196:
 5958 0d60 6D61675F 		.ascii	"mag_x_g\000"
 5958      785F6700 
 5959              	.LASF183:
 5960 0d68 666C6167 		.ascii	"flag_LightsEnabled\000"
 5960      5F4C6967 
 5960      68747345 
 5960      6E61626C 
 5960      656400
 5961              	.LASF180:
 5962 0d7b 6374726C 		.ascii	"ctrl_out_DAMP\000"
 5962      5F6F7574 
 5962      5F44414D 
 5962      5000
 5963              	.LASF100:
 5964 0d89 4D41565F 		.ascii	"MAV_MODE_TEST_ARMED\000"
 5964      4D4F4445 
 5964      5F544553 
 5964      545F4152 
 5964      4D454400 
 5965              	.LASF225:
 5966 0d9d 54686574 		.ascii	"Theta_Error_sum\000"
 5966      615F4572 
 5966      726F725F 
 5966      73756D00 
 5967              	.LASF265:
 5968 0dad 43795379 		.ascii	"CySysWdtWriteMode\000"
 5968      73576474 
 5968      57726974 
 5968      654D6F64 
 5968      6500
 5969              	.LASF234:
ARM GAS  C:\Users\Sven\AppData\Local\Temp\cc7IOcoT.s 			page 140


 5970 0dbf 52785F66 		.ascii	"Rx_flag\000"
 5970      6C616700 
 5971              	.LASF251:
 5972 0dc7 4C64675F 		.ascii	"Ldg_Write\000"
 5972      57726974 
 5972      6500
 5973              	.LASF113:
 5974 0dd1 4D41565F 		.ascii	"MAV_STATE_POWEROFF\000"
 5974      53544154 
 5974      455F504F 
 5974      5745524F 
 5974      464600
 5975              	.LASF57:
 5976 0de4 4D41565F 		.ascii	"MAV_AUTOPILOT_AUTOQUAD\000"
 5976      4155544F 
 5976      50494C4F 
 5976      545F4155 
 5976      544F5155 
 5977              	.LASF248:
 5978 0dfb 4144435F 		.ascii	"ADC_StopConvert\000"
 5978      53746F70 
 5978      436F6E76 
 5978      65727400 
 5979              	.LASF111:
 5980 0e0b 4D41565F 		.ascii	"MAV_STATE_CRITICAL\000"
 5980      53544154 
 5980      455F4352 
 5980      49544943 
 5980      414C00
 5981              	.LASF143:
 5982 0e1e 55415254 		.ascii	"UART_1_UartPutNum\000"
 5982      5F315F55 
 5982      61727450 
 5982      75744E75 
 5982      6D00
 5983              	.LASF250:
 5984 0e30 5374726F 		.ascii	"Strobes_Write\000"
 5984      6265735F 
 5984      57726974 
 5984      6500
 5985              	.LASF69:
 5986 0e3e 4D41565F 		.ascii	"MAV_TYPE_ANTENNA_TRACKER\000"
 5986      54595045 
 5986      5F414E54 
 5986      454E4E41 
 5986      5F545241 
 5987              	.LASF92:
 5988 0e57 4D41565F 		.ascii	"MAV_MODE\000"
 5988      4D4F4445 
 5988      00
 5989              	.LASF233:
 5990 0e60 52785F69 		.ascii	"Rx_index\000"
 5990      6E646578 
 5990      00
 5991              	.LASF126:
 5992 0e69 6F75745F 		.ascii	"out_ail1\000"
 5992      61696C31 
ARM GAS  C:\Users\Sven\AppData\Local\Temp\cc7IOcoT.s 			page 141


 5992      00
 5993              	.LASF127:
 5994 0e72 6F75745F 		.ascii	"out_ail2\000"
 5994      61696C32 
 5994      00
 5995              	.LASF94:
 5996 0e7b 4D41565F 		.ascii	"MAV_MODE_MANUAL_DISARMED\000"
 5996      4D4F4445 
 5996      5F4D414E 
 5996      55414C5F 
 5996      44495341 
 5997              	.LASF276:
 5998 0e94 424D5031 		.ascii	"BMP180_baro_init\000"
 5998      38305F62 
 5998      61726F5F 
 5998      696E6974 
 5998      00
 5999              	.LASF214:
 6000 0ea5 616C745F 		.ascii	"alt_previous\000"
 6000      70726576 
 6000      696F7573 
 6000      00
 6001              	.LASF8:
 6002 0eb2 73686F72 		.ascii	"short unsigned int\000"
 6002      7420756E 
 6002      7369676E 
 6002      65642069 
 6002      6E7400
 6003              	.LASF147:
 6004 0ec5 6D61696E 		.ascii	"main\000"
 6004      00
 6005              	.LASF97:
 6006 0eca 4D41565F 		.ascii	"MAV_MODE_GUIDED_DISARMED\000"
 6006      4D4F4445 
 6006      5F475549 
 6006      4445445F 
 6006      44495341 
 6007              	.LASF98:
 6008 0ee3 4D41565F 		.ascii	"MAV_MODE_AUTO_DISARMED\000"
 6008      4D4F4445 
 6008      5F415554 
 6008      4F5F4449 
 6008      5341524D 
 6009              	.LASF144:
 6010 0efa 55415254 		.ascii	"UART_1_UartSendMavlink\000"
 6010      5F315F55 
 6010      61727453 
 6010      656E644D 
 6010      61766C69 
 6011              	.LASF231:
 6012 0f11 52785F63 		.ascii	"Rx_char\000"
 6012      68617200 
 6013              	.LASF167:
 6014 0f19 4B695F54 		.ascii	"Ki_Theta\000"
 6014      68657461 
 6014      00
 6015              	.LASF24:
ARM GAS  C:\Users\Sven\AppData\Local\Temp\cc7IOcoT.s 			page 142


 6016 0f22 75696E74 		.ascii	"uint8\000"
 6016      3800
 6017              	.LASF128:
 6018 0f28 6F75745F 		.ascii	"out_ele1\000"
 6018      656C6531 
 6018      00
 6019              	.LASF49:
 6020 0f31 4D41565F 		.ascii	"MAV_AUTOPILOT_GENERIC_WAYPOINTS_AND_SIMPLE_NAVIGATI"
 6020      4155544F 
 6020      50494C4F 
 6020      545F4745 
 6020      4E455249 
 6021 0f64 4F4E5F4F 		.ascii	"ON_ONLY\000"
 6021      4E4C5900 
 6022              	.LASF109:
 6023 0f6c 4D41565F 		.ascii	"MAV_STATE_STANDBY\000"
 6023      53544154 
 6023      455F5354 
 6023      414E4442 
 6023      5900
 6024              	.LASF188:
 6025 0f7e 4E61764C 		.ascii	"NavLightCompare\000"
 6025      69676874 
 6025      436F6D70 
 6025      61726500 
 6026              	.LASF174:
 6027 0f8e 73616D70 		.ascii	"sample_time\000"
 6027      6C655F74 
 6027      696D6500 
 6028              	.LASF58:
 6029 0f9a 4D41565F 		.ascii	"MAV_AUTOPILOT_ARMAZILA\000"
 6029      4155544F 
 6029      50494C4F 
 6029      545F4152 
 6029      4D415A49 
 6030              	.LASF76:
 6031 0fb1 4D41565F 		.ascii	"MAV_TYPE_SUBMARINE\000"
 6031      54595045 
 6031      5F535542 
 6031      4D415249 
 6031      4E4500
 6032              	.LASF30:
 6033 0fc4 72656733 		.ascii	"reg32\000"
 6033      3200
 6034              	.LASF52:
 6035 0fca 4D41565F 		.ascii	"MAV_AUTOPILOT_PPZ\000"
 6035      4155544F 
 6035      50494C4F 
 6035      545F5050 
 6035      5A00
 6036              	.LASF273:
 6037 0fdc 53657276 		.ascii	"ServoISR_Start\000"
 6037      6F495352 
 6037      5F537461 
 6037      727400
 6038              	.LASF224:
 6039 0feb 54686574 		.ascii	"Theta_Error\000"
ARM GAS  C:\Users\Sven\AppData\Local\Temp\cc7IOcoT.s 			page 143


 6039      615F4572 
 6039      726F7200 
 6040              	.LASF141:
 6041 0ff7 74756E65 		.ascii	"tune\000"
 6041      00
 6042              	.LASF254:
 6043 0ffc 424D5031 		.ascii	"BMP180_baro_read_temp\000"
 6043      38305F62 
 6043      61726F5F 
 6043      72656164 
 6043      5F74656D 
 6044              	.LASF129:
 6045 1012 6F75745F 		.ascii	"out_ele2\000"
 6045      656C6532 
 6045      00
 6046              	.LASF257:
 6047 101b 73747263 		.ascii	"strcmp\000"
 6047      6D7000
 6048              	.LASF280:
 6049 1022 2E5C6D61 		.ascii	".\\main.c\000"
 6049      696E2E63 
 6049      00
 6050              	.LASF117:
 6051 102b 696E5F61 		.ascii	"in_ail\000"
 6051      696C00
 6052              	.LASF206:
 6053 1032 5073695F 		.ascii	"Psi_acc\000"
 6053      61636300 
 6054              		.ident	"GCC: (GNU Tools for ARM Embedded Processors) 4.8.4 20140526 (release) [ARM/embedded-4_8-br
