ARM GAS  C:\Users\Sven\AppData\Local\Temp\ccvvqGJt.s 			page 1


   1              		.cpu cortex-m0
   2              		.fpu softvfp
   3              		.eabi_attribute 20, 1
   4              		.eabi_attribute 21, 1
   5              		.eabi_attribute 23, 3
   6              		.eabi_attribute 24, 1
   7              		.eabi_attribute 25, 1
   8              		.eabi_attribute 26, 1
   9              		.eabi_attribute 30, 4
  10              		.eabi_attribute 34, 0
  11              		.eabi_attribute 18, 4
  12              		.code	16
  13              		.file	"main.c"
  14              		.text
  15              	.Ltext0:
  16              		.cfi_sections	.debug_frame
  17              		.section	.text.UART_1_UartPutNum,"ax",%progbits
  18              		.align	1
  19              		.global	UART_1_UartPutNum
  20              		.code	16
  21              		.thumb_func
  22              		.type	UART_1_UartPutNum, %function
  23              	UART_1_UartPutNum:
  24              	.LFB1489:
  25              		.file 1 ".\\main.c"
   1:.\main.c      **** /* ========================================
   2:.\main.c      ****  *
   3:.\main.c      ****  * Copyright SNFU
   4:.\main.c      ****  * All Rights Reserved
   5:.\main.c      ****  * UNPUBLISHED, LICENSED SOFTWARE.
   6:.\main.c      ****  *
   7:.\main.c      ****  * CONFIDENTIAL AND PROPRIETARY INFORMATION
   8:.\main.c      ****  * WHICH IS THE PROPERTY OF your company.
   9:.\main.c      ****  *
  10:.\main.c      ****  * T-50_Project
  11:.\main.c      ****  *
  12:.\main.c      ****  * ========================================
  13:.\main.c      **** */
  14:.\main.c      **** #include <project.h>
  15:.\main.c      **** #include <stdio.h>
  16:.\main.c      **** #include <stdlib.h>
  17:.\main.c      **** #include <math.h>
  18:.\main.c      **** #include <IMU.h>
  19:.\main.c      **** #include <mavlink.h>
  20:.\main.c      **** #include <mavlink_types.h>
  21:.\main.c      **** #include <Baro.h>
  22:.\main.c      **** 
  23:.\main.c      **** #define FALSE   0
  24:.\main.c      **** #define TRUE    1
  25:.\main.c      **** 
  26:.\main.c      **** #define PI			3.1415926535897932384626433832795
  27:.\main.c      **** 
  28:.\main.c      **** volatile uint8_t task_flag = FALSE;     // The Task Flag is set in TaskISR Interrupt Routine
  29:.\main.c      **** volatile uint8_t blink_cnt = 0;
  30:.\main.c      **** float sample_time = 0.01;               // 10 ms Sample time
  31:.\main.c      **** 
  32:.\main.c      **** /*=============================*/
ARM GAS  C:\Users\Sven\AppData\Local\Temp\ccvvqGJt.s 			page 2


  33:.\main.c      **** /*Remote Input variables*/
  34:.\main.c      **** /*=============================*/
  35:.\main.c      **** uint8_t PPM_channel = 0;                    // input channel variable
  36:.\main.c      **** uint16_t ctrl_in[8] = {0};                  // input control vector
  37:.\main.c      **** uint16_t ctrl_out[13] = {1500,
  38:.\main.c      ****                          1500,
  39:.\main.c      ****                          1500,
  40:.\main.c      ****                          1500,
  41:.\main.c      ****                          1500,
  42:.\main.c      ****                          1500,
  43:.\main.c      ****                          1500,
  44:.\main.c      ****                          1500,
  45:.\main.c      ****                          1500,
  46:.\main.c      ****                          1500,
  47:.\main.c      ****                          1500,
  48:.\main.c      ****                          1500,
  49:.\main.c      ****                          1500};                // output control vector
  50:.\main.c      **** 
  51:.\main.c      **** uint16_t ctrl_in_trim[5] = {1500,				/* motor*/
  52:.\main.c      **** 							1500,				/* aileron */
  53:.\main.c      **** 							1500,				/* elevator */
  54:.\main.c      **** 							1500,				/* rudder */
  55:.\main.c      **** 							1500};			 
  56:.\main.c      **** uint16_t ctrl_out_PID[5] =  {0};				/* PID Control Vector */
  57:.\main.c      **** uint16_t ctrl_out_DAMP[5] =  {0};				/* DAMPING Control Vector */			 
  58:.\main.c      **** 						 
  59:.\main.c      **** enum e_in{   // Input Control Enum - 8 Channels
  60:.\main.c      ****     in_mot = 0, // Channel 1
  61:.\main.c      ****     in_ail,     // Channel 2
  62:.\main.c      ****     in_ele,     // Channel 3
  63:.\main.c      ****     in_rud,     // Channel 4
  64:.\main.c      ****     in_gear,    // Channel 5
  65:.\main.c      ****     in_can,     // Channel 6
  66:.\main.c      ****     in_mod,     // Channel 7
  67:.\main.c      ****     in_sp2      // Channel 8
  68:.\main.c      **** };
  69:.\main.c      **** 
  70:.\main.c      **** enum e_out{   // Output Control Enum - 13 Signals
  71:.\main.c      ****     out_mot = 0,
  72:.\main.c      ****     out_ail1,
  73:.\main.c      ****     out_ail2,
  74:.\main.c      ****     out_ele1,
  75:.\main.c      ****     out_ele2,
  76:.\main.c      ****     out_rud,
  77:.\main.c      ****     out_fl1,
  78:.\main.c      ****     out_fl2,
  79:.\main.c      ****     out_ge1,
  80:.\main.c      ****     out_ge2,
  81:.\main.c      ****     out_ge3,
  82:.\main.c      ****     out_sp1,
  83:.\main.c      ****     out_sp2
  84:.\main.c      **** };
  85:.\main.c      **** 
  86:.\main.c      **** uint8_t receiver_connected = FALSE;
  87:.\main.c      **** 
  88:.\main.c      **** /*=============================*/
  89:.\main.c      **** /* State Machine for mode control*/
ARM GAS  C:\Users\Sven\AppData\Local\Temp\ccvvqGJt.s 			page 3


  90:.\main.c      **** /*=============================*/
  91:.\main.c      **** uint8_t Ctrl_Mode = 0;
  92:.\main.c      **** enum ctrl_mode
  93:.\main.c      **** {
  94:.\main.c      ****     manual = 0,
  95:.\main.c      ****     damped,
  96:.\main.c      ****     tune,
  97:.\main.c      ****     autonom
  98:.\main.c      **** };
  99:.\main.c      **** 
 100:.\main.c      **** /*=============================*/
 101:.\main.c      **** /* TASK FLAGS */
 102:.\main.c      **** /*=============================*/
 103:.\main.c      **** #define GYRO_TASK       TRUE
 104:.\main.c      **** #define ACC_TASK        TRUE
 105:.\main.c      **** #define MAG_TASK        FALSE
 106:.\main.c      **** #define BARO_TASK       TRUE
 107:.\main.c      **** #define SPEED_TASK      TRUE    
 108:.\main.c      **** #define DATA_LOG        TRUE
 109:.\main.c      **** #define MAVLINK_TASK    FALSE
 110:.\main.c      **** 
 111:.\main.c      **** /*=============================*/
 112:.\main.c      **** /*Light control variables*/
 113:.\main.c      **** /*=============================*/
 114:.\main.c      **** uint8_t flag_LightsEnabled = TRUE;
 115:.\main.c      **** 
 116:.\main.c      **** /*Nav Light Control START -> Pulsing of the Navigation Lights*/
 117:.\main.c      **** uint8_t flag_NavLightPulse  = FALSE;    // Nav Light Pulse flag (to count up or down)
 118:.\main.c      **** uint16_t NavLightBright     = 100;  // Upper value for the brightness 100 = 100%
 119:.\main.c      **** uint16_t NavLightDim        = 0;    // Lower value for the brightness 0 = 0%
 120:.\main.c      **** uint16_t NavLightStep       = 1;    // Nav Light Pulse Stepwidth => brightness change per 10ms
 121:.\main.c      **** uint16_t NavLightCompare    = 0;    // Nav Light PWM Compare Value
 122:.\main.c      **** /*Strobe Light*/
 123:.\main.c      **** uint8_t cnt_StrobeLight     = 0;
 124:.\main.c      **** 
 125:.\main.c      **** 
 126:.\main.c      **** /*=============================*/
 127:.\main.c      **** /*IMU variables*/
 128:.\main.c      **** /*=============================*/
 129:.\main.c      **** 
 130:.\main.c      **** /* turn rates */
 131:.\main.c      **** int16_t turn_rate_p = 0;
 132:.\main.c      **** int16_t turn_rate_q = 0;
 133:.\main.c      **** int16_t turn_rate_r = 0;
 134:.\main.c      **** /* accelerations*/
 135:.\main.c      **** int16_t acc_x_g = 0;
 136:.\main.c      **** int16_t acc_y_g = 0;
 137:.\main.c      **** int16_t acc_z_g = 0;
 138:.\main.c      **** /* magnetic out*/
 139:.\main.c      **** int16_t mag_x_g = 0;
 140:.\main.c      **** int16_t mag_y_g = 0;
 141:.\main.c      **** int16_t mag_z_g = 0;
 142:.\main.c      **** 
 143:.\main.c      **** /* Euler Angles */
 144:.\main.c      **** float Theta, Theta_Mav, Theta_acc = 0;   // Theta => estimated angle after Kalman, Theta_acc => The
 145:.\main.c      **** float Phi, Phi_Mav, Phi_acc = 0;       // Phi => estimated angle after Kalman, Phi_acc => Theta fro
 146:.\main.c      **** float Psi, Psi_acc = 0;       // Psi , Psi_acc => Psi from accelerometer
ARM GAS  C:\Users\Sven\AppData\Local\Temp\ccvvqGJt.s 			page 4


 147:.\main.c      **** 
 148:.\main.c      **** /* Magnetic Heading*/
 149:.\main.c      **** int32_t Mag_Heading = 0;
 150:.\main.c      **** float Mag_x, Mag_y = 0;    
 151:.\main.c      **** 
 152:.\main.c      **** /* Barometer Reading*/
 153:.\main.c      **** int32_t Bar_press = 0;
 154:.\main.c      **** 
 155:.\main.c      **** 
 156:.\main.c      **** /*=============================*/
 157:.\main.c      **** /* Speed reading       		*/
 158:.\main.c      **** /*=============================*/
 159:.\main.c      **** uint16_t speed_offset = 172;
 160:.\main.c      **** int16_t speed = 0;
 161:.\main.c      **** uint8_t cal_cnt = 0;
 162:.\main.c      **** uint8_t speed_cal_compl = 0;
 163:.\main.c      **** 
 164:.\main.c      **** /*=============================*/
 165:.\main.c      **** /* Altitude reading    
 166:.\main.c      ****    used for external pressure sensor BMP180 */
 167:.\main.c      **** /*=============================*/
 168:.\main.c      **** 
 169:.\main.c      **** int32_t alt = 0;    // altitude from pressure
 170:.\main.c      **** //extern int32_t alt;     /* from main.c file */
 171:.\main.c      **** 
 172:.\main.c      **** uint8_t cnt_baro  = 0;  /* baro counter */
 173:.\main.c      **** int32_t temp = 0;   // temperature reading by BMP180
 174:.\main.c      **** int32_t press = 0;   // pressure reading by BMP180
 175:.\main.c      **** int32_t QFE = 0;	/* QFE Ground pressure -> gives altitude to current ground pressure */
 176:.\main.c      **** /*=============================*/
 177:.\main.c      **** /* Kalman Filter Data			*/
 178:.\main.c      **** /*=============================*/
 179:.\main.c      **** // weighing matrices ???
 180:.\main.c      **** float Q_angle = 0.005;
 181:.\main.c      **** float Q_gyro = 0.005;
 182:.\main.c      **** float R_angle = 0.02;
 183:.\main.c      **** // Estimation of Theta (Kalman)
 184:.\main.c      **** float q_bias = 0;
 185:.\main.c      **** //int8_t P_00_Theta, P_01_Theta, P_10_Theta, P_11_Theta = 0;
 186:.\main.c      **** float P_Theta[2][2] = {0,0,0,0};
 187:.\main.c      **** float Theta_temp, S_Theta, K_0_Theta, K_1_Theta = 0;
 188:.\main.c      **** // Estimation of Phi (Kalman)
 189:.\main.c      **** float p_bias = 0;
 190:.\main.c      **** //int8_t P_00_Phi, P_01_Phi, P_10_Phi, P_11_Phi = 0;
 191:.\main.c      **** float P_Phi[2][2] = {0,0,0,0};
 192:.\main.c      **** float Phi_temp, S_Phi, K_0_Phi, K_1_Phi = 0;
 193:.\main.c      **** 
 194:.\main.c      **** /*============================*/
 195:.\main.c      **** /* Control variables	*/
 196:.\main.c      **** /*=============================*/
 197:.\main.c      **** uint8_t K_d_p = 1;
 198:.\main.c      **** uint8_t K_d_q = 1;
 199:.\main.c      **** uint8_t K_d_r = 1;
 200:.\main.c      **** 
 201:.\main.c      **** /*============================*/
 202:.\main.c      **** /* Tune variables	            */
 203:.\main.c      **** /*=============================*/
ARM GAS  C:\Users\Sven\AppData\Local\Temp\ccvvqGJt.s 			page 5


 204:.\main.c      **** uint8_t tune_cnt = 0;
 205:.\main.c      **** 
 206:.\main.c      **** /*============================*/
 207:.\main.c      **** /* Autopilot variables	            */
 208:.\main.c      **** /*=============================*/
 209:.\main.c      **** int8_t Theta_Target = 0;			/* Initializing Theta Target Pitch Angle */
 210:.\main.c      **** int8_t Theta_Error = 0;			    /* Initializing Theta Error */
 211:.\main.c      **** int32_t Theta_Error_sum = 0;		/* Initializing Theta Error Sum */
 212:.\main.c      **** int8_t Theta_Error_prev = 0;		/* Initializing Theta Error Sum */
 213:.\main.c      **** 
 214:.\main.c      **** int8_t Phi_Target = 0;			    /* Initializing Phi Target Bank Angle */
 215:.\main.c      **** int8_t Phi_Error = 0;			    /* Initializing Phi Error */
 216:.\main.c      **** int32_t Phi_Error_sum = 0;		    /* Initializing Phi Error Sum */
 217:.\main.c      **** int8_t Phi_Error_prev = 0;		    /* Initializing Phi Error Sum */
 218:.\main.c      **** 
 219:.\main.c      **** /*============================*/
 220:.\main.c      **** /* UART Rx Tx variables		*/
 221:.\main.c      **** /*=============================*/
 222:.\main.c      **** uint8_t Rx_char = 0;
 223:.\main.c      **** char Rx_String[10] = {0,0,0,0,0,0,0,0,0,0};
 224:.\main.c      **** uint8_t Rx_index = 0;
 225:.\main.c      **** uint8_t Rx_flag = 0;
 226:.\main.c      **** 
 227:.\main.c      **** /*=============================*/
 228:.\main.c      **** /* MAVLINK			*/
 229:.\main.c      **** /*=============================*/
 230:.\main.c      **** 
 231:.\main.c      **** mavlink_system_t mavlink_system;
 232:.\main.c      **** // Define the system type, in this case an airplane
 233:.\main.c      **** uint8_t system_type = MAV_TYPE_FIXED_WING;        //MAV_TYPE_FIXED_WING;
 234:.\main.c      **** uint8_t autopilot_type = MAV_AUTOPILOT_GENERIC;     //MAV_AUTOPILOT_GENERIC;
 235:.\main.c      **** 
 236:.\main.c      **** uint8_t system_mode = MAV_MODE_PREFLIGHT;       ///< Booting up //
 237:.\main.c      **** uint32_t custom_mode = 0;                       ///< Custom mode, can be defined by user/adopter
 238:.\main.c      **** uint8_t system_state = MAV_STATE_STANDBY;       ///< System ready for flight
 239:.\main.c      **** 
 240:.\main.c      **** // Initialize the required buffers
 241:.\main.c      **** mavlink_message_t msg;
 242:.\main.c      **** uint8_t buf[MAVLINK_MAX_PACKET_LEN];
 243:.\main.c      **** 
 244:.\main.c      **** uint8_t cnt_ML_HEARTBEAT_send = 0;          // used for timing of the HEARTBEAT message sending
 245:.\main.c      **** uint8_t cnt_ML_ATTITUDE_send = 0;           // used for timing of the ATTITUDE message sending
 246:.\main.c      **** 
 247:.\main.c      **** /*=============================*/
 248:.\main.c      **** /* General Functions */
 249:.\main.c      **** /*=============================*/
 250:.\main.c      **** // UART Put Num to write serial number data
 251:.\main.c      **** void UART_1_UartPutNum(int32_t num)
 252:.\main.c      **** {
  26              		.loc 1 252 0
  27              		.cfi_startproc
  28              	.LVL0:
  29 0000 00B5     		push	{lr}
  30              		.cfi_def_cfa_offset 4
  31              		.cfi_offset 14, -4
  32 0002 89B0     		sub	sp, sp, #36
  33              		.cfi_def_cfa_offset 40
ARM GAS  C:\Users\Sven\AppData\Local\Temp\ccvvqGJt.s 			page 6


  34              		.loc 1 252 0
  35 0004 021C     		mov	r2, r0
 253:.\main.c      ****     char k[31];
 254:.\main.c      ****     sprintf(k,"%d",num);
  36              		.loc 1 254 0
  37 0006 0449     		ldr	r1, .L2
  38 0008 6846     		mov	r0, sp
  39              	.LVL1:
  40 000a FFF7FEFF 		bl	sprintf
  41              	.LVL2:
 255:.\main.c      ****     UART_1_UartPutString(k);   
  42              		.loc 1 255 0
  43 000e 6846     		mov	r0, sp
  44 0010 FFF7FEFF 		bl	UART_1_UartPutString
  45              	.LVL3:
 256:.\main.c      **** }
  46              		.loc 1 256 0
  47 0014 09B0     		add	sp, sp, #36
  48              		@ sp needed
  49 0016 00BD     		pop	{pc}
  50              	.L3:
  51              		.align	2
  52              	.L2:
  53 0018 00000000 		.word	.LC0
  54              		.cfi_endproc
  55              	.LFE1489:
  56              		.size	UART_1_UartPutNum, .-UART_1_UartPutNum
  57              		.section	.text.UART_1_UartSendMavlink,"ax",%progbits
  58              		.align	1
  59              		.global	UART_1_UartSendMavlink
  60              		.code	16
  61              		.thumb_func
  62              		.type	UART_1_UartSendMavlink, %function
  63              	UART_1_UartSendMavlink:
  64              	.LFB1490:
 257:.\main.c      **** 
 258:.\main.c      **** // UART Put Num to write serial number data
 259:.\main.c      **** void UART_1_UartSendMavlink(uint8_t buf[], uint16_t len)
 260:.\main.c      **** {
  65              		.loc 1 260 0
  66              		.cfi_startproc
  67              	.LVL4:
  68 0000 70B5     		push	{r4, r5, r6, lr}
  69              		.cfi_def_cfa_offset 16
  70              		.cfi_offset 4, -16
  71              		.cfi_offset 5, -12
  72              		.cfi_offset 6, -8
  73              		.cfi_offset 14, -4
  74              		.loc 1 260 0
  75 0002 061C     		mov	r6, r0
 261:.\main.c      ****     uint16_t i = 0;
 262:.\main.c      ****     UART_1_UartPutChar(0xFE);   // message header    
  76              		.loc 1 262 0
  77 0004 FE20     		mov	r0, #254
  78              	.LVL5:
 260:.\main.c      **** {
  79              		.loc 1 260 0
ARM GAS  C:\Users\Sven\AppData\Local\Temp\ccvvqGJt.s 			page 7


  80 0006 0D1C     		mov	r5, r1
  81              		.loc 1 262 0
  82 0008 FFF7FEFF 		bl	UART_1_SpiUartWriteTxData
  83              	.LVL6:
 261:.\main.c      ****     uint16_t i = 0;
  84              		.loc 1 261 0
  85 000c 0024     		mov	r4, #0
  86              	.LVL7:
  87              	.L5:
 263:.\main.c      ****     while(i<(len+1))
  88              		.loc 1 263 0 discriminator 1
  89 000e A542     		cmp	r5, r4
  90 0010 05DB     		blt	.L8
 264:.\main.c      **** 	{
 265:.\main.c      ****         i++;
  91              		.loc 1 265 0
  92 0012 0134     		add	r4, r4, #1
  93              	.LVL8:
  94 0014 A4B2     		uxth	r4, r4
  95              	.LVL9:
 266:.\main.c      ****         UART_1_UartPutChar(buf[i]);
  96              		.loc 1 266 0
  97 0016 305D     		ldrb	r0, [r6, r4]
  98 0018 FFF7FEFF 		bl	UART_1_SpiUartWriteTxData
  99              	.LVL10:
 100 001c F7E7     		b	.L5
 101              	.L8:
 267:.\main.c      **** 	}  
 268:.\main.c      **** }
 102              		.loc 1 268 0
 103              		@ sp needed
 104              	.LVL11:
 105              	.LVL12:
 106 001e 70BD     		pop	{r4, r5, r6, pc}
 107              		.cfi_endproc
 108              	.LFE1490:
 109              		.size	UART_1_UartSendMavlink, .-UART_1_UartSendMavlink
 110              		.section	.text.ADC_read_speed,"ax",%progbits
 111              		.align	1
 112              		.global	ADC_read_speed
 113              		.code	16
 114              		.thumb_func
 115              		.type	ADC_read_speed, %function
 116              	ADC_read_speed:
 117              	.LFB1491:
 269:.\main.c      **** 
 270:.\main.c      **** /* Read speed */
 271:.\main.c      **** int16_t ADC_read_speed(void)
 272:.\main.c      **** {
 118              		.loc 1 272 0
 119              		.cfi_startproc
 120 0000 10B5     		push	{r4, lr}
 121              		.cfi_def_cfa_offset 8
 122              		.cfi_offset 4, -8
 123              		.cfi_offset 14, -4
 273:.\main.c      ****     ADC_StartConvert();		/* Start Conversion */
 124              		.loc 1 273 0
ARM GAS  C:\Users\Sven\AppData\Local\Temp\ccvvqGJt.s 			page 8


 125 0002 FFF7FEFF 		bl	ADC_StartConvert
 126              	.LVL13:
 274:.\main.c      ****     int16_t speed = ADC_GetResult16(0); /* channel 0 is the first ADC */
 127              		.loc 1 274 0
 128 0006 0020     		mov	r0, #0
 129 0008 FFF7FEFF 		bl	ADC_GetResult16
 130              	.LVL14:
 131 000c 041C     		mov	r4, r0
 132              	.LVL15:
 275:.\main.c      ****     ADC_StopConvert();		/* Stop Conversion */	
 276:.\main.c      ****     return(speed);
 277:.\main.c      **** }
 133              		.loc 1 277 0
 134              		@ sp needed
 275:.\main.c      ****     ADC_StopConvert();		/* Stop Conversion */	
 135              		.loc 1 275 0
 136 000e FFF7FEFF 		bl	ADC_StopConvert
 137              	.LVL16:
 138              		.loc 1 277 0
 139 0012 201C     		mov	r0, r4
 140              	.LVL17:
 141 0014 10BD     		pop	{r4, pc}
 142              		.cfi_endproc
 143              	.LFE1491:
 144              		.size	ADC_read_speed, .-ADC_read_speed
 145              		.global	__aeabi_idiv
 146              		.section	.text.ADC_calibrate_speed,"ax",%progbits
 147              		.align	1
 148              		.global	ADC_calibrate_speed
 149              		.code	16
 150              		.thumb_func
 151              		.type	ADC_calibrate_speed, %function
 152              	ADC_calibrate_speed:
 153              	.LFB1492:
 278:.\main.c      **** 
 279:.\main.c      **** /* Speed calibration */
 280:.\main.c      **** void ADC_calibrate_speed(void)
 281:.\main.c      **** {
 154              		.loc 1 281 0
 155              		.cfi_startproc
 156 0000 38B5     		push	{r3, r4, r5, lr}
 157              		.cfi_def_cfa_offset 16
 158              		.cfi_offset 3, -16
 159              		.cfi_offset 4, -12
 160              		.cfi_offset 5, -8
 161              		.cfi_offset 14, -4
 282:.\main.c      ****     speed_offset = 0;
 162              		.loc 1 282 0
 163 0002 0D4C     		ldr	r4, .L15
 164 0004 0023     		mov	r3, #0
 283:.\main.c      ****     cal_cnt = 0;
 165              		.loc 1 283 0
 166 0006 0D4D     		ldr	r5, .L15+4
 282:.\main.c      ****     speed_offset = 0;
 167              		.loc 1 282 0
 168 0008 2380     		strh	r3, [r4]
 169              	.L13:
ARM GAS  C:\Users\Sven\AppData\Local\Temp\ccvvqGJt.s 			page 9


 284:.\main.c      ****     while(cal_cnt < 254)
 285:.\main.c      ****         {
 286:.\main.c      ****             speed = ADC_read_speed();
 287:.\main.c      ****             speed_offset+=speed;
 288:.\main.c      ****             cal_cnt++;
 170              		.loc 1 288 0
 171 000a 2B70     		strb	r3, [r5]
 284:.\main.c      ****     while(cal_cnt < 254)
 172              		.loc 1 284 0
 173 000c 2978     		ldrb	r1, [r5]
 174 000e FD29     		cmp	r1, #253
 175 0010 08D8     		bhi	.L14
 286:.\main.c      ****             speed = ADC_read_speed();
 176              		.loc 1 286 0
 177 0012 FFF7FEFF 		bl	ADC_read_speed
 178              	.LVL18:
 287:.\main.c      ****             speed_offset+=speed;
 179              		.loc 1 287 0
 180 0016 2388     		ldrh	r3, [r4]
 286:.\main.c      ****             speed = ADC_read_speed();
 181              		.loc 1 286 0
 182 0018 6880     		strh	r0, [r5, #2]
 287:.\main.c      ****             speed_offset+=speed;
 183              		.loc 1 287 0
 184 001a C018     		add	r0, r0, r3
 185              		.loc 1 288 0
 186 001c 2B78     		ldrb	r3, [r5]
 287:.\main.c      ****             speed_offset+=speed;
 187              		.loc 1 287 0
 188 001e 2080     		strh	r0, [r4]
 189              		.loc 1 288 0
 190 0020 0133     		add	r3, r3, #1
 191 0022 F2E7     		b	.L13
 192              	.L14:
 289:.\main.c      ****         }
 290:.\main.c      ****     speed_offset /= cal_cnt;
 193              		.loc 1 290 0
 194 0024 2088     		ldrh	r0, [r4]
 195 0026 FFF7FEFF 		bl	__aeabi_idiv
 196              	.LVL19:
 197 002a 2080     		strh	r0, [r4]
 291:.\main.c      ****     //cal_cnt = 0;
 292:.\main.c      ****     UART_1_UartPutNum(speed_offset);
 198              		.loc 1 292 0
 199 002c FFF7FEFF 		bl	UART_1_UartPutNum
 200              	.LVL20:
 293:.\main.c      ****     UART_1_UartPutString("Cal Compl\r\n");    
 201              		.loc 1 293 0
 202 0030 0348     		ldr	r0, .L15+8
 203 0032 FFF7FEFF 		bl	UART_1_UartPutString
 204              	.LVL21:
 294:.\main.c      **** }
 205              		.loc 1 294 0
 206              		@ sp needed
 207 0036 38BD     		pop	{r3, r4, r5, pc}
 208              	.L16:
 209              		.align	2
ARM GAS  C:\Users\Sven\AppData\Local\Temp\ccvvqGJt.s 			page 10


 210              	.L15:
 211 0038 00000000 		.word	.LANCHOR0
 212 003c 00000000 		.word	.LANCHOR1
 213 0040 03000000 		.word	.LC4
 214              		.cfi_endproc
 215              	.LFE1492:
 216              		.size	ADC_calibrate_speed, .-ADC_calibrate_speed
 217              		.global	__aeabi_i2d
 218              		.global	__aeabi_dmul
 219              		.global	__aeabi_d2iz
 220              		.global	__aeabi_ddiv
 221              		.global	__aeabi_d2f
 222              		.global	__aeabi_i2f
 223              		.global	__aeabi_fmul
 224              		.global	__aeabi_fadd
 225              		.global	__aeabi_f2d
 226              		.global	__aeabi_dadd
 227              		.global	__aeabi_f2iz
 228              		.global	__aeabi_fsub
 229              		.global	__aeabi_fdiv
 230              		.global	__aeabi_f2uiz
 231              		.section	.text.startup.main,"ax",%progbits
 232              		.align	1
 233              		.global	main
 234              		.code	16
 235              		.thumb_func
 236              		.type	main, %function
 237              	main:
 238              	.LFB1493:
 295:.\main.c      **** 
 296:.\main.c      **** /*=============================*/
 297:.\main.c      **** /* main */
 298:.\main.c      **** /* Application Code */
 299:.\main.c      **** /*=============================*/
 300:.\main.c      **** int main()
 301:.\main.c      **** {
 239              		.loc 1 301 0
 240              		.cfi_startproc
 241 0000 F0B5     		push	{r4, r5, r6, r7, lr}
 242              		.cfi_def_cfa_offset 20
 243              		.cfi_offset 4, -20
 244              		.cfi_offset 5, -16
 245              		.cfi_offset 6, -12
 246              		.cfi_offset 7, -8
 247              		.cfi_offset 14, -4
 302:.\main.c      ****     /* initialization/startup code */
 303:.\main.c      ****     
 304:.\main.c      ****     CyDelay(500); 		/* Wait before initialization happens. -> gives time for receiver to send PPM s
 248              		.loc 1 304 0
 249 0002 FA20     		mov	r0, #250
 301:.\main.c      **** {
 250              		.loc 1 301 0
 251 0004 87B0     		sub	sp, sp, #28
 252              		.cfi_def_cfa_offset 48
 253              		.loc 1 304 0
 254 0006 4000     		lsl	r0, r0, #1
 255 0008 FFF7FEFF 		bl	CyDelay
ARM GAS  C:\Users\Sven\AppData\Local\Temp\ccvvqGJt.s 			page 11


 256              	.LVL22:
 305:.\main.c      ****     CyGlobalIntEnable; 	/* Enable Global Interrupts */
 257              		.loc 1 305 0
 258              	@ 305 ".\main.c" 1
 259 000c 62B6     		CPSIE   i
 260              	@ 0 "" 2
 306:.\main.c      ****     UART_1_Start();     /* Enabling the UART */
 261              		.loc 1 306 0
 262              		.code	16
 263 000e FFF7FEFF 		bl	UART_1_Start
 264              	.LVL23:
 307:.\main.c      ****     I2CM_Start();		/* Enabling I2C */
 265              		.loc 1 307 0
 266 0012 FFF7FEFF 		bl	I2CM_Start
 267              	.LVL24:
 308:.\main.c      ****     ADC_Start();		/* Starting ADC */
 268              		.loc 1 308 0
 269 0016 FFF7FEFF 		bl	ADC_Start
 270              	.LVL25:
 309:.\main.c      ****     
 310:.\main.c      **** 	/*  watchdog Setup */
 311:.\main.c      ****     CySysWdtWriteMode(CY_SYS_WDT_COUNTER0, CY_SYS_WDT_MODE_RESET);  /* Generate SW RESET when not t
 271              		.loc 1 311 0
 272 001a 0020     		mov	r0, #0
 273 001c 0221     		mov	r1, #2
 274 001e FFF7FEFF 		bl	CySysWdtWriteMode
 275              	.LVL26:
 312:.\main.c      ****     CySysWdtWriteMatch(CY_SYS_WDT_COUNTER0, 16000);                 /* Every 16000 cycles // 500ms 
 276              		.loc 1 312 0
 277 0022 FA21     		mov	r1, #250
 278 0024 8901     		lsl	r1, r1, #6
 279 0026 0020     		mov	r0, #0
 280 0028 FFF7FEFF 		bl	CySysWdtWriteMatch
 281              	.LVL27:
 313:.\main.c      ****     //CySysWdtLock(); // Lock WDT settings
 314:.\main.c      ****     
 315:.\main.c      ****     
 316:.\main.c      ****     CyDelay(500);			/* 500ms Delay */
 282              		.loc 1 316 0
 283 002c FA20     		mov	r0, #250
 284 002e 4000     		lsl	r0, r0, #1
 285 0030 FFF7FEFF 		bl	CyDelay
 286              	.LVL28:
 317:.\main.c      ****     TaskTimer_Start();		/* Timer for main Task */
 287              		.loc 1 317 0
 288 0034 FFF7FEFF 		bl	TaskTimer_Start
 289              	.LVL29:
 318:.\main.c      ****     NavLightPWM_Start();	/* Navigation Light PWM Timer Start */
 290              		.loc 1 318 0
 291 0038 FFF7FEFF 		bl	NavLightPWM_Start
 292              	.LVL30:
 319:.\main.c      ****     PPMCounter_Start();		/* PPM counter for input */
 293              		.loc 1 319 0
 294 003c FFF7FEFF 		bl	PPMCounter_Start
 295              	.LVL31:
 320:.\main.c      ****     ServoTimer_Start();		/* Timer for Servo PWM */
 296              		.loc 1 320 0
ARM GAS  C:\Users\Sven\AppData\Local\Temp\ccvvqGJt.s 			page 12


 297 0040 FFF7FEFF 		bl	ServoTimer_Start
 298              	.LVL32:
 321:.\main.c      ****     PPMISR_Start();			/* PPM ISR Start */
 299              		.loc 1 321 0
 300 0044 FFF7FEFF 		bl	PPMISR_Start
 301              	.LVL33:
 322:.\main.c      ****     PPMRstISR_Start();		/* PPM Reset ISR Start*/
 302              		.loc 1 322 0
 303 0048 FFF7FEFF 		bl	PPMRstISR_Start
 304              	.LVL34:
 323:.\main.c      ****     ServoISR_Start();		/* Servo PWM ISR */
 305              		.loc 1 323 0
 306 004c FFF7FEFF 		bl	ServoISR_Start
 307              	.LVL35:
 324:.\main.c      ****     TaskISR_Start();		/* main task ISR */
 308              		.loc 1 324 0
 309 0050 FFF7FEFF 		bl	TaskISR_Start
 310              	.LVL36:
 325:.\main.c      ****     BootISR_Start();		/* Boot ISR Start */
 311              		.loc 1 325 0
 312 0054 FFF7FEFF 		bl	BootISR_Start
 313              	.LVL37:
 326:.\main.c      ****        
 327:.\main.c      ****     /* Mavlink Initialization */
 328:.\main.c      ****     mavlink_system.sysid = 58;     /* ID for Airplane*/
 314              		.loc 1 328 0
 315 0058 614B     		ldr	r3, .L78+8
 316 005a 3A22     		mov	r2, #58
 317 005c 1A70     		strb	r2, [r3]
 329:.\main.c      ****     mavlink_system.compid = 58;    /* The component ID */
 318              		.loc 1 329 0
 319 005e 5A70     		strb	r2, [r3, #1]
 330:.\main.c      ****     
 331:.\main.c      **** 	/* in use if ALT IMU installed */
 332:.\main.c      ****     #ifdef ALTIMU	
 333:.\main.c      ****     if(GYRO_TASK == TRUE) gyro_start();
 334:.\main.c      ****     if(ACC_TASK == TRUE) acc_start();
 335:.\main.c      ****     if(MAG_TASK == TRUE) mag_start();
 336:.\main.c      **** 	/* in use if MPU6050 installed */
 337:.\main.c      ****     #else 
 338:.\main.c      ****     if(GYRO_TASK == TRUE) MPU6050_Init();
 320              		.loc 1 338 0
 321 0060 FFF7FEFF 		bl	MPU6050_Init
 322              	.LVL38:
 339:.\main.c      ****     #endif
 340:.\main.c      ****     
 341:.\main.c      ****     if(BARO_TASK == TRUE) 
 342:.\main.c      **** 	{
 343:.\main.c      **** 		BMP180_baro_init();		/* Initialize Barometer BMP180 */
 323              		.loc 1 343 0
 324 0064 FFF7FEFF 		bl	BMP180_baro_init
 325              	.LVL39:
 344:.\main.c      **** 		
 345:.\main.c      **** 		/* Determine current pressure setting (On ground pressure (QNH) */
 346:.\main.c      **** 		
 347:.\main.c      ****         BMP180_baro_trigger_temp();			/* Trigger Temperature conversion and wait min 4.5ms */
 326              		.loc 1 347 0
ARM GAS  C:\Users\Sven\AppData\Local\Temp\ccvvqGJt.s 			page 13


 327 0068 FFF7FEFF 		bl	BMP180_baro_trigger_temp
 328              	.LVL40:
 348:.\main.c      **** 		CyDelay(5);
 329              		.loc 1 348 0
 330 006c 0520     		mov	r0, #5
 331 006e FFF7FEFF 		bl	CyDelay
 332              	.LVL41:
 349:.\main.c      **** 		temp = BMP180_baro_read_temp();		/* Read temperature from Barometer */
 333              		.loc 1 349 0
 334 0072 FFF7FEFF 		bl	BMP180_baro_read_temp
 335              	.LVL42:
 336 0076 5B4C     		ldr	r4, .L78+12
 337 0078 6060     		str	r0, [r4, #4]
 350:.\main.c      **** 		CyDelay(5);
 338              		.loc 1 350 0
 339 007a 0520     		mov	r0, #5
 340 007c FFF7FEFF 		bl	CyDelay
 341              	.LVL43:
 351:.\main.c      **** 		BMP180_baro_trigger_pressure();		/* Trigger pressure conversion and wait min 4.5ms */
 342              		.loc 1 351 0
 343 0080 FFF7FEFF 		bl	BMP180_baro_trigger_pressure
 344              	.LVL44:
 352:.\main.c      **** 		CyDelay(5);                    
 345              		.loc 1 352 0
 346 0084 0520     		mov	r0, #5
 347 0086 FFF7FEFF 		bl	CyDelay
 348              	.LVL45:
 353:.\main.c      **** 		QFE = BMP180_baro_read_pressure();/* Read pressure and calculate pressure output */
 349              		.loc 1 353 0
 350 008a FFF7FEFF 		bl	BMP180_baro_read_pressure
 351              	.LVL46:
 352 008e A060     		str	r0, [r4, #8]
 354:.\main.c      **** 		UART_1_UartPutString("Current QFE: ");
 353              		.loc 1 354 0
 354 0090 5548     		ldr	r0, .L78+16
 355 0092 FFF7FEFF 		bl	UART_1_UartPutString
 356              	.LVL47:
 355:.\main.c      **** 		UART_1_UartPutNum(QFE);
 357              		.loc 1 355 0
 358 0096 A068     		ldr	r0, [r4, #8]
 359 0098 FFF7FEFF 		bl	UART_1_UartPutNum
 360              	.LVL48:
 356:.\main.c      **** 		UART_1_UartPutString("\r\n");
 361              		.loc 1 356 0
 362 009c 5348     		ldr	r0, .L78+20
 363 009e FFF7FEFF 		bl	UART_1_UartPutString
 364              	.LVL49:
 357:.\main.c      **** 	}
 358:.\main.c      ****     
 359:.\main.c      ****     /* Enable Watchdog */
 360:.\main.c      ****     CySysWdtEnable(CY_SYS_WDT_COUNTER0_MASK);
 365              		.loc 1 360 0
 366 00a2 0120     		mov	r0, #1
 367 00a4 FFF7FEFF 		bl	CySysWdtEnable
 368              	.LVL50:
 361:.\main.c      **** 	
 362:.\main.c      **** 	/* Initialization Complete */
ARM GAS  C:\Users\Sven\AppData\Local\Temp\ccvvqGJt.s 			page 14


 363:.\main.c      ****     UART_1_UartPutString("Init Complete\r\n");
 369              		.loc 1 363 0
 370 00a8 5148     		ldr	r0, .L78+24
 371 00aa FFF7FEFF 		bl	UART_1_UartPutString
 372              	.LVL51:
 373              	.L65:
 364:.\main.c      ****     for(;;)
 365:.\main.c      ****     {
 366:.\main.c      ****         
 367:.\main.c      ****         if(task_flag == TRUE)
 374              		.loc 1 367 0
 375 00ae 4D4F     		ldr	r7, .L78+12
 376 00b0 3B7B     		ldrb	r3, [r7, #12]
 377 00b2 012B     		cmp	r3, #1
 378 00b4 00D0     		beq	.LCB274
 379 00b6 94E3     		b	.L19	@long jump
 380              	.LCB274:
 368:.\main.c      ****         {
 369:.\main.c      ****             /*=======================================
 370:.\main.c      ****                 Main Task that is executed every 10ms
 371:.\main.c      ****               =======================================*/
 372:.\main.c      ****             task_flag = FALSE;	/* Resetting Task Flag */    
 373:.\main.c      ****             
 374:.\main.c      ****             /*=======================================
 375:.\main.c      ****                 Light Control
 376:.\main.c      ****               =======================================*/
 377:.\main.c      ****             
 378:.\main.c      ****             if(flag_LightsEnabled == TRUE)
 381              		.loc 1 378 0
 382 00b8 4E4E     		ldr	r6, .L78+28
 372:.\main.c      ****             task_flag = FALSE;	/* Resetting Task Flag */    
 383              		.loc 1 372 0
 384 00ba 0024     		mov	r4, #0
 385              		.loc 1 378 0
 386 00bc B278     		ldrb	r2, [r6, #2]
 372:.\main.c      ****             task_flag = FALSE;	/* Resetting Task Flag */    
 387              		.loc 1 372 0
 388 00be 3C73     		strb	r4, [r7, #12]
 389              		.loc 1 378 0
 390 00c0 012A     		cmp	r2, #1
 391 00c2 2CD1     		bne	.L20
 379:.\main.c      ****             {
 380:.\main.c      ****                 /* Lights enabled */
 381:.\main.c      ****                 /* START PWM FOR NAV LIGHTS HERE */
 382:.\main.c      ****                 if(NavLightCompare == NavLightBright)
 392              		.loc 1 382 0
 393 00c4 FB89     		ldrh	r3, [r7, #14]
 394 00c6 B188     		ldrh	r1, [r6, #4]
 395 00c8 9942     		cmp	r1, r3
 396 00ca 01D1     		bne	.L21
 383:.\main.c      ****                 {
 384:.\main.c      ****                     flag_NavLightPulse = TRUE;
 397              		.loc 1 384 0
 398 00cc 3A74     		strb	r2, [r7, #16]
 399 00ce 03E0     		b	.L22
 400              	.L21:
 385:.\main.c      ****                 }
ARM GAS  C:\Users\Sven\AppData\Local\Temp\ccvvqGJt.s 			page 15


 386:.\main.c      ****                 else if (NavLightCompare == NavLightDim)
 401              		.loc 1 386 0
 402 00d0 7A8A     		ldrh	r2, [r7, #18]
 403 00d2 9A42     		cmp	r2, r3
 404 00d4 00D1     		bne	.L22
 387:.\main.c      ****                 {
 388:.\main.c      ****                     flag_NavLightPulse = FALSE;
 405              		.loc 1 388 0
 406 00d6 3C74     		strb	r4, [r7, #16]
 407              	.L22:
 389:.\main.c      ****                 }
 390:.\main.c      ****                 if(flag_NavLightPulse == 0)
 408              		.loc 1 390 0
 409 00d8 3A7C     		ldrb	r2, [r7, #16]
 391:.\main.c      ****                 {
 392:.\main.c      ****                     NavLightCompare+=NavLightStep;
 410              		.loc 1 392 0
 411 00da F088     		ldrh	r0, [r6, #6]
 390:.\main.c      ****                 if(flag_NavLightPulse == 0)
 412              		.loc 1 390 0
 413 00dc 002A     		cmp	r2, #0
 414 00de 01D1     		bne	.L23
 415              		.loc 1 392 0
 416 00e0 1B18     		add	r3, r3, r0
 417 00e2 00E0     		b	.L73
 418              	.L23:
 393:.\main.c      ****                     NavLightPWM_WriteCompare(NavLightCompare);
 394:.\main.c      ****                 }
 395:.\main.c      ****                 else
 396:.\main.c      ****                 {
 397:.\main.c      ****                     NavLightCompare-=NavLightStep;
 419              		.loc 1 397 0
 420 00e4 1B1A     		sub	r3, r3, r0
 421              	.L73:
 422 00e6 98B2     		uxth	r0, r3
 423 00e8 F881     		strh	r0, [r7, #14]
 398:.\main.c      ****                     NavLightPWM_WriteCompare(NavLightCompare);
 424              		.loc 1 398 0
 425 00ea FFF7FEFF 		bl	NavLightPWM_WriteCompare
 426              	.LVL52:
 399:.\main.c      ****                 }
 400:.\main.c      ****                 /* Strobe Light Control */
 401:.\main.c      ****                 if(cnt_StrobeLight == 200) Strobes_Write(0xFF); /* Setting Output High */
 427              		.loc 1 401 0
 428 00ee 3B7D     		ldrb	r3, [r7, #20]
 429 00f0 C82B     		cmp	r3, #200
 430 00f2 02D1     		bne	.L25
 431              		.loc 1 401 0 is_stmt 0 discriminator 1
 432 00f4 FF20     		mov	r0, #255
 433 00f6 FFF7FEFF 		bl	Strobes_Write
 434              	.LVL53:
 435              	.L25:
 402:.\main.c      ****                 if(cnt_StrobeLight == 205)  /* (205 - 200) *10 ms = 5 * 10 ms = 50 ms Strobe */
 436              		.loc 1 402 0 is_stmt 1
 437 00fa 3B7D     		ldrb	r3, [r7, #20]
 438 00fc CD2B     		cmp	r3, #205
 439 00fe 03D1     		bne	.L26
ARM GAS  C:\Users\Sven\AppData\Local\Temp\ccvvqGJt.s 			page 16


 403:.\main.c      ****                 {
 404:.\main.c      ****                     cnt_StrobeLight = 0;
 440              		.loc 1 404 0
 441 0100 0020     		mov	r0, #0
 442 0102 3875     		strb	r0, [r7, #20]
 405:.\main.c      ****                     Strobes_Write(0x00);    /* Setting output Low */
 443              		.loc 1 405 0
 444 0104 FFF7FEFF 		bl	Strobes_Write
 445              	.LVL54:
 446              	.L26:
 406:.\main.c      ****                 }
 407:.\main.c      ****                 cnt_StrobeLight++;
 447              		.loc 1 407 0
 448 0108 3B7D     		ldrb	r3, [r7, #20]
 408:.\main.c      ****                 /* Landing Light Control */
 409:.\main.c      ****                 if(ctrl_in[in_gear] < 1100)
 449              		.loc 1 409 0
 450 010a 364C     		ldr	r4, .L78+12
 407:.\main.c      ****                 cnt_StrobeLight++;
 451              		.loc 1 407 0
 452 010c 0133     		add	r3, r3, #1
 453 010e 3B75     		strb	r3, [r7, #20]
 454              		.loc 1 409 0
 455 0110 E28B     		ldrh	r2, [r4, #30]
 456 0112 394B     		ldr	r3, .L78+32
 410:.\main.c      ****                 {
 411:.\main.c      ****                     Ldg_Write(0xFF);
 457              		.loc 1 411 0
 458 0114 FF20     		mov	r0, #255
 409:.\main.c      ****                 if(ctrl_in[in_gear] < 1100)
 459              		.loc 1 409 0
 460 0116 9A42     		cmp	r2, r3
 461 0118 08D9     		bls	.L74
 412:.\main.c      ****                 }
 413:.\main.c      ****                 else Ldg_Write(0x00);
 462              		.loc 1 413 0
 463 011a 0020     		mov	r0, #0
 464 011c 06E0     		b	.L74
 465              	.L20:
 414:.\main.c      ****             }
 415:.\main.c      ****             else
 416:.\main.c      ****             {
 417:.\main.c      ****                 /* Lights disabled*/
 418:.\main.c      ****                 NavLightPWM_WriteCompare(0);    /* Nav Lights set to 0 */
 466              		.loc 1 418 0
 467 011e 201C     		mov	r0, r4
 468 0120 FFF7FEFF 		bl	NavLightPWM_WriteCompare
 469              	.LVL55:
 419:.\main.c      ****                 Strobes_Write(0x00);    		/* Setting output Low */
 470              		.loc 1 419 0
 471 0124 201C     		mov	r0, r4
 472 0126 FFF7FEFF 		bl	Strobes_Write
 473              	.LVL56:
 420:.\main.c      ****                 Ldg_Write(0x00);
 474              		.loc 1 420 0
 475 012a 201C     		mov	r0, r4
 476              	.L74:
ARM GAS  C:\Users\Sven\AppData\Local\Temp\ccvvqGJt.s 			page 17


 477 012c FFF7FEFF 		bl	Ldg_Write
 478              	.LVL57:
 421:.\main.c      ****             }
 422:.\main.c      **** 
 423:.\main.c      ****             /*=======================================
 424:.\main.c      ****                 Sensor Reading
 425:.\main.c      ****               =======================================*/
 426:.\main.c      **** 			/* Gyro Reading */
 427:.\main.c      ****             if(GYRO_TASK == TRUE)
 428:.\main.c      ****             {
 429:.\main.c      ****                 #ifdef ALTIMU
 430:.\main.c      ****                     gyro_read();
 431:.\main.c      ****                 #else
 432:.\main.c      ****                     MPU6050_data_read();    /* All MPU Data is read at once */
 479              		.loc 1 432 0
 480 0130 FFF7FEFF 		bl	MPU6050_data_read
 481              	.LVL58:
 433:.\main.c      ****                 #endif
 434:.\main.c      **** 
 435:.\main.c      ****             }
 436:.\main.c      ****             if(ACC_TASK == TRUE)
 437:.\main.c      ****             {
 438:.\main.c      ****                 #ifdef ALTIMU
 439:.\main.c      ****                     acc_read();
 440:.\main.c      ****                 #else
 441:.\main.c      ****                     //MPU6050_acc_read();
 442:.\main.c      ****                     
 443:.\main.c      ****                 #endif
 444:.\main.c      **** 
 445:.\main.c      ****             }
 446:.\main.c      ****             if(MAG_TASK == TRUE)
 447:.\main.c      ****             {
 448:.\main.c      ****                 #ifdef ALTIMU
 449:.\main.c      ****                     mag_read();
 450:.\main.c      ****                 #endif
 451:.\main.c      ****             }
 452:.\main.c      ****             if(BARO_TASK == TRUE)
 453:.\main.c      ****             {
 454:.\main.c      **** 				/* The pressure reading from BMP180 takes some time (check functions) 
 455:.\main.c      **** 					therefore we are not in one cycle doing all calculcations but put
 456:.\main.c      **** 					one cycle in between calculations / triggering etc. */
 457:.\main.c      ****                 cnt_baro++;
 482              		.loc 1 457 0
 483 0134 2B4A     		ldr	r2, .L78+12
 484 0136 0732     		add	r2, r2, #7
 485 0138 D37F     		ldrb	r3, [r2, #31]
 486 013a 0133     		add	r3, r3, #1
 487 013c DBB2     		uxtb	r3, r3
 488 013e D377     		strb	r3, [r2, #31]
 458:.\main.c      ****                 if(cnt_baro == 49)
 489              		.loc 1 458 0
 490 0140 312B     		cmp	r3, #49
 491 0142 01D1     		bne	.L29
 459:.\main.c      ****                 {
 460:.\main.c      ****                     /* Trigger Temperature conversion and wait min 4.5ms */
 461:.\main.c      ****                     BMP180_baro_trigger_temp();
 492              		.loc 1 461 0
ARM GAS  C:\Users\Sven\AppData\Local\Temp\ccvvqGJt.s 			page 18


 493 0144 FFF7FEFF 		bl	BMP180_baro_trigger_temp
 494              	.LVL59:
 495              	.L29:
 462:.\main.c      ****                 }
 463:.\main.c      ****                 if(cnt_baro == 50)
 496              		.loc 1 463 0
 497 0148 264B     		ldr	r3, .L78+12
 498 014a 0733     		add	r3, r3, #7
 499 014c DB7F     		ldrb	r3, [r3, #31]
 500 014e 322B     		cmp	r3, #50
 501 0150 02D1     		bne	.L30
 464:.\main.c      ****                 {
 465:.\main.c      ****                     /* Read temperature from Barometer */
 466:.\main.c      ****                     temp = BMP180_baro_read_temp();
 502              		.loc 1 466 0
 503 0152 FFF7FEFF 		bl	BMP180_baro_read_temp
 504              	.LVL60:
 505 0156 7860     		str	r0, [r7, #4]
 506              	.L30:
 467:.\main.c      **** 
 468:.\main.c      ****                     //UART_1_UartPutNum(temp);
 469:.\main.c      ****                     //UART_1_UartPutString("; ");
 470:.\main.c      ****                 }
 471:.\main.c      ****                 if(cnt_baro == 51)
 507              		.loc 1 471 0
 508 0158 224B     		ldr	r3, .L78+12
 509 015a 0733     		add	r3, r3, #7
 510 015c DB7F     		ldrb	r3, [r3, #31]
 511 015e 332B     		cmp	r3, #51
 512 0160 01D1     		bne	.L31
 472:.\main.c      ****                 {
 473:.\main.c      ****                     /* Trigger pressure conversion and wait min 4.5ms */
 474:.\main.c      ****                     BMP180_baro_trigger_pressure();
 513              		.loc 1 474 0
 514 0162 FFF7FEFF 		bl	BMP180_baro_trigger_pressure
 515              	.LVL61:
 516              	.L31:
 475:.\main.c      ****                 }
 476:.\main.c      ****                 if(cnt_baro == 52)
 517              		.loc 1 476 0
 518 0166 1F4B     		ldr	r3, .L78+12
 519 0168 0733     		add	r3, r3, #7
 520 016a DB7F     		ldrb	r3, [r3, #31]
 521 016c 342B     		cmp	r3, #52
 522 016e 02D1     		bne	.L32
 477:.\main.c      ****                 {
 478:.\main.c      ****                     
 479:.\main.c      ****                     /* Read pressure and calculate pressure output */
 480:.\main.c      ****                     press = BMP180_baro_read_pressure();
 523              		.loc 1 480 0
 524 0170 FFF7FEFF 		bl	BMP180_baro_read_pressure
 525              	.LVL62:
 526 0174 B862     		str	r0, [r7, #40]
 527              	.L32:
 481:.\main.c      ****                     //UART_1_UartPutNum(press/100);
 482:.\main.c      ****                     //UART_1_UartPutString("; ");
 483:.\main.c      ****                 }
ARM GAS  C:\Users\Sven\AppData\Local\Temp\ccvvqGJt.s 			page 19


 484:.\main.c      ****                 if(cnt_baro == 53)
 528              		.loc 1 484 0
 529 0176 1B4B     		ldr	r3, .L78+12
 530 0178 0733     		add	r3, r3, #7
 531 017a DA7F     		ldrb	r2, [r3, #31]
 532 017c 352A     		cmp	r2, #53
 533 017e 0DD1     		bne	.L33
 485:.\main.c      ****                 {
 486:.\main.c      ****                     cnt_baro = 0;
 487:.\main.c      ****                     /* Calculate Altitude */
 488:.\main.c      ****                     /* take calibrated pressure (QFE) and determine by press difference the altitud
 489:.\main.c      ****                     alt = (QFE-(press))*0.0843;  // pressure in Pa -> 0.0843m / Pa of change
 534              		.loc 1 489 0
 535 0180 B96A     		ldr	r1, [r7, #40]
 536 0182 BD68     		ldr	r5, [r7, #8]
 486:.\main.c      ****                     cnt_baro = 0;
 537              		.loc 1 486 0
 538 0184 0022     		mov	r2, #0
 539 0186 DA77     		strb	r2, [r3, #31]
 540              		.loc 1 489 0
 541 0188 681A     		sub	r0, r5, r1
 542 018a FFF7FEFF 		bl	__aeabi_i2d
 543              	.LVL63:
 544 018e 134B     		ldr	r3, .L78+4
 545 0190 114A     		ldr	r2, .L78
 546 0192 FFF7FEFF 		bl	__aeabi_dmul
 547              	.LVL64:
 548 0196 FFF7FEFF 		bl	__aeabi_d2iz
 549              	.LVL65:
 550 019a F862     		str	r0, [r7, #44]
 551              	.L33:
 490:.\main.c      ****                     
 491:.\main.c      ****                 }
 492:.\main.c      ****             }
 493:.\main.c      ****             if(SPEED_TASK == TRUE)
 494:.\main.c      ****             {
 495:.\main.c      ****                 
 496:.\main.c      ****                 /*
 497:.\main.c      **** 				For calibrating the speed reading, put both sticks to lower left corner
 498:.\main.c      **** 				
 499:.\main.c      ****                      - - - -         - - - -
 500:.\main.c      ****                     |       |       |       |
 501:.\main.c      ****                     |       |       |       |
 502:.\main.c      ****                     |       |       |       |
 503:.\main.c      ****                     |X      |       |X      |
 504:.\main.c      ****                      - - - -         - - - -
 505:.\main.c      ****                 */
 506:.\main.c      ****                 
 507:.\main.c      ****                 if((ctrl_in[in_mot]<1200) &&        
 552              		.loc 1 507 0
 553 019c 114B     		ldr	r3, .L78+12
 554 019e 1749     		ldr	r1, .L78+36
 555 01a0 FA8A     		ldrh	r2, [r7, #22]
 556 01a2 1633     		add	r3, r3, #22
 557 01a4 8A42     		cmp	r2, r1
 558 01a6 2DD8     		bhi	.L34
 559              		.loc 1 507 0 is_stmt 0 discriminator 1
ARM GAS  C:\Users\Sven\AppData\Local\Temp\ccvvqGJt.s 			page 20


 560 01a8 D888     		ldrh	r0, [r3, #6]
 561 01aa E122     		mov	r2, #225
 562 01ac D200     		lsl	r2, r2, #3
 563 01ae 9042     		cmp	r0, r2
 564 01b0 28D9     		bls	.L34
 508:.\main.c      ****                    (ctrl_in[in_rud]>1800) && 
 565              		.loc 1 508 0 is_stmt 1
 566 01b2 5888     		ldrh	r0, [r3, #2]
 567 01b4 8842     		cmp	r0, r1
 568 01b6 25D8     		bhi	.L34
 509:.\main.c      ****                    (ctrl_in[in_ail]<1200) &&
 569              		.loc 1 509 0
 570 01b8 9B88     		ldrh	r3, [r3, #4]
 571 01ba 9342     		cmp	r3, r2
 572 01bc 22D9     		bls	.L34
 510:.\main.c      ****                    (ctrl_in[in_ele]>1800) &&
 511:.\main.c      ****                     speed_cal_compl == FALSE)
 573              		.loc 1 511 0
 574 01be 094B     		ldr	r3, .L78+12
 575 01c0 3033     		add	r3, r3, #48
 510:.\main.c      ****                    (ctrl_in[in_ele]>1800) &&
 576              		.loc 1 510 0
 577 01c2 1A78     		ldrb	r2, [r3]
 578 01c4 002A     		cmp	r2, #0
 579 01c6 1DD1     		bne	.L34
 512:.\main.c      ****                 {
 513:.\main.c      ****                     speed_cal_compl = TRUE;
 580              		.loc 1 513 0
 581 01c8 0122     		mov	r2, #1
 582 01ca 1A70     		strb	r2, [r3]
 514:.\main.c      **** 					/* used to determine the speed offset (not during power up as 
 515:.\main.c      **** 					the reading stablizes after some seconds only) */
 516:.\main.c      ****                     ADC_calibrate_speed();
 583              		.loc 1 516 0
 584 01cc FFF7FEFF 		bl	ADC_calibrate_speed
 585              	.LVL66:
 517:.\main.c      ****                     UART_1_UartPutString("ADC Calibrated\r\n");
 586              		.loc 1 517 0
 587 01d0 0B48     		ldr	r0, .L78+40
 588 01d2 FFF7FEFF 		bl	UART_1_UartPutString
 589              	.LVL67:
 590 01d6 2AE0     		b	.L35
 591              	.L79:
 592              		.align	3
 593              	.L78:
 594 01d8 4D840D4F 		.word	1326285901
 595 01dc AF94B53F 		.word	1068864687
 596 01e0 00000000 		.word	mavlink_system
 597 01e4 00000000 		.word	.LANCHOR1
 598 01e8 0F000000 		.word	.LC9
 599 01ec 1D000000 		.word	.LC11
 600 01f0 20000000 		.word	.LC13
 601 01f4 00000000 		.word	.LANCHOR0
 602 01f8 4B040000 		.word	1099
 603 01fc AF040000 		.word	1199
 604 0200 30000000 		.word	.LC16
 605              	.L34:
ARM GAS  C:\Users\Sven\AppData\Local\Temp\ccvvqGJt.s 			page 21


 518:.\main.c      ****                 }
 519:.\main.c      ****                 else if((ctrl_in[in_rud]>1200) && 
 606              		.loc 1 519 0
 607 0204 C44B     		ldr	r3, .L80+40
 608 0206 9622     		mov	r2, #150
 609 0208 998B     		ldrh	r1, [r3, #28]
 610 020a D200     		lsl	r2, r2, #3
 611 020c 1633     		add	r3, r3, #22
 612 020e 9142     		cmp	r1, r2
 613 0210 0DD9     		bls	.L35
 614              		.loc 1 519 0 is_stmt 0 discriminator 1
 615 0212 5988     		ldrh	r1, [r3, #2]
 616 0214 9142     		cmp	r1, r2
 617 0216 0AD9     		bls	.L35
 520:.\main.c      ****                    (ctrl_in[in_ail]>1200) &&
 618              		.loc 1 520 0 is_stmt 1
 619 0218 9A88     		ldrh	r2, [r3, #4]
 620 021a C04B     		ldr	r3, .L80+44
 621 021c 9A42     		cmp	r2, r3
 622 021e 06D8     		bhi	.L35
 521:.\main.c      ****                    (ctrl_in[in_ele]<1800) &&
 522:.\main.c      ****                     speed_cal_compl == TRUE)
 623              		.loc 1 522 0
 624 0220 BD4B     		ldr	r3, .L80+40
 625 0222 3033     		add	r3, r3, #48
 521:.\main.c      ****                    (ctrl_in[in_ele]<1800) &&
 626              		.loc 1 521 0
 627 0224 1A78     		ldrb	r2, [r3]
 628 0226 012A     		cmp	r2, #1
 629 0228 01D1     		bne	.L35
 523:.\main.c      ****                 {
 524:.\main.c      ****                     speed_cal_compl = FALSE;
 630              		.loc 1 524 0
 631 022a 0022     		mov	r2, #0
 632 022c 1A70     		strb	r2, [r3]
 633              	.L35:
 525:.\main.c      ****                 }
 526:.\main.c      ****                 speed = ADC_read_speed() - speed_offset;
 634              		.loc 1 526 0
 635 022e FFF7FEFF 		bl	ADC_read_speed
 636              	.LVL68:
 637 0232 3388     		ldrh	r3, [r6]
 638 0234 C01A     		sub	r0, r0, r3
 639 0236 7880     		strh	r0, [r7, #2]
 527:.\main.c      ****             }
 528:.\main.c      ****             
 529:.\main.c      ****             /* Theta and Phi out of acceleration data*/
 530:.\main.c      ****             Theta_acc = (atan2(acc_x_g,-acc_z_g))*180/PI;
 640              		.loc 1 530 0
 641 0238 3222     		mov	r2, #50
 642 023a B85E     		ldrsh	r0, [r7, r2]
 643 023c FFF7FEFF 		bl	__aeabi_i2d
 644              	.LVL69:
 645 0240 041C     		mov	r4, r0
 646 0242 3423     		mov	r3, #52
 647 0244 F85E     		ldrsh	r0, [r7, r3]
 648 0246 0D1C     		mov	r5, r1
ARM GAS  C:\Users\Sven\AppData\Local\Temp\ccvvqGJt.s 			page 22


 649 0248 4042     		neg	r0, r0
 650 024a FFF7FEFF 		bl	__aeabi_i2d
 651              	.LVL70:
 652 024e 021C     		mov	r2, r0
 653 0250 0B1C     		mov	r3, r1
 654 0252 201C     		mov	r0, r4
 655 0254 291C     		mov	r1, r5
 656 0256 FFF7FEFF 		bl	atan2
 657              	.LVL71:
 658 025a A64B     		ldr	r3, .L80+4
 659 025c A44A     		ldr	r2, .L80
 660 025e FFF7FEFF 		bl	__aeabi_dmul
 661              	.LVL72:
 662 0262 A54A     		ldr	r2, .L80+8
 663 0264 A54B     		ldr	r3, .L80+12
 664 0266 FFF7FEFF 		bl	__aeabi_ddiv
 665              	.LVL73:
 666 026a FFF7FEFF 		bl	__aeabi_d2f
 667              	.LVL74:
 668 026e B863     		str	r0, [r7, #56]
 531:.\main.c      **** 		    Phi_acc = (atan2(-acc_y_g,-acc_z_g))*180/PI;
 669              		.loc 1 531 0
 670 0270 3C24     		mov	r4, #60
 671 0272 385F     		ldrsh	r0, [r7, r4]
 672 0274 4042     		neg	r0, r0
 673 0276 FFF7FEFF 		bl	__aeabi_i2d
 674              	.LVL75:
 675 027a 0D1C     		mov	r5, r1
 676 027c 041C     		mov	r4, r0
 677 027e 3421     		mov	r1, #52
 678 0280 785E     		ldrsh	r0, [r7, r1]
 679 0282 4042     		neg	r0, r0
 680 0284 FFF7FEFF 		bl	__aeabi_i2d
 681              	.LVL76:
 682 0288 021C     		mov	r2, r0
 683 028a 0B1C     		mov	r3, r1
 684 028c 201C     		mov	r0, r4
 685 028e 291C     		mov	r1, r5
 686 0290 FFF7FEFF 		bl	atan2
 687              	.LVL77:
 688 0294 974B     		ldr	r3, .L80+4
 689 0296 964A     		ldr	r2, .L80
 690 0298 FFF7FEFF 		bl	__aeabi_dmul
 691              	.LVL78:
 692 029c 964A     		ldr	r2, .L80+8
 693 029e 974B     		ldr	r3, .L80+12
 694 02a0 FFF7FEFF 		bl	__aeabi_ddiv
 695              	.LVL79:
 696 02a4 FFF7FEFF 		bl	__aeabi_d2f
 697              	.LVL80:
 532:.\main.c      ****             //Psi_acc = (atan2(-acc_y_g,-acc_x_g))*180/PI;	/* Psi is not of any use, Heading would 
 533:.\main.c      **** 			
 534:.\main.c      **** 			
 535:.\main.c      **** 			/*=========================================================*/
 536:.\main.c      **** 			/* KALMAN FILTER  */
 537:.\main.c      **** 			/* Calculating the attitude by using Kalman Filtering START*/
 538:.\main.c      **** 			/* Currently not in use due to high calculation efforts, using complementary filter only (see be
ARM GAS  C:\Users\Sven\AppData\Local\Temp\ccvvqGJt.s 			page 23


 539:.\main.c      **** 			/*=======================================================*/
 540:.\main.c      **** //            Theta += sample_time * (turn_rate_q-q_bias);
 541:.\main.c      **** //            
 542:.\main.c      **** //			//P_00_Theta +=  - sample_time * ((P_10_Theta + P_01_Theta) - Q_angle);
 543:.\main.c      **** //            P_Theta[0][0] +=  - sample_time * ((P_Theta[1][0] + P_Theta[0][1]) - Q_angle);
 544:.\main.c      **** ////			P_01_Theta +=  - sample_time * P_11_Theta;
 545:.\main.c      **** //            P_Theta[0][1] +=  - sample_time * P_Theta[1][1];
 546:.\main.c      **** //			//P_10_Theta = P_01_Theta;
 547:.\main.c      **** //            P_Theta[1][0] = P_Theta[0][1];
 548:.\main.c      **** //			//P_11_Theta +=  + Q_gyro * sample_time;
 549:.\main.c      **** //            P_Theta[1][1] +=  + Q_gyro * sample_time;
 550:.\main.c      **** //			
 551:.\main.c      **** //			
 552:.\main.c      **** //			Phi += sample_time * (turn_rate_p-p_bias);
 553:.\main.c      **** //			P_Phi[0][0] +=  - sample_time * ((P_Phi[1][0] + P_Phi[0][1]) - Q_angle);
 554:.\main.c      **** //			P_Phi[0][1] +=  - sample_time * P_Phi[1][1];
 555:.\main.c      **** //			P_Phi[1][0] = P_Phi[0][1];
 556:.\main.c      **** //			P_Phi[1][1] +=  + Q_gyro * sample_time;
 557:.\main.c      **** //			
 558:.\main.c      **** //		
 559:.\main.c      **** //			/*
 560:.\main.c      **** //			Psi += sample_time * (r_filt-r_bias);
 561:.\main.c      **** //			P_00_Psi +=  - sample_time * (P_10_Psi + P_01_Psi) + Q_angle * sample_time;
 562:.\main.c      **** //			P_01_Psi +=  - sample_time * P_11_Psi;
 563:.\main.c      **** //			P_10_Psi +=  - sample_time * P_11_Psi;
 564:.\main.c      **** //			P_11_Psi +=  + Q_gyro * sample_time;
 565:.\main.c      **** //			*/
 566:.\main.c      **** //			Theta_temp = Theta_acc - Theta;
 567:.\main.c      **** //			S_Theta = P_Theta[0][0] + R_angle;
 568:.\main.c      **** //			K_0_Theta = P_Theta[0][0] / S_Theta;
 569:.\main.c      **** //			K_1_Theta = P_Theta[1][0] / S_Theta;
 570:.\main.c      **** //			
 571:.\main.c      **** //			Phi_temp = Phi_acc - Phi;
 572:.\main.c      **** //			S_Phi = P_Phi[0][0] + R_angle;
 573:.\main.c      **** //			K_0_Phi = P_Phi[0][0] / S_Phi;
 574:.\main.c      **** //			K_1_Phi = P_Phi[1][0] / S_Phi;
 575:.\main.c      **** //			/*
 576:.\main.c      **** //			Psi_temp = mag - Psi;
 577:.\main.c      **** //			S_Psi = P_00_Psi + R_angle;
 578:.\main.c      **** //			K_0_Psi = P_00_Psi / S_Psi;
 579:.\main.c      **** //			K_1_Psi = P_10_Psi / S_Psi;
 580:.\main.c      **** //			*/
 581:.\main.c      **** //			Theta +=  K_0_Theta * Theta_temp;
 582:.\main.c      **** //			q_bias  +=  K_1_Theta * Theta_temp;
 583:.\main.c      **** //			P_Theta[0][0] -= K_0_Theta * P_Theta[0][0];
 584:.\main.c      **** //			P_Theta[0][1] -= K_0_Theta * P_Theta[0][1];
 585:.\main.c      **** //			P_Theta[1][0] -= K_1_Theta * P_Theta[0][0];
 586:.\main.c      **** //			P_Theta[1][1] -= K_1_Theta * P_Theta[0][1];
 587:.\main.c      **** //			
 588:.\main.c      **** //			Phi +=  K_0_Phi * Phi_temp;
 589:.\main.c      **** //			p_bias  +=  K_1_Phi * Phi_temp;
 590:.\main.c      **** //			P_Phi[0][0] -= K_0_Phi * P_Phi[0][0];
 591:.\main.c      **** //			P_Phi[0][1] -= K_0_Phi * P_Phi[0][1];
 592:.\main.c      **** //			P_Phi[1][0] -= K_1_Phi * P_Phi[0][0];
 593:.\main.c      **** //			P_Phi[1][1] -= K_1_Phi * P_Phi[0][1];
 594:.\main.c      **** 
 595:.\main.c      **** 			/* ============================================== */
ARM GAS  C:\Users\Sven\AppData\Local\Temp\ccvvqGJt.s 			page 24


 596:.\main.c      **** 			/* Complementary Filter Design 					  */
 597:.\main.c      **** 			/* ============================================== */
 598:.\main.c      **** 		
 599:.\main.c      **** 			//angle = 0.98 *(angle+gyro*dt) + 0.02*acc
 600:.\main.c      ****             // Complementary filter. Substitute for Kalman filter.
 601:.\main.c      ****             // gives useable results
 602:.\main.c      ****             Theta = (0.45* (Theta + turn_rate_q*sample_time) + 0.55*Theta_acc);
 698              		.loc 1 602 0
 699 02a8 9B4B     		ldr	r3, .L80+40
 700 02aa B468     		ldr	r4, [r6, #8]
 701 02ac 0633     		add	r3, r3, #6
 702 02ae DB8F     		ldrh	r3, [r3, #62]
 531:.\main.c      **** 		    Phi_acc = (atan2(-acc_y_g,-acc_z_g))*180/PI;
 703              		.loc 1 531 0
 704 02b0 0190     		str	r0, [sp, #4]
 705 02b2 3864     		str	r0, [r7, #64]
 706              		.loc 1 602 0
 707 02b4 18B2     		sxth	r0, r3
 708 02b6 0493     		str	r3, [sp, #16]
 709 02b8 0294     		str	r4, [sp, #8]
 710 02ba FFF7FEFF 		bl	__aeabi_i2f
 711              	.LVL81:
 712 02be 0299     		ldr	r1, [sp, #8]
 713 02c0 FFF7FEFF 		bl	__aeabi_fmul
 714              	.LVL82:
 715 02c4 964D     		ldr	r5, .L80+48
 716 02c6 2968     		ldr	r1, [r5]
 717 02c8 FFF7FEFF 		bl	__aeabi_fadd
 718              	.LVL83:
 719 02cc FFF7FEFF 		bl	__aeabi_f2d
 720              	.LVL84:
 721 02d0 8B4A     		ldr	r2, .L80+16
 722 02d2 8C4B     		ldr	r3, .L80+20
 723 02d4 FFF7FEFF 		bl	__aeabi_dmul
 724              	.LVL85:
 725 02d8 041C     		mov	r4, r0
 726 02da B86B     		ldr	r0, [r7, #56]
 727 02dc 0D1C     		mov	r5, r1
 728 02de FFF7FEFF 		bl	__aeabi_f2d
 729              	.LVL86:
 730 02e2 894A     		ldr	r2, .L80+24
 731 02e4 894B     		ldr	r3, .L80+28
 732 02e6 FFF7FEFF 		bl	__aeabi_dmul
 733              	.LVL87:
 734 02ea 021C     		mov	r2, r0
 735 02ec 0B1C     		mov	r3, r1
 736 02ee 201C     		mov	r0, r4
 737 02f0 291C     		mov	r1, r5
 738 02f2 FFF7FEFF 		bl	__aeabi_dadd
 739              	.LVL88:
 740 02f6 FFF7FEFF 		bl	__aeabi_d2f
 741              	.LVL89:
 742 02fa 894C     		ldr	r4, .L80+48
 743 02fc 0090     		str	r0, [sp]
 744 02fe 2060     		str	r0, [r4]
 603:.\main.c      ****             Theta_Mav = Theta*PI/180*8;	/* Theta in radians for MavLink (not sure why divided by 8)
 745              		.loc 1 603 0
ARM GAS  C:\Users\Sven\AppData\Local\Temp\ccvvqGJt.s 			page 25


 746 0300 FFF7FEFF 		bl	__aeabi_f2d
 747              	.LVL90:
 748 0304 7C4A     		ldr	r2, .L80+8
 749 0306 7D4B     		ldr	r3, .L80+12
 750 0308 FFF7FEFF 		bl	__aeabi_dmul
 751              	.LVL91:
 752 030c 794B     		ldr	r3, .L80+4
 753 030e 784A     		ldr	r2, .L80
 754 0310 FFF7FEFF 		bl	__aeabi_ddiv
 755              	.LVL92:
 756 0314 7E4A     		ldr	r2, .L80+32
 757 0316 7F4B     		ldr	r3, .L80+36
 758 0318 FFF7FEFF 		bl	__aeabi_dmul
 759              	.LVL93:
 760 031c FFF7FEFF 		bl	__aeabi_d2f
 761              	.LVL94:
 762 0320 804B     		ldr	r3, .L80+52
 763 0322 1860     		str	r0, [r3]
 604:.\main.c      ****             Phi = (0.45 * (Phi + turn_rate_p*sample_time) + 0.55*Phi_acc);
 764              		.loc 1 604 0
 765 0324 7C4B     		ldr	r3, .L80+40
 766 0326 0833     		add	r3, r3, #8
 767 0328 DB8F     		ldrh	r3, [r3, #62]
 768 032a 18B2     		sxth	r0, r3
 769 032c 0393     		str	r3, [sp, #12]
 770 032e FFF7FEFF 		bl	__aeabi_i2f
 771              	.LVL95:
 772 0332 0299     		ldr	r1, [sp, #8]
 773 0334 FFF7FEFF 		bl	__aeabi_fmul
 774              	.LVL96:
 775 0338 7B4D     		ldr	r5, .L80+56
 776 033a 2968     		ldr	r1, [r5]
 777 033c FFF7FEFF 		bl	__aeabi_fadd
 778              	.LVL97:
 779 0340 FFF7FEFF 		bl	__aeabi_f2d
 780              	.LVL98:
 781 0344 6E4A     		ldr	r2, .L80+16
 782 0346 6F4B     		ldr	r3, .L80+20
 783 0348 FFF7FEFF 		bl	__aeabi_dmul
 784              	.LVL99:
 785 034c 041C     		mov	r4, r0
 786 034e 0198     		ldr	r0, [sp, #4]
 787 0350 0D1C     		mov	r5, r1
 788 0352 FFF7FEFF 		bl	__aeabi_f2d
 789              	.LVL100:
 790 0356 6C4A     		ldr	r2, .L80+24
 791 0358 6C4B     		ldr	r3, .L80+28
 792 035a FFF7FEFF 		bl	__aeabi_dmul
 793              	.LVL101:
 794 035e 021C     		mov	r2, r0
 795 0360 0B1C     		mov	r3, r1
 796 0362 201C     		mov	r0, r4
 797 0364 291C     		mov	r1, r5
 798 0366 FFF7FEFF 		bl	__aeabi_dadd
 799              	.LVL102:
 800 036a FFF7FEFF 		bl	__aeabi_d2f
 801              	.LVL103:
ARM GAS  C:\Users\Sven\AppData\Local\Temp\ccvvqGJt.s 			page 26


 802 036e 0190     		str	r0, [sp, #4]
 803 0370 6D4C     		ldr	r4, .L80+56
 804 0372 2060     		str	r0, [r4]
 605:.\main.c      ****             Phi_Mav = Phi*PI/180*8;		/* Phi in radians for MavLink */
 805              		.loc 1 605 0
 806 0374 FFF7FEFF 		bl	__aeabi_f2d
 807              	.LVL104:
 808 0378 5F4A     		ldr	r2, .L80+8
 809 037a 604B     		ldr	r3, .L80+12
 810 037c FFF7FEFF 		bl	__aeabi_dmul
 811              	.LVL105:
 812 0380 5C4B     		ldr	r3, .L80+4
 813 0382 5B4A     		ldr	r2, .L80
 814 0384 FFF7FEFF 		bl	__aeabi_ddiv
 815              	.LVL106:
 816 0388 614A     		ldr	r2, .L80+32
 817 038a 624B     		ldr	r3, .L80+36
 818 038c FFF7FEFF 		bl	__aeabi_dmul
 819              	.LVL107:
 820 0390 FFF7FEFF 		bl	__aeabi_d2f
 821              	.LVL108:
 822 0394 654B     		ldr	r3, .L80+60
 823 0396 604A     		ldr	r2, .L80+40
 824 0398 1860     		str	r0, [r3]
 606:.\main.c      ****             
 607:.\main.c      ****             // Tilt compensated Magnetic field X:
 608:.\main.c      ****             //  MAG_X = c_magnetom_x*cos_pitch+c_magnetom_y*sin_roll*sin_pitch+c_magnetom_z*cos_rol
 609:.\main.c      ****             //  // Tilt compensated Magnetic filed Y:
 610:.\main.c      ****             //  MAG_Y = c_magnetom_y*cos_roll-c_magnetom_z*sin_roll;
 611:.\main.c      ****             //  // Magnetic Heading
 612:.\main.c      ****             //  MAG_Heading = atan2(-MAG_Y,MAG_X);
 613:.\main.c      ****             
 614:.\main.c      ****             // cos of radian angles
 615:.\main.c      **** //            Mag_x = mag_x_g*cos(Theta) + mag_y_g*sin(Phi)*sin(Theta) + mag_z_g*cos(Phi)*sin(Theta
 616:.\main.c      **** //            Mag_y = mag_y_g*cos(Phi) - mag_z_g*sin(Phi);
 617:.\main.c      **** //
 618:.\main.c      ****             //Mag_x = mag_x_g*cos(Theta);//+ mag_y_g*sin(Phi)*sin(Theta)+ mag_z_g*cos(Phi)*sin(Thet
 619:.\main.c      ****             //Mag_y = mag_y_g*cos(Phi);// - mag_z_g*sin(Phi);
 620:.\main.c      ****             //Mag_Heading = atan2(-(mag_y_g),(mag_x_g))*180/PI;
 621:.\main.c      ****             //UART_1_UartPutNum(Mag_Heading);
 622:.\main.c      ****             //UART_1_UartPutNum(Bar_press);   //Print Baro Press
 623:.\main.c      ****             //UART_1_UartPutString(";\r\n");
 624:.\main.c      ****             
 625:.\main.c      **** 
 626:.\main.c      **** 			/*=======================================================*/
 627:.\main.c      ****             /* MAVLINK */
 628:.\main.c      ****             /*=======================================================*/
 629:.\main.c      ****             
 630:.\main.c      **** 		    if(MAVLINK_TASK == TRUE)
 631:.\main.c      ****             {
 632:.\main.c      ****                 if((cnt_ML_HEARTBEAT_send % 20) == 0)  // 20*10ms = 200ms
 633:.\main.c      ****                 {
 634:.\main.c      ****                     mavlink_msg_attitude_pack(mavlink_system.sysid, mavlink_system.compid, &msg, 0,
 635:.\main.c      ****                     uint16_t len = mavlink_msg_to_send_buffer(buf, &msg);
 636:.\main.c      ****                     UART_1_UartSendMavlink(buf, len);
 637:.\main.c      ****                     
 638:.\main.c      ****                     // GLOBAL_POSITION_INT
ARM GAS  C:\Users\Sven\AppData\Local\Temp\ccvvqGJt.s 			page 27


 639:.\main.c      ****                     //mavlink_msg_global_position_int_pack(mavlink_system.sysid, mavlink_system.com
 640:.\main.c      ****                     //uint16_t len2 = mavlink_msg_to_send_buffer(buf, &msg);
 641:.\main.c      ****                     //UART_1_UartSendMavlink(buf, len);
 642:.\main.c      ****                     
 643:.\main.c      ****                 }               
 644:.\main.c      ****                 if((cnt_ML_HEARTBEAT_send % 100) == 0)  // 100*10ms = 1000ms
 645:.\main.c      ****                 {
 646:.\main.c      ****                     cnt_ML_HEARTBEAT_send = 0;
 647:.\main.c      ****                     mavlink_msg_heartbeat_pack(mavlink_system.sysid, mavlink_system.compid, &msg, s
 648:.\main.c      **** 
 649:.\main.c      ****                     // Copy the message to the send buffer
 650:.\main.c      ****                     uint16_t len = mavlink_msg_to_send_buffer(buf, &msg);
 651:.\main.c      ****                       
 652:.\main.c      ****                       UART_1_UartSendMavlink(buf, len);
 653:.\main.c      ****                 }
 654:.\main.c      ****                 cnt_ML_HEARTBEAT_send++;
 655:.\main.c      ****             }
 656:.\main.c      ****             /*=======================================
 657:.\main.c      ****                 Airplane Control
 658:.\main.c      ****               =======================================*/
 659:.\main.c      ****             //uint8_t debug = 0;
 660:.\main.c      ****             
 661:.\main.c      ****            
 662:.\main.c      ****             if(receiver_connected == TRUE)
 825              		.loc 1 662 0
 826 039a 5F4B     		ldr	r3, .L80+40
 827 039c 1632     		add	r2, r2, #22
 828 039e 4833     		add	r3, r3, #72
 829 03a0 1978     		ldrb	r1, [r3]
 830 03a2 0129     		cmp	r1, #1
 831 03a4 00D0     		beq	.LCB664
 832 03a6 91E1     		b	.L36	@long jump
 833              	.LCB664:
 834              	.LBB2:
 663:.\main.c      ****             //if(debug == 0)
 664:.\main.c      ****             {                     
 665:.\main.c      **** 				uint8_t PrevCtrl_Mode = Ctrl_Mode;
 835              		.loc 1 665 0
 836 03a8 5B4B     		ldr	r3, .L80+40
 666:.\main.c      **** 				uint8_t state_change = FALSE;
 667:.\main.c      ****                 if (ctrl_in[in_mod]<1250) Ctrl_Mode = damped;       /* up:      damped mode */
 837              		.loc 1 667 0
 838 03aa 6148     		ldr	r0, .L80+64
 665:.\main.c      **** 				uint8_t PrevCtrl_Mode = Ctrl_Mode;
 839              		.loc 1 665 0
 840 03ac 4933     		add	r3, r3, #73
 841 03ae 1D78     		ldrb	r5, [r3]
 842 03b0 0595     		str	r5, [sp, #20]
 843              	.LVL109:
 844              		.loc 1 667 0
 845 03b2 9289     		ldrh	r2, [r2, #12]
 846 03b4 8242     		cmp	r2, r0
 847 03b6 01D8     		bhi	.L37
 848              		.loc 1 667 0 is_stmt 0 discriminator 1
 849 03b8 1970     		strb	r1, [r3]
 850 03ba 06E0     		b	.L38
 851              	.L37:
ARM GAS  C:\Users\Sven\AppData\Local\Temp\ccvvqGJt.s 			page 28


 668:.\main.c      ****                 else if (ctrl_in[in_mod]>1750) Ctrl_Mode = autonom;    /* down:    auto mode */
 852              		.loc 1 668 0 is_stmt 1
 853 03bc 5D48     		ldr	r0, .L80+68
 854 03be 8242     		cmp	r2, r0
 855 03c0 01D9     		bls	.L39
 856              		.loc 1 668 0 is_stmt 0 discriminator 1
 857 03c2 0322     		mov	r2, #3
 858 03c4 00E0     		b	.L75
 859              	.L39:
 669:.\main.c      ****                 else Ctrl_Mode = manual;                            /* mid:     manual mode */
 860              		.loc 1 669 0 is_stmt 1
 861 03c6 0022     		mov	r2, #0
 862              	.L75:
 863 03c8 1A70     		strb	r2, [r3]
 864              	.L38:
 670:.\main.c      ****                  
 671:.\main.c      **** 				/* Indicate State Change */
 672:.\main.c      **** 				if(PrevCtrl_Mode != Ctrl_Mode) state_change = TRUE;
 673:.\main.c      **** 				 
 674:.\main.c      ****                 uint16_t aileron_offset = 0;
 675:.\main.c      ****                 uint16_t elevator_offset = 0;
 676:.\main.c      ****                 
 677:.\main.c      ****                 /* Step Input Control Lateral */
 678:.\main.c      ****                 if(ctrl_in[in_sp2]>1750)
 865              		.loc 1 678 0
 866 03ca 534B     		ldr	r3, .L80+40
 674:.\main.c      ****                 uint16_t aileron_offset = 0;
 867              		.loc 1 674 0
 868 03cc 594C     		ldr	r4, .L80+68
 869              		.loc 1 678 0
 870 03ce 9A8C     		ldrh	r2, [r3, #36]
 672:.\main.c      **** 				if(PrevCtrl_Mode != Ctrl_Mode) state_change = TRUE;
 871              		.loc 1 672 0
 872 03d0 5149     		ldr	r1, .L80+40
 674:.\main.c      ****                 uint16_t aileron_offset = 0;
 873              		.loc 1 674 0
 874 03d2 9442     		cmp	r4, r2
 875 03d4 9241     		sbc	r2, r2, r2
 679:.\main.c      ****                 {
 680:.\main.c      ****                     aileron_offset = 200;
 876              		.loc 1 680 0
 877 03d6 C825     		mov	r5, #200
 672:.\main.c      **** 				if(PrevCtrl_Mode != Ctrl_Mode) state_change = TRUE;
 878              		.loc 1 672 0
 879 03d8 4931     		add	r1, r1, #73
 674:.\main.c      ****                 uint16_t aileron_offset = 0;
 880              		.loc 1 674 0
 881 03da 1540     		and	r5, r2
 681:.\main.c      ****                 }
 682:.\main.c      ****                 
 683:.\main.c      ****                 /* Step Input Control Longitudinal */
 684:.\main.c      ****                 if(ctrl_in[in_gear]>1750)
 882              		.loc 1 684 0
 883 03dc DA8B     		ldrh	r2, [r3, #30]
 675:.\main.c      ****                 uint16_t elevator_offset = 0;
 884              		.loc 1 675 0
 885 03de 554B     		ldr	r3, .L80+68
ARM GAS  C:\Users\Sven\AppData\Local\Temp\ccvvqGJt.s 			page 29


 886              		.loc 1 684 0
 887 03e0 0E1C     		mov	r6, r1
 672:.\main.c      **** 				if(PrevCtrl_Mode != Ctrl_Mode) state_change = TRUE;
 888              		.loc 1 672 0
 889 03e2 0878     		ldrb	r0, [r1]
 890              	.LVL110:
 891              		.loc 1 684 0
 892 03e4 493E     		sub	r6, r6, #73
 685:.\main.c      ****                 {
 686:.\main.c      ****                     elevator_offset = 200;
 893              		.loc 1 686 0
 894 03e6 C821     		mov	r1, #200
 675:.\main.c      ****                 uint16_t elevator_offset = 0;
 895              		.loc 1 675 0
 896 03e8 9342     		cmp	r3, r2
 897 03ea 9B41     		sbc	r3, r3, r3
 898 03ec 341C     		mov	r4, r6
 899 03ee 1940     		and	r1, r3
 900              	.LVL111:
 687:.\main.c      ****                 }
 688:.\main.c      ****                 
 689:.\main.c      ****                 switch (Ctrl_Mode)
 901              		.loc 1 689 0
 902 03f0 0328     		cmp	r0, #3
 903 03f2 00D9     		bls	.LCB721
 904 03f4 81E1     		b	.L42	@long jump
 905              	.LCB721:
 906 03f6 504B     		ldr	r3, .L80+72
 907 03f8 FFF7FEFF 		bl	__gnu_thumb1_case_uqi
 908              	.L44:
 909 03fc 02       		.byte	(.L43-.L44)/2
 910 03fd 22       		.byte	(.L45-.L44)/2
 911 03fe 4B       		.byte	(.L46-.L44)/2
 912 03ff A4       		.byte	(.L47-.L44)/2
 913              		.p2align 1
 914              	.L43:
 690:.\main.c      ****                 {
 691:.\main.c      ****                     case manual:
 692:.\main.c      ****                         tune_cnt= 0;    // Reset in case tune cnt was used before...
 915              		.loc 1 692 0
 916 0400 454B     		ldr	r3, .L80+40
 917 0402 0020     		mov	r0, #0
 918              	.LVL112:
 919 0404 4A33     		add	r3, r3, #74
 920 0406 1870     		strb	r0, [r3]
 693:.\main.c      ****                     #ifdef T50
 694:.\main.c      ****                         ctrl_out[out_mot] = ctrl_in[in_mot];//ctrl_in[in_mot];            // motor:
 695:.\main.c      ****                         //ctrl_out[out_mot] = 800;
 696:.\main.c      ****                         ctrl_out[out_ail1] = ctrl_in[in_ail]+flap_offset;           // ail:     lef
 697:.\main.c      ****                         ctrl_out[out_ail2] = ctrl_in[in_ail]-flap_offset;
 698:.\main.c      ****                         ctrl_out[out_ele1] = ctrl_in[in_ele];           // ele:     low: 2000   hig
 699:.\main.c      ****                         ctrl_out[out_ele2] = ctrl_in[in_ele];
 700:.\main.c      ****                         ctrl_out[out_rud] = ctrl_in[in_rud];            // rud:     left: 1000  rig
 701:.\main.c      ****                         ctrl_out[out_ge1] = ctrl_in[in_gear];           // gear:    down: 1000  ret
 702:.\main.c      ****                         ctrl_out[out_ge2] = ctrl_in[in_gear];
 703:.\main.c      ****                         ctrl_out[out_ge3] = ctrl_in[in_gear];             
 704:.\main.c      ****                         ctrl_out[out_fl1] = ctrl_in[in_can];            // canopy:  open: 1000  clo
ARM GAS  C:\Users\Sven\AppData\Local\Temp\ccvvqGJt.s 			page 30


 705:.\main.c      ****                         ctrl_out[out_fl2] = ctrl_in[in_can];
 706:.\main.c      ****                         ctrl_out[out_sp1] = ctrl_in[in_mot];            // mode:    down: 2000 mid:
 707:.\main.c      ****                         ctrl_out[out_sp2] = ctrl_in[in_mot];
 708:.\main.c      ****                     #else
 709:.\main.c      ****                         ctrl_out[out_mot] = ctrl_in[in_mot];//ctrl_in[in_mot];            // motor:
 921              		.loc 1 709 0
 922 0408 4B4C     		ldr	r4, .L80+72
 923 040a F88A     		ldrh	r0, [r7, #22]
 924 040c 424B     		ldr	r3, .L80+40
 925 040e A081     		strh	r0, [r4, #12]
 710:.\main.c      ****                         //ctrl_out[out_mot] = 800;
 711:.\main.c      ****                         ctrl_out[out_ail1] = ctrl_in[in_ail]+aileron_offset;           // ail:     
 926              		.loc 1 711 0
 927 0410 1C8B     		ldrh	r4, [r3, #24]
 709:.\main.c      ****                         ctrl_out[out_mot] = ctrl_in[in_mot];//ctrl_in[in_mot];            // motor:
 928              		.loc 1 709 0
 929 0412 1633     		add	r3, r3, #22
 930              		.loc 1 711 0
 931 0414 2D19     		add	r5, r5, r4
 932              	.LVL113:
 933 0416 484C     		ldr	r4, .L80+72
 934 0418 ADB2     		uxth	r5, r5
 935 041a E581     		strh	r5, [r4, #14]
 712:.\main.c      ****                         ctrl_out[out_ail2] = ctrl_in[in_ail]+aileron_offset;
 936              		.loc 1 712 0
 937 041c 2582     		strh	r5, [r4, #16]
 713:.\main.c      ****                         ctrl_out[out_ele1] = ctrl_in[in_ele]+elevator_offset;           // ele:    
 938              		.loc 1 713 0
 939 041e 9C88     		ldrh	r4, [r3, #4]
 940 0420 454D     		ldr	r5, .L80+72
 941 0422 0919     		add	r1, r1, r4
 942              	.LVL114:
 943 0424 89B2     		uxth	r1, r1
 944 0426 6982     		strh	r1, [r5, #18]
 714:.\main.c      ****                         ctrl_out[out_ele2] = ctrl_in[in_ele]+elevator_offset;
 945              		.loc 1 714 0
 946 0428 A982     		strh	r1, [r5, #20]
 715:.\main.c      ****                         ctrl_out[out_rud] = ctrl_in[in_rud];            // rud:     left: 1000  rig
 947              		.loc 1 715 0
 948 042a D988     		ldrh	r1, [r3, #6]
 716:.\main.c      ****                         ctrl_out[out_ge1] = ctrl_in[in_gear];           // gear:    down: 1000  ret
 949              		.loc 1 716 0
 950 042c AA83     		strh	r2, [r5, #28]
 715:.\main.c      ****                         ctrl_out[out_rud] = ctrl_in[in_rud];            // rud:     left: 1000  rig
 951              		.loc 1 715 0
 952 042e E982     		strh	r1, [r5, #22]
 717:.\main.c      ****                         ctrl_out[out_ge2] = ctrl_in[in_gear];
 953              		.loc 1 717 0
 954 0430 EA83     		strh	r2, [r5, #30]
 718:.\main.c      ****                         ctrl_out[out_ge3] = ctrl_in[in_gear];             
 955              		.loc 1 718 0
 956 0432 2A84     		strh	r2, [r5, #32]
 719:.\main.c      ****                         ctrl_out[out_fl1] = ctrl_in[in_can];            // canopy:  open: 1000  clo
 957              		.loc 1 719 0
 958 0434 5B89     		ldrh	r3, [r3, #10]
 720:.\main.c      ****                         ctrl_out[out_fl2] = ctrl_in[in_can];
 721:.\main.c      ****                         ctrl_out[out_sp1] = ctrl_in[in_mot];            // mode:    down: 2000 mid:
ARM GAS  C:\Users\Sven\AppData\Local\Temp\ccvvqGJt.s 			page 31


 959              		.loc 1 721 0
 960 0436 6884     		strh	r0, [r5, #34]
 719:.\main.c      ****                         ctrl_out[out_fl1] = ctrl_in[in_can];            // canopy:  open: 1000  clo
 961              		.loc 1 719 0
 962 0438 2B83     		strh	r3, [r5, #24]
 720:.\main.c      ****                         ctrl_out[out_fl2] = ctrl_in[in_can];
 963              		.loc 1 720 0
 964 043a 6B83     		strh	r3, [r5, #26]
 722:.\main.c      ****                         ctrl_out[out_sp2] = ctrl_in[in_mot];
 965              		.loc 1 722 0
 966 043c A884     		strh	r0, [r5, #36]
 723:.\main.c      ****                     #endif
 724:.\main.c      ****                     
 725:.\main.c      ****                     break;
 967              		.loc 1 725 0
 968 043e 5CE1     		b	.L42
 969              	.LVL115:
 970              	.L45:
 726:.\main.c      ****                     
 727:.\main.c      ****                     case damped:
 728:.\main.c      ****                         
 729:.\main.c      ****                         /* Speed related damp GAINs */
 730:.\main.c      ****                         if (speed > 25)
 731:.\main.c      **** 						{
 732:.\main.c      **** 
 733:.\main.c      **** 						}
 734:.\main.c      **** 						else if (speed >16)
 735:.\main.c      **** 						{
 736:.\main.c      **** 
 737:.\main.c      **** 						}
 738:.\main.c      **** 						else
 739:.\main.c      **** 						{
 740:.\main.c      **** 
 741:.\main.c      **** 						}
 742:.\main.c      ****                         
 743:.\main.c      ****                         
 744:.\main.c      ****                         ctrl_out[out_mot] = ctrl_in[in_mot];            // motor:   low: 1000   hig
 745:.\main.c      ****                         //ctrl_out[out_mot] = 800;
 746:.\main.c      ****                         #ifdef T50
 747:.\main.c      ****                         ctrl_out[out_ail1] = ctrl_in[in_ail]+(K_d_p*(turn_rate_p))+flap_offset;    
 748:.\main.c      ****                         ctrl_out[out_ail2] = ctrl_in[in_ail]+(K_d_p*(turn_rate_p))-flap_offset;
 749:.\main.c      ****                         ctrl_out[out_ele1] = ctrl_in[in_ele]-(K_d_q*(turn_rate_q));           // el
 750:.\main.c      ****                         ctrl_out[out_ele2] = ctrl_in[in_ele]-(K_d_q*(turn_rate_q));
 751:.\main.c      ****                         ctrl_out[out_rud] = ctrl_in[in_rud]-((K_d_r*turn_rate_r));            // ru
 752:.\main.c      ****                         ctrl_out[out_ge1] = ctrl_in[in_mot];           // gear:    down: 1000  retr
 753:.\main.c      ****                         ctrl_out[out_ge2] = ctrl_in[in_gear];
 754:.\main.c      ****                         ctrl_out[out_ge3] = ctrl_in[in_gear];             
 755:.\main.c      ****                         ctrl_out[out_fl1] = ctrl_in[in_can];            // canopy:  front: 1000  ba
 756:.\main.c      ****                         ctrl_out[out_fl2] = ctrl_in[in_can];
 757:.\main.c      ****                         ctrl_out[out_sp1] = ctrl_in[in_mot];            // mode:    down: 2000 mid:
 758:.\main.c      ****                         ctrl_out[out_sp2] = ctrl_in[in_mot];
 759:.\main.c      ****                         #else // Funcub
 760:.\main.c      ****                         ctrl_out[out_ail1] = ctrl_in[in_ail]-(K_d_p*(turn_rate_p));//+flap_offset; 
 971              		.loc 1 760 0
 972 0440 DC1D     		add	r4, r3, #7
 973 0442 039D     		ldr	r5, [sp, #12]
 974              	.LVL116:
ARM GAS  C:\Users\Sven\AppData\Local\Temp\ccvvqGJt.s 			page 32


 975 0444 E47F     		ldrb	r4, [r4, #31]
 744:.\main.c      ****                         ctrl_out[out_mot] = ctrl_in[in_mot];            // motor:   low: 1000   hig
 976              		.loc 1 744 0
 977 0446 F98A     		ldrh	r1, [r7, #22]
 978              	.LVL117:
 979 0448 3348     		ldr	r0, .L80+40
 980              	.LVL118:
 981              		.loc 1 760 0
 982 044a 6C43     		mul	r4, r5
 744:.\main.c      ****                         ctrl_out[out_mot] = ctrl_in[in_mot];            // motor:   low: 1000   hig
 983              		.loc 1 744 0
 984 044c 9981     		strh	r1, [r3, #12]
 985              		.loc 1 760 0
 986 044e 058B     		ldrh	r5, [r0, #24]
 987 0450 2C1B     		sub	r4, r5, r4
 988 0452 A4B2     		uxth	r4, r4
 989 0454 DC81     		strh	r4, [r3, #14]
 761:.\main.c      ****                         ctrl_out[out_ail2] = ctrl_in[in_ail]-(K_d_p*(turn_rate_p));//-flap_offset;
 990              		.loc 1 761 0
 991 0456 1C82     		strh	r4, [r3, #16]
 762:.\main.c      ****                         ctrl_out[out_ele1] = ctrl_in[in_ele]-(K_d_q*(turn_rate_q));           // el
 992              		.loc 1 762 0
 993 0458 1C1C     		mov	r4, r3
 994 045a 0834     		add	r4, r4, #8
 995 045c 049D     		ldr	r5, [sp, #16]
 996 045e E47F     		ldrb	r4, [r4, #31]
 997 0460 6C43     		mul	r4, r5
 998 0462 458B     		ldrh	r5, [r0, #26]
 999 0464 2C1B     		sub	r4, r5, r4
 1000 0466 A4B2     		uxth	r4, r4
 1001 0468 5C82     		strh	r4, [r3, #18]
 763:.\main.c      ****                         ctrl_out[out_ele2] = ctrl_in[in_ele]-(K_d_q*(turn_rate_q));
 1002              		.loc 1 763 0
 1003 046a 9C82     		strh	r4, [r3, #20]
 764:.\main.c      ****                         ctrl_out[out_rud] = ctrl_in[in_rud]+((K_d_r*turn_rate_r));            // ru
 1004              		.loc 1 764 0
 1005 046c 1D1C     		mov	r5, r3
 1006 046e 041C     		mov	r4, r0
 1007 0470 4C34     		add	r4, r4, #76
 1008 0472 2835     		add	r5, r5, #40
 1009 0474 2D78     		ldrb	r5, [r5]
 1010 0476 2488     		ldrh	r4, [r4]
 1011 0478 6C43     		mul	r4, r5
 1012 047a 858B     		ldrh	r5, [r0, #28]
 765:.\main.c      ****                         ctrl_out[out_ge1] = ctrl_in[in_mot];           // gear:    down: 1000  retr
 1013              		.loc 1 765 0
 1014 047c 9983     		strh	r1, [r3, #28]
 764:.\main.c      ****                         ctrl_out[out_rud] = ctrl_in[in_rud]+((K_d_r*turn_rate_r));            // ru
 1015              		.loc 1 764 0
 1016 047e 6419     		add	r4, r4, r5
 1017 0480 DC82     		strh	r4, [r3, #22]
 766:.\main.c      ****                         ctrl_out[out_ge2] = ctrl_in[in_gear];
 1018              		.loc 1 766 0
 1019 0482 DA83     		strh	r2, [r3, #30]
 767:.\main.c      ****                         ctrl_out[out_ge3] = ctrl_in[in_gear];             
 1020              		.loc 1 767 0
 1021 0484 1A84     		strh	r2, [r3, #32]
ARM GAS  C:\Users\Sven\AppData\Local\Temp\ccvvqGJt.s 			page 33


 768:.\main.c      ****                         ctrl_out[out_fl1] = ctrl_in[in_can];            // canopy:  front: 1000  ba
 1022              		.loc 1 768 0
 1023 0486 028C     		ldrh	r2, [r0, #32]
 1024              	.LVL119:
 769:.\main.c      ****                         ctrl_out[out_fl2] = ctrl_in[in_can];
 770:.\main.c      ****                         ctrl_out[out_sp1] = ctrl_in[in_mot];            // mode:    down: 2000 mid:
 1025              		.loc 1 770 0
 1026 0488 5984     		strh	r1, [r3, #34]
 768:.\main.c      ****                         ctrl_out[out_fl1] = ctrl_in[in_can];            // canopy:  front: 1000  ba
 1027              		.loc 1 768 0
 1028 048a 1A83     		strh	r2, [r3, #24]
 769:.\main.c      ****                         ctrl_out[out_fl2] = ctrl_in[in_can];
 1029              		.loc 1 769 0
 1030 048c 5A83     		strh	r2, [r3, #26]
 771:.\main.c      ****                         ctrl_out[out_sp2] = ctrl_in[in_mot];    
 1031              		.loc 1 771 0
 1032 048e 9984     		strh	r1, [r3, #36]
 772:.\main.c      ****                         #endif
 773:.\main.c      ****                     break;
 1033              		.loc 1 773 0
 1034 0490 33E1     		b	.L42
 1035              	.LVL120:
 1036              	.L46:
 774:.\main.c      ****                         
 775:.\main.c      ****                     case tune:
 776:.\main.c      ****                         if(tune_cnt == 0)
 1037              		.loc 1 776 0
 1038 0492 321C     		mov	r2, r6
 1039 0494 4A32     		add	r2, r2, #74
 1040 0496 1278     		ldrb	r2, [r2]
 1041 0498 002A     		cmp	r2, #0
 1042 049a 0BD1     		bne	.L48
 777:.\main.c      ****                         {
 778:.\main.c      ****                             ctrl_out[out_mot] = ctrl_in[in_mot];            // motor:   low: 1000  
 1043              		.loc 1 778 0
 1044 049c F08A     		ldrh	r0, [r6, #22]
 1045              	.LVL121:
 1046 049e 311C     		mov	r1, r6
 1047              	.LVL122:
 1048 04a0 9881     		strh	r0, [r3, #12]
 779:.\main.c      ****                             ctrl_out[out_ail1] = ctrl_in[in_ail];           // ail:     left: 1000 
 1049              		.loc 1 779 0
 1050 04a2 308B     		ldrh	r0, [r6, #24]
 778:.\main.c      ****                             ctrl_out[out_mot] = ctrl_in[in_mot];            // motor:   low: 1000  
 1051              		.loc 1 778 0
 1052 04a4 1631     		add	r1, r1, #22
 1053              		.loc 1 779 0
 1054 04a6 D881     		strh	r0, [r3, #14]
 780:.\main.c      ****                             ctrl_out[out_ail2] = ctrl_in[in_ail];
 1055              		.loc 1 780 0
 1056 04a8 1882     		strh	r0, [r3, #16]
 781:.\main.c      ****                             ctrl_out[out_ele1] = ctrl_in[in_ele];           // ele:     low: 2000  
 1057              		.loc 1 781 0
 1058 04aa 708B     		ldrh	r0, [r6, #26]
 1059 04ac 5882     		strh	r0, [r3, #18]
 782:.\main.c      ****                             ctrl_out[out_ele2] = ctrl_in[in_ele];
 1060              		.loc 1 782 0
ARM GAS  C:\Users\Sven\AppData\Local\Temp\ccvvqGJt.s 			page 34


 1061 04ae 9882     		strh	r0, [r3, #20]
 783:.\main.c      ****                             ctrl_out[out_rud] = ctrl_in[in_rud];
 1062              		.loc 1 783 0
 1063 04b0 C988     		ldrh	r1, [r1, #6]
 1064 04b2 D982     		strh	r1, [r3, #22]
 1065              	.L48:
 784:.\main.c      ****                         }
 785:.\main.c      ****                         if(ctrl_in[in_can] < 1500 && (tune_cnt == 100))
 1066              		.loc 1 785 0
 1067 04b4 218C     		ldrh	r1, [r4, #32]
 1068 04b6 2148     		ldr	r0, .L80+76
 1069 04b8 8142     		cmp	r1, r0
 1070 04ba 08D8     		bhi	.L49
 1071              		.loc 1 785 0 is_stmt 0 discriminator 1
 1072 04bc 642A     		cmp	r2, #100
 1073 04be 0FD1     		bne	.L50
 786:.\main.c      ****                         {
 787:.\main.c      ****                             // step Aileron
 788:.\main.c      ****                             ctrl_out[out_ail1]+= 150;
 1074              		.loc 1 788 0 is_stmt 1
 1075 04c0 D989     		ldrh	r1, [r3, #14]
 1076 04c2 9631     		add	r1, r1, #150
 1077 04c4 D981     		strh	r1, [r3, #14]
 789:.\main.c      ****                             ctrl_out[out_ail2]-= 150;
 1078              		.loc 1 789 0
 1079 04c6 198A     		ldrh	r1, [r3, #16]
 1080 04c8 9639     		sub	r1, r1, #150
 1081 04ca 1982     		strh	r1, [r3, #16]
 1082 04cc 0BE0     		b	.L52
 1083              	.L49:
 790:.\main.c      ****                         }
 791:.\main.c      ****                         else if (ctrl_in[in_can] > 1500 && (tune_cnt == 100))
 1084              		.loc 1 791 0
 1085 04ce 1C48     		ldr	r0, .L80+80
 1086 04d0 8142     		cmp	r1, r0
 1087 04d2 05D0     		beq	.L50
 1088              		.loc 1 791 0 is_stmt 0 discriminator 1
 1089 04d4 642A     		cmp	r2, #100
 1090 04d6 03D1     		bne	.L50
 792:.\main.c      ****                         {
 793:.\main.c      ****                             // step Elevator
 794:.\main.c      ****                             ctrl_out[out_ele1]+= 150;   // positive step -> Up
 1091              		.loc 1 794 0 is_stmt 1
 1092 04d8 598A     		ldrh	r1, [r3, #18]
 1093 04da 9631     		add	r1, r1, #150
 1094 04dc 5982     		strh	r1, [r3, #18]
 1095 04de 02E0     		b	.L52
 1096              	.L50:
 795:.\main.c      ****                         }
 796:.\main.c      ****                         
 797:.\main.c      ****                         if(tune_cnt < 250) tune_cnt++;
 1097              		.loc 1 797 0
 1098 04e0 F92A     		cmp	r2, #249
 1099 04e2 00D9     		bls	.LCB872
 1100 04e4 09E1     		b	.L42	@long jump
 1101              	.LCB872:
 1102              	.L52:
ARM GAS  C:\Users\Sven\AppData\Local\Temp\ccvvqGJt.s 			page 35


 1103              		.loc 1 797 0 is_stmt 0 discriminator 1
 1104 04e6 4A34     		add	r4, r4, #74
 1105 04e8 0132     		add	r2, r2, #1
 1106 04ea 2270     		strb	r2, [r4]
 1107 04ec 05E1     		b	.L42
 1108              	.L81:
 1109 04ee C046     		.align	3
 1110              	.L80:
 1111 04f0 00000000 		.word	0
 1112 04f4 00806640 		.word	1080459264
 1113 04f8 182D4454 		.word	1413754136
 1114 04fc FB210940 		.word	1074340347
 1115 0500 CDCCCCCC 		.word	-858993459
 1116 0504 CCCCDC3F 		.word	1071434956
 1117 0508 9A999999 		.word	-1717986918
 1118 050c 9999E13F 		.word	1071749529
 1119 0510 00000000 		.word	0
 1120 0514 00002040 		.word	1075838976
 1121 0518 00000000 		.word	.LANCHOR1
 1122 051c 07070000 		.word	1799
 1123 0520 00000000 		.word	Theta
 1124 0524 00000000 		.word	Theta_Mav
 1125 0528 00000000 		.word	Phi
 1126 052c 00000000 		.word	Phi_Mav
 1127 0530 E1040000 		.word	1249
 1128 0534 D6060000 		.word	1750
 1129 0538 00000000 		.word	.LANCHOR0
 1130 053c DB050000 		.word	1499
 1131 0540 DC050000 		.word	1500
 1132              	.LVL123:
 1133              	.L47:
 798:.\main.c      ****                         
 799:.\main.c      ****                     break;
 800:.\main.c      ****                     
 801:.\main.c      ****                     case autonom:
 802:.\main.c      ****                         /* autonomous mode */
 803:.\main.c      **** 
 804:.\main.c      **** 						
 805:.\main.c      **** 						if(state_change == TRUE)
 1134              		.loc 1 805 0 is_stmt 1
 1135 0544 0599     		ldr	r1, [sp, #20]
 1136              	.LVL124:
 1137 0546 0329     		cmp	r1, #3
 1138 0548 1BD0     		beq	.L53
 806:.\main.c      **** 						{
 807:.\main.c      ****                             /* Entering Autonomous Mode */
 808:.\main.c      **** 							/* Store current ctrl inputs in trim vecotr*/
 809:.\main.c      **** 							ctrl_in_trim[in_mot] = ctrl_in[in_mot];  /* Set trimmed Motor input */
 1139              		.loc 1 809 0
 1140 054a F08A     		ldrh	r0, [r6, #22]
 1141              	.LVL125:
 1142 054c 1A1C     		mov	r2, r3
 1143              	.LVL126:
 1144 054e 5885     		strh	r0, [r3, #42]
 810:.\main.c      ****                             ctrl_in_trim[in_ele] = ctrl_in[in_ele];  /* Set trimmed Elevator input 
 1145              		.loc 1 810 0
 1146 0550 738B     		ldrh	r3, [r6, #26]
ARM GAS  C:\Users\Sven\AppData\Local\Temp\ccvvqGJt.s 			page 36


 811:.\main.c      **** 							ctrl_in_trim[in_ail] = ctrl_in[in_ail];  /* Set trimmed Aileron input */
 812:.\main.c      ****                             ctrl_in_trim[in_rud] = ctrl_in[in_rud];  /* Set trimmed Rudder input */
 813:.\main.c      ****                             /* In case the autonomous mode is entered 
 814:.\main.c      **** 							all errors etc need to be reset */
 815:.\main.c      **** 							
 816:.\main.c      ****                             /* Theta Control */
 817:.\main.c      **** 							Theta_Error = 0;					/* Needs to be reset always when this state is entered */
 1147              		.loc 1 817 0
 1148 0552 0025     		mov	r5, #0
 1149              	.LVL127:
 810:.\main.c      ****                             ctrl_in_trim[in_ele] = ctrl_in[in_ele];  /* Set trimmed Elevator input 
 1150              		.loc 1 810 0
 1151 0554 D385     		strh	r3, [r2, #46]
 811:.\main.c      **** 							ctrl_in_trim[in_ail] = ctrl_in[in_ail];  /* Set trimmed Aileron input */
 1152              		.loc 1 811 0
 1153 0556 338B     		ldrh	r3, [r6, #24]
 818:.\main.c      **** 							Theta_Error_sum = 0;				/* Theta Sum to be reset */
 1154              		.loc 1 818 0
 1155 0558 3565     		str	r5, [r6, #80]
 811:.\main.c      **** 							ctrl_in_trim[in_ail] = ctrl_in[in_ail];  /* Set trimmed Aileron input */
 1156              		.loc 1 811 0
 1157 055a 9385     		strh	r3, [r2, #44]
 812:.\main.c      ****                             ctrl_in_trim[in_rud] = ctrl_in[in_rud];  /* Set trimmed Rudder input */
 1158              		.loc 1 812 0
 1159 055c B38B     		ldrh	r3, [r6, #28]
 819:.\main.c      **** 							Theta_Target = Theta; /* = 0 */		/* Set Theta Target */
 1160              		.loc 1 819 0
 1161 055e 0098     		ldr	r0, [sp]
 812:.\main.c      ****                             ctrl_in_trim[in_rud] = ctrl_in[in_rud];  /* Set trimmed Rudder input */
 1162              		.loc 1 812 0
 1163 0560 1386     		strh	r3, [r2, #48]
 817:.\main.c      **** 							Theta_Error = 0;					/* Needs to be reset always when this state is entered */
 1164              		.loc 1 817 0
 1165 0562 331C     		mov	r3, r6
 1166 0564 4E33     		add	r3, r3, #78
 1167 0566 1D70     		strb	r5, [r3]
 1168              		.loc 1 819 0
 1169 0568 FFF7FEFF 		bl	__aeabi_f2iz
 1170              	.LVL128:
 1171 056c AC4A     		ldr	r2, .L82
 820:.\main.c      **** 							
 821:.\main.c      ****                             /* Phi Control */
 822:.\main.c      ****                             Phi_Error = 0;					/* Needs to be reset always when this state is enter
 1172              		.loc 1 822 0
 1173 056e 331C     		mov	r3, r6
 1174 0570 5533     		add	r3, r3, #85
 819:.\main.c      **** 							Theta_Target = Theta; /* = 0 */		/* Set Theta Target */
 1175              		.loc 1 819 0
 1176 0572 1070     		strb	r0, [r2]
 1177              		.loc 1 822 0
 1178 0574 1D70     		strb	r5, [r3]
 823:.\main.c      **** 							Phi_Error_sum = 0;				/* Phi Sum to be reset */
 1179              		.loc 1 823 0
 1180 0576 B565     		str	r5, [r6, #88]
 824:.\main.c      **** 							Phi_Target = Phi; /* = 0 */		/* Set Phi Target */
 1181              		.loc 1 824 0
 1182 0578 0198     		ldr	r0, [sp, #4]
ARM GAS  C:\Users\Sven\AppData\Local\Temp\ccvvqGJt.s 			page 37


 1183 057a FFF7FEFF 		bl	__aeabi_f2iz
 1184              	.LVL129:
 1185 057e 5C34     		add	r4, r4, #92
 1186 0580 2070     		strb	r0, [r4]
 1187              	.L53:
 825:.\main.c      **** 						}
 826:.\main.c      ****                         
 827:.\main.c      ****                         // For changing if Lat Auto or Long Auto Test
 828:.\main.c      ****                         if(ctrl_in[in_can] > 1750)
 1188              		.loc 1 828 0
 1189 0582 A84C     		ldr	r4, .L82+4
 1190 0584 A84D     		ldr	r5, .L82+8
 1191 0586 238C     		ldrh	r3, [r4, #32]
 1192 0588 AB42     		cmp	r3, r5
 1193 058a 56D9     		bls	.L54
 1194              	.LVL130:
 1195              	.LBB3:
 829:.\main.c      ****                         {
 830:.\main.c      **** 
 831:.\main.c      ****                         //#ifdef THCTRL
 832:.\main.c      **** 						//******************************************************
 833:.\main.c      ****  						// Theta control with elevator
 834:.\main.c      ****  						// Input: Theta command from Altitude Hold loop
 835:.\main.c      ****  						// Output: elevator command pid loop
 836:.\main.c      ****  						// Controller: PID Controller
 837:.\main.c      **** 						// Gains: K_p = 10 K_i = 10 K_d = 5
 838:.\main.c      **** 						uint8_t Kp_Theta = 5;
 839:.\main.c      **** 						uint8_t Ki_Theta = 5;
 840:.\main.c      **** 						uint8_t Kd_Theta = 1;
 841:.\main.c      **** 						
 842:.\main.c      ****  						Theta_Error = Theta - Theta_Target; // as per Simulation in SCILAB this convention is best
 1196              		.loc 1 842 0
 1197 058c 5420     		mov	r0, #84
 1198 058e 2056     		ldrsb	r0, [r4, r0]
 1199 0590 FFF7FEFF 		bl	__aeabi_i2f
 1200              	.LVL131:
 1201 0594 011C     		add	r1, r0, #0
 1202 0596 0098     		ldr	r0, [sp]
 1203 0598 FFF7FEFF 		bl	__aeabi_fsub
 1204              	.LVL132:
 1205 059c FFF7FEFF 		bl	__aeabi_f2iz
 1206              	.LVL133:
 1207 05a0 231C     		mov	r3, r4
 1208 05a2 4E33     		add	r3, r3, #78
 1209 05a4 C0B2     		uxtb	r0, r0
 1210 05a6 1870     		strb	r0, [r3]
 843:.\main.c      ****  						Theta_Error_sum += Theta_Error;
 1211              		.loc 1 843 0
 1212 05a8 45B2     		sxtb	r5, r0
 842:.\main.c      ****  						Theta_Error = Theta - Theta_Target; // as per Simulation in SCILAB this convention is best
 1213              		.loc 1 842 0
 1214 05aa 0090     		str	r0, [sp]
 1215              		.loc 1 843 0
 1216 05ac 206D     		ldr	r0, [r4, #80]
 1217 05ae 0395     		str	r5, [sp, #12]
 1218 05b0 2D18     		add	r5, r5, r0
 844:.\main.c      ****  						// controller formula for the necessary control change						 
ARM GAS  C:\Users\Sven\AppData\Local\Temp\ccvvqGJt.s 			page 38


 845:.\main.c      **** 
 846:.\main.c      ****  						ctrl_out_PID[out_ele1] = (Kp_Theta*Theta_Error + Ki_Theta*Theta_Error_sum*sample_time + Kd_T
 1219              		.loc 1 846 0
 1220 05b2 0398     		ldr	r0, [sp, #12]
 1221 05b4 0526     		mov	r6, #5
 843:.\main.c      ****  						Theta_Error_sum += Theta_Error;
 1222              		.loc 1 843 0
 1223 05b6 2565     		str	r5, [r4, #80]
 1224              		.loc 1 846 0
 1225 05b8 7043     		mul	r0, r6
 1226 05ba FFF7FEFF 		bl	__aeabi_i2f
 1227              	.LVL134:
 1228 05be 0190     		str	r0, [sp, #4]
 1229 05c0 301C     		mov	r0, r6
 1230 05c2 6843     		mul	r0, r5
 1231 05c4 FFF7FEFF 		bl	__aeabi_i2f
 1232              	.LVL135:
 1233 05c8 0299     		ldr	r1, [sp, #8]
 1234 05ca FFF7FEFF 		bl	__aeabi_fmul
 1235              	.LVL136:
 1236 05ce 011C     		add	r1, r0, #0
 1237 05d0 0198     		ldr	r0, [sp, #4]
 1238 05d2 FFF7FEFF 		bl	__aeabi_fadd
 1239              	.LVL137:
 1240 05d6 251C     		mov	r5, r4
 1241 05d8 5D35     		add	r5, r5, #93
 1242 05da 061C     		add	r6, r0, #0
 1243 05dc 0020     		mov	r0, #0
 1244 05de 2856     		ldrsb	r0, [r5, r0]
 1245 05e0 0399     		ldr	r1, [sp, #12]
 1246 05e2 081A     		sub	r0, r1, r0
 1247 05e4 FFF7FEFF 		bl	__aeabi_i2f
 1248              	.LVL138:
 1249 05e8 0299     		ldr	r1, [sp, #8]
 1250 05ea FFF7FEFF 		bl	__aeabi_fdiv
 1251              	.LVL139:
 1252 05ee 011C     		add	r1, r0, #0
 1253 05f0 301C     		add	r0, r6, #0
 1254 05f2 FFF7FEFF 		bl	__aeabi_fadd
 1255              	.LVL140:
 1256 05f6 FFF7FEFF 		bl	__aeabi_f2uiz
 1257              	.LVL141:
 1258 05fa 231C     		mov	r3, r4
 1259 05fc 80B2     		uxth	r0, r0
 1260 05fe 5E33     		add	r3, r3, #94
 1261 0600 D880     		strh	r0, [r3, #6]
 847:.\main.c      **** 
 848:.\main.c      ****                         Theta_Error_prev = Theta_Error;
 1262              		.loc 1 848 0
 1263 0602 009A     		ldr	r2, [sp]
 849:.\main.c      **** 						//******************************************************
 850:.\main.c      **** 						
 851:.\main.c      **** 						//******************************************************
 852:.\main.c      **** 						// Pitch damping
 853:.\main.c      **** 						// Input: turn rate q
 854:.\main.c      **** 						// Output: elevator command damping
 855:.\main.c      **** 						// Gains: K_d_q
ARM GAS  C:\Users\Sven\AppData\Local\Temp\ccvvqGJt.s 			page 39


 856:.\main.c      **** 						ctrl_out_DAMP[out_ele1] = K_d_q * (turn_rate_q);
 1264              		.loc 1 856 0
 1265 0604 894B     		ldr	r3, .L82+12
 848:.\main.c      ****                         Theta_Error_prev = Theta_Error;
 1266              		.loc 1 848 0
 1267 0606 2A70     		strb	r2, [r5]
 1268              		.loc 1 856 0
 1269 0608 1A1C     		mov	r2, r3
 1270 060a 0832     		add	r2, r2, #8
 1271 060c D27F     		ldrb	r2, [r2, #31]
 1272 060e 049D     		ldr	r5, [sp, #16]
 1273 0610 6834     		add	r4, r4, #104
 1274 0612 6A43     		mul	r2, r5
 1275 0614 92B2     		uxth	r2, r2
 1276 0616 E280     		strh	r2, [r4, #6]
 857:.\main.c      **** 						//******************************************************
 858:.\main.c      **** 						
 859:.\main.c      **** 						//******************************************************
 860:.\main.c      **** 						// Combining the calculated inputs elevator and limiting elevator command
 861:.\main.c      **** 						ctrl_out[out_ele1] = ctrl_in_trim[in_ele] - ctrl_out_PID[out_ele1] - ctrl_out_DAMP[out_ele1];
 1277              		.loc 1 861 0
 1278 0618 D98D     		ldrh	r1, [r3, #46]
 1279 061a 081A     		sub	r0, r1, r0
 1280 061c 801A     		sub	r0, r0, r2
 1281 061e 80B2     		uxth	r0, r0
 862:.\main.c      **** 						if(ctrl_out[out_ele1] > 2000) ctrl_out[out_ele1] = 2000;
 1282              		.loc 1 862 0
 1283 0620 FA22     		mov	r2, #250
 1284 0622 D200     		lsl	r2, r2, #3
 1285 0624 9042     		cmp	r0, r2
 1286 0626 06D8     		bhi	.L77
 863:.\main.c      **** 						else if (ctrl_out[out_ele1] < 900) ctrl_out[out_ele1] = 900;
 1287              		.loc 1 863 0
 1288 0628 814A     		ldr	r2, .L82+16
 1289 062a 9042     		cmp	r0, r2
 1290 062c 01D9     		bls	.L56
 861:.\main.c      **** 						ctrl_out[out_ele1] = ctrl_in_trim[in_ele] - ctrl_out_PID[out_ele1] - ctrl_out_DAMP[out_ele1];
 1291              		.loc 1 861 0
 1292 062e 5882     		strh	r0, [r3, #18]
 1293 0630 63E0     		b	.L42
 1294              	.L56:
 1295              		.loc 1 863 0 discriminator 1
 1296 0632 E122     		mov	r2, #225
 1297 0634 9200     		lsl	r2, r2, #2
 1298              	.L77:
 1299 0636 5A82     		strh	r2, [r3, #18]
 1300 0638 5FE0     		b	.L42
 1301              	.LVL142:
 1302              	.L54:
 1303              	.LBE3:
 1304              	.LBB4:
 864:.\main.c      **** 						//******************************************************
 865:.\main.c      **** 						//#endif
 866:.\main.c      **** 
 867:.\main.c      ****                         }
 868:.\main.c      ****                         else
 869:.\main.c      ****                         {
ARM GAS  C:\Users\Sven\AppData\Local\Temp\ccvvqGJt.s 			page 40


 870:.\main.c      ****                         
 871:.\main.c      ****                         //#ifdef PHICTRL
 872:.\main.c      ****                         //******************************************************
 873:.\main.c      ****  						// Phi control with Aileron
 874:.\main.c      ****  						// Input: Phi command from Heading hold loop
 875:.\main.c      ****  						// Output: aileron command pid loop
 876:.\main.c      ****  						// Controller: PID Controller
 877:.\main.c      **** 						// Gains: K_p = 10 K_i = 10 K_d = 5
 878:.\main.c      **** 
 879:.\main.c      **** 						uint8_t Kp_Phi = 2;
 880:.\main.c      **** 						uint8_t Ki_Phi = 2;
 881:.\main.c      **** 						uint8_t Kd_Phi = 0;
 882:.\main.c      **** 						
 883:.\main.c      ****  						Phi_Error = Phi - Phi_Target; // as per Simulation in SCILAB this convention is best
 884:.\main.c      ****  						Phi_Error_sum += Theta_Error;
 1305              		.loc 1 884 0
 1306 063a 4E26     		mov	r6, #78
 1307 063c A657     		ldrsb	r6, [r4, r6]
 1308 063e A06D     		ldr	r0, [r4, #88]
 1309 0640 3618     		add	r6, r6, r0
 883:.\main.c      ****  						Phi_Error = Phi - Phi_Target; // as per Simulation in SCILAB this convention is best
 1310              		.loc 1 883 0
 1311 0642 5C20     		mov	r0, #92
 1312 0644 2056     		ldrsb	r0, [r4, r0]
 1313 0646 FFF7FEFF 		bl	__aeabi_i2f
 1314              	.LVL143:
 885:.\main.c      ****  						// controller formula for the necessary control change						 
 886:.\main.c      ****  						ctrl_out_PID[out_ail1] = (Kp_Phi*Phi_Error + Ki_Phi*Phi_Error_sum*sample_time + Kd_Phi*(-Phi
 887:.\main.c      ****                         Phi_Error_prev = Phi_Error;
 888:.\main.c      **** 						//******************************************************
 889:.\main.c      **** 						
 890:.\main.c      **** 						//uint8_t Kp_Phi = 5;
 891:.\main.c      **** 						//uint8_t Ki_Phi = 5;
 892:.\main.c      **** 						//uint8_t Kd_Phi = 1;
 893:.\main.c      **** 						
 894:.\main.c      ****  						Phi_Error = Phi_Target - Phi; // as per Simulation in SCILAB this convention is best
 1315              		.loc 1 894 0
 1316 064a 0199     		ldr	r1, [sp, #4]
 1317 064c FFF7FEFF 		bl	__aeabi_fsub
 1318              	.LVL144:
 1319 0650 FFF7FEFF 		bl	__aeabi_f2iz
 1320              	.LVL145:
 1321 0654 C5B2     		uxtb	r5, r0
 895:.\main.c      ****  						Phi_Error_sum += Phi_Error;
 1322              		.loc 1 895 0
 1323 0656 68B2     		sxtb	r0, r5
 894:.\main.c      ****  						Phi_Error = Phi_Target - Phi; // as per Simulation in SCILAB this convention is best
 1324              		.loc 1 894 0
 1325 0658 231C     		mov	r3, r4
 1326 065a 5533     		add	r3, r3, #85
 1327              		.loc 1 895 0
 1328 065c 3618     		add	r6, r6, r0
 894:.\main.c      ****  						Phi_Error = Phi_Target - Phi; // as per Simulation in SCILAB this convention is best
 1329              		.loc 1 894 0
 1330 065e 1D70     		strb	r5, [r3]
 1331              		.loc 1 895 0
 1332 0660 A665     		str	r6, [r4, #88]
ARM GAS  C:\Users\Sven\AppData\Local\Temp\ccvvqGJt.s 			page 41


 896:.\main.c      ****  						// controller formula for the necessary control change						 
 897:.\main.c      ****  						ctrl_out_PID[out_ail1] = (Kp_Phi*Phi_Error + Ki_Phi*Phi_Error_sum*sample_time + Kd_Phi*(-Phi
 1333              		.loc 1 897 0
 1334 0662 4000     		lsl	r0, r0, #1
 1335 0664 FFF7FEFF 		bl	__aeabi_i2f
 1336              	.LVL146:
 1337 0668 0090     		str	r0, [sp]
 1338 066a 7000     		lsl	r0, r6, #1
 1339 066c FFF7FEFF 		bl	__aeabi_i2f
 1340              	.LVL147:
 1341 0670 0299     		ldr	r1, [sp, #8]
 1342 0672 FFF7FEFF 		bl	__aeabi_fmul
 1343              	.LVL148:
 1344 0676 011C     		add	r1, r0, #0
 1345 0678 0098     		ldr	r0, [sp]
 1346 067a FFF7FEFF 		bl	__aeabi_fadd
 1347              	.LVL149:
 1348 067e 0021     		mov	r1, #0
 1349 0680 FFF7FEFF 		bl	__aeabi_fadd
 1350              	.LVL150:
 1351 0684 FFF7FEFF 		bl	__aeabi_f2uiz
 1352              	.LVL151:
 1353 0688 231C     		mov	r3, r4
 1354 068a 80B2     		uxth	r0, r0
 1355 068c 5E33     		add	r3, r3, #94
 1356 068e 5880     		strh	r0, [r3, #2]
 898:.\main.c      ****                         Phi_Error_prev = Phi_Error;
 1357              		.loc 1 898 0
 1358 0690 231C     		mov	r3, r4
 1359 0692 7233     		add	r3, r3, #114
 1360 0694 1D70     		strb	r5, [r3]
 899:.\main.c      **** 						//******************************************************
 900:.\main.c      **** 						
 901:.\main.c      **** 
 902:.\main.c      **** 						//******************************************************
 903:.\main.c      **** 						// Pitch damping
 904:.\main.c      **** 						// Input: turn rate q
 905:.\main.c      **** 						// Output: elevator command damping
 906:.\main.c      **** 						// Gains: K_d_q
 907:.\main.c      **** 						ctrl_out_DAMP[out_ail1] = K_d_p * (turn_rate_p);
 1361              		.loc 1 907 0
 1362 0696 654B     		ldr	r3, .L82+12
 1363 0698 039D     		ldr	r5, [sp, #12]
 1364 069a DA1D     		add	r2, r3, #7
 1365 069c D27F     		ldrb	r2, [r2, #31]
 1366 069e 6834     		add	r4, r4, #104
 1367 06a0 6A43     		mul	r2, r5
 1368 06a2 92B2     		uxth	r2, r2
 1369 06a4 6280     		strh	r2, [r4, #2]
 908:.\main.c      **** 						//******************************************************
 909:.\main.c      **** 						
 910:.\main.c      **** 						//******************************************************
 911:.\main.c      **** 						// Combining the calculated inputs elevator and limiting elevator command
 912:.\main.c      **** 
 913:.\main.c      **** 						ctrl_out[out_ail1] = ctrl_in_trim[in_ail] - ctrl_out_PID[out_ail1] - ctrl_out_DAMP[out_ail1];
 1370              		.loc 1 913 0
 1371 06a6 998D     		ldrh	r1, [r3, #44]
ARM GAS  C:\Users\Sven\AppData\Local\Temp\ccvvqGJt.s 			page 42


 1372 06a8 081A     		sub	r0, r1, r0
 1373 06aa 801A     		sub	r0, r0, r2
 1374 06ac 80B2     		uxth	r0, r0
 914:.\main.c      **** 
 915:.\main.c      **** 						if(ctrl_out[out_ail1] > 2000) ctrl_out[out_ail1] = 2000;
 1375              		.loc 1 915 0
 1376 06ae FA22     		mov	r2, #250
 1377 06b0 D200     		lsl	r2, r2, #3
 1378 06b2 9042     		cmp	r0, r2
 1379 06b4 06D8     		bhi	.L76
 916:.\main.c      **** 						else if (ctrl_out[out_ail1] < 900) ctrl_out[out_ail1] = 900;
 1380              		.loc 1 916 0
 1381 06b6 5E4A     		ldr	r2, .L82+16
 1382 06b8 9042     		cmp	r0, r2
 1383 06ba 01D9     		bls	.L60
 913:.\main.c      **** 						ctrl_out[out_ail1] = ctrl_in_trim[in_ail] - ctrl_out_PID[out_ail1] - ctrl_out_DAMP[out_ail1];
 1384              		.loc 1 913 0
 1385 06bc D881     		strh	r0, [r3, #14]
 1386 06be 02E0     		b	.L59
 1387              	.L60:
 1388              		.loc 1 916 0 discriminator 1
 1389 06c0 E122     		mov	r2, #225
 1390 06c2 9200     		lsl	r2, r2, #2
 1391              	.L76:
 1392 06c4 DA81     		strh	r2, [r3, #14]
 1393              	.L59:
 917:.\main.c      ****                         ctrl_out[out_ail2] = ctrl_out[out_ail1];    /* Both Servos need to be contr
 1394              		.loc 1 917 0
 1395 06c6 DA89     		ldrh	r2, [r3, #14]
 1396 06c8 1A82     		strh	r2, [r3, #16]
 1397 06ca 16E0     		b	.L42
 1398              	.LVL152:
 1399              	.L36:
 1400              	.LBE4:
 1401              	.LBE2:
 918:.\main.c      **** 						//******************************************************
 919:.\main.c      ****                         //#endif
 920:.\main.c      **** 
 921:.\main.c      ****                         }
 922:.\main.c      **** 
 923:.\main.c      ****                         
 924:.\main.c      ****                     break;
 925:.\main.c      ****                         
 926:.\main.c      ****                 }
 927:.\main.c      ****             }
 928:.\main.c      ****             else    // for debug use only (no receiver connected)
 929:.\main.c      ****             {
 930:.\main.c      ****                 ctrl_in[in_mot] = 1000;
 931:.\main.c      ****                 ctrl_out[out_mot] = ctrl_in[in_mot];    
 932:.\main.c      ****                 ctrl_out[out_ail1] = 1500 +(K_d_p*turn_rate_p);    
 1402              		.loc 1 932 0
 1403 06cc 574A     		ldr	r2, .L82+12
 1404 06ce 039C     		ldr	r4, [sp, #12]
 1405 06d0 0732     		add	r2, r2, #7
 1406 06d2 D27F     		ldrb	r2, [r2, #31]
 1407 06d4 574D     		ldr	r5, .L82+20
 1408 06d6 6243     		mul	r2, r4
ARM GAS  C:\Users\Sven\AppData\Local\Temp\ccvvqGJt.s 			page 43


 930:.\main.c      ****                 ctrl_in[in_mot] = 1000;
 1409              		.loc 1 930 0
 1410 06d8 FA23     		mov	r3, #250
 1411 06da 9B00     		lsl	r3, r3, #2
 1412              		.loc 1 932 0
 1413 06dc 5219     		add	r2, r2, r5
 930:.\main.c      ****                 ctrl_in[in_mot] = 1000;
 1414              		.loc 1 930 0
 1415 06de FB82     		strh	r3, [r7, #22]
 931:.\main.c      ****                 ctrl_out[out_mot] = ctrl_in[in_mot];    
 1416              		.loc 1 931 0
 1417 06e0 B381     		strh	r3, [r6, #12]
 1418              		.loc 1 932 0
 1419 06e2 F281     		strh	r2, [r6, #14]
 933:.\main.c      ****                 ctrl_out[out_ail2] = ctrl_in[in_mot];
 1420              		.loc 1 933 0
 1421 06e4 3382     		strh	r3, [r6, #16]
 934:.\main.c      ****                 ctrl_out[out_ele1] = ctrl_in[in_mot];
 1422              		.loc 1 934 0
 1423 06e6 7382     		strh	r3, [r6, #18]
 935:.\main.c      ****                 ctrl_out[out_ele2] = ctrl_in[in_mot];
 1424              		.loc 1 935 0
 1425 06e8 B382     		strh	r3, [r6, #20]
 936:.\main.c      ****                 ctrl_out[out_rud] = ctrl_in[in_mot];
 1426              		.loc 1 936 0
 1427 06ea F382     		strh	r3, [r6, #22]
 937:.\main.c      ****                 ctrl_out[out_fl1] = ctrl_in[in_mot];
 1428              		.loc 1 937 0
 1429 06ec 3383     		strh	r3, [r6, #24]
 938:.\main.c      ****                 ctrl_out[out_fl2] = ctrl_in[in_mot];
 1430              		.loc 1 938 0
 1431 06ee 7383     		strh	r3, [r6, #26]
 939:.\main.c      ****                 ctrl_out[out_ge1] = ctrl_in[in_mot];
 1432              		.loc 1 939 0
 1433 06f0 B383     		strh	r3, [r6, #28]
 940:.\main.c      ****                 ctrl_out[out_ge2] = ctrl_in[in_mot];
 1434              		.loc 1 940 0
 1435 06f2 F383     		strh	r3, [r6, #30]
 941:.\main.c      ****                 ctrl_out[out_ge3] = ctrl_in[in_mot];
 1436              		.loc 1 941 0
 1437 06f4 3384     		strh	r3, [r6, #32]
 942:.\main.c      ****                 ctrl_out[out_sp1] = ctrl_in[in_mot];
 1438              		.loc 1 942 0
 1439 06f6 7384     		strh	r3, [r6, #34]
 943:.\main.c      ****                 ctrl_out[out_sp2] = ctrl_in[in_mot];
 1440              		.loc 1 943 0
 1441 06f8 B384     		strh	r3, [r6, #36]
 1442              	.L42:
 944:.\main.c      ****             }
 945:.\main.c      ****             
 946:.\main.c      ****             /*=======================================
 947:.\main.c      ****                 Data Logging
 948:.\main.c      ****               =======================================*/
 949:.\main.c      ****             if(DATA_LOG == TRUE)
 950:.\main.c      ****             {
 951:.\main.c      ****                 UART_1_UartPutNum(ctrl_out[out_mot]);
 1443              		.loc 1 951 0
ARM GAS  C:\Users\Sven\AppData\Local\Temp\ccvvqGJt.s 			page 44


 1444 06fa 4C4C     		ldr	r4, .L82+12
 1445 06fc A089     		ldrh	r0, [r4, #12]
 1446 06fe FFF7FEFF 		bl	UART_1_UartPutNum
 1447              	.LVL153:
 952:.\main.c      ****                 UART_1_UartPutString(";");
 1448              		.loc 1 952 0
 1449 0702 4D4C     		ldr	r4, .L82+24
 1450 0704 201C     		mov	r0, r4
 1451 0706 FFF7FEFF 		bl	UART_1_UartPutString
 1452              	.LVL154:
 953:.\main.c      ****                 UART_1_UartPutNum(ctrl_out[out_ail1]);
 1453              		.loc 1 953 0
 1454 070a 484D     		ldr	r5, .L82+12
 1455 070c E889     		ldrh	r0, [r5, #14]
 1456 070e FFF7FEFF 		bl	UART_1_UartPutNum
 1457              	.LVL155:
 954:.\main.c      ****                 UART_1_UartPutString(";");
 1458              		.loc 1 954 0
 1459 0712 201C     		mov	r0, r4
 1460 0714 FFF7FEFF 		bl	UART_1_UartPutString
 1461              	.LVL156:
 955:.\main.c      ****                 UART_1_UartPutNum(ctrl_out[out_ele1]);
 1462              		.loc 1 955 0
 1463 0718 688A     		ldrh	r0, [r5, #18]
 1464 071a FFF7FEFF 		bl	UART_1_UartPutNum
 1465              	.LVL157:
 956:.\main.c      ****                 UART_1_UartPutString(";");
 1466              		.loc 1 956 0
 1467 071e 201C     		mov	r0, r4
 1468 0720 FFF7FEFF 		bl	UART_1_UartPutString
 1469              	.LVL158:
 957:.\main.c      ****                 UART_1_UartPutNum(ctrl_out[out_rud]);
 1470              		.loc 1 957 0
 1471 0724 E88A     		ldrh	r0, [r5, #22]
 1472 0726 FFF7FEFF 		bl	UART_1_UartPutNum
 1473              	.LVL159:
 958:.\main.c      ****                 UART_1_UartPutString(";");
 1474              		.loc 1 958 0
 1475 072a 201C     		mov	r0, r4
 1476 072c FFF7FEFF 		bl	UART_1_UartPutString
 1477              	.LVL160:
 959:.\main.c      ****                 UART_1_UartPutNum(ctrl_out[out_ge2]);
 1478              		.loc 1 959 0
 1479 0730 E88B     		ldrh	r0, [r5, #30]
 1480 0732 FFF7FEFF 		bl	UART_1_UartPutNum
 1481              	.LVL161:
 960:.\main.c      ****                 UART_1_UartPutString(";");
 1482              		.loc 1 960 0
 1483 0736 201C     		mov	r0, r4
 1484 0738 FFF7FEFF 		bl	UART_1_UartPutString
 1485              	.LVL162:
 961:.\main.c      ****                 UART_1_UartPutNum(ctrl_out[out_fl1]);
 1486              		.loc 1 961 0
 1487 073c 288B     		ldrh	r0, [r5, #24]
 1488 073e FFF7FEFF 		bl	UART_1_UartPutNum
 1489              	.LVL163:
 962:.\main.c      ****                 UART_1_UartPutString(";");
ARM GAS  C:\Users\Sven\AppData\Local\Temp\ccvvqGJt.s 			page 45


 1490              		.loc 1 962 0
 1491 0742 201C     		mov	r0, r4
 1492 0744 FFF7FEFF 		bl	UART_1_UartPutString
 1493              	.LVL164:
 963:.\main.c      ****                 //UART_1_UartPutNum(ctrl_in[7]);
 964:.\main.c      ****                 //UART_1_UartPutString("\r\n");
 965:.\main.c      ****                 UART_1_UartPutNum(Phi);
 1494              		.loc 1 965 0
 1495 0748 3C4B     		ldr	r3, .L82+28
 1496 074a 1868     		ldr	r0, [r3]
 1497 074c FFF7FEFF 		bl	__aeabi_f2iz
 1498              	.LVL165:
 1499 0750 FFF7FEFF 		bl	UART_1_UartPutNum
 1500              	.LVL166:
 966:.\main.c      ****                 UART_1_UartPutString(";");
 1501              		.loc 1 966 0
 1502 0754 201C     		mov	r0, r4
 1503 0756 FFF7FEFF 		bl	UART_1_UartPutString
 1504              	.LVL167:
 967:.\main.c      ****                 UART_1_UartPutNum(Theta);
 1505              		.loc 1 967 0
 1506 075a 394B     		ldr	r3, .L82+32
 1507 075c 1868     		ldr	r0, [r3]
 1508 075e FFF7FEFF 		bl	__aeabi_f2iz
 1509              	.LVL168:
 1510 0762 FFF7FEFF 		bl	UART_1_UartPutNum
 1511              	.LVL169:
 968:.\main.c      ****                 UART_1_UartPutString(";");
 1512              		.loc 1 968 0
 1513 0766 201C     		mov	r0, r4
 1514 0768 FFF7FEFF 		bl	UART_1_UartPutString
 1515              	.LVL170:
 969:.\main.c      ****                 UART_1_UartPutNum(speed);
 1516              		.loc 1 969 0
 1517 076c 0221     		mov	r1, #2
 1518 076e 785E     		ldrsh	r0, [r7, r1]
 1519 0770 FFF7FEFF 		bl	UART_1_UartPutNum
 1520              	.LVL171:
 970:.\main.c      ****                 UART_1_UartPutString(";");
 1521              		.loc 1 970 0
 1522 0774 201C     		mov	r0, r4
 1523 0776 FFF7FEFF 		bl	UART_1_UartPutString
 1524              	.LVL172:
 971:.\main.c      ****                 UART_1_UartPutNum(press);
 1525              		.loc 1 971 0
 1526 077a B86A     		ldr	r0, [r7, #40]
 1527 077c FFF7FEFF 		bl	UART_1_UartPutNum
 1528              	.LVL173:
 972:.\main.c      ****                 UART_1_UartPutString(";");
 1529              		.loc 1 972 0
 1530 0780 201C     		mov	r0, r4
 1531 0782 FFF7FEFF 		bl	UART_1_UartPutString
 1532              	.LVL174:
 973:.\main.c      ****                 UART_1_UartPutNum(alt);
 1533              		.loc 1 973 0
 1534 0786 F86A     		ldr	r0, [r7, #44]
 1535 0788 FFF7FEFF 		bl	UART_1_UartPutNum
ARM GAS  C:\Users\Sven\AppData\Local\Temp\ccvvqGJt.s 			page 46


 1536              	.LVL175:
 974:.\main.c      ****                 UART_1_UartPutString(";");
 1537              		.loc 1 974 0
 1538 078c 201C     		mov	r0, r4
 1539 078e FFF7FEFF 		bl	UART_1_UartPutString
 1540              	.LVL176:
 975:.\main.c      ****                 UART_1_UartPutNum(Ctrl_Mode);
 1541              		.loc 1 975 0
 1542 0792 244B     		ldr	r3, .L82+4
 1543 0794 4933     		add	r3, r3, #73
 1544 0796 1878     		ldrb	r0, [r3]
 1545 0798 FFF7FEFF 		bl	UART_1_UartPutNum
 1546              	.LVL177:
 976:.\main.c      ****                 UART_1_UartPutString(";\r\n");
 1547              		.loc 1 976 0
 1548 079c 2948     		ldr	r0, .L82+36
 1549 079e FFF7FEFF 		bl	UART_1_UartPutString
 1550              	.LVL178:
 977:.\main.c      ****             }
 978:.\main.c      ****                 //UART_1_UartPutNum(Phi);
 979:.\main.c      ****                 //UART_1_UartPutString(";");
 980:.\main.c      ****                 //UART_1_UartPutNum(Theta);
 981:.\main.c      ****                 //UART_1_UartPutString(";");
 982:.\main.c      ****                 //UART_1_UartPutNum(speed);
 983:.\main.c      ****                 //UART_1_UartPutString(";\r\n");
 984:.\main.c      ****             if(Rx_flag == 1)
 1551              		.loc 1 984 0
 1552 07a2 204B     		ldr	r3, .L82+4
 1553 07a4 7333     		add	r3, r3, #115
 1554 07a6 1A78     		ldrb	r2, [r3]
 1555 07a8 012A     		cmp	r2, #1
 1556 07aa 17D1     		bne	.L62
 985:.\main.c      ****             {
 986:.\main.c      ****                 Rx_flag = 0;
 987:.\main.c      ****                 UART_1_UartPutString(Rx_String);
 1557              		.loc 1 987 0
 1558 07ac 1D4F     		ldr	r7, .L82+4
 986:.\main.c      ****                 Rx_flag = 0;
 1559              		.loc 1 986 0
 1560 07ae 0022     		mov	r2, #0
 1561              		.loc 1 987 0
 1562 07b0 7437     		add	r7, r7, #116
 1563 07b2 381C     		mov	r0, r7
 986:.\main.c      ****                 Rx_flag = 0;
 1564              		.loc 1 986 0
 1565 07b4 1A70     		strb	r2, [r3]
 1566              		.loc 1 987 0
 1567 07b6 FFF7FEFF 		bl	UART_1_UartPutString
 1568              	.LVL179:
 988:.\main.c      ****                 UART_1_UartPutString("\r\n");
 1569              		.loc 1 988 0
 1570 07ba 2348     		ldr	r0, .L82+40
 1571 07bc FFF7FEFF 		bl	UART_1_UartPutString
 1572              	.LVL180:
 989:.\main.c      ****                 // In case "Boot" is received -> Bootloader gets enabled
 990:.\main.c      ****                 if(strcmp(Rx_String,"Boot")==0)
 1573              		.loc 1 990 0
ARM GAS  C:\Users\Sven\AppData\Local\Temp\ccvvqGJt.s 			page 47


 1574 07c0 381C     		mov	r0, r7
 1575 07c2 2249     		ldr	r1, .L82+44
 1576 07c4 FFF7FEFF 		bl	strcmp
 1577              	.LVL181:
 1578 07c8 0028     		cmp	r0, #0
 1579 07ca 07D1     		bne	.L62
 991:.\main.c      ****                 {
 992:.\main.c      ****                     //CySysWdtUnlock();   // Stop The Watchdog...?
 993:.\main.c      ****                     //CySysWdtDisable(CY_SYS_WDT_COUNTER0_MASK);
 994:.\main.c      ****                     UART_1_UartPutString("BootEnabl\r\n");
 1580              		.loc 1 994 0
 1581 07cc 2048     		ldr	r0, .L82+48
 1582 07ce FFF7FEFF 		bl	UART_1_UartPutString
 1583              	.LVL182:
 995:.\main.c      ****                     CyDelay(100);
 1584              		.loc 1 995 0
 1585 07d2 6420     		mov	r0, #100
 1586 07d4 FFF7FEFF 		bl	CyDelay
 1587              	.LVL183:
 996:.\main.c      ****                     Bootloadable_1_Load(); 
 1588              		.loc 1 996 0
 1589 07d8 FFF7FEFF 		bl	Bootloadable_1_Load
 1590              	.LVL184:
 1591              	.L62:
 997:.\main.c      ****                 }
 998:.\main.c      ****             }
 999:.\main.c      ****             // Feed the Watchdog
1000:.\main.c      ****             //CySysWdtClearInterrupt(CY_SYS_WDT_COUNTER0);
1001:.\main.c      ****             //CySysWdtClearInterrupt(CY_SYS_WDT_COUNTER0_MASK);
1002:.\main.c      ****             //CySysWdtClearInterrupt(CY_SYS_WDT_COUNTER0_INT);
1003:.\main.c      ****             //CySysWdtClearInterrupt(CY_SYS_WDT_COUNTER0_);
1004:.\main.c      ****             CySysWdtResetCounters(CY_SYS_WDT_COUNTER0_RESET);
 1592              		.loc 1 1004 0
 1593 07dc 0820     		mov	r0, #8
 1594 07de FFF7FEFF 		bl	CySysWdtResetCounters
 1595              	.LVL185:
 1596              	.L19:
1005:.\main.c      ****         }
1006:.\main.c      ****         // Reading the serial data and putting it to a string
1007:.\main.c      ****         Rx_char = UART_1_UartGetChar(); // Poll for Characters
 1597              		.loc 1 1007 0
 1598 07e2 FFF7FEFF 		bl	UART_1_UartGetChar
 1599              	.LVL186:
 1600 07e6 0F4A     		ldr	r2, .L82+4
 1601 07e8 C0B2     		uxtb	r0, r0
 1602 07ea 131C     		mov	r3, r2
 1603 07ec 7E33     		add	r3, r3, #126
 1604 07ee 1870     		strb	r0, [r3]
1008:.\main.c      ****         if(Rx_char > 0u)  
 1605              		.loc 1 1008 0
 1606 07f0 0028     		cmp	r0, #0
 1607 07f2 00D1     		bne	.LCB1315
 1608 07f4 5BE4     		b	.L65	@long jump
 1609              	.LCB1315:
 1610 07f6 111C     		mov	r1, r2
 1611 07f8 131C     		mov	r3, r2
 1612 07fa 7431     		add	r1, r1, #116
ARM GAS  C:\Users\Sven\AppData\Local\Temp\ccvvqGJt.s 			page 48


 1613 07fc 7F33     		add	r3, r3, #127
1009:.\main.c      ****             {
1010:.\main.c      ****                 if(Rx_char == '\r')
 1614              		.loc 1 1010 0
 1615 07fe 0D28     		cmp	r0, #13
 1616 0800 07D1     		bne	.L66
1011:.\main.c      ****                 {
1012:.\main.c      ****                     Rx_String[Rx_index] = '\0';
 1617              		.loc 1 1012 0
 1618 0802 1C78     		ldrb	r4, [r3]
 1619 0804 0020     		mov	r0, #0
 1620 0806 0855     		strb	r0, [r1, r4]
1013:.\main.c      ****                     Rx_flag = 1;
 1621              		.loc 1 1013 0
 1622 0808 7332     		add	r2, r2, #115
 1623 080a 0121     		mov	r1, #1
 1624 080c 1170     		strb	r1, [r2]
1014:.\main.c      ****                     Rx_index = 0;
 1625              		.loc 1 1014 0
 1626 080e 1870     		strb	r0, [r3]
 1627 0810 4DE4     		b	.L65
 1628              	.L66:
1015:.\main.c      ****                 }
1016:.\main.c      ****                 else
1017:.\main.c      ****                 {
1018:.\main.c      ****                     Rx_String[Rx_index] = Rx_char;
 1629              		.loc 1 1018 0
 1630 0812 1A78     		ldrb	r2, [r3]
 1631 0814 8854     		strb	r0, [r1, r2]
1019:.\main.c      ****                     Rx_index++;
 1632              		.loc 1 1019 0
 1633 0816 0132     		add	r2, r2, #1
 1634 0818 1A70     		strb	r2, [r3]
 1635 081a FFF748FC 		bl	.L65	@ far jump
 1636              	.L83:
 1637 081e C046     		.align	2
 1638              	.L82:
 1639 0820 54000000 		.word	.LANCHOR1+84
 1640 0824 00000000 		.word	.LANCHOR1
 1641 0828 D6060000 		.word	1750
 1642 082c 00000000 		.word	.LANCHOR0
 1643 0830 83030000 		.word	899
 1644 0834 DC050000 		.word	1500
 1645 0838 41000000 		.word	.LC22
 1646 083c 00000000 		.word	Phi
 1647 0840 00000000 		.word	Theta
 1648 0844 43000000 		.word	.LC24
 1649 0848 1D000000 		.word	.LC11
 1650 084c 47000000 		.word	.LC26
 1651 0850 4C000000 		.word	.LC28
 1652              		.cfi_endproc
 1653              	.LFE1493:
 1654              		.size	main, .-main
 1655              		.global	cnt_ML_ATTITUDE_send
 1656              		.global	cnt_ML_HEARTBEAT_send
 1657              		.comm	buf,263,1
 1658              		.comm	msg,272,1
ARM GAS  C:\Users\Sven\AppData\Local\Temp\ccvvqGJt.s 			page 49


 1659              		.global	system_state
 1660              		.global	custom_mode
 1661              		.global	system_mode
 1662              		.global	autopilot_type
 1663              		.global	system_type
 1664              		.comm	mavlink_system,2,1
 1665              		.global	Rx_flag
 1666              		.global	Rx_index
 1667              		.global	Rx_String
 1668              		.global	Rx_char
 1669              		.global	Phi_Error_prev
 1670              		.global	Phi_Error_sum
 1671              		.global	Phi_Error
 1672              		.global	Phi_Target
 1673              		.global	Theta_Error_prev
 1674              		.global	Theta_Error_sum
 1675              		.global	Theta_Error
 1676              		.global	Theta_Target
 1677              		.global	tune_cnt
 1678              		.global	K_d_r
 1679              		.global	K_d_q
 1680              		.global	K_d_p
 1681              		.global	K_1_Phi
 1682              		.comm	K_0_Phi,4,4
 1683              		.comm	S_Phi,4,4
 1684              		.comm	Phi_temp,4,4
 1685              		.global	P_Phi
 1686              		.global	p_bias
 1687              		.global	K_1_Theta
 1688              		.comm	K_0_Theta,4,4
 1689              		.comm	S_Theta,4,4
 1690              		.comm	Theta_temp,4,4
 1691              		.global	P_Theta
 1692              		.global	q_bias
 1693              		.global	R_angle
 1694              		.global	Q_gyro
 1695              		.global	Q_angle
 1696              		.global	QFE
 1697              		.global	press
 1698              		.global	temp
 1699              		.global	cnt_baro
 1700              		.global	alt
 1701              		.global	speed_cal_compl
 1702              		.global	cal_cnt
 1703              		.global	speed
 1704              		.global	speed_offset
 1705              		.global	Bar_press
 1706              		.global	Mag_y
 1707              		.comm	Mag_x,4,4
 1708              		.global	Mag_Heading
 1709              		.global	Psi_acc
 1710              		.comm	Psi,4,4
 1711              		.global	Phi_acc
 1712              		.comm	Phi_Mav,4,4
 1713              		.comm	Phi,4,4
 1714              		.global	Theta_acc
 1715              		.comm	Theta_Mav,4,4
ARM GAS  C:\Users\Sven\AppData\Local\Temp\ccvvqGJt.s 			page 50


 1716              		.comm	Theta,4,4
 1717              		.global	mag_z_g
 1718              		.global	mag_y_g
 1719              		.global	mag_x_g
 1720              		.global	acc_z_g
 1721              		.global	acc_y_g
 1722              		.global	acc_x_g
 1723              		.global	turn_rate_r
 1724              		.global	turn_rate_q
 1725              		.global	turn_rate_p
 1726              		.global	cnt_StrobeLight
 1727              		.global	NavLightCompare
 1728              		.global	NavLightStep
 1729              		.global	NavLightDim
 1730              		.global	NavLightBright
 1731              		.global	flag_NavLightPulse
 1732              		.global	flag_LightsEnabled
 1733              		.global	Ctrl_Mode
 1734              		.global	receiver_connected
 1735              		.global	ctrl_out_DAMP
 1736              		.global	ctrl_out_PID
 1737              		.global	ctrl_in_trim
 1738              		.global	ctrl_out
 1739              		.global	ctrl_in
 1740              		.global	PPM_channel
 1741              		.global	sample_time
 1742              		.global	blink_cnt
 1743              		.global	task_flag
 1744 0854 C046C046 		.section	.rodata.str1.1,"aMS",%progbits,1
 1745              	.LC0:
 1746 0000 256400   		.ascii	"%d\000"
 1747              	.LC4:
 1748 0003 43616C20 		.ascii	"Cal Compl\015\012\000"
 1748      436F6D70 
 1748      6C0D0A00 
 1749              	.LC9:
 1750 000f 43757272 		.ascii	"Current QFE: \000"
 1750      656E7420 
 1750      5146453A 
 1750      2000
 1751              	.LC11:
 1752 001d 0D0A00   		.ascii	"\015\012\000"
 1753              	.LC13:
 1754 0020 496E6974 		.ascii	"Init Complete\015\012\000"
 1754      20436F6D 
 1754      706C6574 
 1754      650D0A00 
 1755              	.LC16:
 1756 0030 41444320 		.ascii	"ADC Calibrated\015\012\000"
 1756      43616C69 
 1756      62726174 
 1756      65640D0A 
 1756      00
 1757              	.LC22:
 1758 0041 3B00     		.ascii	";\000"
 1759              	.LC24:
 1760 0043 3B0D0A00 		.ascii	";\015\012\000"
ARM GAS  C:\Users\Sven\AppData\Local\Temp\ccvvqGJt.s 			page 51


 1761              	.LC26:
 1762 0047 426F6F74 		.ascii	"Boot\000"
 1762      00
 1763              	.LC28:
 1764 004c 426F6F74 		.ascii	"BootEnabl\015\012\000"
 1764      456E6162 
 1764      6C0D0A00 
 1765              		.data
 1766              		.align	2
 1767              		.set	.LANCHOR0,. + 0
 1768              		.type	speed_offset, %object
 1769              		.size	speed_offset, 2
 1770              	speed_offset:
 1771 0000 AC00     		.short	172
 1772              		.type	flag_LightsEnabled, %object
 1773              		.size	flag_LightsEnabled, 1
 1774              	flag_LightsEnabled:
 1775 0002 01       		.byte	1
 1776 0003 00       		.space	1
 1777              		.type	NavLightBright, %object
 1778              		.size	NavLightBright, 2
 1779              	NavLightBright:
 1780 0004 6400     		.short	100
 1781              		.type	NavLightStep, %object
 1782              		.size	NavLightStep, 2
 1783              	NavLightStep:
 1784 0006 0100     		.short	1
 1785              		.type	sample_time, %object
 1786              		.size	sample_time, 4
 1787              	sample_time:
 1788 0008 0AD7233C 		.word	1008981770
 1789              		.type	ctrl_out, %object
 1790              		.size	ctrl_out, 26
 1791              	ctrl_out:
 1792 000c DC05     		.short	1500
 1793 000e DC05     		.short	1500
 1794 0010 DC05     		.short	1500
 1795 0012 DC05     		.short	1500
 1796 0014 DC05     		.short	1500
 1797 0016 DC05     		.short	1500
 1798 0018 DC05     		.short	1500
 1799 001a DC05     		.short	1500
 1800 001c DC05     		.short	1500
 1801 001e DC05     		.short	1500
 1802 0020 DC05     		.short	1500
 1803 0022 DC05     		.short	1500
 1804 0024 DC05     		.short	1500
 1805              		.type	K_d_p, %object
 1806              		.size	K_d_p, 1
 1807              	K_d_p:
 1808 0026 01       		.byte	1
 1809              		.type	K_d_q, %object
 1810              		.size	K_d_q, 1
 1811              	K_d_q:
 1812 0027 01       		.byte	1
 1813              		.type	K_d_r, %object
 1814              		.size	K_d_r, 1
ARM GAS  C:\Users\Sven\AppData\Local\Temp\ccvvqGJt.s 			page 52


 1815              	K_d_r:
 1816 0028 01       		.byte	1
 1817 0029 00       		.space	1
 1818              		.type	ctrl_in_trim, %object
 1819              		.size	ctrl_in_trim, 10
 1820              	ctrl_in_trim:
 1821 002a DC05     		.short	1500
 1822 002c DC05     		.short	1500
 1823 002e DC05     		.short	1500
 1824 0030 DC05     		.short	1500
 1825 0032 DC05     		.short	1500
 1826              		.type	system_state, %object
 1827              		.size	system_state, 1
 1828              	system_state:
 1829 0034 03       		.byte	3
 1830              		.type	system_type, %object
 1831              		.size	system_type, 1
 1832              	system_type:
 1833 0035 01       		.byte	1
 1834 0036 0000     		.space	2
 1835              		.type	R_angle, %object
 1836              		.size	R_angle, 4
 1837              	R_angle:
 1838 0038 0AD7A33C 		.word	1017370378
 1839              		.type	Q_gyro, %object
 1840              		.size	Q_gyro, 4
 1841              	Q_gyro:
 1842 003c 0AD7A33B 		.word	1000593162
 1843              		.type	Q_angle, %object
 1844              		.size	Q_angle, 4
 1845              	Q_angle:
 1846 0040 0AD7A33B 		.word	1000593162
 1847              		.bss
 1848              		.align	2
 1849              		.set	.LANCHOR1,. + 0
 1850              		.type	cal_cnt, %object
 1851              		.size	cal_cnt, 1
 1852              	cal_cnt:
 1853 0000 00       		.space	1
 1854 0001 00       		.space	1
 1855              		.type	speed, %object
 1856              		.size	speed, 2
 1857              	speed:
 1858 0002 0000     		.space	2
 1859              		.type	temp, %object
 1860              		.size	temp, 4
 1861              	temp:
 1862 0004 00000000 		.space	4
 1863              		.type	QFE, %object
 1864              		.size	QFE, 4
 1865              	QFE:
 1866 0008 00000000 		.space	4
 1867              		.type	task_flag, %object
 1868              		.size	task_flag, 1
 1869              	task_flag:
 1870 000c 00       		.space	1
 1871 000d 00       		.space	1
ARM GAS  C:\Users\Sven\AppData\Local\Temp\ccvvqGJt.s 			page 53


 1872              		.type	NavLightCompare, %object
 1873              		.size	NavLightCompare, 2
 1874              	NavLightCompare:
 1875 000e 0000     		.space	2
 1876              		.type	flag_NavLightPulse, %object
 1877              		.size	flag_NavLightPulse, 1
 1878              	flag_NavLightPulse:
 1879 0010 00       		.space	1
 1880 0011 00       		.space	1
 1881              		.type	NavLightDim, %object
 1882              		.size	NavLightDim, 2
 1883              	NavLightDim:
 1884 0012 0000     		.space	2
 1885              		.type	cnt_StrobeLight, %object
 1886              		.size	cnt_StrobeLight, 1
 1887              	cnt_StrobeLight:
 1888 0014 00       		.space	1
 1889 0015 00       		.space	1
 1890              		.type	ctrl_in, %object
 1891              		.size	ctrl_in, 16
 1892              	ctrl_in:
 1893 0016 00000000 		.space	16
 1893      00000000 
 1893      00000000 
 1893      00000000 
 1894              		.type	cnt_baro, %object
 1895              		.size	cnt_baro, 1
 1896              	cnt_baro:
 1897 0026 00       		.space	1
 1898 0027 00       		.space	1
 1899              		.type	press, %object
 1900              		.size	press, 4
 1901              	press:
 1902 0028 00000000 		.space	4
 1903              		.type	alt, %object
 1904              		.size	alt, 4
 1905              	alt:
 1906 002c 00000000 		.space	4
 1907              		.type	speed_cal_compl, %object
 1908              		.size	speed_cal_compl, 1
 1909              	speed_cal_compl:
 1910 0030 00       		.space	1
 1911 0031 00       		.space	1
 1912              		.type	acc_x_g, %object
 1913              		.size	acc_x_g, 2
 1914              	acc_x_g:
 1915 0032 0000     		.space	2
 1916              		.type	acc_z_g, %object
 1917              		.size	acc_z_g, 2
 1918              	acc_z_g:
 1919 0034 0000     		.space	2
 1920 0036 0000     		.space	2
 1921              		.type	Theta_acc, %object
 1922              		.size	Theta_acc, 4
 1923              	Theta_acc:
 1924 0038 00000000 		.space	4
 1925              		.type	acc_y_g, %object
ARM GAS  C:\Users\Sven\AppData\Local\Temp\ccvvqGJt.s 			page 54


 1926              		.size	acc_y_g, 2
 1927              	acc_y_g:
 1928 003c 0000     		.space	2
 1929 003e 0000     		.space	2
 1930              		.type	Phi_acc, %object
 1931              		.size	Phi_acc, 4
 1932              	Phi_acc:
 1933 0040 00000000 		.space	4
 1934              		.type	turn_rate_q, %object
 1935              		.size	turn_rate_q, 2
 1936              	turn_rate_q:
 1937 0044 0000     		.space	2
 1938              		.type	turn_rate_p, %object
 1939              		.size	turn_rate_p, 2
 1940              	turn_rate_p:
 1941 0046 0000     		.space	2
 1942              		.type	receiver_connected, %object
 1943              		.size	receiver_connected, 1
 1944              	receiver_connected:
 1945 0048 00       		.space	1
 1946              		.type	Ctrl_Mode, %object
 1947              		.size	Ctrl_Mode, 1
 1948              	Ctrl_Mode:
 1949 0049 00       		.space	1
 1950              		.type	tune_cnt, %object
 1951              		.size	tune_cnt, 1
 1952              	tune_cnt:
 1953 004a 00       		.space	1
 1954 004b 00       		.space	1
 1955              		.type	turn_rate_r, %object
 1956              		.size	turn_rate_r, 2
 1957              	turn_rate_r:
 1958 004c 0000     		.space	2
 1959              		.type	Theta_Error, %object
 1960              		.size	Theta_Error, 1
 1961              	Theta_Error:
 1962 004e 00       		.space	1
 1963 004f 00       		.space	1
 1964              		.type	Theta_Error_sum, %object
 1965              		.size	Theta_Error_sum, 4
 1966              	Theta_Error_sum:
 1967 0050 00000000 		.space	4
 1968              		.type	Theta_Target, %object
 1969              		.size	Theta_Target, 1
 1970              	Theta_Target:
 1971 0054 00       		.space	1
 1972              		.type	Phi_Error, %object
 1973              		.size	Phi_Error, 1
 1974              	Phi_Error:
 1975 0055 00       		.space	1
 1976 0056 0000     		.space	2
 1977              		.type	Phi_Error_sum, %object
 1978              		.size	Phi_Error_sum, 4
 1979              	Phi_Error_sum:
 1980 0058 00000000 		.space	4
 1981              		.type	Phi_Target, %object
 1982              		.size	Phi_Target, 1
ARM GAS  C:\Users\Sven\AppData\Local\Temp\ccvvqGJt.s 			page 55


 1983              	Phi_Target:
 1984 005c 00       		.space	1
 1985              		.type	Theta_Error_prev, %object
 1986              		.size	Theta_Error_prev, 1
 1987              	Theta_Error_prev:
 1988 005d 00       		.space	1
 1989              		.type	ctrl_out_PID, %object
 1990              		.size	ctrl_out_PID, 10
 1991              	ctrl_out_PID:
 1992 005e 00000000 		.space	10
 1992      00000000 
 1992      0000
 1993              		.type	ctrl_out_DAMP, %object
 1994              		.size	ctrl_out_DAMP, 10
 1995              	ctrl_out_DAMP:
 1996 0068 00000000 		.space	10
 1996      00000000 
 1996      0000
 1997              		.type	Phi_Error_prev, %object
 1998              		.size	Phi_Error_prev, 1
 1999              	Phi_Error_prev:
 2000 0072 00       		.space	1
 2001              		.type	Rx_flag, %object
 2002              		.size	Rx_flag, 1
 2003              	Rx_flag:
 2004 0073 00       		.space	1
 2005              		.type	Rx_String, %object
 2006              		.size	Rx_String, 10
 2007              	Rx_String:
 2008 0074 00000000 		.space	10
 2008      00000000 
 2008      0000
 2009              		.type	Rx_char, %object
 2010              		.size	Rx_char, 1
 2011              	Rx_char:
 2012 007e 00       		.space	1
 2013              		.type	Rx_index, %object
 2014              		.size	Rx_index, 1
 2015              	Rx_index:
 2016 007f 00       		.space	1
 2017              		.type	cnt_ML_ATTITUDE_send, %object
 2018              		.size	cnt_ML_ATTITUDE_send, 1
 2019              	cnt_ML_ATTITUDE_send:
 2020 0080 00       		.space	1
 2021              		.type	cnt_ML_HEARTBEAT_send, %object
 2022              		.size	cnt_ML_HEARTBEAT_send, 1
 2023              	cnt_ML_HEARTBEAT_send:
 2024 0081 00       		.space	1
 2025 0082 0000     		.space	2
 2026              		.type	custom_mode, %object
 2027              		.size	custom_mode, 4
 2028              	custom_mode:
 2029 0084 00000000 		.space	4
 2030              		.type	system_mode, %object
 2031              		.size	system_mode, 1
 2032              	system_mode:
 2033 0088 00       		.space	1
ARM GAS  C:\Users\Sven\AppData\Local\Temp\ccvvqGJt.s 			page 56


 2034              		.type	autopilot_type, %object
 2035              		.size	autopilot_type, 1
 2036              	autopilot_type:
 2037 0089 00       		.space	1
 2038 008a 0000     		.space	2
 2039              		.type	K_1_Phi, %object
 2040              		.size	K_1_Phi, 4
 2041              	K_1_Phi:
 2042 008c 00000000 		.space	4
 2043              		.type	P_Phi, %object
 2044              		.size	P_Phi, 16
 2045              	P_Phi:
 2046 0090 00000000 		.space	16
 2046      00000000 
 2046      00000000 
 2046      00000000 
 2047              		.type	p_bias, %object
 2048              		.size	p_bias, 4
 2049              	p_bias:
 2050 00a0 00000000 		.space	4
 2051              		.type	K_1_Theta, %object
 2052              		.size	K_1_Theta, 4
 2053              	K_1_Theta:
 2054 00a4 00000000 		.space	4
 2055              		.type	P_Theta, %object
 2056              		.size	P_Theta, 16
 2057              	P_Theta:
 2058 00a8 00000000 		.space	16
 2058      00000000 
 2058      00000000 
 2058      00000000 
 2059              		.type	q_bias, %object
 2060              		.size	q_bias, 4
 2061              	q_bias:
 2062 00b8 00000000 		.space	4
 2063              		.type	Bar_press, %object
 2064              		.size	Bar_press, 4
 2065              	Bar_press:
 2066 00bc 00000000 		.space	4
 2067              		.type	Mag_y, %object
 2068              		.size	Mag_y, 4
 2069              	Mag_y:
 2070 00c0 00000000 		.space	4
 2071              		.type	Mag_Heading, %object
 2072              		.size	Mag_Heading, 4
 2073              	Mag_Heading:
 2074 00c4 00000000 		.space	4
 2075              		.type	Psi_acc, %object
 2076              		.size	Psi_acc, 4
 2077              	Psi_acc:
 2078 00c8 00000000 		.space	4
 2079              		.type	mag_z_g, %object
 2080              		.size	mag_z_g, 2
 2081              	mag_z_g:
 2082 00cc 0000     		.space	2
 2083              		.type	mag_y_g, %object
 2084              		.size	mag_y_g, 2
ARM GAS  C:\Users\Sven\AppData\Local\Temp\ccvvqGJt.s 			page 57


 2085              	mag_y_g:
 2086 00ce 0000     		.space	2
 2087              		.type	mag_x_g, %object
 2088              		.size	mag_x_g, 2
 2089              	mag_x_g:
 2090 00d0 0000     		.space	2
 2091              		.type	PPM_channel, %object
 2092              		.size	PPM_channel, 1
 2093              	PPM_channel:
 2094 00d2 00       		.space	1
 2095              		.type	blink_cnt, %object
 2096              		.size	blink_cnt, 1
 2097              	blink_cnt:
 2098 00d3 00       		.space	1
 2099              		.text
 2100              	.Letext0:
 2101              		.file 2 "e:\\program files (x86)\\cypress\\psoc creator\\3.1\\psoc creator\\import\\gnu_cs\\arm\\4
 2102              		.file 3 "e:\\program files (x86)\\cypress\\psoc creator\\3.1\\psoc creator\\import\\gnu_cs\\arm\\4
 2103              		.file 4 ".\\Generated_Source\\PSoC4/cytypes.h"
 2104              		.file 5 ".\\MAVLINK\\common/../mavlink_types.h"
 2105              		.file 6 ".\\MAVLINK\\common/common.h"
 2106              		.file 7 ".\\Generated_Source\\PSoC4/UART_1_SPI_UART.h"
 2107              		.file 8 "e:\\program files (x86)\\cypress\\psoc creator\\3.1\\psoc creator\\import\\gnu_cs\\arm\\4
 2108              		.file 9 ".\\Generated_Source\\PSoC4/ADC.h"
 2109              		.file 10 ".\\Generated_Source\\PSoC4/CyLib.h"
 2110              		.file 11 ".\\Generated_Source\\PSoC4/UART_1.h"
 2111              		.file 12 ".\\Generated_Source\\PSoC4/I2CM.h"
 2112              		.file 13 ".\\Generated_Source\\PSoC4/TaskTimer.h"
 2113              		.file 14 ".\\Generated_Source\\PSoC4/NavLightPWM.h"
 2114              		.file 15 ".\\Generated_Source\\PSoC4/PPMCounter.h"
 2115              		.file 16 ".\\Generated_Source\\PSoC4/ServoTimer.h"
 2116              		.file 17 ".\\Generated_Source\\PSoC4/PPMISR.h"
 2117              		.file 18 ".\\Generated_Source\\PSoC4/PPMRstISR.h"
 2118              		.file 19 ".\\Generated_Source\\PSoC4/ServoISR.h"
 2119              		.file 20 ".\\Generated_Source\\PSoC4/TaskISR.h"
 2120              		.file 21 ".\\Generated_Source\\PSoC4/BootISR.h"
 2121              		.file 22 "./IMU.h"
 2122              		.file 23 "./Baro.h"
 2123              		.file 24 ".\\Generated_Source\\PSoC4/Strobes.h"
 2124              		.file 25 ".\\Generated_Source\\PSoC4/Ldg.h"
 2125              		.file 26 "e:\\program files (x86)\\cypress\\psoc creator\\3.1\\psoc creator\\import\\gnu_cs\\arm\\
 2126              		.file 27 "e:\\program files (x86)\\cypress\\psoc creator\\3.1\\psoc creator\\import\\gnu_cs\\arm\\
 2127              		.file 28 ".\\Generated_Source\\PSoC4/Bootloadable_1.h"
 2128              		.section	.debug_info,"",%progbits
 2129              	.Ldebug_info0:
 2130 0000 7F130000 		.4byte	0x137f
 2131 0004 0400     		.2byte	0x4
 2132 0006 00000000 		.4byte	.Ldebug_abbrev0
 2133 000a 04       		.byte	0x4
 2134 000b 01       		.uleb128 0x1
 2135 000c AE030000 		.4byte	.LASF276
 2136 0010 01       		.byte	0x1
 2137 0011 DF0F0000 		.4byte	.LASF277
 2138 0015 6E080000 		.4byte	.LASF278
 2139 0019 00000000 		.4byte	.Ldebug_ranges0+0
 2140 001d 00000000 		.4byte	0
 2141 0021 00000000 		.4byte	.Ldebug_line0
ARM GAS  C:\Users\Sven\AppData\Local\Temp\ccvvqGJt.s 			page 58


 2142 0025 02       		.uleb128 0x2
 2143 0026 D40B0000 		.4byte	.LASF0
 2144 002a 02       		.byte	0x2
 2145 002b 1B       		.byte	0x1b
 2146 002c 30000000 		.4byte	0x30
 2147 0030 03       		.uleb128 0x3
 2148 0031 01       		.byte	0x1
 2149 0032 06       		.byte	0x6
 2150 0033 74020000 		.4byte	.LASF2
 2151 0037 02       		.uleb128 0x2
 2152 0038 470B0000 		.4byte	.LASF1
 2153 003c 02       		.byte	0x2
 2154 003d 1C       		.byte	0x1c
 2155 003e 42000000 		.4byte	0x42
 2156 0042 03       		.uleb128 0x3
 2157 0043 01       		.byte	0x1
 2158 0044 08       		.byte	0x8
 2159 0045 CA0C0000 		.4byte	.LASF3
 2160 0049 02       		.uleb128 0x2
 2161 004a 70070000 		.4byte	.LASF4
 2162 004e 02       		.byte	0x2
 2163 004f 25       		.byte	0x25
 2164 0050 54000000 		.4byte	0x54
 2165 0054 03       		.uleb128 0x3
 2166 0055 02       		.byte	0x2
 2167 0056 05       		.byte	0x5
 2168 0057 510A0000 		.4byte	.LASF5
 2169 005b 02       		.uleb128 0x2
 2170 005c 64040000 		.4byte	.LASF6
 2171 0060 02       		.byte	0x2
 2172 0061 26       		.byte	0x26
 2173 0062 66000000 		.4byte	0x66
 2174 0066 03       		.uleb128 0x3
 2175 0067 02       		.byte	0x2
 2176 0068 07       		.byte	0x7
 2177 0069 5C0E0000 		.4byte	.LASF7
 2178 006d 02       		.uleb128 0x2
 2179 006e 2A010000 		.4byte	.LASF8
 2180 0072 02       		.byte	0x2
 2181 0073 37       		.byte	0x37
 2182 0074 78000000 		.4byte	0x78
 2183 0078 03       		.uleb128 0x3
 2184 0079 04       		.byte	0x4
 2185 007a 05       		.byte	0x5
 2186 007b 7E0A0000 		.4byte	.LASF9
 2187 007f 02       		.uleb128 0x2
 2188 0080 D80C0000 		.4byte	.LASF10
 2189 0084 02       		.byte	0x2
 2190 0085 38       		.byte	0x38
 2191 0086 8A000000 		.4byte	0x8a
 2192 008a 03       		.uleb128 0x3
 2193 008b 04       		.byte	0x4
 2194 008c 07       		.byte	0x7
 2195 008d 3B0C0000 		.4byte	.LASF11
 2196 0091 03       		.uleb128 0x3
 2197 0092 08       		.byte	0x8
 2198 0093 05       		.byte	0x5
ARM GAS  C:\Users\Sven\AppData\Local\Temp\ccvvqGJt.s 			page 59


 2199 0094 78050000 		.4byte	.LASF12
 2200 0098 02       		.uleb128 0x2
 2201 0099 2B050000 		.4byte	.LASF13
 2202 009d 02       		.byte	0x2
 2203 009e 4E       		.byte	0x4e
 2204 009f A3000000 		.4byte	0xa3
 2205 00a3 03       		.uleb128 0x3
 2206 00a4 08       		.byte	0x8
 2207 00a5 07       		.byte	0x7
 2208 00a6 87030000 		.4byte	.LASF14
 2209 00aa 04       		.uleb128 0x4
 2210 00ab 04       		.byte	0x4
 2211 00ac 05       		.byte	0x5
 2212 00ad 696E7400 		.ascii	"int\000"
 2213 00b1 03       		.uleb128 0x3
 2214 00b2 04       		.byte	0x4
 2215 00b3 07       		.byte	0x7
 2216 00b4 1A060000 		.4byte	.LASF15
 2217 00b8 02       		.uleb128 0x2
 2218 00b9 92020000 		.4byte	.LASF16
 2219 00bd 03       		.byte	0x3
 2220 00be 29       		.byte	0x29
 2221 00bf 25000000 		.4byte	0x25
 2222 00c3 02       		.uleb128 0x2
 2223 00c4 4E060000 		.4byte	.LASF17
 2224 00c8 03       		.byte	0x3
 2225 00c9 2A       		.byte	0x2a
 2226 00ca 37000000 		.4byte	0x37
 2227 00ce 02       		.uleb128 0x2
 2228 00cf 4A030000 		.4byte	.LASF18
 2229 00d3 03       		.byte	0x3
 2230 00d4 35       		.byte	0x35
 2231 00d5 49000000 		.4byte	0x49
 2232 00d9 02       		.uleb128 0x2
 2233 00da A9090000 		.4byte	.LASF19
 2234 00de 03       		.byte	0x3
 2235 00df 36       		.byte	0x36
 2236 00e0 5B000000 		.4byte	0x5b
 2237 00e4 02       		.uleb128 0x2
 2238 00e5 740C0000 		.4byte	.LASF20
 2239 00e9 03       		.byte	0x3
 2240 00ea 41       		.byte	0x41
 2241 00eb 6D000000 		.4byte	0x6d
 2242 00ef 02       		.uleb128 0x2
 2243 00f0 89020000 		.4byte	.LASF21
 2244 00f4 03       		.byte	0x3
 2245 00f5 42       		.byte	0x42
 2246 00f6 7F000000 		.4byte	0x7f
 2247 00fa 02       		.uleb128 0x2
 2248 00fb F10A0000 		.4byte	.LASF22
 2249 00ff 03       		.byte	0x3
 2250 0100 4E       		.byte	0x4e
 2251 0101 98000000 		.4byte	0x98
 2252 0105 02       		.uleb128 0x2
 2253 0106 E50E0000 		.4byte	.LASF23
 2254 010a 04       		.byte	0x4
 2255 010b A1       		.byte	0xa1
ARM GAS  C:\Users\Sven\AppData\Local\Temp\ccvvqGJt.s 			page 60


 2256 010c 42000000 		.4byte	0x42
 2257 0110 02       		.uleb128 0x2
 2258 0111 44080000 		.4byte	.LASF24
 2259 0115 04       		.byte	0x4
 2260 0116 A3       		.byte	0xa3
 2261 0117 8A000000 		.4byte	0x8a
 2262 011b 02       		.uleb128 0x2
 2263 011c 34010000 		.4byte	.LASF25
 2264 0120 04       		.byte	0x4
 2265 0121 A5       		.byte	0xa5
 2266 0122 54000000 		.4byte	0x54
 2267 0126 03       		.uleb128 0x3
 2268 0127 04       		.byte	0x4
 2269 0128 04       		.byte	0x4
 2270 0129 FA020000 		.4byte	.LASF26
 2271 012d 03       		.uleb128 0x3
 2272 012e 08       		.byte	0x8
 2273 012f 04       		.byte	0x4
 2274 0130 EC040000 		.4byte	.LASF27
 2275 0134 02       		.uleb128 0x2
 2276 0135 91060000 		.4byte	.LASF28
 2277 0139 04       		.byte	0x4
 2278 013a B2       		.byte	0xb2
 2279 013b 3F010000 		.4byte	0x13f
 2280 013f 03       		.uleb128 0x3
 2281 0140 01       		.byte	0x1
 2282 0141 08       		.byte	0x8
 2283 0142 A6050000 		.4byte	.LASF29
 2284 0146 03       		.uleb128 0x3
 2285 0147 04       		.byte	0x4
 2286 0148 07       		.byte	0x7
 2287 0149 320C0000 		.4byte	.LASF30
 2288 014d 05       		.uleb128 0x5
 2289 014e 04       		.byte	0x4
 2290 014f 3F010000 		.4byte	0x13f
 2291 0153 05       		.uleb128 0x5
 2292 0154 04       		.byte	0x4
 2293 0155 59010000 		.4byte	0x159
 2294 0159 06       		.uleb128 0x6
 2295 015a 3F010000 		.4byte	0x13f
 2296 015e 03       		.uleb128 0x3
 2297 015f 08       		.byte	0x8
 2298 0160 04       		.byte	0x4
 2299 0161 22080000 		.4byte	.LASF31
 2300 0165 07       		.uleb128 0x7
 2301 0166 32070000 		.4byte	.LASF35
 2302 016a 02       		.byte	0x2
 2303 016b 05       		.byte	0x5
 2304 016c 6A       		.byte	0x6a
 2305 016d 8A010000 		.4byte	0x18a
 2306 0171 08       		.uleb128 0x8
 2307 0172 53020000 		.4byte	.LASF32
 2308 0176 05       		.byte	0x5
 2309 0177 6A       		.byte	0x6a
 2310 0178 C3000000 		.4byte	0xc3
 2311 017c 00       		.byte	0
 2312 017d 08       		.uleb128 0x8
ARM GAS  C:\Users\Sven\AppData\Local\Temp\ccvvqGJt.s 			page 61


 2313 017e 67000000 		.4byte	.LASF33
 2314 0182 05       		.byte	0x5
 2315 0183 6A       		.byte	0x6a
 2316 0184 C3000000 		.4byte	0xc3
 2317 0188 01       		.byte	0x1
 2318 0189 00       		.byte	0
 2319 018a 02       		.uleb128 0x2
 2320 018b 69090000 		.4byte	.LASF34
 2321 018f 05       		.byte	0x5
 2322 0190 6E       		.byte	0x6e
 2323 0191 65010000 		.4byte	0x165
 2324 0195 09       		.uleb128 0x9
 2325 0196 600B0000 		.4byte	.LASF36
 2326 019a 1001     		.2byte	0x110
 2327 019c 05       		.byte	0x5
 2328 019d 70       		.byte	0x70
 2329 019e 03020000 		.4byte	0x203
 2330 01a2 08       		.uleb128 0x8
 2331 01a3 00030000 		.4byte	.LASF37
 2332 01a7 05       		.byte	0x5
 2333 01a8 70       		.byte	0x70
 2334 01a9 D9000000 		.4byte	0xd9
 2335 01ad 00       		.byte	0
 2336 01ae 08       		.uleb128 0x8
 2337 01af CE0B0000 		.4byte	.LASF38
 2338 01b3 05       		.byte	0x5
 2339 01b4 70       		.byte	0x70
 2340 01b5 C3000000 		.4byte	0xc3
 2341 01b9 02       		.byte	0x2
 2342 01ba 0A       		.uleb128 0xa
 2343 01bb 6C656E00 		.ascii	"len\000"
 2344 01bf 05       		.byte	0x5
 2345 01c0 70       		.byte	0x70
 2346 01c1 C3000000 		.4byte	0xc3
 2347 01c5 03       		.byte	0x3
 2348 01c6 0A       		.uleb128 0xa
 2349 01c7 73657100 		.ascii	"seq\000"
 2350 01cb 05       		.byte	0x5
 2351 01cc 70       		.byte	0x70
 2352 01cd C3000000 		.4byte	0xc3
 2353 01d1 04       		.byte	0x4
 2354 01d2 08       		.uleb128 0x8
 2355 01d3 53020000 		.4byte	.LASF32
 2356 01d7 05       		.byte	0x5
 2357 01d8 70       		.byte	0x70
 2358 01d9 C3000000 		.4byte	0xc3
 2359 01dd 05       		.byte	0x5
 2360 01de 08       		.uleb128 0x8
 2361 01df 67000000 		.4byte	.LASF33
 2362 01e3 05       		.byte	0x5
 2363 01e4 70       		.byte	0x70
 2364 01e5 C3000000 		.4byte	0xc3
 2365 01e9 06       		.byte	0x6
 2366 01ea 08       		.uleb128 0x8
 2367 01eb 14020000 		.4byte	.LASF39
 2368 01ef 05       		.byte	0x5
 2369 01f0 70       		.byte	0x70
ARM GAS  C:\Users\Sven\AppData\Local\Temp\ccvvqGJt.s 			page 62


 2370 01f1 C3000000 		.4byte	0xc3
 2371 01f5 07       		.byte	0x7
 2372 01f6 08       		.uleb128 0x8
 2373 01f7 120B0000 		.4byte	.LASF40
 2374 01fb 05       		.byte	0x5
 2375 01fc 70       		.byte	0x70
 2376 01fd 03020000 		.4byte	0x203
 2377 0201 08       		.byte	0x8
 2378 0202 00       		.byte	0
 2379 0203 0B       		.uleb128 0xb
 2380 0204 FA000000 		.4byte	0xfa
 2381 0208 13020000 		.4byte	0x213
 2382 020c 0C       		.uleb128 0xc
 2383 020d 46010000 		.4byte	0x146
 2384 0211 20       		.byte	0x20
 2385 0212 00       		.byte	0
 2386 0213 02       		.uleb128 0x2
 2387 0214 4F070000 		.4byte	.LASF41
 2388 0218 05       		.byte	0x5
 2389 0219 7A       		.byte	0x7a
 2390 021a 95010000 		.4byte	0x195
 2391 021e 0D       		.uleb128 0xd
 2392 021f 280B0000 		.4byte	.LASF61
 2393 0223 01       		.byte	0x1
 2394 0224 06       		.byte	0x6
 2395 0225 28       		.byte	0x28
 2396 0226 9D020000 		.4byte	0x29d
 2397 022a 0E       		.uleb128 0xe
 2398 022b CD070000 		.4byte	.LASF42
 2399 022f 00       		.sleb128 0
 2400 0230 0E       		.uleb128 0xe
 2401 0231 15070000 		.4byte	.LASF43
 2402 0235 01       		.sleb128 1
 2403 0236 0E       		.uleb128 0xe
 2404 0237 0A000000 		.4byte	.LASF44
 2405 023b 02       		.sleb128 2
 2406 023c 0E       		.uleb128 0xe
 2407 023d 56060000 		.4byte	.LASF45
 2408 0241 03       		.sleb128 3
 2409 0242 0E       		.uleb128 0xe
 2410 0243 F60B0000 		.4byte	.LASF46
 2411 0247 04       		.sleb128 4
 2412 0248 0E       		.uleb128 0xe
 2413 0249 C3060000 		.4byte	.LASF47
 2414 024d 05       		.sleb128 5
 2415 024e 0E       		.uleb128 0xe
 2416 024f F40E0000 		.4byte	.LASF48
 2417 0253 06       		.sleb128 6
 2418 0254 0E       		.uleb128 0xe
 2419 0255 5B0A0000 		.4byte	.LASF49
 2420 0259 07       		.sleb128 7
 2421 025a 0E       		.uleb128 0xe
 2422 025b 2E080000 		.4byte	.LASF50
 2423 025f 08       		.sleb128 8
 2424 0260 0E       		.uleb128 0xe
 2425 0261 870F0000 		.4byte	.LASF51
 2426 0265 09       		.sleb128 9
ARM GAS  C:\Users\Sven\AppData\Local\Temp\ccvvqGJt.s 			page 63


 2427 0266 0E       		.uleb128 0xe
 2428 0267 CF010000 		.4byte	.LASF52
 2429 026b 0A       		.sleb128 10
 2430 026c 0E       		.uleb128 0xe
 2431 026d AB060000 		.4byte	.LASF53
 2432 0271 0B       		.sleb128 11
 2433 0272 0E       		.uleb128 0xe
 2434 0273 7F060000 		.4byte	.LASF54
 2435 0277 0C       		.sleb128 12
 2436 0278 0E       		.uleb128 0xe
 2437 0279 8C050000 		.4byte	.LASF55
 2438 027d 0D       		.sleb128 13
 2439 027e 0E       		.uleb128 0xe
 2440 027f 8E0D0000 		.4byte	.LASF56
 2441 0283 0E       		.sleb128 14
 2442 0284 0E       		.uleb128 0xe
 2443 0285 5D0F0000 		.4byte	.LASF57
 2444 0289 0F       		.sleb128 15
 2445 028a 0E       		.uleb128 0xe
 2446 028b 00080000 		.4byte	.LASF58
 2447 028f 10       		.sleb128 16
 2448 0290 0E       		.uleb128 0xe
 2449 0291 D7020000 		.4byte	.LASF59
 2450 0295 11       		.sleb128 17
 2451 0296 0E       		.uleb128 0xe
 2452 0297 52030000 		.4byte	.LASF60
 2453 029b 12       		.sleb128 18
 2454 029c 00       		.byte	0
 2455 029d 0D       		.uleb128 0xd
 2456 029e 870A0000 		.4byte	.LASF62
 2457 02a2 01       		.byte	0x1
 2458 02a3 06       		.byte	0x6
 2459 02a4 43       		.byte	0x43
 2460 02a5 52030000 		.4byte	0x352
 2461 02a9 0E       		.uleb128 0xe
 2462 02aa 2D060000 		.4byte	.LASF63
 2463 02ae 00       		.sleb128 0
 2464 02af 0E       		.uleb128 0xe
 2465 02b0 90070000 		.4byte	.LASF64
 2466 02b4 01       		.sleb128 1
 2467 02b5 0E       		.uleb128 0xe
 2468 02b6 40020000 		.4byte	.LASF65
 2469 02ba 02       		.sleb128 2
 2470 02bb 0E       		.uleb128 0xe
 2471 02bc 400A0000 		.4byte	.LASF66
 2472 02c0 03       		.sleb128 3
 2473 02c1 0E       		.uleb128 0xe
 2474 02c2 01070000 		.4byte	.LASF67
 2475 02c6 04       		.sleb128 4
 2476 02c7 0E       		.uleb128 0xe
 2477 02c8 E80D0000 		.4byte	.LASF68
 2478 02cc 05       		.sleb128 5
 2479 02cd 0E       		.uleb128 0xe
 2480 02ce 02090000 		.4byte	.LASF69
 2481 02d2 06       		.sleb128 6
 2482 02d3 0E       		.uleb128 0xe
 2483 02d4 69030000 		.4byte	.LASF70
ARM GAS  C:\Users\Sven\AppData\Local\Temp\ccvvqGJt.s 			page 64


 2484 02d8 07       		.sleb128 7
 2485 02d9 0E       		.uleb128 0xe
 2486 02da 3D000000 		.4byte	.LASF71
 2487 02de 08       		.sleb128 8
 2488 02df 0E       		.uleb128 0xe
 2489 02e0 850B0000 		.4byte	.LASF72
 2490 02e4 09       		.sleb128 9
 2491 02e5 0E       		.uleb128 0xe
 2492 02e6 45040000 		.4byte	.LASF73
 2493 02ea 0A       		.sleb128 10
 2494 02eb 0E       		.uleb128 0xe
 2495 02ec 33090000 		.4byte	.LASF74
 2496 02f0 0B       		.sleb128 11
 2497 02f1 0E       		.uleb128 0xe
 2498 02f2 740F0000 		.4byte	.LASF75
 2499 02f6 0C       		.sleb128 12
 2500 02f7 0E       		.uleb128 0xe
 2501 02f8 A20B0000 		.4byte	.LASF76
 2502 02fc 0D       		.sleb128 13
 2503 02fd 0E       		.uleb128 0xe
 2504 02fe 83040000 		.4byte	.LASF77
 2505 0302 0E       		.sleb128 14
 2506 0303 0E       		.uleb128 0xe
 2507 0304 07060000 		.4byte	.LASF78
 2508 0308 0F       		.sleb128 15
 2509 0309 0E       		.uleb128 0xe
 2510 030a B4040000 		.4byte	.LASF79
 2511 030e 10       		.sleb128 16
 2512 030f 0E       		.uleb128 0xe
 2513 0310 C1050000 		.4byte	.LASF80
 2514 0314 11       		.sleb128 17
 2515 0315 0E       		.uleb128 0xe
 2516 0316 A30A0000 		.4byte	.LASF81
 2517 031a 12       		.sleb128 18
 2518 031b 0E       		.uleb128 0xe
 2519 031c 99020000 		.4byte	.LASF82
 2520 0320 13       		.sleb128 19
 2521 0321 0E       		.uleb128 0xe
 2522 0322 5C010000 		.4byte	.LASF83
 2523 0326 14       		.sleb128 20
 2524 0327 0E       		.uleb128 0xe
 2525 0328 7C0C0000 		.4byte	.LASF84
 2526 032c 15       		.sleb128 21
 2527 032d 0E       		.uleb128 0xe
 2528 032e B2090000 		.4byte	.LASF85
 2529 0332 16       		.sleb128 22
 2530 0333 0E       		.uleb128 0xe
 2531 0334 CA090000 		.4byte	.LASF86
 2532 0338 17       		.sleb128 23
 2533 0339 0E       		.uleb128 0xe
 2534 033a E2090000 		.4byte	.LASF87
 2535 033e 18       		.sleb128 24
 2536 033f 0E       		.uleb128 0xe
 2537 0340 09030000 		.4byte	.LASF88
 2538 0344 19       		.sleb128 25
 2539 0345 0E       		.uleb128 0xe
 2540 0346 B2000000 		.4byte	.LASF89
ARM GAS  C:\Users\Sven\AppData\Local\Temp\ccvvqGJt.s 			page 65


 2541 034a 1A       		.sleb128 26
 2542 034b 0E       		.uleb128 0xe
 2543 034c CC080000 		.4byte	.LASF90
 2544 0350 1B       		.sleb128 27
 2545 0351 00       		.byte	0
 2546 0352 0D       		.uleb128 0xd
 2547 0353 010E0000 		.4byte	.LASF91
 2548 0357 01       		.byte	0x1
 2549 0358 06       		.byte	0x6
 2550 0359 97       		.byte	0x97
 2551 035a B2030000 		.4byte	0x3b2
 2552 035e 0E       		.uleb128 0xe
 2553 035f 18050000 		.4byte	.LASF92
 2554 0363 00       		.sleb128 0
 2555 0364 0E       		.uleb128 0xe
 2556 0365 320E0000 		.4byte	.LASF93
 2557 0369 C000     		.sleb128 64
 2558 036b 0E       		.uleb128 0xe
 2559 036c 91000000 		.4byte	.LASF94
 2560 0370 C200     		.sleb128 66
 2561 0372 0E       		.uleb128 0xe
 2562 0373 B0020000 		.4byte	.LASF95
 2563 0377 D000     		.sleb128 80
 2564 0379 0E       		.uleb128 0xe
 2565 037a 8D0E0000 		.4byte	.LASF96
 2566 037e D800     		.sleb128 88
 2567 0380 0E       		.uleb128 0xe
 2568 0381 A60E0000 		.4byte	.LASF97
 2569 0385 DC00     		.sleb128 92
 2570 0387 0E       		.uleb128 0xe
 2571 0388 49050000 		.4byte	.LASF98
 2572 038c C001     		.sleb128 192
 2573 038e 0E       		.uleb128 0xe
 2574 038f 330D0000 		.4byte	.LASF99
 2575 0393 C201     		.sleb128 194
 2576 0395 0E       		.uleb128 0xe
 2577 0396 01010000 		.4byte	.LASF100
 2578 039a D001     		.sleb128 208
 2579 039c 0E       		.uleb128 0xe
 2580 039d BF0A0000 		.4byte	.LASF101
 2581 03a1 D801     		.sleb128 216
 2582 03a3 0E       		.uleb128 0xe
 2583 03a4 5A080000 		.4byte	.LASF102
 2584 03a8 DC01     		.sleb128 220
 2585 03aa 0E       		.uleb128 0xe
 2586 03ab AA0C0000 		.4byte	.LASF103
 2587 03af DD01     		.sleb128 221
 2588 03b1 00       		.byte	0
 2589 03b2 0D       		.uleb128 0xd
 2590 03b3 30020000 		.4byte	.LASF104
 2591 03b7 01       		.byte	0x1
 2592 03b8 06       		.byte	0x6
 2593 03b9 AB       		.byte	0xab
 2594 03ba F5030000 		.4byte	0x3f5
 2595 03be 0E       		.uleb128 0xe
 2596 03bf E1010000 		.4byte	.LASF105
 2597 03c3 00       		.sleb128 0
ARM GAS  C:\Users\Sven\AppData\Local\Temp\ccvvqGJt.s 			page 66


 2598 03c4 0E       		.uleb128 0xe
 2599 03c5 F8050000 		.4byte	.LASF106
 2600 03c9 01       		.sleb128 1
 2601 03ca 0E       		.uleb128 0xe
 2602 03cb 85010000 		.4byte	.LASF107
 2603 03cf 02       		.sleb128 2
 2604 03d0 0E       		.uleb128 0xe
 2605 03d1 2F0F0000 		.4byte	.LASF108
 2606 03d5 03       		.sleb128 3
 2607 03d6 0E       		.uleb128 0xe
 2608 03d7 6E000000 		.4byte	.LASF109
 2609 03db 04       		.sleb128 4
 2610 03dc 0E       		.uleb128 0xe
 2611 03dd B50D0000 		.4byte	.LASF110
 2612 03e1 05       		.sleb128 5
 2613 03e2 0E       		.uleb128 0xe
 2614 03e3 B8080000 		.4byte	.LASF111
 2615 03e7 06       		.sleb128 6
 2616 03e8 0E       		.uleb128 0xe
 2617 03e9 7B0D0000 		.4byte	.LASF112
 2618 03ed 07       		.sleb128 7
 2619 03ee 0E       		.uleb128 0xe
 2620 03ef 65050000 		.4byte	.LASF113
 2621 03f3 08       		.sleb128 8
 2622 03f4 00       		.byte	0
 2623 03f5 0B       		.uleb128 0xb
 2624 03f6 3F010000 		.4byte	0x13f
 2625 03fa 05040000 		.4byte	0x405
 2626 03fe 0C       		.uleb128 0xc
 2627 03ff 46010000 		.4byte	0x146
 2628 0403 09       		.byte	0x9
 2629 0404 00       		.byte	0
 2630 0405 0D       		.uleb128 0xd
 2631 0406 43070000 		.4byte	.LASF114
 2632 040a 01       		.byte	0x1
 2633 040b 01       		.byte	0x1
 2634 040c 3B       		.byte	0x3b
 2635 040d 42040000 		.4byte	0x442
 2636 0411 0E       		.uleb128 0xe
 2637 0412 1A020000 		.4byte	.LASF115
 2638 0416 00       		.sleb128 0
 2639 0417 0E       		.uleb128 0xe
 2640 0418 E80F0000 		.4byte	.LASF116
 2641 041c 01       		.sleb128 1
 2642 041d 0E       		.uleb128 0xe
 2643 041e 0E0C0000 		.4byte	.LASF117
 2644 0422 02       		.sleb128 2
 2645 0423 0E       		.uleb128 0xe
 2646 0424 48070000 		.4byte	.LASF118
 2647 0428 03       		.sleb128 3
 2648 0429 0E       		.uleb128 0xe
 2649 042a F9060000 		.4byte	.LASF119
 2650 042e 04       		.sleb128 4
 2651 042f 0E       		.uleb128 0xe
 2652 0430 590B0000 		.4byte	.LASF120
 2653 0434 05       		.sleb128 5
 2654 0435 0E       		.uleb128 0xe
ARM GAS  C:\Users\Sven\AppData\Local\Temp\ccvvqGJt.s 			page 67


 2655 0436 C8010000 		.4byte	.LASF121
 2656 043a 06       		.sleb128 6
 2657 043b 0E       		.uleb128 0xe
 2658 043c B3070000 		.4byte	.LASF122
 2659 0440 07       		.sleb128 7
 2660 0441 00       		.byte	0
 2661 0442 0D       		.uleb128 0xd
 2662 0443 5F050000 		.4byte	.LASF123
 2663 0447 01       		.byte	0x1
 2664 0448 01       		.byte	0x1
 2665 0449 46       		.byte	0x46
 2666 044a 9D040000 		.4byte	0x49d
 2667 044e 0E       		.uleb128 0xe
 2668 044f 59020000 		.4byte	.LASF124
 2669 0453 00       		.sleb128 0
 2670 0454 0E       		.uleb128 0xe
 2671 0455 200E0000 		.4byte	.LASF125
 2672 0459 01       		.sleb128 1
 2673 045a 0E       		.uleb128 0xe
 2674 045b 290E0000 		.4byte	.LASF126
 2675 045f 02       		.sleb128 2
 2676 0460 0E       		.uleb128 0xe
 2677 0461 EB0E0000 		.4byte	.LASF127
 2678 0465 03       		.sleb128 3
 2679 0466 0E       		.uleb128 0xe
 2680 0467 CF0F0000 		.4byte	.LASF128
 2681 046b 04       		.sleb128 4
 2682 046c 0E       		.uleb128 0xe
 2683 046d E30C0000 		.4byte	.LASF129
 2684 0471 05       		.sleb128 5
 2685 0472 0E       		.uleb128 0xe
 2686 0473 B8010000 		.4byte	.LASF130
 2687 0477 06       		.sleb128 6
 2688 0478 0E       		.uleb128 0xe
 2689 0479 C0010000 		.4byte	.LASF131
 2690 047d 07       		.sleb128 7
 2691 047e 0E       		.uleb128 0xe
 2692 047f C2000000 		.4byte	.LASF132
 2693 0483 08       		.sleb128 8
 2694 0484 0E       		.uleb128 0xe
 2695 0485 CA000000 		.4byte	.LASF133
 2696 0489 09       		.sleb128 9
 2697 048a 0E       		.uleb128 0xe
 2698 048b D2000000 		.4byte	.LASF134
 2699 048f 0A       		.sleb128 10
 2700 0490 0E       		.uleb128 0xe
 2701 0491 F0070000 		.4byte	.LASF135
 2702 0495 0B       		.sleb128 11
 2703 0496 0E       		.uleb128 0xe
 2704 0497 F8070000 		.4byte	.LASF136
 2705 049b 0C       		.sleb128 12
 2706 049c 00       		.byte	0
 2707 049d 0D       		.uleb128 0xd
 2708 049e 00000000 		.4byte	.LASF137
 2709 04a2 01       		.byte	0x1
 2710 04a3 01       		.byte	0x1
 2711 04a4 5C       		.byte	0x5c
ARM GAS  C:\Users\Sven\AppData\Local\Temp\ccvvqGJt.s 			page 68


 2712 04a5 C2040000 		.4byte	0x4c2
 2713 04a9 0E       		.uleb128 0xe
 2714 04aa 60000000 		.4byte	.LASF138
 2715 04ae 00       		.sleb128 0
 2716 04af 0E       		.uleb128 0xe
 2717 04b0 DE040000 		.4byte	.LASF139
 2718 04b4 01       		.sleb128 1
 2719 04b5 0E       		.uleb128 0xe
 2720 04b6 B40F0000 		.4byte	.LASF140
 2721 04ba 02       		.sleb128 2
 2722 04bb 0E       		.uleb128 0xe
 2723 04bc 1E000000 		.4byte	.LASF141
 2724 04c0 03       		.sleb128 3
 2725 04c1 00       		.byte	0
 2726 04c2 0F       		.uleb128 0xf
 2727 04c3 C80D0000 		.4byte	.LASF142
 2728 04c7 01       		.byte	0x1
 2729 04c8 FB       		.byte	0xfb
 2730 04c9 00000000 		.4byte	.LFB1489
 2731 04cd 1C000000 		.4byte	.LFE1489-.LFB1489
 2732 04d1 01       		.uleb128 0x1
 2733 04d2 9C       		.byte	0x9c
 2734 04d3 27050000 		.4byte	0x527
 2735 04d7 10       		.uleb128 0x10
 2736 04d8 6E756D00 		.ascii	"num\000"
 2737 04dc 01       		.byte	0x1
 2738 04dd FB       		.byte	0xfb
 2739 04de E4000000 		.4byte	0xe4
 2740 04e2 00000000 		.4byte	.LLST0
 2741 04e6 11       		.uleb128 0x11
 2742 04e7 6B00     		.ascii	"k\000"
 2743 04e9 01       		.byte	0x1
 2744 04ea FD       		.byte	0xfd
 2745 04eb 27050000 		.4byte	0x527
 2746 04ef 02       		.uleb128 0x2
 2747 04f0 91       		.byte	0x91
 2748 04f1 58       		.sleb128 -40
 2749 04f2 12       		.uleb128 0x12
 2750 04f3 0E000000 		.4byte	.LVL2
 2751 04f7 AA110000 		.4byte	0x11aa
 2752 04fb 16050000 		.4byte	0x516
 2753 04ff 13       		.uleb128 0x13
 2754 0500 01       		.uleb128 0x1
 2755 0501 52       		.byte	0x52
 2756 0502 03       		.uleb128 0x3
 2757 0503 F3       		.byte	0xf3
 2758 0504 01       		.uleb128 0x1
 2759 0505 50       		.byte	0x50
 2760 0506 13       		.uleb128 0x13
 2761 0507 01       		.uleb128 0x1
 2762 0508 51       		.byte	0x51
 2763 0509 05       		.uleb128 0x5
 2764 050a 03       		.byte	0x3
 2765 050b 00000000 		.4byte	.LC0
 2766 050f 13       		.uleb128 0x13
 2767 0510 01       		.uleb128 0x1
 2768 0511 50       		.byte	0x50
ARM GAS  C:\Users\Sven\AppData\Local\Temp\ccvvqGJt.s 			page 69


 2769 0512 02       		.uleb128 0x2
 2770 0513 7D       		.byte	0x7d
 2771 0514 00       		.sleb128 0
 2772 0515 00       		.byte	0
 2773 0516 14       		.uleb128 0x14
 2774 0517 14000000 		.4byte	.LVL3
 2775 051b C5110000 		.4byte	0x11c5
 2776 051f 13       		.uleb128 0x13
 2777 0520 01       		.uleb128 0x1
 2778 0521 50       		.byte	0x50
 2779 0522 02       		.uleb128 0x2
 2780 0523 7D       		.byte	0x7d
 2781 0524 00       		.sleb128 0
 2782 0525 00       		.byte	0
 2783 0526 00       		.byte	0
 2784 0527 0B       		.uleb128 0xb
 2785 0528 3F010000 		.4byte	0x13f
 2786 052c 37050000 		.4byte	0x537
 2787 0530 0C       		.uleb128 0xc
 2788 0531 46010000 		.4byte	0x146
 2789 0535 1E       		.byte	0x1e
 2790 0536 00       		.byte	0
 2791 0537 15       		.uleb128 0x15
 2792 0538 BD0E0000 		.4byte	.LASF143
 2793 053c 01       		.byte	0x1
 2794 053d 0301     		.2byte	0x103
 2795 053f 00000000 		.4byte	.LFB1490
 2796 0543 20000000 		.4byte	.LFE1490-.LFB1490
 2797 0547 01       		.uleb128 0x1
 2798 0548 9C       		.byte	0x9c
 2799 0549 99050000 		.4byte	0x599
 2800 054d 16       		.uleb128 0x16
 2801 054e 62756600 		.ascii	"buf\000"
 2802 0552 01       		.byte	0x1
 2803 0553 0301     		.2byte	0x103
 2804 0555 99050000 		.4byte	0x599
 2805 0559 2C000000 		.4byte	.LLST1
 2806 055d 16       		.uleb128 0x16
 2807 055e 6C656E00 		.ascii	"len\000"
 2808 0562 01       		.byte	0x1
 2809 0563 0301     		.2byte	0x103
 2810 0565 D9000000 		.4byte	0xd9
 2811 0569 58000000 		.4byte	.LLST2
 2812 056d 17       		.uleb128 0x17
 2813 056e 6900     		.ascii	"i\000"
 2814 0570 01       		.byte	0x1
 2815 0571 0501     		.2byte	0x105
 2816 0573 D9000000 		.4byte	0xd9
 2817 0577 79000000 		.4byte	.LLST3
 2818 057b 12       		.uleb128 0x12
 2819 057c 0C000000 		.4byte	.LVL6
 2820 0580 E2110000 		.4byte	0x11e2
 2821 0584 8F050000 		.4byte	0x58f
 2822 0588 13       		.uleb128 0x13
 2823 0589 01       		.uleb128 0x1
 2824 058a 50       		.byte	0x50
 2825 058b 02       		.uleb128 0x2
ARM GAS  C:\Users\Sven\AppData\Local\Temp\ccvvqGJt.s 			page 70


 2826 058c 08       		.byte	0x8
 2827 058d FE       		.byte	0xfe
 2828 058e 00       		.byte	0
 2829 058f 18       		.uleb128 0x18
 2830 0590 1C000000 		.4byte	.LVL10
 2831 0594 E2110000 		.4byte	0x11e2
 2832 0598 00       		.byte	0
 2833 0599 05       		.uleb128 0x5
 2834 059a 04       		.byte	0x4
 2835 059b C3000000 		.4byte	0xc3
 2836 059f 19       		.uleb128 0x19
 2837 05a0 2E000000 		.4byte	.LASF279
 2838 05a4 01       		.byte	0x1
 2839 05a5 0F01     		.2byte	0x10f
 2840 05a7 CE000000 		.4byte	0xce
 2841 05ab 00000000 		.4byte	.LFB1491
 2842 05af 16000000 		.4byte	.LFE1491-.LFB1491
 2843 05b3 01       		.uleb128 0x1
 2844 05b4 9C       		.byte	0x9c
 2845 05b5 EF050000 		.4byte	0x5ef
 2846 05b9 1A       		.uleb128 0x1a
 2847 05ba 3A020000 		.4byte	.LASF144
 2848 05be 01       		.byte	0x1
 2849 05bf 1201     		.2byte	0x112
 2850 05c1 CE000000 		.4byte	0xce
 2851 05c5 B0000000 		.4byte	.LLST4
 2852 05c9 18       		.uleb128 0x18
 2853 05ca 06000000 		.4byte	.LVL13
 2854 05ce F4110000 		.4byte	0x11f4
 2855 05d2 12       		.uleb128 0x12
 2856 05d3 0C000000 		.4byte	.LVL14
 2857 05d7 FB110000 		.4byte	0x11fb
 2858 05db E5050000 		.4byte	0x5e5
 2859 05df 13       		.uleb128 0x13
 2860 05e0 01       		.uleb128 0x1
 2861 05e1 50       		.byte	0x50
 2862 05e2 01       		.uleb128 0x1
 2863 05e3 30       		.byte	0x30
 2864 05e4 00       		.byte	0
 2865 05e5 18       		.uleb128 0x18
 2866 05e6 12000000 		.4byte	.LVL16
 2867 05ea 10120000 		.4byte	0x1210
 2868 05ee 00       		.byte	0
 2869 05ef 1B       		.uleb128 0x1b
 2870 05f0 7A090000 		.4byte	.LASF145
 2871 05f4 01       		.byte	0x1
 2872 05f5 1801     		.2byte	0x118
 2873 05f7 00000000 		.4byte	.LFB1492
 2874 05fb 44000000 		.4byte	.LFE1492-.LFB1492
 2875 05ff 01       		.uleb128 0x1
 2876 0600 9C       		.byte	0x9c
 2877 0601 2B060000 		.4byte	0x62b
 2878 0605 18       		.uleb128 0x18
 2879 0606 16000000 		.4byte	.LVL18
 2880 060a 9F050000 		.4byte	0x59f
 2881 060e 18       		.uleb128 0x18
 2882 060f 30000000 		.4byte	.LVL20
ARM GAS  C:\Users\Sven\AppData\Local\Temp\ccvvqGJt.s 			page 71


 2883 0613 C2040000 		.4byte	0x4c2
 2884 0617 14       		.uleb128 0x14
 2885 0618 36000000 		.4byte	.LVL21
 2886 061c C5110000 		.4byte	0x11c5
 2887 0620 13       		.uleb128 0x13
 2888 0621 01       		.uleb128 0x1
 2889 0622 50       		.byte	0x50
 2890 0623 05       		.uleb128 0x5
 2891 0624 03       		.byte	0x3
 2892 0625 03000000 		.4byte	.LC4
 2893 0629 00       		.byte	0
 2894 062a 00       		.byte	0
 2895 062b 1C       		.uleb128 0x1c
 2896 062c 880E0000 		.4byte	.LASF146
 2897 0630 01       		.byte	0x1
 2898 0631 2C01     		.2byte	0x12c
 2899 0633 AA000000 		.4byte	0xaa
 2900 0637 00000000 		.4byte	.LFB1493
 2901 063b 54080000 		.4byte	.LFE1493-.LFB1493
 2902 063f 01       		.uleb128 0x1
 2903 0640 9C       		.byte	0x9c
 2904 0641 650B0000 		.4byte	0xb65
 2905 0645 1D       		.uleb128 0x1d
 2906 0646 A8030000 		.4byte	.LBB2
 2907 064a 24030000 		.4byte	.LBE2-.LBB2
 2908 064e 0B070000 		.4byte	0x70b
 2909 0652 1A       		.uleb128 0x1a
 2910 0653 FA0A0000 		.4byte	.LASF147
 2911 0657 01       		.byte	0x1
 2912 0658 9902     		.2byte	0x299
 2913 065a C3000000 		.4byte	0xc3
 2914 065e D9000000 		.4byte	.LLST5
 2915 0662 1A       		.uleb128 0x1a
 2916 0663 E3070000 		.4byte	.LASF148
 2917 0667 01       		.byte	0x1
 2918 0668 9A02     		.2byte	0x29a
 2919 066a C3000000 		.4byte	0xc3
 2920 066e ED000000 		.4byte	.LLST6
 2921 0672 1A       		.uleb128 0x1a
 2922 0673 61070000 		.4byte	.LASF149
 2923 0677 01       		.byte	0x1
 2924 0678 A202     		.2byte	0x2a2
 2925 067a D9000000 		.4byte	0xd9
 2926 067e B5010000 		.4byte	.LLST7
 2927 0682 1A       		.uleb128 0x1a
 2928 0683 2D030000 		.4byte	.LASF150
 2929 0687 01       		.byte	0x1
 2930 0688 A302     		.2byte	0x2a3
 2931 068a D9000000 		.4byte	0xd9
 2932 068e 47020000 		.4byte	.LLST8
 2933 0692 1D       		.uleb128 0x1d
 2934 0693 8C050000 		.4byte	.LBB3
 2935 0697 AE000000 		.4byte	.LBE3-.LBB3
 2936 069b D0060000 		.4byte	0x6d0
 2937 069f 1A       		.uleb128 0x1a
 2938 06a0 80020000 		.4byte	.LASF151
 2939 06a4 01       		.byte	0x1
ARM GAS  C:\Users\Sven\AppData\Local\Temp\ccvvqGJt.s 			page 72


 2940 06a5 4603     		.2byte	0x346
 2941 06a7 C3000000 		.4byte	0xc3
 2942 06ab 47030000 		.4byte	.LLST9
 2943 06af 1A       		.uleb128 0x1a
 2944 06b0 DC0E0000 		.4byte	.LASF152
 2945 06b4 01       		.byte	0x1
 2946 06b5 4703     		.2byte	0x347
 2947 06b7 C3000000 		.4byte	0xc3
 2948 06bb 47030000 		.4byte	.LLST9
 2949 06bf 1A       		.uleb128 0x1a
 2950 06c0 6B020000 		.4byte	.LASF153
 2951 06c4 01       		.byte	0x1
 2952 06c5 4803     		.2byte	0x348
 2953 06c7 C3000000 		.4byte	0xc3
 2954 06cb 5B030000 		.4byte	.LLST11
 2955 06cf 00       		.byte	0
 2956 06d0 1E       		.uleb128 0x1e
 2957 06d1 3A060000 		.4byte	.LBB4
 2958 06d5 92000000 		.4byte	.LBE4-.LBB4
 2959 06d9 1A       		.uleb128 0x1a
 2960 06da F0080000 		.4byte	.LASF154
 2961 06de 01       		.byte	0x1
 2962 06df 6F03     		.2byte	0x36f
 2963 06e1 C3000000 		.4byte	0xc3
 2964 06e5 6F030000 		.4byte	.LLST12
 2965 06e9 1A       		.uleb128 0x1a
 2966 06ea E5040000 		.4byte	.LASF155
 2967 06ee 01       		.byte	0x1
 2968 06ef 7003     		.2byte	0x370
 2969 06f1 C3000000 		.4byte	0xc3
 2970 06f5 6F030000 		.4byte	.LLST12
 2971 06f9 1A       		.uleb128 0x1a
 2972 06fa 4B080000 		.4byte	.LASF156
 2973 06fe 01       		.byte	0x1
 2974 06ff 7103     		.2byte	0x371
 2975 0701 C3000000 		.4byte	0xc3
 2976 0705 83030000 		.4byte	.LLST14
 2977 0709 00       		.byte	0
 2978 070a 00       		.byte	0
 2979 070b 12       		.uleb128 0x12
 2980 070c 0C000000 		.4byte	.LVL22
 2981 0710 17120000 		.4byte	0x1217
 2982 0714 20070000 		.4byte	0x720
 2983 0718 13       		.uleb128 0x13
 2984 0719 01       		.uleb128 0x1
 2985 071a 50       		.byte	0x50
 2986 071b 03       		.uleb128 0x3
 2987 071c 0A       		.byte	0xa
 2988 071d F401     		.2byte	0x1f4
 2989 071f 00       		.byte	0
 2990 0720 18       		.uleb128 0x18
 2991 0721 12000000 		.4byte	.LVL23
 2992 0725 28120000 		.4byte	0x1228
 2993 0729 18       		.uleb128 0x18
 2994 072a 16000000 		.4byte	.LVL24
 2995 072e 2F120000 		.4byte	0x122f
 2996 0732 18       		.uleb128 0x18
ARM GAS  C:\Users\Sven\AppData\Local\Temp\ccvvqGJt.s 			page 73


 2997 0733 1A000000 		.4byte	.LVL25
 2998 0737 36120000 		.4byte	0x1236
 2999 073b 12       		.uleb128 0x12
 3000 073c 22000000 		.4byte	.LVL26
 3001 0740 3D120000 		.4byte	0x123d
 3002 0744 53070000 		.4byte	0x753
 3003 0748 13       		.uleb128 0x13
 3004 0749 01       		.uleb128 0x1
 3005 074a 51       		.byte	0x51
 3006 074b 01       		.uleb128 0x1
 3007 074c 32       		.byte	0x32
 3008 074d 13       		.uleb128 0x13
 3009 074e 01       		.uleb128 0x1
 3010 074f 50       		.byte	0x50
 3011 0750 01       		.uleb128 0x1
 3012 0751 30       		.byte	0x30
 3013 0752 00       		.byte	0
 3014 0753 12       		.uleb128 0x12
 3015 0754 2C000000 		.4byte	.LVL27
 3016 0758 53120000 		.4byte	0x1253
 3017 075c 6D070000 		.4byte	0x76d
 3018 0760 13       		.uleb128 0x13
 3019 0761 01       		.uleb128 0x1
 3020 0762 51       		.byte	0x51
 3021 0763 03       		.uleb128 0x3
 3022 0764 0A       		.byte	0xa
 3023 0765 803E     		.2byte	0x3e80
 3024 0767 13       		.uleb128 0x13
 3025 0768 01       		.uleb128 0x1
 3026 0769 50       		.byte	0x50
 3027 076a 01       		.uleb128 0x1
 3028 076b 30       		.byte	0x30
 3029 076c 00       		.byte	0
 3030 076d 12       		.uleb128 0x12
 3031 076e 34000000 		.4byte	.LVL28
 3032 0772 17120000 		.4byte	0x1217
 3033 0776 82070000 		.4byte	0x782
 3034 077a 13       		.uleb128 0x13
 3035 077b 01       		.uleb128 0x1
 3036 077c 50       		.byte	0x50
 3037 077d 03       		.uleb128 0x3
 3038 077e 0A       		.byte	0xa
 3039 077f F401     		.2byte	0x1f4
 3040 0781 00       		.byte	0
 3041 0782 18       		.uleb128 0x18
 3042 0783 38000000 		.4byte	.LVL29
 3043 0787 69120000 		.4byte	0x1269
 3044 078b 18       		.uleb128 0x18
 3045 078c 3C000000 		.4byte	.LVL30
 3046 0790 71120000 		.4byte	0x1271
 3047 0794 18       		.uleb128 0x18
 3048 0795 40000000 		.4byte	.LVL31
 3049 0799 79120000 		.4byte	0x1279
 3050 079d 18       		.uleb128 0x18
 3051 079e 44000000 		.4byte	.LVL32
 3052 07a2 81120000 		.4byte	0x1281
 3053 07a6 18       		.uleb128 0x18
ARM GAS  C:\Users\Sven\AppData\Local\Temp\ccvvqGJt.s 			page 74


 3054 07a7 48000000 		.4byte	.LVL33
 3055 07ab 89120000 		.4byte	0x1289
 3056 07af 18       		.uleb128 0x18
 3057 07b0 4C000000 		.4byte	.LVL34
 3058 07b4 90120000 		.4byte	0x1290
 3059 07b8 18       		.uleb128 0x18
 3060 07b9 50000000 		.4byte	.LVL35
 3061 07bd 97120000 		.4byte	0x1297
 3062 07c1 18       		.uleb128 0x18
 3063 07c2 54000000 		.4byte	.LVL36
 3064 07c6 9E120000 		.4byte	0x129e
 3065 07ca 18       		.uleb128 0x18
 3066 07cb 58000000 		.4byte	.LVL37
 3067 07cf A5120000 		.4byte	0x12a5
 3068 07d3 18       		.uleb128 0x18
 3069 07d4 64000000 		.4byte	.LVL38
 3070 07d8 AC120000 		.4byte	0x12ac
 3071 07dc 18       		.uleb128 0x18
 3072 07dd 68000000 		.4byte	.LVL39
 3073 07e1 B3120000 		.4byte	0x12b3
 3074 07e5 18       		.uleb128 0x18
 3075 07e6 6C000000 		.4byte	.LVL40
 3076 07ea BA120000 		.4byte	0x12ba
 3077 07ee 12       		.uleb128 0x12
 3078 07ef 72000000 		.4byte	.LVL41
 3079 07f3 17120000 		.4byte	0x1217
 3080 07f7 01080000 		.4byte	0x801
 3081 07fb 13       		.uleb128 0x13
 3082 07fc 01       		.uleb128 0x1
 3083 07fd 50       		.byte	0x50
 3084 07fe 01       		.uleb128 0x1
 3085 07ff 35       		.byte	0x35
 3086 0800 00       		.byte	0
 3087 0801 18       		.uleb128 0x18
 3088 0802 76000000 		.4byte	.LVL42
 3089 0806 C1120000 		.4byte	0x12c1
 3090 080a 12       		.uleb128 0x12
 3091 080b 80000000 		.4byte	.LVL43
 3092 080f 17120000 		.4byte	0x1217
 3093 0813 1D080000 		.4byte	0x81d
 3094 0817 13       		.uleb128 0x13
 3095 0818 01       		.uleb128 0x1
 3096 0819 50       		.byte	0x50
 3097 081a 01       		.uleb128 0x1
 3098 081b 35       		.byte	0x35
 3099 081c 00       		.byte	0
 3100 081d 18       		.uleb128 0x18
 3101 081e 84000000 		.4byte	.LVL44
 3102 0822 CC120000 		.4byte	0x12cc
 3103 0826 12       		.uleb128 0x12
 3104 0827 8A000000 		.4byte	.LVL45
 3105 082b 17120000 		.4byte	0x1217
 3106 082f 39080000 		.4byte	0x839
 3107 0833 13       		.uleb128 0x13
 3108 0834 01       		.uleb128 0x1
 3109 0835 50       		.byte	0x50
 3110 0836 01       		.uleb128 0x1
ARM GAS  C:\Users\Sven\AppData\Local\Temp\ccvvqGJt.s 			page 75


 3111 0837 35       		.byte	0x35
 3112 0838 00       		.byte	0
 3113 0839 18       		.uleb128 0x18
 3114 083a 8E000000 		.4byte	.LVL46
 3115 083e D3120000 		.4byte	0x12d3
 3116 0842 12       		.uleb128 0x12
 3117 0843 96000000 		.4byte	.LVL47
 3118 0847 C5110000 		.4byte	0x11c5
 3119 084b 59080000 		.4byte	0x859
 3120 084f 13       		.uleb128 0x13
 3121 0850 01       		.uleb128 0x1
 3122 0851 50       		.byte	0x50
 3123 0852 05       		.uleb128 0x5
 3124 0853 03       		.byte	0x3
 3125 0854 0F000000 		.4byte	.LC9
 3126 0858 00       		.byte	0
 3127 0859 18       		.uleb128 0x18
 3128 085a 9C000000 		.4byte	.LVL48
 3129 085e C2040000 		.4byte	0x4c2
 3130 0862 12       		.uleb128 0x12
 3131 0863 A2000000 		.4byte	.LVL49
 3132 0867 C5110000 		.4byte	0x11c5
 3133 086b 79080000 		.4byte	0x879
 3134 086f 13       		.uleb128 0x13
 3135 0870 01       		.uleb128 0x1
 3136 0871 50       		.byte	0x50
 3137 0872 05       		.uleb128 0x5
 3138 0873 03       		.byte	0x3
 3139 0874 1D000000 		.4byte	.LC11
 3140 0878 00       		.byte	0
 3141 0879 12       		.uleb128 0x12
 3142 087a A8000000 		.4byte	.LVL50
 3143 087e DE120000 		.4byte	0x12de
 3144 0882 8C080000 		.4byte	0x88c
 3145 0886 13       		.uleb128 0x13
 3146 0887 01       		.uleb128 0x1
 3147 0888 50       		.byte	0x50
 3148 0889 01       		.uleb128 0x1
 3149 088a 31       		.byte	0x31
 3150 088b 00       		.byte	0
 3151 088c 12       		.uleb128 0x12
 3152 088d AE000000 		.4byte	.LVL51
 3153 0891 C5110000 		.4byte	0x11c5
 3154 0895 A3080000 		.4byte	0x8a3
 3155 0899 13       		.uleb128 0x13
 3156 089a 01       		.uleb128 0x1
 3157 089b 50       		.byte	0x50
 3158 089c 05       		.uleb128 0x5
 3159 089d 03       		.byte	0x3
 3160 089e 20000000 		.4byte	.LC13
 3161 08a2 00       		.byte	0
 3162 08a3 18       		.uleb128 0x18
 3163 08a4 EE000000 		.4byte	.LVL52
 3164 08a8 EF120000 		.4byte	0x12ef
 3165 08ac 12       		.uleb128 0x12
 3166 08ad FA000000 		.4byte	.LVL53
 3167 08b1 01130000 		.4byte	0x1301
ARM GAS  C:\Users\Sven\AppData\Local\Temp\ccvvqGJt.s 			page 76


 3168 08b5 C0080000 		.4byte	0x8c0
 3169 08b9 13       		.uleb128 0x13
 3170 08ba 01       		.uleb128 0x1
 3171 08bb 50       		.byte	0x50
 3172 08bc 02       		.uleb128 0x2
 3173 08bd 09       		.byte	0x9
 3174 08be FF       		.byte	0xff
 3175 08bf 00       		.byte	0
 3176 08c0 12       		.uleb128 0x12
 3177 08c1 08010000 		.4byte	.LVL54
 3178 08c5 01130000 		.4byte	0x1301
 3179 08c9 D4080000 		.4byte	0x8d4
 3180 08cd 13       		.uleb128 0x13
 3181 08ce 01       		.uleb128 0x1
 3182 08cf 50       		.byte	0x50
 3183 08d0 02       		.uleb128 0x2
 3184 08d1 74       		.byte	0x74
 3185 08d2 00       		.sleb128 0
 3186 08d3 00       		.byte	0
 3187 08d4 12       		.uleb128 0x12
 3188 08d5 24010000 		.4byte	.LVL55
 3189 08d9 EF120000 		.4byte	0x12ef
 3190 08dd E8080000 		.4byte	0x8e8
 3191 08e1 13       		.uleb128 0x13
 3192 08e2 01       		.uleb128 0x1
 3193 08e3 50       		.byte	0x50
 3194 08e4 02       		.uleb128 0x2
 3195 08e5 74       		.byte	0x74
 3196 08e6 00       		.sleb128 0
 3197 08e7 00       		.byte	0
 3198 08e8 12       		.uleb128 0x12
 3199 08e9 2A010000 		.4byte	.LVL56
 3200 08ed 01130000 		.4byte	0x1301
 3201 08f1 FC080000 		.4byte	0x8fc
 3202 08f5 13       		.uleb128 0x13
 3203 08f6 01       		.uleb128 0x1
 3204 08f7 50       		.byte	0x50
 3205 08f8 02       		.uleb128 0x2
 3206 08f9 74       		.byte	0x74
 3207 08fa 00       		.sleb128 0
 3208 08fb 00       		.byte	0
 3209 08fc 18       		.uleb128 0x18
 3210 08fd 30010000 		.4byte	.LVL57
 3211 0901 12130000 		.4byte	0x1312
 3212 0905 18       		.uleb128 0x18
 3213 0906 34010000 		.4byte	.LVL58
 3214 090a 23130000 		.4byte	0x1323
 3215 090e 18       		.uleb128 0x18
 3216 090f 48010000 		.4byte	.LVL59
 3217 0913 BA120000 		.4byte	0x12ba
 3218 0917 18       		.uleb128 0x18
 3219 0918 56010000 		.4byte	.LVL60
 3220 091c C1120000 		.4byte	0x12c1
 3221 0920 18       		.uleb128 0x18
 3222 0921 66010000 		.4byte	.LVL61
 3223 0925 CC120000 		.4byte	0x12cc
 3224 0929 18       		.uleb128 0x18
ARM GAS  C:\Users\Sven\AppData\Local\Temp\ccvvqGJt.s 			page 77


 3225 092a 74010000 		.4byte	.LVL62
 3226 092e D3120000 		.4byte	0x12d3
 3227 0932 18       		.uleb128 0x18
 3228 0933 D0010000 		.4byte	.LVL66
 3229 0937 EF050000 		.4byte	0x5ef
 3230 093b 12       		.uleb128 0x12
 3231 093c D6010000 		.4byte	.LVL67
 3232 0940 C5110000 		.4byte	0x11c5
 3233 0944 52090000 		.4byte	0x952
 3234 0948 13       		.uleb128 0x13
 3235 0949 01       		.uleb128 0x1
 3236 094a 50       		.byte	0x50
 3237 094b 05       		.uleb128 0x5
 3238 094c 03       		.byte	0x3
 3239 094d 30000000 		.4byte	.LC16
 3240 0951 00       		.byte	0
 3241 0952 18       		.uleb128 0x18
 3242 0953 32020000 		.4byte	.LVL68
 3243 0957 9F050000 		.4byte	0x59f
 3244 095b 18       		.uleb128 0x18
 3245 095c 5A020000 		.4byte	.LVL71
 3246 0960 2A130000 		.4byte	0x132a
 3247 0964 18       		.uleb128 0x18
 3248 0965 94020000 		.4byte	.LVL77
 3249 0969 2A130000 		.4byte	0x132a
 3250 096d 18       		.uleb128 0x18
 3251 096e 02070000 		.4byte	.LVL153
 3252 0972 C2040000 		.4byte	0x4c2
 3253 0976 12       		.uleb128 0x12
 3254 0977 0A070000 		.4byte	.LVL154
 3255 097b C5110000 		.4byte	0x11c5
 3256 097f 8A090000 		.4byte	0x98a
 3257 0983 13       		.uleb128 0x13
 3258 0984 01       		.uleb128 0x1
 3259 0985 50       		.byte	0x50
 3260 0986 02       		.uleb128 0x2
 3261 0987 74       		.byte	0x74
 3262 0988 00       		.sleb128 0
 3263 0989 00       		.byte	0
 3264 098a 18       		.uleb128 0x18
 3265 098b 12070000 		.4byte	.LVL155
 3266 098f C2040000 		.4byte	0x4c2
 3267 0993 12       		.uleb128 0x12
 3268 0994 18070000 		.4byte	.LVL156
 3269 0998 C5110000 		.4byte	0x11c5
 3270 099c A7090000 		.4byte	0x9a7
 3271 09a0 13       		.uleb128 0x13
 3272 09a1 01       		.uleb128 0x1
 3273 09a2 50       		.byte	0x50
 3274 09a3 02       		.uleb128 0x2
 3275 09a4 74       		.byte	0x74
 3276 09a5 00       		.sleb128 0
 3277 09a6 00       		.byte	0
 3278 09a7 18       		.uleb128 0x18
 3279 09a8 1E070000 		.4byte	.LVL157
 3280 09ac C2040000 		.4byte	0x4c2
 3281 09b0 12       		.uleb128 0x12
ARM GAS  C:\Users\Sven\AppData\Local\Temp\ccvvqGJt.s 			page 78


 3282 09b1 24070000 		.4byte	.LVL158
 3283 09b5 C5110000 		.4byte	0x11c5
 3284 09b9 C4090000 		.4byte	0x9c4
 3285 09bd 13       		.uleb128 0x13
 3286 09be 01       		.uleb128 0x1
 3287 09bf 50       		.byte	0x50
 3288 09c0 02       		.uleb128 0x2
 3289 09c1 74       		.byte	0x74
 3290 09c2 00       		.sleb128 0
 3291 09c3 00       		.byte	0
 3292 09c4 18       		.uleb128 0x18
 3293 09c5 2A070000 		.4byte	.LVL159
 3294 09c9 C2040000 		.4byte	0x4c2
 3295 09cd 12       		.uleb128 0x12
 3296 09ce 30070000 		.4byte	.LVL160
 3297 09d2 C5110000 		.4byte	0x11c5
 3298 09d6 E1090000 		.4byte	0x9e1
 3299 09da 13       		.uleb128 0x13
 3300 09db 01       		.uleb128 0x1
 3301 09dc 50       		.byte	0x50
 3302 09dd 02       		.uleb128 0x2
 3303 09de 74       		.byte	0x74
 3304 09df 00       		.sleb128 0
 3305 09e0 00       		.byte	0
 3306 09e1 18       		.uleb128 0x18
 3307 09e2 36070000 		.4byte	.LVL161
 3308 09e6 C2040000 		.4byte	0x4c2
 3309 09ea 12       		.uleb128 0x12
 3310 09eb 3C070000 		.4byte	.LVL162
 3311 09ef C5110000 		.4byte	0x11c5
 3312 09f3 FE090000 		.4byte	0x9fe
 3313 09f7 13       		.uleb128 0x13
 3314 09f8 01       		.uleb128 0x1
 3315 09f9 50       		.byte	0x50
 3316 09fa 02       		.uleb128 0x2
 3317 09fb 74       		.byte	0x74
 3318 09fc 00       		.sleb128 0
 3319 09fd 00       		.byte	0
 3320 09fe 18       		.uleb128 0x18
 3321 09ff 42070000 		.4byte	.LVL163
 3322 0a03 C2040000 		.4byte	0x4c2
 3323 0a07 12       		.uleb128 0x12
 3324 0a08 48070000 		.4byte	.LVL164
 3325 0a0c C5110000 		.4byte	0x11c5
 3326 0a10 1B0A0000 		.4byte	0xa1b
 3327 0a14 13       		.uleb128 0x13
 3328 0a15 01       		.uleb128 0x1
 3329 0a16 50       		.byte	0x50
 3330 0a17 02       		.uleb128 0x2
 3331 0a18 74       		.byte	0x74
 3332 0a19 00       		.sleb128 0
 3333 0a1a 00       		.byte	0
 3334 0a1b 18       		.uleb128 0x18
 3335 0a1c 54070000 		.4byte	.LVL166
 3336 0a20 C2040000 		.4byte	0x4c2
 3337 0a24 12       		.uleb128 0x12
 3338 0a25 5A070000 		.4byte	.LVL167
ARM GAS  C:\Users\Sven\AppData\Local\Temp\ccvvqGJt.s 			page 79


 3339 0a29 C5110000 		.4byte	0x11c5
 3340 0a2d 380A0000 		.4byte	0xa38
 3341 0a31 13       		.uleb128 0x13
 3342 0a32 01       		.uleb128 0x1
 3343 0a33 50       		.byte	0x50
 3344 0a34 02       		.uleb128 0x2
 3345 0a35 74       		.byte	0x74
 3346 0a36 00       		.sleb128 0
 3347 0a37 00       		.byte	0
 3348 0a38 18       		.uleb128 0x18
 3349 0a39 66070000 		.4byte	.LVL169
 3350 0a3d C2040000 		.4byte	0x4c2
 3351 0a41 12       		.uleb128 0x12
 3352 0a42 6C070000 		.4byte	.LVL170
 3353 0a46 C5110000 		.4byte	0x11c5
 3354 0a4a 550A0000 		.4byte	0xa55
 3355 0a4e 13       		.uleb128 0x13
 3356 0a4f 01       		.uleb128 0x1
 3357 0a50 50       		.byte	0x50
 3358 0a51 02       		.uleb128 0x2
 3359 0a52 74       		.byte	0x74
 3360 0a53 00       		.sleb128 0
 3361 0a54 00       		.byte	0
 3362 0a55 18       		.uleb128 0x18
 3363 0a56 74070000 		.4byte	.LVL171
 3364 0a5a C2040000 		.4byte	0x4c2
 3365 0a5e 12       		.uleb128 0x12
 3366 0a5f 7A070000 		.4byte	.LVL172
 3367 0a63 C5110000 		.4byte	0x11c5
 3368 0a67 720A0000 		.4byte	0xa72
 3369 0a6b 13       		.uleb128 0x13
 3370 0a6c 01       		.uleb128 0x1
 3371 0a6d 50       		.byte	0x50
 3372 0a6e 02       		.uleb128 0x2
 3373 0a6f 74       		.byte	0x74
 3374 0a70 00       		.sleb128 0
 3375 0a71 00       		.byte	0
 3376 0a72 18       		.uleb128 0x18
 3377 0a73 80070000 		.4byte	.LVL173
 3378 0a77 C2040000 		.4byte	0x4c2
 3379 0a7b 12       		.uleb128 0x12
 3380 0a7c 86070000 		.4byte	.LVL174
 3381 0a80 C5110000 		.4byte	0x11c5
 3382 0a84 8F0A0000 		.4byte	0xa8f
 3383 0a88 13       		.uleb128 0x13
 3384 0a89 01       		.uleb128 0x1
 3385 0a8a 50       		.byte	0x50
 3386 0a8b 02       		.uleb128 0x2
 3387 0a8c 74       		.byte	0x74
 3388 0a8d 00       		.sleb128 0
 3389 0a8e 00       		.byte	0
 3390 0a8f 18       		.uleb128 0x18
 3391 0a90 8C070000 		.4byte	.LVL175
 3392 0a94 C2040000 		.4byte	0x4c2
 3393 0a98 12       		.uleb128 0x12
 3394 0a99 92070000 		.4byte	.LVL176
 3395 0a9d C5110000 		.4byte	0x11c5
ARM GAS  C:\Users\Sven\AppData\Local\Temp\ccvvqGJt.s 			page 80


 3396 0aa1 AC0A0000 		.4byte	0xaac
 3397 0aa5 13       		.uleb128 0x13
 3398 0aa6 01       		.uleb128 0x1
 3399 0aa7 50       		.byte	0x50
 3400 0aa8 02       		.uleb128 0x2
 3401 0aa9 74       		.byte	0x74
 3402 0aaa 00       		.sleb128 0
 3403 0aab 00       		.byte	0
 3404 0aac 18       		.uleb128 0x18
 3405 0aad 9C070000 		.4byte	.LVL177
 3406 0ab1 C2040000 		.4byte	0x4c2
 3407 0ab5 12       		.uleb128 0x12
 3408 0ab6 A2070000 		.4byte	.LVL178
 3409 0aba C5110000 		.4byte	0x11c5
 3410 0abe CC0A0000 		.4byte	0xacc
 3411 0ac2 13       		.uleb128 0x13
 3412 0ac3 01       		.uleb128 0x1
 3413 0ac4 50       		.byte	0x50
 3414 0ac5 05       		.uleb128 0x5
 3415 0ac6 03       		.byte	0x3
 3416 0ac7 43000000 		.4byte	.LC24
 3417 0acb 00       		.byte	0
 3418 0acc 12       		.uleb128 0x12
 3419 0acd BA070000 		.4byte	.LVL179
 3420 0ad1 C5110000 		.4byte	0x11c5
 3421 0ad5 E00A0000 		.4byte	0xae0
 3422 0ad9 13       		.uleb128 0x13
 3423 0ada 01       		.uleb128 0x1
 3424 0adb 50       		.byte	0x50
 3425 0adc 02       		.uleb128 0x2
 3426 0add 77       		.byte	0x77
 3427 0ade 00       		.sleb128 0
 3428 0adf 00       		.byte	0
 3429 0ae0 12       		.uleb128 0x12
 3430 0ae1 C0070000 		.4byte	.LVL180
 3431 0ae5 C5110000 		.4byte	0x11c5
 3432 0ae9 F70A0000 		.4byte	0xaf7
 3433 0aed 13       		.uleb128 0x13
 3434 0aee 01       		.uleb128 0x1
 3435 0aef 50       		.byte	0x50
 3436 0af0 05       		.uleb128 0x5
 3437 0af1 03       		.byte	0x3
 3438 0af2 1D000000 		.4byte	.LC11
 3439 0af6 00       		.byte	0
 3440 0af7 12       		.uleb128 0x12
 3441 0af8 C8070000 		.4byte	.LVL181
 3442 0afc 44130000 		.4byte	0x1344
 3443 0b00 140B0000 		.4byte	0xb14
 3444 0b04 13       		.uleb128 0x13
 3445 0b05 01       		.uleb128 0x1
 3446 0b06 51       		.byte	0x51
 3447 0b07 05       		.uleb128 0x5
 3448 0b08 03       		.byte	0x3
 3449 0b09 47000000 		.4byte	.LC26
 3450 0b0d 13       		.uleb128 0x13
 3451 0b0e 01       		.uleb128 0x1
 3452 0b0f 50       		.byte	0x50
ARM GAS  C:\Users\Sven\AppData\Local\Temp\ccvvqGJt.s 			page 81


 3453 0b10 02       		.uleb128 0x2
 3454 0b11 77       		.byte	0x77
 3455 0b12 00       		.sleb128 0
 3456 0b13 00       		.byte	0
 3457 0b14 12       		.uleb128 0x12
 3458 0b15 D2070000 		.4byte	.LVL182
 3459 0b19 C5110000 		.4byte	0x11c5
 3460 0b1d 2B0B0000 		.4byte	0xb2b
 3461 0b21 13       		.uleb128 0x13
 3462 0b22 01       		.uleb128 0x1
 3463 0b23 50       		.byte	0x50
 3464 0b24 05       		.uleb128 0x5
 3465 0b25 03       		.byte	0x3
 3466 0b26 4C000000 		.4byte	.LC28
 3467 0b2a 00       		.byte	0
 3468 0b2b 12       		.uleb128 0x12
 3469 0b2c D8070000 		.4byte	.LVL183
 3470 0b30 17120000 		.4byte	0x1217
 3471 0b34 3F0B0000 		.4byte	0xb3f
 3472 0b38 13       		.uleb128 0x13
 3473 0b39 01       		.uleb128 0x1
 3474 0b3a 50       		.byte	0x50
 3475 0b3b 02       		.uleb128 0x2
 3476 0b3c 08       		.byte	0x8
 3477 0b3d 64       		.byte	0x64
 3478 0b3e 00       		.byte	0
 3479 0b3f 18       		.uleb128 0x18
 3480 0b40 DC070000 		.4byte	.LVL184
 3481 0b44 5E130000 		.4byte	0x135e
 3482 0b48 12       		.uleb128 0x12
 3483 0b49 E2070000 		.4byte	.LVL185
 3484 0b4d 65130000 		.4byte	0x1365
 3485 0b51 5B0B0000 		.4byte	0xb5b
 3486 0b55 13       		.uleb128 0x13
 3487 0b56 01       		.uleb128 0x1
 3488 0b57 50       		.byte	0x50
 3489 0b58 01       		.uleb128 0x1
 3490 0b59 38       		.byte	0x38
 3491 0b5a 00       		.byte	0
 3492 0b5b 18       		.uleb128 0x18
 3493 0b5c E6070000 		.4byte	.LVL186
 3494 0b60 76130000 		.4byte	0x1376
 3495 0b64 00       		.byte	0
 3496 0b65 1F       		.uleb128 0x1f
 3497 0b66 97060000 		.4byte	.LASF157
 3498 0b6a 01       		.byte	0x1
 3499 0b6b 1C       		.byte	0x1c
 3500 0b6c 760B0000 		.4byte	0xb76
 3501 0b70 05       		.uleb128 0x5
 3502 0b71 03       		.byte	0x3
 3503 0b72 00000000 		.4byte	task_flag
 3504 0b76 20       		.uleb128 0x20
 3505 0b77 C3000000 		.4byte	0xc3
 3506 0b7b 1F       		.uleb128 0x1f
 3507 0b7c A8000000 		.4byte	.LASF158
 3508 0b80 01       		.byte	0x1
 3509 0b81 1D       		.byte	0x1d
ARM GAS  C:\Users\Sven\AppData\Local\Temp\ccvvqGJt.s 			page 82


 3510 0b82 760B0000 		.4byte	0xb76
 3511 0b86 05       		.uleb128 0x5
 3512 0b87 03       		.byte	0x3
 3513 0b88 00000000 		.4byte	blink_cnt
 3514 0b8c 1F       		.uleb128 0x1f
 3515 0b8d 510F0000 		.4byte	.LASF159
 3516 0b91 01       		.byte	0x1
 3517 0b92 1E       		.byte	0x1e
 3518 0b93 26010000 		.4byte	0x126
 3519 0b97 05       		.uleb128 0x5
 3520 0b98 03       		.byte	0x3
 3521 0b99 00000000 		.4byte	sample_time
 3522 0b9d 1F       		.uleb128 0x1f
 3523 0b9e 260C0000 		.4byte	.LASF160
 3524 0ba2 01       		.byte	0x1
 3525 0ba3 23       		.byte	0x23
 3526 0ba4 C3000000 		.4byte	0xc3
 3527 0ba8 05       		.uleb128 0x5
 3528 0ba9 03       		.byte	0x3
 3529 0baa 00000000 		.4byte	PPM_channel
 3530 0bae 0B       		.uleb128 0xb
 3531 0baf D9000000 		.4byte	0xd9
 3532 0bb3 BE0B0000 		.4byte	0xbbe
 3533 0bb7 0C       		.uleb128 0xc
 3534 0bb8 46010000 		.4byte	0x146
 3535 0bbc 07       		.byte	0x7
 3536 0bbd 00       		.byte	0
 3537 0bbe 1F       		.uleb128 0x1f
 3538 0bbf 74010000 		.4byte	.LASF161
 3539 0bc3 01       		.byte	0x1
 3540 0bc4 24       		.byte	0x24
 3541 0bc5 AE0B0000 		.4byte	0xbae
 3542 0bc9 05       		.uleb128 0x5
 3543 0bca 03       		.byte	0x3
 3544 0bcb 00000000 		.4byte	ctrl_in
 3545 0bcf 0B       		.uleb128 0xb
 3546 0bd0 D9000000 		.4byte	0xd9
 3547 0bd4 DF0B0000 		.4byte	0xbdf
 3548 0bd8 0C       		.uleb128 0xc
 3549 0bd9 46010000 		.4byte	0x146
 3550 0bdd 0C       		.byte	0xc
 3551 0bde 00       		.byte	0
 3552 0bdf 1F       		.uleb128 0x1f
 3553 0be0 7C010000 		.4byte	.LASF162
 3554 0be4 01       		.byte	0x1
 3555 0be5 25       		.byte	0x25
 3556 0be6 CF0B0000 		.4byte	0xbcf
 3557 0bea 05       		.uleb128 0x5
 3558 0beb 03       		.byte	0x3
 3559 0bec 00000000 		.4byte	ctrl_out
 3560 0bf0 0B       		.uleb128 0xb
 3561 0bf1 D9000000 		.4byte	0xd9
 3562 0bf5 000C0000 		.4byte	0xc00
 3563 0bf9 0C       		.uleb128 0xc
 3564 0bfa 46010000 		.4byte	0x146
 3565 0bfe 04       		.byte	0x4
 3566 0bff 00       		.byte	0
ARM GAS  C:\Users\Sven\AppData\Local\Temp\ccvvqGJt.s 			page 83


 3567 0c00 1F       		.uleb128 0x1f
 3568 0c01 72060000 		.4byte	.LASF163
 3569 0c05 01       		.byte	0x1
 3570 0c06 33       		.byte	0x33
 3571 0c07 F00B0000 		.4byte	0xbf0
 3572 0c0b 05       		.uleb128 0x5
 3573 0c0c 03       		.byte	0x3
 3574 0c0d 00000000 		.4byte	ctrl_in_trim
 3575 0c11 1F       		.uleb128 0x1f
 3576 0c12 53000000 		.4byte	.LASF164
 3577 0c16 01       		.byte	0x1
 3578 0c17 38       		.byte	0x38
 3579 0c18 F00B0000 		.4byte	0xbf0
 3580 0c1c 05       		.uleb128 0x5
 3581 0c1d 03       		.byte	0x3
 3582 0c1e 00000000 		.4byte	ctrl_out_PID
 3583 0c22 1F       		.uleb128 0x1f
 3584 0c23 250D0000 		.4byte	.LASF165
 3585 0c27 01       		.byte	0x1
 3586 0c28 39       		.byte	0x39
 3587 0c29 F00B0000 		.4byte	0xbf0
 3588 0c2d 05       		.uleb128 0x5
 3589 0c2e 03       		.byte	0x3
 3590 0c2f 00000000 		.4byte	ctrl_out_DAMP
 3591 0c33 1F       		.uleb128 0x1f
 3592 0c34 CB040000 		.4byte	.LASF166
 3593 0c38 01       		.byte	0x1
 3594 0c39 56       		.byte	0x56
 3595 0c3a C3000000 		.4byte	0xc3
 3596 0c3e 05       		.uleb128 0x5
 3597 0c3f 03       		.byte	0x3
 3598 0c40 00000000 		.4byte	receiver_connected
 3599 0c44 1F       		.uleb128 0x1f
 3600 0c45 E2050000 		.4byte	.LASF167
 3601 0c49 01       		.byte	0x1
 3602 0c4a 5B       		.byte	0x5b
 3603 0c4b C3000000 		.4byte	0xc3
 3604 0c4f 05       		.uleb128 0x5
 3605 0c50 03       		.byte	0x3
 3606 0c51 00000000 		.4byte	Ctrl_Mode
 3607 0c55 1F       		.uleb128 0x1f
 3608 0c56 120D0000 		.4byte	.LASF168
 3609 0c5a 01       		.byte	0x1
 3610 0c5b 72       		.byte	0x72
 3611 0c5c C3000000 		.4byte	0xc3
 3612 0c60 05       		.uleb128 0x5
 3613 0c61 03       		.byte	0x3
 3614 0c62 00000000 		.4byte	flag_LightsEnabled
 3615 0c66 1F       		.uleb128 0x1f
 3616 0c67 36050000 		.4byte	.LASF169
 3617 0c6b 01       		.byte	0x1
 3618 0c6c 75       		.byte	0x75
 3619 0c6d C3000000 		.4byte	0xc3
 3620 0c71 05       		.uleb128 0x5
 3621 0c72 03       		.byte	0x3
 3622 0c73 00000000 		.4byte	flag_NavLightPulse
 3623 0c77 1F       		.uleb128 0x1f
ARM GAS  C:\Users\Sven\AppData\Local\Temp\ccvvqGJt.s 			page 84


 3624 0c78 0C0A0000 		.4byte	.LASF170
 3625 0c7c 01       		.byte	0x1
 3626 0c7d 76       		.byte	0x76
 3627 0c7e D9000000 		.4byte	0xd9
 3628 0c82 05       		.uleb128 0x5
 3629 0c83 03       		.byte	0x3
 3630 0c84 00000000 		.4byte	NavLightBright
 3631 0c88 1F       		.uleb128 0x1f
 3632 0c89 02050000 		.4byte	.LASF171
 3633 0c8d 01       		.byte	0x1
 3634 0c8e 77       		.byte	0x77
 3635 0c8f D9000000 		.4byte	0xd9
 3636 0c93 05       		.uleb128 0x5
 3637 0c94 03       		.byte	0x3
 3638 0c95 00000000 		.4byte	NavLightDim
 3639 0c99 1F       		.uleb128 0x1f
 3640 0c9a 3D030000 		.4byte	.LASF172
 3641 0c9e 01       		.byte	0x1
 3642 0c9f 78       		.byte	0x78
 3643 0ca0 D9000000 		.4byte	0xd9
 3644 0ca4 05       		.uleb128 0x5
 3645 0ca5 03       		.byte	0x3
 3646 0ca6 00000000 		.4byte	NavLightStep
 3647 0caa 1F       		.uleb128 0x1f
 3648 0cab 410F0000 		.4byte	.LASF173
 3649 0caf 01       		.byte	0x1
 3650 0cb0 79       		.byte	0x79
 3651 0cb1 D9000000 		.4byte	0xd9
 3652 0cb5 05       		.uleb128 0x5
 3653 0cb6 03       		.byte	0x3
 3654 0cb7 00000000 		.4byte	NavLightCompare
 3655 0cbb 1F       		.uleb128 0x1f
 3656 0cbc D50A0000 		.4byte	.LASF174
 3657 0cc0 01       		.byte	0x1
 3658 0cc1 7B       		.byte	0x7b
 3659 0cc2 C3000000 		.4byte	0xc3
 3660 0cc6 05       		.uleb128 0x5
 3661 0cc7 03       		.byte	0x3
 3662 0cc8 00000000 		.4byte	cnt_StrobeLight
 3663 0ccc 1F       		.uleb128 0x1f
 3664 0ccd 0F090000 		.4byte	.LASF175
 3665 0cd1 01       		.byte	0x1
 3666 0cd2 83       		.byte	0x83
 3667 0cd3 CE000000 		.4byte	0xce
 3668 0cd7 05       		.uleb128 0x5
 3669 0cd8 03       		.byte	0x3
 3670 0cd9 00000000 		.4byte	turn_rate_p
 3671 0cdd 1F       		.uleb128 0x1f
 3672 0cde 1B090000 		.4byte	.LASF176
 3673 0ce2 01       		.byte	0x1
 3674 0ce3 84       		.byte	0x84
 3675 0ce4 CE000000 		.4byte	0xce
 3676 0ce8 05       		.uleb128 0x5
 3677 0ce9 03       		.byte	0x3
 3678 0cea 00000000 		.4byte	turn_rate_q
 3679 0cee 1F       		.uleb128 0x1f
 3680 0cef 27090000 		.4byte	.LASF177
ARM GAS  C:\Users\Sven\AppData\Local\Temp\ccvvqGJt.s 			page 85


 3681 0cf3 01       		.byte	0x1
 3682 0cf4 85       		.byte	0x85
 3683 0cf5 CE000000 		.4byte	0xce
 3684 0cf9 05       		.uleb128 0x5
 3685 0cfa 03       		.byte	0x3
 3686 0cfb 00000000 		.4byte	turn_rate_r
 3687 0cff 1F       		.uleb128 0x1f
 3688 0d00 510B0000 		.4byte	.LASF178
 3689 0d04 01       		.byte	0x1
 3690 0d05 87       		.byte	0x87
 3691 0d06 CE000000 		.4byte	0xce
 3692 0d0a 05       		.uleb128 0x5
 3693 0d0b 03       		.byte	0x3
 3694 0d0c 00000000 		.4byte	acc_x_g
 3695 0d10 1F       		.uleb128 0x1f
 3696 0d11 F2010000 		.4byte	.LASF179
 3697 0d15 01       		.byte	0x1
 3698 0d16 88       		.byte	0x88
 3699 0d17 CE000000 		.4byte	0xce
 3700 0d1b 05       		.uleb128 0x5
 3701 0d1c 03       		.byte	0x3
 3702 0d1d 00000000 		.4byte	acc_y_g
 3703 0d21 1F       		.uleb128 0x1f
 3704 0d22 61090000 		.4byte	.LASF180
 3705 0d26 01       		.byte	0x1
 3706 0d27 89       		.byte	0x89
 3707 0d28 CE000000 		.4byte	0xce
 3708 0d2c 05       		.uleb128 0x5
 3709 0d2d 03       		.byte	0x3
 3710 0d2e 00000000 		.4byte	acc_z_g
 3711 0d32 1F       		.uleb128 0x1f
 3712 0d33 0A0D0000 		.4byte	.LASF181
 3713 0d37 01       		.byte	0x1
 3714 0d38 8B       		.byte	0x8b
 3715 0d39 CE000000 		.4byte	0xce
 3716 0d3d 05       		.uleb128 0x5
 3717 0d3e 03       		.byte	0x3
 3718 0d3f 00000000 		.4byte	mag_x_g
 3719 0d43 1F       		.uleb128 0x1f
 3720 0d44 A6030000 		.4byte	.LASF182
 3721 0d48 01       		.byte	0x1
 3722 0d49 8C       		.byte	0x8c
 3723 0d4a CE000000 		.4byte	0xce
 3724 0d4e 05       		.uleb128 0x5
 3725 0d4f 03       		.byte	0x3
 3726 0d50 00000000 		.4byte	mag_y_g
 3727 0d54 1F       		.uleb128 0x1f
 3728 0d55 1B0A0000 		.4byte	.LASF183
 3729 0d59 01       		.byte	0x1
 3730 0d5a 8D       		.byte	0x8d
 3731 0d5b CE000000 		.4byte	0xce
 3732 0d5f 05       		.uleb128 0x5
 3733 0d60 03       		.byte	0x3
 3734 0d61 00000000 		.4byte	mag_z_g
 3735 0d65 1F       		.uleb128 0x1f
 3736 0d66 27060000 		.4byte	.LASF184
 3737 0d6a 01       		.byte	0x1
ARM GAS  C:\Users\Sven\AppData\Local\Temp\ccvvqGJt.s 			page 86


 3738 0d6b 90       		.byte	0x90
 3739 0d6c 26010000 		.4byte	0x126
 3740 0d70 05       		.uleb128 0x5
 3741 0d71 03       		.byte	0x3
 3742 0d72 00000000 		.4byte	Theta
 3743 0d76 1F       		.uleb128 0x1f
 3744 0d77 D8050000 		.4byte	.LASF185
 3745 0d7b 01       		.byte	0x1
 3746 0d7c 90       		.byte	0x90
 3747 0d7d 26010000 		.4byte	0x126
 3748 0d81 05       		.uleb128 0x5
 3749 0d82 03       		.byte	0x3
 3750 0d83 00000000 		.4byte	Theta_Mav
 3751 0d87 1F       		.uleb128 0x1f
 3752 0d88 A1060000 		.4byte	.LASF186
 3753 0d8c 01       		.byte	0x1
 3754 0d8d 90       		.byte	0x90
 3755 0d8e 26010000 		.4byte	0x126
 3756 0d92 05       		.uleb128 0x5
 3757 0d93 03       		.byte	0x3
 3758 0d94 00000000 		.4byte	Theta_acc
 3759 0d98 21       		.uleb128 0x21
 3760 0d99 50686900 		.ascii	"Phi\000"
 3761 0d9d 01       		.byte	0x1
 3762 0d9e 91       		.byte	0x91
 3763 0d9f 26010000 		.4byte	0x126
 3764 0da3 05       		.uleb128 0x5
 3765 0da4 03       		.byte	0x3
 3766 0da5 00000000 		.4byte	Phi
 3767 0da9 1F       		.uleb128 0x1f
 3768 0daa 9E030000 		.4byte	.LASF187
 3769 0dae 01       		.byte	0x1
 3770 0daf 91       		.byte	0x91
 3771 0db0 26010000 		.4byte	0x126
 3772 0db4 05       		.uleb128 0x5
 3773 0db5 03       		.byte	0x3
 3774 0db6 00000000 		.4byte	Phi_Mav
 3775 0dba 1F       		.uleb128 0x1f
 3776 0dbb A2040000 		.4byte	.LASF188
 3777 0dbf 01       		.byte	0x1
 3778 0dc0 91       		.byte	0x91
 3779 0dc1 26010000 		.4byte	0x126
 3780 0dc5 05       		.uleb128 0x5
 3781 0dc6 03       		.byte	0x3
 3782 0dc7 00000000 		.4byte	Phi_acc
 3783 0dcb 21       		.uleb128 0x21
 3784 0dcc 50736900 		.ascii	"Psi\000"
 3785 0dd0 01       		.byte	0x1
 3786 0dd1 92       		.byte	0x92
 3787 0dd2 26010000 		.4byte	0x126
 3788 0dd6 05       		.uleb128 0x5
 3789 0dd7 03       		.byte	0x3
 3790 0dd8 00000000 		.4byte	Psi
 3791 0ddc 1F       		.uleb128 0x1f
 3792 0ddd EF0F0000 		.4byte	.LASF189
 3793 0de1 01       		.byte	0x1
 3794 0de2 92       		.byte	0x92
ARM GAS  C:\Users\Sven\AppData\Local\Temp\ccvvqGJt.s 			page 87


 3795 0de3 26010000 		.4byte	0x126
 3796 0de7 05       		.uleb128 0x5
 3797 0de8 03       		.byte	0x3
 3798 0de9 00000000 		.4byte	Psi_acc
 3799 0ded 1F       		.uleb128 0x1f
 3800 0dee 1C0B0000 		.4byte	.LASF190
 3801 0df2 01       		.byte	0x1
 3802 0df3 95       		.byte	0x95
 3803 0df4 E4000000 		.4byte	0xe4
 3804 0df8 05       		.uleb128 0x5
 3805 0df9 03       		.byte	0x3
 3806 0dfa 00000000 		.4byte	Mag_Heading
 3807 0dfe 1F       		.uleb128 0x1f
 3808 0dff 96040000 		.4byte	.LASF191
 3809 0e03 01       		.byte	0x1
 3810 0e04 96       		.byte	0x96
 3811 0e05 26010000 		.4byte	0x126
 3812 0e09 05       		.uleb128 0x5
 3813 0e0a 03       		.byte	0x3
 3814 0e0b 00000000 		.4byte	Mag_x
 3815 0e0f 1F       		.uleb128 0x1f
 3816 0e10 9C040000 		.4byte	.LASF192
 3817 0e14 01       		.byte	0x1
 3818 0e15 96       		.byte	0x96
 3819 0e16 26010000 		.4byte	0x126
 3820 0e1a 05       		.uleb128 0x5
 3821 0e1b 03       		.byte	0x3
 3822 0e1c 00000000 		.4byte	Mag_y
 3823 0e20 1F       		.uleb128 0x1f
 3824 0e21 080B0000 		.4byte	.LASF193
 3825 0e25 01       		.byte	0x1
 3826 0e26 99       		.byte	0x99
 3827 0e27 E4000000 		.4byte	0xe4
 3828 0e2b 05       		.uleb128 0x5
 3829 0e2c 03       		.byte	0x3
 3830 0e2d 00000000 		.4byte	Bar_press
 3831 0e31 1F       		.uleb128 0x1f
 3832 0e32 7A030000 		.4byte	.LASF194
 3833 0e36 01       		.byte	0x1
 3834 0e37 9F       		.byte	0x9f
 3835 0e38 D9000000 		.4byte	0xd9
 3836 0e3c 05       		.uleb128 0x5
 3837 0e3d 03       		.byte	0x3
 3838 0e3e 00000000 		.4byte	speed_offset
 3839 0e42 1F       		.uleb128 0x1f
 3840 0e43 3A020000 		.4byte	.LASF144
 3841 0e47 01       		.byte	0x1
 3842 0e48 A0       		.byte	0xa0
 3843 0e49 CE000000 		.4byte	0xce
 3844 0e4d 05       		.uleb128 0x5
 3845 0e4e 03       		.byte	0x3
 3846 0e4f 00000000 		.4byte	speed
 3847 0e53 1F       		.uleb128 0x1f
 3848 0e54 B0010000 		.4byte	.LASF195
 3849 0e58 01       		.byte	0x1
 3850 0e59 A1       		.byte	0xa1
 3851 0e5a C3000000 		.4byte	0xc3
ARM GAS  C:\Users\Sven\AppData\Local\Temp\ccvvqGJt.s 			page 88


 3852 0e5e 05       		.uleb128 0x5
 3853 0e5f 03       		.byte	0x3
 3854 0e60 00000000 		.4byte	cal_cnt
 3855 0e64 1F       		.uleb128 0x1f
 3856 0e65 3E060000 		.4byte	.LASF196
 3857 0e69 01       		.byte	0x1
 3858 0e6a A2       		.byte	0xa2
 3859 0e6b C3000000 		.4byte	0xc3
 3860 0e6f 05       		.uleb128 0x5
 3861 0e70 03       		.byte	0x3
 3862 0e71 00000000 		.4byte	speed_cal_compl
 3863 0e75 21       		.uleb128 0x21
 3864 0e76 616C7400 		.ascii	"alt\000"
 3865 0e7a 01       		.byte	0x1
 3866 0e7b A9       		.byte	0xa9
 3867 0e7c E4000000 		.4byte	0xe4
 3868 0e80 05       		.uleb128 0x5
 3869 0e81 03       		.byte	0x3
 3870 0e82 00000000 		.4byte	alt
 3871 0e86 1F       		.uleb128 0x1f
 3872 0e87 CF050000 		.4byte	.LASF197
 3873 0e8b 01       		.byte	0x1
 3874 0e8c AC       		.byte	0xac
 3875 0e8d C3000000 		.4byte	0xc3
 3876 0e91 05       		.uleb128 0x5
 3877 0e92 03       		.byte	0x3
 3878 0e93 00000000 		.4byte	cnt_baro
 3879 0e97 1F       		.uleb128 0x1f
 3880 0e98 E50A0000 		.4byte	.LASF198
 3881 0e9c 01       		.byte	0x1
 3882 0e9d AD       		.byte	0xad
 3883 0e9e E4000000 		.4byte	0xe4
 3884 0ea2 05       		.uleb128 0x5
 3885 0ea3 03       		.byte	0x3
 3886 0ea4 00000000 		.4byte	temp
 3887 0ea8 1F       		.uleb128 0x1f
 3888 0ea9 86050000 		.4byte	.LASF199
 3889 0ead 01       		.byte	0x1
 3890 0eae AE       		.byte	0xae
 3891 0eaf E4000000 		.4byte	0xe4
 3892 0eb3 05       		.uleb128 0x5
 3893 0eb4 03       		.byte	0x3
 3894 0eb5 00000000 		.4byte	press
 3895 0eb9 21       		.uleb128 0x21
 3896 0eba 51464500 		.ascii	"QFE\000"
 3897 0ebe 01       		.byte	0x1
 3898 0ebf AF       		.byte	0xaf
 3899 0ec0 E4000000 		.4byte	0xe4
 3900 0ec4 05       		.uleb128 0x5
 3901 0ec5 03       		.byte	0x3
 3902 0ec6 00000000 		.4byte	QFE
 3903 0eca 1F       		.uleb128 0x1f
 3904 0ecb EB0C0000 		.4byte	.LASF200
 3905 0ecf 01       		.byte	0x1
 3906 0ed0 B4       		.byte	0xb4
 3907 0ed1 26010000 		.4byte	0x126
 3908 0ed5 05       		.uleb128 0x5
ARM GAS  C:\Users\Sven\AppData\Local\Temp\ccvvqGJt.s 			page 89


 3909 0ed6 03       		.byte	0x3
 3910 0ed7 00000000 		.4byte	Q_angle
 3911 0edb 1F       		.uleb128 0x1f
 3912 0edc BC060000 		.4byte	.LASF201
 3913 0ee0 01       		.byte	0x1
 3914 0ee1 B5       		.byte	0xb5
 3915 0ee2 26010000 		.4byte	0x126
 3916 0ee6 05       		.uleb128 0x5
 3917 0ee7 03       		.byte	0x3
 3918 0ee8 00000000 		.4byte	Q_gyro
 3919 0eec 1F       		.uleb128 0x1f
 3920 0eed 14080000 		.4byte	.LASF202
 3921 0ef1 01       		.byte	0x1
 3922 0ef2 B6       		.byte	0xb6
 3923 0ef3 26010000 		.4byte	0x126
 3924 0ef7 05       		.uleb128 0x5
 3925 0ef8 03       		.byte	0x3
 3926 0ef9 00000000 		.4byte	R_angle
 3927 0efd 1F       		.uleb128 0x1f
 3928 0efe 2B070000 		.4byte	.LASF203
 3929 0f02 01       		.byte	0x1
 3930 0f03 B8       		.byte	0xb8
 3931 0f04 26010000 		.4byte	0x126
 3932 0f08 05       		.uleb128 0x5
 3933 0f09 03       		.byte	0x3
 3934 0f0a 00000000 		.4byte	q_bias
 3935 0f0e 0B       		.uleb128 0xb
 3936 0f0f 26010000 		.4byte	0x126
 3937 0f13 240F0000 		.4byte	0xf24
 3938 0f17 0C       		.uleb128 0xc
 3939 0f18 46010000 		.4byte	0x146
 3940 0f1c 01       		.byte	0x1
 3941 0f1d 0C       		.uleb128 0xc
 3942 0f1e 46010000 		.4byte	0x146
 3943 0f22 01       		.byte	0x1
 3944 0f23 00       		.byte	0
 3945 0f24 1F       		.uleb128 0x1f
 3946 0f25 52080000 		.4byte	.LASF204
 3947 0f29 01       		.byte	0x1
 3948 0f2a BA       		.byte	0xba
 3949 0f2b 0E0F0000 		.4byte	0xf0e
 3950 0f2f 05       		.uleb128 0x5
 3951 0f30 03       		.byte	0x3
 3952 0f31 00000000 		.4byte	P_Theta
 3953 0f35 1F       		.uleb128 0x1f
 3954 0f36 CC020000 		.4byte	.LASF205
 3955 0f3a 01       		.byte	0x1
 3956 0f3b BB       		.byte	0xbb
 3957 0f3c 26010000 		.4byte	0x126
 3958 0f40 05       		.uleb128 0x5
 3959 0f41 03       		.byte	0x3
 3960 0f42 00000000 		.4byte	Theta_temp
 3961 0f46 1F       		.uleb128 0x1f
 3962 0f47 EE0B0000 		.4byte	.LASF206
 3963 0f4b 01       		.byte	0x1
 3964 0f4c BB       		.byte	0xbb
 3965 0f4d 26010000 		.4byte	0x126
ARM GAS  C:\Users\Sven\AppData\Local\Temp\ccvvqGJt.s 			page 90


 3966 0f51 05       		.uleb128 0x5
 3967 0f52 03       		.byte	0x3
 3968 0f53 00000000 		.4byte	S_Theta
 3969 0f57 1F       		.uleb128 0x1f
 3970 0f58 4D0C0000 		.4byte	.LASF207
 3971 0f5c 01       		.byte	0x1
 3972 0f5d BB       		.byte	0xbb
 3973 0f5e 26010000 		.4byte	0x126
 3974 0f62 05       		.uleb128 0x5
 3975 0f63 03       		.byte	0x3
 3976 0f64 00000000 		.4byte	K_0_Theta
 3977 0f68 1F       		.uleb128 0x1f
 3978 0f69 0E050000 		.4byte	.LASF208
 3979 0f6d 01       		.byte	0x1
 3980 0f6e BB       		.byte	0xbb
 3981 0f6f 26010000 		.4byte	0x126
 3982 0f73 05       		.uleb128 0x5
 3983 0f74 03       		.byte	0x3
 3984 0f75 00000000 		.4byte	K_1_Theta
 3985 0f79 1F       		.uleb128 0x1f
 3986 0f7a EA0A0000 		.4byte	.LASF209
 3987 0f7e 01       		.byte	0x1
 3988 0f7f BD       		.byte	0xbd
 3989 0f80 26010000 		.4byte	0x126
 3990 0f84 05       		.uleb128 0x5
 3991 0f85 03       		.byte	0x3
 3992 0f86 00000000 		.4byte	p_bias
 3993 0f8a 1F       		.uleb128 0x1f
 3994 0f8b BA070000 		.4byte	.LASF210
 3995 0f8f 01       		.byte	0x1
 3996 0f90 BF       		.byte	0xbf
 3997 0f91 0E0F0000 		.4byte	0xf0e
 3998 0f95 05       		.uleb128 0x5
 3999 0f96 03       		.byte	0x3
 4000 0f97 00000000 		.4byte	P_Phi
 4001 0f9b 1F       		.uleb128 0x1f
 4002 0f9c 5B040000 		.4byte	.LASF211
 4003 0fa0 01       		.byte	0x1
 4004 0fa1 C0       		.byte	0xc0
 4005 0fa2 26010000 		.4byte	0x126
 4006 0fa6 05       		.uleb128 0x5
 4007 0fa7 03       		.byte	0x3
 4008 0fa8 00000000 		.4byte	Phi_temp
 4009 0fac 1F       		.uleb128 0x1f
 4010 0fad 1C080000 		.4byte	.LASF212
 4011 0fb1 01       		.byte	0x1
 4012 0fb2 C0       		.byte	0xc0
 4013 0fb3 26010000 		.4byte	0x126
 4014 0fb7 05       		.uleb128 0x5
 4015 0fb8 03       		.byte	0x3
 4016 0fb9 00000000 		.4byte	S_Phi
 4017 0fbd 1F       		.uleb128 0x1f
 4018 0fbe 49090000 		.4byte	.LASF213
 4019 0fc2 01       		.byte	0x1
 4020 0fc3 C0       		.byte	0xc0
 4021 0fc4 26010000 		.4byte	0x126
 4022 0fc8 05       		.uleb128 0x5
ARM GAS  C:\Users\Sven\AppData\Local\Temp\ccvvqGJt.s 			page 91


 4023 0fc9 03       		.byte	0x3
 4024 0fca 00000000 		.4byte	K_0_Phi
 4025 0fce 1F       		.uleb128 0x1f
 4026 0fcf 3D040000 		.4byte	.LASF214
 4027 0fd3 01       		.byte	0x1
 4028 0fd4 C0       		.byte	0xc0
 4029 0fd5 26010000 		.4byte	0x126
 4030 0fd9 05       		.uleb128 0x5
 4031 0fda 03       		.byte	0x3
 4032 0fdb 00000000 		.4byte	K_1_Phi
 4033 0fdf 1F       		.uleb128 0x1f
 4034 0fe0 FA090000 		.4byte	.LASF215
 4035 0fe4 01       		.byte	0x1
 4036 0fe5 C5       		.byte	0xc5
 4037 0fe6 C3000000 		.4byte	0xc3
 4038 0fea 05       		.uleb128 0x5
 4039 0feb 03       		.byte	0x3
 4040 0fec 00000000 		.4byte	K_d_p
 4041 0ff0 1F       		.uleb128 0x1f
 4042 0ff1 000A0000 		.4byte	.LASF216
 4043 0ff5 01       		.byte	0x1
 4044 0ff6 C6       		.byte	0xc6
 4045 0ff7 C3000000 		.4byte	0xc3
 4046 0ffb 05       		.uleb128 0x5
 4047 0ffc 03       		.byte	0x3
 4048 0ffd 00000000 		.4byte	K_d_q
 4049 1001 1F       		.uleb128 0x1f
 4050 1002 060A0000 		.4byte	.LASF217
 4051 1006 01       		.byte	0x1
 4052 1007 C7       		.byte	0xc7
 4053 1008 C3000000 		.4byte	0xc3
 4054 100c 05       		.uleb128 0x5
 4055 100d 03       		.byte	0x3
 4056 100e 00000000 		.4byte	K_d_r
 4057 1012 1F       		.uleb128 0x1f
 4058 1013 98090000 		.4byte	.LASF218
 4059 1017 01       		.byte	0x1
 4060 1018 CC       		.byte	0xcc
 4061 1019 C3000000 		.4byte	0xc3
 4062 101d 05       		.uleb128 0x5
 4063 101e 03       		.byte	0x3
 4064 101f 00000000 		.4byte	tune_cnt
 4065 1023 1F       		.uleb128 0x1f
 4066 1024 C0070000 		.4byte	.LASF219
 4067 1028 01       		.byte	0x1
 4068 1029 D1       		.byte	0xd1
 4069 102a B8000000 		.4byte	0xb8
 4070 102e 05       		.uleb128 0x5
 4071 102f 03       		.byte	0x3
 4072 1030 00000000 		.4byte	Theta_Target
 4073 1034 1F       		.uleb128 0x1f
 4074 1035 A80F0000 		.4byte	.LASF220
 4075 1039 01       		.byte	0x1
 4076 103a D2       		.byte	0xd2
 4077 103b B8000000 		.4byte	0xb8
 4078 103f 05       		.uleb128 0x5
 4079 1040 03       		.byte	0x3
ARM GAS  C:\Users\Sven\AppData\Local\Temp\ccvvqGJt.s 			page 92


 4080 1041 00000000 		.4byte	Theta_Error
 4081 1045 1F       		.uleb128 0x1f
 4082 1046 470D0000 		.4byte	.LASF221
 4083 104a 01       		.byte	0x1
 4084 104b D3       		.byte	0xd3
 4085 104c E4000000 		.4byte	0xe4
 4086 1050 05       		.uleb128 0x5
 4087 1051 03       		.byte	0x3
 4088 1052 00000000 		.4byte	Theta_Error_sum
 4089 1056 1F       		.uleb128 0x1f
 4090 1057 360B0000 		.4byte	.LASF222
 4091 105b 01       		.byte	0x1
 4092 105c D4       		.byte	0xd4
 4093 105d B8000000 		.4byte	0xb8
 4094 1061 05       		.uleb128 0x5
 4095 1062 03       		.byte	0x3
 4096 1063 00000000 		.4byte	Theta_Error_prev
 4097 1067 1F       		.uleb128 0x1f
 4098 1068 F7080000 		.4byte	.LASF223
 4099 106c 01       		.byte	0x1
 4100 106d D6       		.byte	0xd6
 4101 106e B8000000 		.4byte	0xb8
 4102 1072 05       		.uleb128 0x5
 4103 1073 03       		.byte	0x3
 4104 1074 00000000 		.4byte	Phi_Target
 4105 1078 1F       		.uleb128 0x1f
 4106 1079 61020000 		.4byte	.LASF224
 4107 107d 01       		.byte	0x1
 4108 107e D7       		.byte	0xd7
 4109 107f B8000000 		.4byte	0xb8
 4110 1083 05       		.uleb128 0x5
 4111 1084 03       		.byte	0x3
 4112 1085 00000000 		.4byte	Phi_Error
 4113 1089 1F       		.uleb128 0x1f
 4114 108a EC020000 		.4byte	.LASF225
 4115 108e 01       		.byte	0x1
 4116 108f D8       		.byte	0xd8
 4117 1090 E4000000 		.4byte	0xe4
 4118 1094 05       		.uleb128 0x5
 4119 1095 03       		.byte	0x3
 4120 1096 00000000 		.4byte	Phi_Error_sum
 4121 109a 1F       		.uleb128 0x1f
 4122 109b A4070000 		.4byte	.LASF226
 4123 109f 01       		.byte	0x1
 4124 10a0 D9       		.byte	0xd9
 4125 10a1 B8000000 		.4byte	0xb8
 4126 10a5 05       		.uleb128 0x5
 4127 10a6 03       		.byte	0x3
 4128 10a7 00000000 		.4byte	Phi_Error_prev
 4129 10ab 1F       		.uleb128 0x1f
 4130 10ac D40E0000 		.4byte	.LASF227
 4131 10b0 01       		.byte	0x1
 4132 10b1 DE       		.byte	0xde
 4133 10b2 C3000000 		.4byte	0xc3
 4134 10b6 05       		.uleb128 0x5
 4135 10b7 03       		.byte	0x3
 4136 10b8 00000000 		.4byte	Rx_char
ARM GAS  C:\Users\Sven\AppData\Local\Temp\ccvvqGJt.s 			page 93


 4137 10bc 1F       		.uleb128 0x1f
 4138 10bd 8E090000 		.4byte	.LASF228
 4139 10c1 01       		.byte	0x1
 4140 10c2 DF       		.byte	0xdf
 4141 10c3 F5030000 		.4byte	0x3f5
 4142 10c7 05       		.uleb128 0x5
 4143 10c8 03       		.byte	0x3
 4144 10c9 00000000 		.4byte	Rx_String
 4145 10cd 1F       		.uleb128 0x1f
 4146 10ce 170E0000 		.4byte	.LASF229
 4147 10d2 01       		.byte	0x1
 4148 10d3 E0       		.byte	0xe0
 4149 10d4 C3000000 		.4byte	0xc3
 4150 10d8 05       		.uleb128 0x5
 4151 10d9 03       		.byte	0x3
 4152 10da 00000000 		.4byte	Rx_index
 4153 10de 1F       		.uleb128 0x1f
 4154 10df 690D0000 		.4byte	.LASF230
 4155 10e3 01       		.byte	0x1
 4156 10e4 E1       		.byte	0xe1
 4157 10e5 C3000000 		.4byte	0xc3
 4158 10e9 05       		.uleb128 0x5
 4159 10ea 03       		.byte	0x3
 4160 10eb 00000000 		.4byte	Rx_flag
 4161 10ef 1F       		.uleb128 0x1f
 4162 10f0 F3040000 		.4byte	.LASF231
 4163 10f4 01       		.byte	0x1
 4164 10f5 E7       		.byte	0xe7
 4165 10f6 8A010000 		.4byte	0x18a
 4166 10fa 05       		.uleb128 0x5
 4167 10fb 03       		.byte	0x3
 4168 10fc 00000000 		.4byte	mavlink_system
 4169 1100 1F       		.uleb128 0x1f
 4170 1101 21030000 		.4byte	.LASF232
 4171 1105 01       		.byte	0x1
 4172 1106 E9       		.byte	0xe9
 4173 1107 C3000000 		.4byte	0xc3
 4174 110b 05       		.uleb128 0x5
 4175 110c 03       		.byte	0x3
 4176 110d 00000000 		.4byte	system_type
 4177 1111 1F       		.uleb128 0x1f
 4178 1112 21020000 		.4byte	.LASF233
 4179 1116 01       		.byte	0x1
 4180 1117 EA       		.byte	0xea
 4181 1118 C3000000 		.4byte	0xc3
 4182 111c 05       		.uleb128 0x5
 4183 111d 03       		.byte	0x3
 4184 111e 00000000 		.4byte	autopilot_type
 4185 1122 1F       		.uleb128 0x1f
 4186 1123 EC050000 		.4byte	.LASF234
 4187 1127 01       		.byte	0x1
 4188 1128 EC       		.byte	0xec
 4189 1129 C3000000 		.4byte	0xc3
 4190 112d 05       		.uleb128 0x5
 4191 112e 03       		.byte	0x3
 4192 112f 00000000 		.4byte	system_mode
 4193 1133 1F       		.uleb128 0x1f
ARM GAS  C:\Users\Sven\AppData\Local\Temp\ccvvqGJt.s 			page 94


 4194 1134 F30C0000 		.4byte	.LASF235
 4195 1138 01       		.byte	0x1
 4196 1139 ED       		.byte	0xed
 4197 113a EF000000 		.4byte	0xef
 4198 113e 05       		.uleb128 0x5
 4199 113f 03       		.byte	0x3
 4200 1140 00000000 		.4byte	custom_mode
 4201 1144 1F       		.uleb128 0x1f
 4202 1145 3A010000 		.4byte	.LASF236
 4203 1149 01       		.byte	0x1
 4204 114a EE       		.byte	0xee
 4205 114b C3000000 		.4byte	0xc3
 4206 114f 05       		.uleb128 0x5
 4207 1150 03       		.byte	0x3
 4208 1151 00000000 		.4byte	system_state
 4209 1155 21       		.uleb128 0x21
 4210 1156 6D736700 		.ascii	"msg\000"
 4211 115a 01       		.byte	0x1
 4212 115b F1       		.byte	0xf1
 4213 115c 13020000 		.4byte	0x213
 4214 1160 05       		.uleb128 0x5
 4215 1161 03       		.byte	0x3
 4216 1162 00000000 		.4byte	msg
 4217 1166 0B       		.uleb128 0xb
 4218 1167 C3000000 		.4byte	0xc3
 4219 116b 77110000 		.4byte	0x1177
 4220 116f 22       		.uleb128 0x22
 4221 1170 46010000 		.4byte	0x146
 4222 1174 0601     		.2byte	0x106
 4223 1176 00       		.byte	0
 4224 1177 21       		.uleb128 0x21
 4225 1178 62756600 		.ascii	"buf\000"
 4226 117c 01       		.byte	0x1
 4227 117d F2       		.byte	0xf2
 4228 117e 66110000 		.4byte	0x1166
 4229 1182 05       		.uleb128 0x5
 4230 1183 03       		.byte	0x3
 4231 1184 00000000 		.4byte	buf
 4232 1188 1F       		.uleb128 0x1f
 4233 1189 AB050000 		.4byte	.LASF237
 4234 118d 01       		.byte	0x1
 4235 118e F4       		.byte	0xf4
 4236 118f C3000000 		.4byte	0xc3
 4237 1193 05       		.uleb128 0x5
 4238 1194 03       		.byte	0x3
 4239 1195 00000000 		.4byte	cnt_ML_HEARTBEAT_send
 4240 1199 1F       		.uleb128 0x1f
 4241 119a 47010000 		.4byte	.LASF238
 4242 119e 01       		.byte	0x1
 4243 119f F5       		.byte	0xf5
 4244 11a0 C3000000 		.4byte	0xc3
 4245 11a4 05       		.uleb128 0x5
 4246 11a5 03       		.byte	0x3
 4247 11a6 00000000 		.4byte	cnt_ML_ATTITUDE_send
 4248 11aa 23       		.uleb128 0x23
 4249 11ab A1090000 		.4byte	.LASF241
 4250 11af 08       		.byte	0x8
ARM GAS  C:\Users\Sven\AppData\Local\Temp\ccvvqGJt.s 			page 95


 4251 11b0 D9       		.byte	0xd9
 4252 11b1 AA000000 		.4byte	0xaa
 4253 11b5 C5110000 		.4byte	0x11c5
 4254 11b9 24       		.uleb128 0x24
 4255 11ba 4D010000 		.4byte	0x14d
 4256 11be 24       		.uleb128 0x24
 4257 11bf 53010000 		.4byte	0x153
 4258 11c3 25       		.uleb128 0x25
 4259 11c4 00       		.byte	0
 4260 11c5 26       		.uleb128 0x26
 4261 11c6 9B010000 		.4byte	.LASF239
 4262 11ca 07       		.byte	0x7
 4263 11cb 6801     		.2byte	0x168
 4264 11cd D7110000 		.4byte	0x11d7
 4265 11d1 24       		.uleb128 0x24
 4266 11d2 D7110000 		.4byte	0x11d7
 4267 11d6 00       		.byte	0
 4268 11d7 05       		.uleb128 0x5
 4269 11d8 04       		.byte	0x4
 4270 11d9 DD110000 		.4byte	0x11dd
 4271 11dd 06       		.uleb128 0x6
 4272 11de 34010000 		.4byte	0x134
 4273 11e2 26       		.uleb128 0x26
 4274 11e3 FA010000 		.4byte	.LASF240
 4275 11e7 07       		.byte	0x7
 4276 11e8 7D01     		.2byte	0x17d
 4277 11ea F4110000 		.4byte	0x11f4
 4278 11ee 24       		.uleb128 0x24
 4279 11ef 10010000 		.4byte	0x110
 4280 11f3 00       		.byte	0
 4281 11f4 27       		.uleb128 0x27
 4282 11f5 DD0B0000 		.4byte	.LASF243
 4283 11f9 09       		.byte	0x9
 4284 11fa 9C       		.byte	0x9c
 4285 11fb 23       		.uleb128 0x23
 4286 11fc 940C0000 		.4byte	.LASF242
 4287 1200 09       		.byte	0x9
 4288 1201 9F       		.byte	0x9f
 4289 1202 1B010000 		.4byte	0x11b
 4290 1206 10120000 		.4byte	0x1210
 4291 120a 24       		.uleb128 0x24
 4292 120b 10010000 		.4byte	0x110
 4293 120f 00       		.byte	0
 4294 1210 27       		.uleb128 0x27
 4295 1211 A50D0000 		.4byte	.LASF244
 4296 1215 09       		.byte	0x9
 4297 1216 9D       		.byte	0x9d
 4298 1217 28       		.uleb128 0x28
 4299 1218 26000000 		.4byte	.LASF245
 4300 121c 0A       		.byte	0xa
 4301 121d 7B       		.byte	0x7b
 4302 121e 28120000 		.4byte	0x1228
 4303 1222 24       		.uleb128 0x24
 4304 1223 10010000 		.4byte	0x110
 4305 1227 00       		.byte	0
 4306 1228 27       		.uleb128 0x27
 4307 1229 950B0000 		.4byte	.LASF246
ARM GAS  C:\Users\Sven\AppData\Local\Temp\ccvvqGJt.s 			page 96


 4308 122d 0B       		.byte	0xb
 4309 122e 65       		.byte	0x65
 4310 122f 27       		.uleb128 0x27
 4311 1230 FF0C0000 		.4byte	.LASF247
 4312 1234 0C       		.byte	0xc
 4313 1235 65       		.byte	0x65
 4314 1236 27       		.uleb128 0x27
 4315 1237 AA040000 		.4byte	.LASF248
 4316 123b 09       		.byte	0x9
 4317 123c 98       		.byte	0x98
 4318 123d 28       		.uleb128 0x28
 4319 123e 570D0000 		.4byte	.LASF249
 4320 1242 0A       		.byte	0xa
 4321 1243 3C       		.byte	0x3c
 4322 1244 53120000 		.4byte	0x1253
 4323 1248 24       		.uleb128 0x24
 4324 1249 10010000 		.4byte	0x110
 4325 124d 24       		.uleb128 0x24
 4326 124e 10010000 		.4byte	0x110
 4327 1252 00       		.byte	0
 4328 1253 28       		.uleb128 0x28
 4329 1254 720B0000 		.4byte	.LASF250
 4330 1258 0A       		.byte	0xa
 4331 1259 45       		.byte	0x45
 4332 125a 69120000 		.4byte	0x1269
 4333 125e 24       		.uleb128 0x24
 4334 125f 10010000 		.4byte	0x110
 4335 1263 24       		.uleb128 0x24
 4336 1264 10010000 		.4byte	0x110
 4337 1268 00       		.byte	0
 4338 1269 29       		.uleb128 0x29
 4339 126a 1A010000 		.4byte	.LASF251
 4340 126e 0D       		.byte	0xd
 4341 126f 3101     		.2byte	0x131
 4342 1271 29       		.uleb128 0x29
 4343 1272 DE080000 		.4byte	.LASF252
 4344 1276 0E       		.byte	0xe
 4345 1277 3101     		.2byte	0x131
 4346 1279 29       		.uleb128 0x29
 4347 127a 150C0000 		.4byte	.LASF253
 4348 127e 0F       		.byte	0xf
 4349 127f 3101     		.2byte	0x131
 4350 1281 29       		.uleb128 0x29
 4351 1282 E8060000 		.4byte	.LASF254
 4352 1286 10       		.byte	0x10
 4353 1287 3101     		.2byte	0x131
 4354 1289 27       		.uleb128 0x27
 4355 128a F4000000 		.4byte	.LASF255
 4356 128e 11       		.byte	0x11
 4357 128f 17       		.byte	0x17
 4358 1290 27       		.uleb128 0x27
 4359 1291 51090000 		.4byte	.LASF256
 4360 1295 12       		.byte	0x12
 4361 1296 17       		.byte	0x17
 4362 1297 27       		.uleb128 0x27
 4363 1298 990F0000 		.4byte	.LASF257
 4364 129c 13       		.byte	0x13
ARM GAS  C:\Users\Sven\AppData\Local\Temp\ccvvqGJt.s 			page 97


 4365 129d 17       		.byte	0x17
 4366 129e 27       		.uleb128 0x27
 4367 129f BC0C0000 		.4byte	.LASF258
 4368 12a3 14       		.byte	0x14
 4369 12a4 17       		.byte	0x17
 4370 12a5 27       		.uleb128 0x27
 4371 12a6 320A0000 		.4byte	.LASF259
 4372 12aa 15       		.byte	0x15
 4373 12ab 17       		.byte	0x17
 4374 12ac 27       		.uleb128 0x27
 4375 12ad 0A0E0000 		.4byte	.LASF260
 4376 12b1 16       		.byte	0x16
 4377 12b2 A6       		.byte	0xa6
 4378 12b3 27       		.uleb128 0x27
 4379 12b4 4B0E0000 		.4byte	.LASF261
 4380 12b8 17       		.byte	0x17
 4381 12b9 22       		.byte	0x22
 4382 12ba 27       		.uleb128 0x27
 4383 12bb 6F0E0000 		.4byte	.LASF262
 4384 12bf 17       		.byte	0x17
 4385 12c0 24       		.byte	0x24
 4386 12c1 2A       		.uleb128 0x2a
 4387 12c2 B90F0000 		.4byte	.LASF264
 4388 12c6 17       		.byte	0x17
 4389 12c7 25       		.byte	0x25
 4390 12c8 E4000000 		.4byte	0xe4
 4391 12cc 27       		.uleb128 0x27
 4392 12cd 570C0000 		.4byte	.LASF263
 4393 12d1 17       		.byte	0x17
 4394 12d2 27       		.byte	0x27
 4395 12d3 2A       		.uleb128 0x2a
 4396 12d4 DA000000 		.4byte	.LASF265
 4397 12d8 17       		.byte	0x17
 4398 12d9 28       		.byte	0x28
 4399 12da E4000000 		.4byte	0xe4
 4400 12de 28       		.uleb128 0x28
 4401 12df 230A0000 		.4byte	.LASF266
 4402 12e3 0A       		.byte	0xa
 4403 12e4 41       		.byte	0x41
 4404 12e5 EF120000 		.4byte	0x12ef
 4405 12e9 24       		.uleb128 0x24
 4406 12ea 10010000 		.4byte	0x110
 4407 12ee 00       		.byte	0
 4408 12ef 26       		.uleb128 0x26
 4409 12f0 B50B0000 		.4byte	.LASF267
 4410 12f4 0E       		.byte	0xe
 4411 12f5 5401     		.2byte	0x154
 4412 12f7 01130000 		.4byte	0x1301
 4413 12fb 24       		.uleb128 0x24
 4414 12fc 10010000 		.4byte	0x110
 4415 1300 00       		.byte	0
 4416 1301 28       		.uleb128 0x28
 4417 1302 DA0D0000 		.4byte	.LASF268
 4418 1306 18       		.byte	0x18
 4419 1307 1D       		.byte	0x1d
 4420 1308 12130000 		.4byte	0x1312
 4421 130c 24       		.uleb128 0x24
ARM GAS  C:\Users\Sven\AppData\Local\Temp\ccvvqGJt.s 			page 98


 4422 130d 05010000 		.4byte	0x105
 4423 1311 00       		.byte	0
 4424 1312 28       		.uleb128 0x28
 4425 1313 710D0000 		.4byte	.LASF269
 4426 1317 19       		.byte	0x19
 4427 1318 1D       		.byte	0x1d
 4428 1319 23130000 		.4byte	0x1323
 4429 131d 24       		.uleb128 0x24
 4430 131e 05010000 		.4byte	0x105
 4431 1322 00       		.byte	0
 4432 1323 27       		.uleb128 0x27
 4433 1324 7F000000 		.4byte	.LASF270
 4434 1328 16       		.byte	0x16
 4435 1329 A9       		.byte	0xa9
 4436 132a 23       		.uleb128 0x23
 4437 132b A40C0000 		.4byte	.LASF271
 4438 132f 1A       		.byte	0x1a
 4439 1330 7E       		.byte	0x7e
 4440 1331 2D010000 		.4byte	0x12d
 4441 1335 44130000 		.4byte	0x1344
 4442 1339 24       		.uleb128 0x24
 4443 133a 2D010000 		.4byte	0x12d
 4444 133e 24       		.uleb128 0x24
 4445 133f 2D010000 		.4byte	0x12d
 4446 1343 00       		.byte	0
 4447 1344 23       		.uleb128 0x23
 4448 1345 D80F0000 		.4byte	.LASF272
 4449 1349 1B       		.byte	0x1b
 4450 134a 1C       		.byte	0x1c
 4451 134b AA000000 		.4byte	0xaa
 4452 134f 5E130000 		.4byte	0x135e
 4453 1353 24       		.uleb128 0x24
 4454 1354 53010000 		.4byte	0x153
 4455 1358 24       		.uleb128 0x24
 4456 1359 53010000 		.4byte	0x153
 4457 135d 00       		.byte	0
 4458 135e 27       		.uleb128 0x27
 4459 135f 6F040000 		.4byte	.LASF273
 4460 1363 1C       		.byte	0x1c
 4461 1364 58       		.byte	0x58
 4462 1365 28       		.uleb128 0x28
 4463 1366 7A070000 		.4byte	.LASF274
 4464 136a 0A       		.byte	0xa
 4465 136b 4C       		.byte	0x4c
 4466 136c 76130000 		.4byte	0x1376
 4467 1370 24       		.uleb128 0x24
 4468 1371 10010000 		.4byte	0x110
 4469 1375 00       		.byte	0
 4470 1376 2B       		.uleb128 0x2b
 4471 1377 900A0000 		.4byte	.LASF275
 4472 137b 07       		.byte	0x7
 4473 137c 5B01     		.2byte	0x15b
 4474 137e 10010000 		.4byte	0x110
 4475 1382 00       		.byte	0
 4476              		.section	.debug_abbrev,"",%progbits
 4477              	.Ldebug_abbrev0:
 4478 0000 01       		.uleb128 0x1
ARM GAS  C:\Users\Sven\AppData\Local\Temp\ccvvqGJt.s 			page 99


 4479 0001 11       		.uleb128 0x11
 4480 0002 01       		.byte	0x1
 4481 0003 25       		.uleb128 0x25
 4482 0004 0E       		.uleb128 0xe
 4483 0005 13       		.uleb128 0x13
 4484 0006 0B       		.uleb128 0xb
 4485 0007 03       		.uleb128 0x3
 4486 0008 0E       		.uleb128 0xe
 4487 0009 1B       		.uleb128 0x1b
 4488 000a 0E       		.uleb128 0xe
 4489 000b 55       		.uleb128 0x55
 4490 000c 17       		.uleb128 0x17
 4491 000d 11       		.uleb128 0x11
 4492 000e 01       		.uleb128 0x1
 4493 000f 10       		.uleb128 0x10
 4494 0010 17       		.uleb128 0x17
 4495 0011 00       		.byte	0
 4496 0012 00       		.byte	0
 4497 0013 02       		.uleb128 0x2
 4498 0014 16       		.uleb128 0x16
 4499 0015 00       		.byte	0
 4500 0016 03       		.uleb128 0x3
 4501 0017 0E       		.uleb128 0xe
 4502 0018 3A       		.uleb128 0x3a
 4503 0019 0B       		.uleb128 0xb
 4504 001a 3B       		.uleb128 0x3b
 4505 001b 0B       		.uleb128 0xb
 4506 001c 49       		.uleb128 0x49
 4507 001d 13       		.uleb128 0x13
 4508 001e 00       		.byte	0
 4509 001f 00       		.byte	0
 4510 0020 03       		.uleb128 0x3
 4511 0021 24       		.uleb128 0x24
 4512 0022 00       		.byte	0
 4513 0023 0B       		.uleb128 0xb
 4514 0024 0B       		.uleb128 0xb
 4515 0025 3E       		.uleb128 0x3e
 4516 0026 0B       		.uleb128 0xb
 4517 0027 03       		.uleb128 0x3
 4518 0028 0E       		.uleb128 0xe
 4519 0029 00       		.byte	0
 4520 002a 00       		.byte	0
 4521 002b 04       		.uleb128 0x4
 4522 002c 24       		.uleb128 0x24
 4523 002d 00       		.byte	0
 4524 002e 0B       		.uleb128 0xb
 4525 002f 0B       		.uleb128 0xb
 4526 0030 3E       		.uleb128 0x3e
 4527 0031 0B       		.uleb128 0xb
 4528 0032 03       		.uleb128 0x3
 4529 0033 08       		.uleb128 0x8
 4530 0034 00       		.byte	0
 4531 0035 00       		.byte	0
 4532 0036 05       		.uleb128 0x5
 4533 0037 0F       		.uleb128 0xf
 4534 0038 00       		.byte	0
 4535 0039 0B       		.uleb128 0xb
ARM GAS  C:\Users\Sven\AppData\Local\Temp\ccvvqGJt.s 			page 100


 4536 003a 0B       		.uleb128 0xb
 4537 003b 49       		.uleb128 0x49
 4538 003c 13       		.uleb128 0x13
 4539 003d 00       		.byte	0
 4540 003e 00       		.byte	0
 4541 003f 06       		.uleb128 0x6
 4542 0040 26       		.uleb128 0x26
 4543 0041 00       		.byte	0
 4544 0042 49       		.uleb128 0x49
 4545 0043 13       		.uleb128 0x13
 4546 0044 00       		.byte	0
 4547 0045 00       		.byte	0
 4548 0046 07       		.uleb128 0x7
 4549 0047 13       		.uleb128 0x13
 4550 0048 01       		.byte	0x1
 4551 0049 03       		.uleb128 0x3
 4552 004a 0E       		.uleb128 0xe
 4553 004b 0B       		.uleb128 0xb
 4554 004c 0B       		.uleb128 0xb
 4555 004d 3A       		.uleb128 0x3a
 4556 004e 0B       		.uleb128 0xb
 4557 004f 3B       		.uleb128 0x3b
 4558 0050 0B       		.uleb128 0xb
 4559 0051 01       		.uleb128 0x1
 4560 0052 13       		.uleb128 0x13
 4561 0053 00       		.byte	0
 4562 0054 00       		.byte	0
 4563 0055 08       		.uleb128 0x8
 4564 0056 0D       		.uleb128 0xd
 4565 0057 00       		.byte	0
 4566 0058 03       		.uleb128 0x3
 4567 0059 0E       		.uleb128 0xe
 4568 005a 3A       		.uleb128 0x3a
 4569 005b 0B       		.uleb128 0xb
 4570 005c 3B       		.uleb128 0x3b
 4571 005d 0B       		.uleb128 0xb
 4572 005e 49       		.uleb128 0x49
 4573 005f 13       		.uleb128 0x13
 4574 0060 38       		.uleb128 0x38
 4575 0061 0B       		.uleb128 0xb
 4576 0062 00       		.byte	0
 4577 0063 00       		.byte	0
 4578 0064 09       		.uleb128 0x9
 4579 0065 13       		.uleb128 0x13
 4580 0066 01       		.byte	0x1
 4581 0067 03       		.uleb128 0x3
 4582 0068 0E       		.uleb128 0xe
 4583 0069 0B       		.uleb128 0xb
 4584 006a 05       		.uleb128 0x5
 4585 006b 3A       		.uleb128 0x3a
 4586 006c 0B       		.uleb128 0xb
 4587 006d 3B       		.uleb128 0x3b
 4588 006e 0B       		.uleb128 0xb
 4589 006f 01       		.uleb128 0x1
 4590 0070 13       		.uleb128 0x13
 4591 0071 00       		.byte	0
 4592 0072 00       		.byte	0
ARM GAS  C:\Users\Sven\AppData\Local\Temp\ccvvqGJt.s 			page 101


 4593 0073 0A       		.uleb128 0xa
 4594 0074 0D       		.uleb128 0xd
 4595 0075 00       		.byte	0
 4596 0076 03       		.uleb128 0x3
 4597 0077 08       		.uleb128 0x8
 4598 0078 3A       		.uleb128 0x3a
 4599 0079 0B       		.uleb128 0xb
 4600 007a 3B       		.uleb128 0x3b
 4601 007b 0B       		.uleb128 0xb
 4602 007c 49       		.uleb128 0x49
 4603 007d 13       		.uleb128 0x13
 4604 007e 38       		.uleb128 0x38
 4605 007f 0B       		.uleb128 0xb
 4606 0080 00       		.byte	0
 4607 0081 00       		.byte	0
 4608 0082 0B       		.uleb128 0xb
 4609 0083 01       		.uleb128 0x1
 4610 0084 01       		.byte	0x1
 4611 0085 49       		.uleb128 0x49
 4612 0086 13       		.uleb128 0x13
 4613 0087 01       		.uleb128 0x1
 4614 0088 13       		.uleb128 0x13
 4615 0089 00       		.byte	0
 4616 008a 00       		.byte	0
 4617 008b 0C       		.uleb128 0xc
 4618 008c 21       		.uleb128 0x21
 4619 008d 00       		.byte	0
 4620 008e 49       		.uleb128 0x49
 4621 008f 13       		.uleb128 0x13
 4622 0090 2F       		.uleb128 0x2f
 4623 0091 0B       		.uleb128 0xb
 4624 0092 00       		.byte	0
 4625 0093 00       		.byte	0
 4626 0094 0D       		.uleb128 0xd
 4627 0095 04       		.uleb128 0x4
 4628 0096 01       		.byte	0x1
 4629 0097 03       		.uleb128 0x3
 4630 0098 0E       		.uleb128 0xe
 4631 0099 0B       		.uleb128 0xb
 4632 009a 0B       		.uleb128 0xb
 4633 009b 3A       		.uleb128 0x3a
 4634 009c 0B       		.uleb128 0xb
 4635 009d 3B       		.uleb128 0x3b
 4636 009e 0B       		.uleb128 0xb
 4637 009f 01       		.uleb128 0x1
 4638 00a0 13       		.uleb128 0x13
 4639 00a1 00       		.byte	0
 4640 00a2 00       		.byte	0
 4641 00a3 0E       		.uleb128 0xe
 4642 00a4 28       		.uleb128 0x28
 4643 00a5 00       		.byte	0
 4644 00a6 03       		.uleb128 0x3
 4645 00a7 0E       		.uleb128 0xe
 4646 00a8 1C       		.uleb128 0x1c
 4647 00a9 0D       		.uleb128 0xd
 4648 00aa 00       		.byte	0
 4649 00ab 00       		.byte	0
ARM GAS  C:\Users\Sven\AppData\Local\Temp\ccvvqGJt.s 			page 102


 4650 00ac 0F       		.uleb128 0xf
 4651 00ad 2E       		.uleb128 0x2e
 4652 00ae 01       		.byte	0x1
 4653 00af 3F       		.uleb128 0x3f
 4654 00b0 19       		.uleb128 0x19
 4655 00b1 03       		.uleb128 0x3
 4656 00b2 0E       		.uleb128 0xe
 4657 00b3 3A       		.uleb128 0x3a
 4658 00b4 0B       		.uleb128 0xb
 4659 00b5 3B       		.uleb128 0x3b
 4660 00b6 0B       		.uleb128 0xb
 4661 00b7 27       		.uleb128 0x27
 4662 00b8 19       		.uleb128 0x19
 4663 00b9 11       		.uleb128 0x11
 4664 00ba 01       		.uleb128 0x1
 4665 00bb 12       		.uleb128 0x12
 4666 00bc 06       		.uleb128 0x6
 4667 00bd 40       		.uleb128 0x40
 4668 00be 18       		.uleb128 0x18
 4669 00bf 9742     		.uleb128 0x2117
 4670 00c1 19       		.uleb128 0x19
 4671 00c2 01       		.uleb128 0x1
 4672 00c3 13       		.uleb128 0x13
 4673 00c4 00       		.byte	0
 4674 00c5 00       		.byte	0
 4675 00c6 10       		.uleb128 0x10
 4676 00c7 05       		.uleb128 0x5
 4677 00c8 00       		.byte	0
 4678 00c9 03       		.uleb128 0x3
 4679 00ca 08       		.uleb128 0x8
 4680 00cb 3A       		.uleb128 0x3a
 4681 00cc 0B       		.uleb128 0xb
 4682 00cd 3B       		.uleb128 0x3b
 4683 00ce 0B       		.uleb128 0xb
 4684 00cf 49       		.uleb128 0x49
 4685 00d0 13       		.uleb128 0x13
 4686 00d1 02       		.uleb128 0x2
 4687 00d2 17       		.uleb128 0x17
 4688 00d3 00       		.byte	0
 4689 00d4 00       		.byte	0
 4690 00d5 11       		.uleb128 0x11
 4691 00d6 34       		.uleb128 0x34
 4692 00d7 00       		.byte	0
 4693 00d8 03       		.uleb128 0x3
 4694 00d9 08       		.uleb128 0x8
 4695 00da 3A       		.uleb128 0x3a
 4696 00db 0B       		.uleb128 0xb
 4697 00dc 3B       		.uleb128 0x3b
 4698 00dd 0B       		.uleb128 0xb
 4699 00de 49       		.uleb128 0x49
 4700 00df 13       		.uleb128 0x13
 4701 00e0 02       		.uleb128 0x2
 4702 00e1 18       		.uleb128 0x18
 4703 00e2 00       		.byte	0
 4704 00e3 00       		.byte	0
 4705 00e4 12       		.uleb128 0x12
 4706 00e5 898201   		.uleb128 0x4109
ARM GAS  C:\Users\Sven\AppData\Local\Temp\ccvvqGJt.s 			page 103


 4707 00e8 01       		.byte	0x1
 4708 00e9 11       		.uleb128 0x11
 4709 00ea 01       		.uleb128 0x1
 4710 00eb 31       		.uleb128 0x31
 4711 00ec 13       		.uleb128 0x13
 4712 00ed 01       		.uleb128 0x1
 4713 00ee 13       		.uleb128 0x13
 4714 00ef 00       		.byte	0
 4715 00f0 00       		.byte	0
 4716 00f1 13       		.uleb128 0x13
 4717 00f2 8A8201   		.uleb128 0x410a
 4718 00f5 00       		.byte	0
 4719 00f6 02       		.uleb128 0x2
 4720 00f7 18       		.uleb128 0x18
 4721 00f8 9142     		.uleb128 0x2111
 4722 00fa 18       		.uleb128 0x18
 4723 00fb 00       		.byte	0
 4724 00fc 00       		.byte	0
 4725 00fd 14       		.uleb128 0x14
 4726 00fe 898201   		.uleb128 0x4109
 4727 0101 01       		.byte	0x1
 4728 0102 11       		.uleb128 0x11
 4729 0103 01       		.uleb128 0x1
 4730 0104 31       		.uleb128 0x31
 4731 0105 13       		.uleb128 0x13
 4732 0106 00       		.byte	0
 4733 0107 00       		.byte	0
 4734 0108 15       		.uleb128 0x15
 4735 0109 2E       		.uleb128 0x2e
 4736 010a 01       		.byte	0x1
 4737 010b 3F       		.uleb128 0x3f
 4738 010c 19       		.uleb128 0x19
 4739 010d 03       		.uleb128 0x3
 4740 010e 0E       		.uleb128 0xe
 4741 010f 3A       		.uleb128 0x3a
 4742 0110 0B       		.uleb128 0xb
 4743 0111 3B       		.uleb128 0x3b
 4744 0112 05       		.uleb128 0x5
 4745 0113 27       		.uleb128 0x27
 4746 0114 19       		.uleb128 0x19
 4747 0115 11       		.uleb128 0x11
 4748 0116 01       		.uleb128 0x1
 4749 0117 12       		.uleb128 0x12
 4750 0118 06       		.uleb128 0x6
 4751 0119 40       		.uleb128 0x40
 4752 011a 18       		.uleb128 0x18
 4753 011b 9742     		.uleb128 0x2117
 4754 011d 19       		.uleb128 0x19
 4755 011e 01       		.uleb128 0x1
 4756 011f 13       		.uleb128 0x13
 4757 0120 00       		.byte	0
 4758 0121 00       		.byte	0
 4759 0122 16       		.uleb128 0x16
 4760 0123 05       		.uleb128 0x5
 4761 0124 00       		.byte	0
 4762 0125 03       		.uleb128 0x3
 4763 0126 08       		.uleb128 0x8
ARM GAS  C:\Users\Sven\AppData\Local\Temp\ccvvqGJt.s 			page 104


 4764 0127 3A       		.uleb128 0x3a
 4765 0128 0B       		.uleb128 0xb
 4766 0129 3B       		.uleb128 0x3b
 4767 012a 05       		.uleb128 0x5
 4768 012b 49       		.uleb128 0x49
 4769 012c 13       		.uleb128 0x13
 4770 012d 02       		.uleb128 0x2
 4771 012e 17       		.uleb128 0x17
 4772 012f 00       		.byte	0
 4773 0130 00       		.byte	0
 4774 0131 17       		.uleb128 0x17
 4775 0132 34       		.uleb128 0x34
 4776 0133 00       		.byte	0
 4777 0134 03       		.uleb128 0x3
 4778 0135 08       		.uleb128 0x8
 4779 0136 3A       		.uleb128 0x3a
 4780 0137 0B       		.uleb128 0xb
 4781 0138 3B       		.uleb128 0x3b
 4782 0139 05       		.uleb128 0x5
 4783 013a 49       		.uleb128 0x49
 4784 013b 13       		.uleb128 0x13
 4785 013c 02       		.uleb128 0x2
 4786 013d 17       		.uleb128 0x17
 4787 013e 00       		.byte	0
 4788 013f 00       		.byte	0
 4789 0140 18       		.uleb128 0x18
 4790 0141 898201   		.uleb128 0x4109
 4791 0144 00       		.byte	0
 4792 0145 11       		.uleb128 0x11
 4793 0146 01       		.uleb128 0x1
 4794 0147 31       		.uleb128 0x31
 4795 0148 13       		.uleb128 0x13
 4796 0149 00       		.byte	0
 4797 014a 00       		.byte	0
 4798 014b 19       		.uleb128 0x19
 4799 014c 2E       		.uleb128 0x2e
 4800 014d 01       		.byte	0x1
 4801 014e 3F       		.uleb128 0x3f
 4802 014f 19       		.uleb128 0x19
 4803 0150 03       		.uleb128 0x3
 4804 0151 0E       		.uleb128 0xe
 4805 0152 3A       		.uleb128 0x3a
 4806 0153 0B       		.uleb128 0xb
 4807 0154 3B       		.uleb128 0x3b
 4808 0155 05       		.uleb128 0x5
 4809 0156 27       		.uleb128 0x27
 4810 0157 19       		.uleb128 0x19
 4811 0158 49       		.uleb128 0x49
 4812 0159 13       		.uleb128 0x13
 4813 015a 11       		.uleb128 0x11
 4814 015b 01       		.uleb128 0x1
 4815 015c 12       		.uleb128 0x12
 4816 015d 06       		.uleb128 0x6
 4817 015e 40       		.uleb128 0x40
 4818 015f 18       		.uleb128 0x18
 4819 0160 9742     		.uleb128 0x2117
 4820 0162 19       		.uleb128 0x19
ARM GAS  C:\Users\Sven\AppData\Local\Temp\ccvvqGJt.s 			page 105


 4821 0163 01       		.uleb128 0x1
 4822 0164 13       		.uleb128 0x13
 4823 0165 00       		.byte	0
 4824 0166 00       		.byte	0
 4825 0167 1A       		.uleb128 0x1a
 4826 0168 34       		.uleb128 0x34
 4827 0169 00       		.byte	0
 4828 016a 03       		.uleb128 0x3
 4829 016b 0E       		.uleb128 0xe
 4830 016c 3A       		.uleb128 0x3a
 4831 016d 0B       		.uleb128 0xb
 4832 016e 3B       		.uleb128 0x3b
 4833 016f 05       		.uleb128 0x5
 4834 0170 49       		.uleb128 0x49
 4835 0171 13       		.uleb128 0x13
 4836 0172 02       		.uleb128 0x2
 4837 0173 17       		.uleb128 0x17
 4838 0174 00       		.byte	0
 4839 0175 00       		.byte	0
 4840 0176 1B       		.uleb128 0x1b
 4841 0177 2E       		.uleb128 0x2e
 4842 0178 01       		.byte	0x1
 4843 0179 3F       		.uleb128 0x3f
 4844 017a 19       		.uleb128 0x19
 4845 017b 03       		.uleb128 0x3
 4846 017c 0E       		.uleb128 0xe
 4847 017d 3A       		.uleb128 0x3a
 4848 017e 0B       		.uleb128 0xb
 4849 017f 3B       		.uleb128 0x3b
 4850 0180 05       		.uleb128 0x5
 4851 0181 27       		.uleb128 0x27
 4852 0182 19       		.uleb128 0x19
 4853 0183 11       		.uleb128 0x11
 4854 0184 01       		.uleb128 0x1
 4855 0185 12       		.uleb128 0x12
 4856 0186 06       		.uleb128 0x6
 4857 0187 40       		.uleb128 0x40
 4858 0188 18       		.uleb128 0x18
 4859 0189 9642     		.uleb128 0x2116
 4860 018b 19       		.uleb128 0x19
 4861 018c 01       		.uleb128 0x1
 4862 018d 13       		.uleb128 0x13
 4863 018e 00       		.byte	0
 4864 018f 00       		.byte	0
 4865 0190 1C       		.uleb128 0x1c
 4866 0191 2E       		.uleb128 0x2e
 4867 0192 01       		.byte	0x1
 4868 0193 3F       		.uleb128 0x3f
 4869 0194 19       		.uleb128 0x19
 4870 0195 03       		.uleb128 0x3
 4871 0196 0E       		.uleb128 0xe
 4872 0197 3A       		.uleb128 0x3a
 4873 0198 0B       		.uleb128 0xb
 4874 0199 3B       		.uleb128 0x3b
 4875 019a 05       		.uleb128 0x5
 4876 019b 49       		.uleb128 0x49
 4877 019c 13       		.uleb128 0x13
ARM GAS  C:\Users\Sven\AppData\Local\Temp\ccvvqGJt.s 			page 106


 4878 019d 11       		.uleb128 0x11
 4879 019e 01       		.uleb128 0x1
 4880 019f 12       		.uleb128 0x12
 4881 01a0 06       		.uleb128 0x6
 4882 01a1 40       		.uleb128 0x40
 4883 01a2 18       		.uleb128 0x18
 4884 01a3 9642     		.uleb128 0x2116
 4885 01a5 19       		.uleb128 0x19
 4886 01a6 01       		.uleb128 0x1
 4887 01a7 13       		.uleb128 0x13
 4888 01a8 00       		.byte	0
 4889 01a9 00       		.byte	0
 4890 01aa 1D       		.uleb128 0x1d
 4891 01ab 0B       		.uleb128 0xb
 4892 01ac 01       		.byte	0x1
 4893 01ad 11       		.uleb128 0x11
 4894 01ae 01       		.uleb128 0x1
 4895 01af 12       		.uleb128 0x12
 4896 01b0 06       		.uleb128 0x6
 4897 01b1 01       		.uleb128 0x1
 4898 01b2 13       		.uleb128 0x13
 4899 01b3 00       		.byte	0
 4900 01b4 00       		.byte	0
 4901 01b5 1E       		.uleb128 0x1e
 4902 01b6 0B       		.uleb128 0xb
 4903 01b7 01       		.byte	0x1
 4904 01b8 11       		.uleb128 0x11
 4905 01b9 01       		.uleb128 0x1
 4906 01ba 12       		.uleb128 0x12
 4907 01bb 06       		.uleb128 0x6
 4908 01bc 00       		.byte	0
 4909 01bd 00       		.byte	0
 4910 01be 1F       		.uleb128 0x1f
 4911 01bf 34       		.uleb128 0x34
 4912 01c0 00       		.byte	0
 4913 01c1 03       		.uleb128 0x3
 4914 01c2 0E       		.uleb128 0xe
 4915 01c3 3A       		.uleb128 0x3a
 4916 01c4 0B       		.uleb128 0xb
 4917 01c5 3B       		.uleb128 0x3b
 4918 01c6 0B       		.uleb128 0xb
 4919 01c7 49       		.uleb128 0x49
 4920 01c8 13       		.uleb128 0x13
 4921 01c9 3F       		.uleb128 0x3f
 4922 01ca 19       		.uleb128 0x19
 4923 01cb 02       		.uleb128 0x2
 4924 01cc 18       		.uleb128 0x18
 4925 01cd 00       		.byte	0
 4926 01ce 00       		.byte	0
 4927 01cf 20       		.uleb128 0x20
 4928 01d0 35       		.uleb128 0x35
 4929 01d1 00       		.byte	0
 4930 01d2 49       		.uleb128 0x49
 4931 01d3 13       		.uleb128 0x13
 4932 01d4 00       		.byte	0
 4933 01d5 00       		.byte	0
 4934 01d6 21       		.uleb128 0x21
ARM GAS  C:\Users\Sven\AppData\Local\Temp\ccvvqGJt.s 			page 107


 4935 01d7 34       		.uleb128 0x34
 4936 01d8 00       		.byte	0
 4937 01d9 03       		.uleb128 0x3
 4938 01da 08       		.uleb128 0x8
 4939 01db 3A       		.uleb128 0x3a
 4940 01dc 0B       		.uleb128 0xb
 4941 01dd 3B       		.uleb128 0x3b
 4942 01de 0B       		.uleb128 0xb
 4943 01df 49       		.uleb128 0x49
 4944 01e0 13       		.uleb128 0x13
 4945 01e1 3F       		.uleb128 0x3f
 4946 01e2 19       		.uleb128 0x19
 4947 01e3 02       		.uleb128 0x2
 4948 01e4 18       		.uleb128 0x18
 4949 01e5 00       		.byte	0
 4950 01e6 00       		.byte	0
 4951 01e7 22       		.uleb128 0x22
 4952 01e8 21       		.uleb128 0x21
 4953 01e9 00       		.byte	0
 4954 01ea 49       		.uleb128 0x49
 4955 01eb 13       		.uleb128 0x13
 4956 01ec 2F       		.uleb128 0x2f
 4957 01ed 05       		.uleb128 0x5
 4958 01ee 00       		.byte	0
 4959 01ef 00       		.byte	0
 4960 01f0 23       		.uleb128 0x23
 4961 01f1 2E       		.uleb128 0x2e
 4962 01f2 01       		.byte	0x1
 4963 01f3 3F       		.uleb128 0x3f
 4964 01f4 19       		.uleb128 0x19
 4965 01f5 03       		.uleb128 0x3
 4966 01f6 0E       		.uleb128 0xe
 4967 01f7 3A       		.uleb128 0x3a
 4968 01f8 0B       		.uleb128 0xb
 4969 01f9 3B       		.uleb128 0x3b
 4970 01fa 0B       		.uleb128 0xb
 4971 01fb 27       		.uleb128 0x27
 4972 01fc 19       		.uleb128 0x19
 4973 01fd 49       		.uleb128 0x49
 4974 01fe 13       		.uleb128 0x13
 4975 01ff 3C       		.uleb128 0x3c
 4976 0200 19       		.uleb128 0x19
 4977 0201 01       		.uleb128 0x1
 4978 0202 13       		.uleb128 0x13
 4979 0203 00       		.byte	0
 4980 0204 00       		.byte	0
 4981 0205 24       		.uleb128 0x24
 4982 0206 05       		.uleb128 0x5
 4983 0207 00       		.byte	0
 4984 0208 49       		.uleb128 0x49
 4985 0209 13       		.uleb128 0x13
 4986 020a 00       		.byte	0
 4987 020b 00       		.byte	0
 4988 020c 25       		.uleb128 0x25
 4989 020d 18       		.uleb128 0x18
 4990 020e 00       		.byte	0
 4991 020f 00       		.byte	0
ARM GAS  C:\Users\Sven\AppData\Local\Temp\ccvvqGJt.s 			page 108


 4992 0210 00       		.byte	0
 4993 0211 26       		.uleb128 0x26
 4994 0212 2E       		.uleb128 0x2e
 4995 0213 01       		.byte	0x1
 4996 0214 3F       		.uleb128 0x3f
 4997 0215 19       		.uleb128 0x19
 4998 0216 03       		.uleb128 0x3
 4999 0217 0E       		.uleb128 0xe
 5000 0218 3A       		.uleb128 0x3a
 5001 0219 0B       		.uleb128 0xb
 5002 021a 3B       		.uleb128 0x3b
 5003 021b 05       		.uleb128 0x5
 5004 021c 27       		.uleb128 0x27
 5005 021d 19       		.uleb128 0x19
 5006 021e 3C       		.uleb128 0x3c
 5007 021f 19       		.uleb128 0x19
 5008 0220 01       		.uleb128 0x1
 5009 0221 13       		.uleb128 0x13
 5010 0222 00       		.byte	0
 5011 0223 00       		.byte	0
 5012 0224 27       		.uleb128 0x27
 5013 0225 2E       		.uleb128 0x2e
 5014 0226 00       		.byte	0
 5015 0227 3F       		.uleb128 0x3f
 5016 0228 19       		.uleb128 0x19
 5017 0229 03       		.uleb128 0x3
 5018 022a 0E       		.uleb128 0xe
 5019 022b 3A       		.uleb128 0x3a
 5020 022c 0B       		.uleb128 0xb
 5021 022d 3B       		.uleb128 0x3b
 5022 022e 0B       		.uleb128 0xb
 5023 022f 27       		.uleb128 0x27
 5024 0230 19       		.uleb128 0x19
 5025 0231 3C       		.uleb128 0x3c
 5026 0232 19       		.uleb128 0x19
 5027 0233 00       		.byte	0
 5028 0234 00       		.byte	0
 5029 0235 28       		.uleb128 0x28
 5030 0236 2E       		.uleb128 0x2e
 5031 0237 01       		.byte	0x1
 5032 0238 3F       		.uleb128 0x3f
 5033 0239 19       		.uleb128 0x19
 5034 023a 03       		.uleb128 0x3
 5035 023b 0E       		.uleb128 0xe
 5036 023c 3A       		.uleb128 0x3a
 5037 023d 0B       		.uleb128 0xb
 5038 023e 3B       		.uleb128 0x3b
 5039 023f 0B       		.uleb128 0xb
 5040 0240 27       		.uleb128 0x27
 5041 0241 19       		.uleb128 0x19
 5042 0242 3C       		.uleb128 0x3c
 5043 0243 19       		.uleb128 0x19
 5044 0244 01       		.uleb128 0x1
 5045 0245 13       		.uleb128 0x13
 5046 0246 00       		.byte	0
 5047 0247 00       		.byte	0
 5048 0248 29       		.uleb128 0x29
ARM GAS  C:\Users\Sven\AppData\Local\Temp\ccvvqGJt.s 			page 109


 5049 0249 2E       		.uleb128 0x2e
 5050 024a 00       		.byte	0
 5051 024b 3F       		.uleb128 0x3f
 5052 024c 19       		.uleb128 0x19
 5053 024d 03       		.uleb128 0x3
 5054 024e 0E       		.uleb128 0xe
 5055 024f 3A       		.uleb128 0x3a
 5056 0250 0B       		.uleb128 0xb
 5057 0251 3B       		.uleb128 0x3b
 5058 0252 05       		.uleb128 0x5
 5059 0253 27       		.uleb128 0x27
 5060 0254 19       		.uleb128 0x19
 5061 0255 3C       		.uleb128 0x3c
 5062 0256 19       		.uleb128 0x19
 5063 0257 00       		.byte	0
 5064 0258 00       		.byte	0
 5065 0259 2A       		.uleb128 0x2a
 5066 025a 2E       		.uleb128 0x2e
 5067 025b 00       		.byte	0
 5068 025c 3F       		.uleb128 0x3f
 5069 025d 19       		.uleb128 0x19
 5070 025e 03       		.uleb128 0x3
 5071 025f 0E       		.uleb128 0xe
 5072 0260 3A       		.uleb128 0x3a
 5073 0261 0B       		.uleb128 0xb
 5074 0262 3B       		.uleb128 0x3b
 5075 0263 0B       		.uleb128 0xb
 5076 0264 27       		.uleb128 0x27
 5077 0265 19       		.uleb128 0x19
 5078 0266 49       		.uleb128 0x49
 5079 0267 13       		.uleb128 0x13
 5080 0268 3C       		.uleb128 0x3c
 5081 0269 19       		.uleb128 0x19
 5082 026a 00       		.byte	0
 5083 026b 00       		.byte	0
 5084 026c 2B       		.uleb128 0x2b
 5085 026d 2E       		.uleb128 0x2e
 5086 026e 00       		.byte	0
 5087 026f 3F       		.uleb128 0x3f
 5088 0270 19       		.uleb128 0x19
 5089 0271 03       		.uleb128 0x3
 5090 0272 0E       		.uleb128 0xe
 5091 0273 3A       		.uleb128 0x3a
 5092 0274 0B       		.uleb128 0xb
 5093 0275 3B       		.uleb128 0x3b
 5094 0276 05       		.uleb128 0x5
 5095 0277 27       		.uleb128 0x27
 5096 0278 19       		.uleb128 0x19
 5097 0279 49       		.uleb128 0x49
 5098 027a 13       		.uleb128 0x13
 5099 027b 3C       		.uleb128 0x3c
 5100 027c 19       		.uleb128 0x19
 5101 027d 00       		.byte	0
 5102 027e 00       		.byte	0
 5103 027f 00       		.byte	0
 5104              		.section	.debug_loc,"",%progbits
 5105              	.Ldebug_loc0:
ARM GAS  C:\Users\Sven\AppData\Local\Temp\ccvvqGJt.s 			page 110


 5106              	.LLST0:
 5107 0000 00000000 		.4byte	.LVL0
 5108 0004 0A000000 		.4byte	.LVL1
 5109 0008 0100     		.2byte	0x1
 5110 000a 50       		.byte	0x50
 5111 000b 0A000000 		.4byte	.LVL1
 5112 000f 0D000000 		.4byte	.LVL2-1
 5113 0013 0100     		.2byte	0x1
 5114 0015 52       		.byte	0x52
 5115 0016 0D000000 		.4byte	.LVL2-1
 5116 001a 1C000000 		.4byte	.LFE1489
 5117 001e 0400     		.2byte	0x4
 5118 0020 F3       		.byte	0xf3
 5119 0021 01       		.uleb128 0x1
 5120 0022 50       		.byte	0x50
 5121 0023 9F       		.byte	0x9f
 5122 0024 00000000 		.4byte	0
 5123 0028 00000000 		.4byte	0
 5124              	.LLST1:
 5125 002c 00000000 		.4byte	.LVL4
 5126 0030 06000000 		.4byte	.LVL5
 5127 0034 0100     		.2byte	0x1
 5128 0036 50       		.byte	0x50
 5129 0037 06000000 		.4byte	.LVL5
 5130 003b 1E000000 		.4byte	.LVL12
 5131 003f 0100     		.2byte	0x1
 5132 0041 56       		.byte	0x56
 5133 0042 1E000000 		.4byte	.LVL12
 5134 0046 20000000 		.4byte	.LFE1490
 5135 004a 0400     		.2byte	0x4
 5136 004c F3       		.byte	0xf3
 5137 004d 01       		.uleb128 0x1
 5138 004e 50       		.byte	0x50
 5139 004f 9F       		.byte	0x9f
 5140 0050 00000000 		.4byte	0
 5141 0054 00000000 		.4byte	0
 5142              	.LLST2:
 5143 0058 00000000 		.4byte	.LVL4
 5144 005c 0B000000 		.4byte	.LVL6-1
 5145 0060 0100     		.2byte	0x1
 5146 0062 51       		.byte	0x51
 5147 0063 0B000000 		.4byte	.LVL6-1
 5148 0067 20000000 		.4byte	.LFE1490
 5149 006b 0400     		.2byte	0x4
 5150 006d F3       		.byte	0xf3
 5151 006e 01       		.uleb128 0x1
 5152 006f 51       		.byte	0x51
 5153 0070 9F       		.byte	0x9f
 5154 0071 00000000 		.4byte	0
 5155 0075 00000000 		.4byte	0
 5156              	.LLST3:
 5157 0079 00000000 		.4byte	.LVL4
 5158 007d 0E000000 		.4byte	.LVL7
 5159 0081 0200     		.2byte	0x2
 5160 0083 30       		.byte	0x30
 5161 0084 9F       		.byte	0x9f
 5162 0085 0E000000 		.4byte	.LVL7
ARM GAS  C:\Users\Sven\AppData\Local\Temp\ccvvqGJt.s 			page 111


 5163 0089 14000000 		.4byte	.LVL8
 5164 008d 0100     		.2byte	0x1
 5165 008f 54       		.byte	0x54
 5166 0090 14000000 		.4byte	.LVL8
 5167 0094 16000000 		.4byte	.LVL9
 5168 0098 0300     		.2byte	0x3
 5169 009a 74       		.byte	0x74
 5170 009b 7F       		.sleb128 -1
 5171 009c 9F       		.byte	0x9f
 5172 009d 16000000 		.4byte	.LVL9
 5173 00a1 1E000000 		.4byte	.LVL11
 5174 00a5 0100     		.2byte	0x1
 5175 00a7 54       		.byte	0x54
 5176 00a8 00000000 		.4byte	0
 5177 00ac 00000000 		.4byte	0
 5178              	.LLST4:
 5179 00b0 0E000000 		.4byte	.LVL15
 5180 00b4 11000000 		.4byte	.LVL16-1
 5181 00b8 0100     		.2byte	0x1
 5182 00ba 50       		.byte	0x50
 5183 00bb 11000000 		.4byte	.LVL16-1
 5184 00bf 14000000 		.4byte	.LVL17
 5185 00c3 0100     		.2byte	0x1
 5186 00c5 54       		.byte	0x54
 5187 00c6 14000000 		.4byte	.LVL17
 5188 00ca 16000000 		.4byte	.LFE1491
 5189 00ce 0100     		.2byte	0x1
 5190 00d0 50       		.byte	0x50
 5191 00d1 00000000 		.4byte	0
 5192 00d5 00000000 		.4byte	0
 5193              	.LLST5:
 5194 00d9 B2030000 		.4byte	.LVL109
 5195 00dd CC060000 		.4byte	.LVL152
 5196 00e1 0200     		.2byte	0x2
 5197 00e3 91       		.byte	0x91
 5198 00e4 64       		.sleb128 -28
 5199 00e5 00000000 		.4byte	0
 5200 00e9 00000000 		.4byte	0
 5201              	.LLST6:
 5202 00ed B2030000 		.4byte	.LVL109
 5203 00f1 E4030000 		.4byte	.LVL110
 5204 00f5 0200     		.2byte	0x2
 5205 00f7 30       		.byte	0x30
 5206 00f8 9F       		.byte	0x9f
 5207 00f9 E4030000 		.4byte	.LVL110
 5208 00fd 04040000 		.4byte	.LVL112
 5209 0101 0C00     		.2byte	0xc
 5210 0103 91       		.byte	0x91
 5211 0104 64       		.sleb128 -28
 5212 0105 94       		.byte	0x94
 5213 0106 01       		.byte	0x1
 5214 0107 48       		.byte	0x48
 5215 0108 24       		.byte	0x24
 5216 0109 70       		.byte	0x70
 5217 010a 00       		.sleb128 0
 5218 010b 48       		.byte	0x48
 5219 010c 24       		.byte	0x24
ARM GAS  C:\Users\Sven\AppData\Local\Temp\ccvvqGJt.s 			page 112


 5220 010d 2E       		.byte	0x2e
 5221 010e 9F       		.byte	0x9f
 5222 010f 04040000 		.4byte	.LVL112
 5223 0113 40040000 		.4byte	.LVL115
 5224 0117 0D00     		.2byte	0xd
 5225 0119 91       		.byte	0x91
 5226 011a 64       		.sleb128 -28
 5227 011b 94       		.byte	0x94
 5228 011c 01       		.byte	0x1
 5229 011d 03       		.byte	0x3
 5230 011e 00000000 		.4byte	Ctrl_Mode
 5231 0122 94       		.byte	0x94
 5232 0123 01       		.byte	0x1
 5233 0124 2E       		.byte	0x2e
 5234 0125 9F       		.byte	0x9f
 5235 0126 40040000 		.4byte	.LVL115
 5236 012a 4A040000 		.4byte	.LVL118
 5237 012e 0C00     		.2byte	0xc
 5238 0130 91       		.byte	0x91
 5239 0131 64       		.sleb128 -28
 5240 0132 94       		.byte	0x94
 5241 0133 01       		.byte	0x1
 5242 0134 48       		.byte	0x48
 5243 0135 24       		.byte	0x24
 5244 0136 70       		.byte	0x70
 5245 0137 00       		.sleb128 0
 5246 0138 48       		.byte	0x48
 5247 0139 24       		.byte	0x24
 5248 013a 2E       		.byte	0x2e
 5249 013b 9F       		.byte	0x9f
 5250 013c 4A040000 		.4byte	.LVL118
 5251 0140 92040000 		.4byte	.LVL120
 5252 0144 0D00     		.2byte	0xd
 5253 0146 91       		.byte	0x91
 5254 0147 64       		.sleb128 -28
 5255 0148 94       		.byte	0x94
 5256 0149 01       		.byte	0x1
 5257 014a 03       		.byte	0x3
 5258 014b 00000000 		.4byte	Ctrl_Mode
 5259 014f 94       		.byte	0x94
 5260 0150 01       		.byte	0x1
 5261 0151 2E       		.byte	0x2e
 5262 0152 9F       		.byte	0x9f
 5263 0153 92040000 		.4byte	.LVL120
 5264 0157 9E040000 		.4byte	.LVL121
 5265 015b 0C00     		.2byte	0xc
 5266 015d 91       		.byte	0x91
 5267 015e 64       		.sleb128 -28
 5268 015f 94       		.byte	0x94
 5269 0160 01       		.byte	0x1
 5270 0161 48       		.byte	0x48
 5271 0162 24       		.byte	0x24
 5272 0163 70       		.byte	0x70
 5273 0164 00       		.sleb128 0
 5274 0165 48       		.byte	0x48
 5275 0166 24       		.byte	0x24
 5276 0167 2E       		.byte	0x2e
ARM GAS  C:\Users\Sven\AppData\Local\Temp\ccvvqGJt.s 			page 113


 5277 0168 9F       		.byte	0x9f
 5278 0169 9E040000 		.4byte	.LVL121
 5279 016d 44050000 		.4byte	.LVL123
 5280 0171 0D00     		.2byte	0xd
 5281 0173 91       		.byte	0x91
 5282 0174 64       		.sleb128 -28
 5283 0175 94       		.byte	0x94
 5284 0176 01       		.byte	0x1
 5285 0177 03       		.byte	0x3
 5286 0178 00000000 		.4byte	Ctrl_Mode
 5287 017c 94       		.byte	0x94
 5288 017d 01       		.byte	0x1
 5289 017e 2E       		.byte	0x2e
 5290 017f 9F       		.byte	0x9f
 5291 0180 44050000 		.4byte	.LVL123
 5292 0184 4C050000 		.4byte	.LVL125
 5293 0188 0C00     		.2byte	0xc
 5294 018a 91       		.byte	0x91
 5295 018b 64       		.sleb128 -28
 5296 018c 94       		.byte	0x94
 5297 018d 01       		.byte	0x1
 5298 018e 48       		.byte	0x48
 5299 018f 24       		.byte	0x24
 5300 0190 70       		.byte	0x70
 5301 0191 00       		.sleb128 0
 5302 0192 48       		.byte	0x48
 5303 0193 24       		.byte	0x24
 5304 0194 2E       		.byte	0x2e
 5305 0195 9F       		.byte	0x9f
 5306 0196 4C050000 		.4byte	.LVL125
 5307 019a 6B050000 		.4byte	.LVL128-1
 5308 019e 0D00     		.2byte	0xd
 5309 01a0 91       		.byte	0x91
 5310 01a1 64       		.sleb128 -28
 5311 01a2 94       		.byte	0x94
 5312 01a3 01       		.byte	0x1
 5313 01a4 03       		.byte	0x3
 5314 01a5 00000000 		.4byte	Ctrl_Mode
 5315 01a9 94       		.byte	0x94
 5316 01aa 01       		.byte	0x1
 5317 01ab 2E       		.byte	0x2e
 5318 01ac 9F       		.byte	0x9f
 5319 01ad 00000000 		.4byte	0
 5320 01b1 00000000 		.4byte	0
 5321              	.LLST7:
 5322 01b5 E4030000 		.4byte	.LVL110
 5323 01b9 16040000 		.4byte	.LVL113
 5324 01bd 0100     		.2byte	0x1
 5325 01bf 55       		.byte	0x55
 5326 01c0 16040000 		.4byte	.LVL113
 5327 01c4 40040000 		.4byte	.LVL115
 5328 01c8 1900     		.2byte	0x19
 5329 01ca 0A       		.byte	0xa
 5330 01cb D606     		.2byte	0x6d6
 5331 01cd 40       		.byte	0x40
 5332 01ce 4B       		.byte	0x4b
 5333 01cf 24       		.byte	0x24
ARM GAS  C:\Users\Sven\AppData\Local\Temp\ccvvqGJt.s 			page 114


 5334 01d0 22       		.byte	0x22
 5335 01d1 77       		.byte	0x77
 5336 01d2 24       		.sleb128 36
 5337 01d3 94       		.byte	0x94
 5338 01d4 02       		.byte	0x2
 5339 01d5 0A       		.byte	0xa
 5340 01d6 FFFF     		.2byte	0xffff
 5341 01d8 1A       		.byte	0x1a
 5342 01d9 40       		.byte	0x40
 5343 01da 4B       		.byte	0x4b
 5344 01db 24       		.byte	0x24
 5345 01dc 22       		.byte	0x22
 5346 01dd 2D       		.byte	0x2d
 5347 01de 1F       		.byte	0x1f
 5348 01df 08       		.byte	0x8
 5349 01e0 C8       		.byte	0xc8
 5350 01e1 1A       		.byte	0x1a
 5351 01e2 9F       		.byte	0x9f
 5352 01e3 40040000 		.4byte	.LVL115
 5353 01e7 44040000 		.4byte	.LVL116
 5354 01eb 0100     		.2byte	0x1
 5355 01ed 55       		.byte	0x55
 5356 01ee 44040000 		.4byte	.LVL116
 5357 01f2 92040000 		.4byte	.LVL120
 5358 01f6 1900     		.2byte	0x19
 5359 01f8 0A       		.byte	0xa
 5360 01f9 D606     		.2byte	0x6d6
 5361 01fb 40       		.byte	0x40
 5362 01fc 4B       		.byte	0x4b
 5363 01fd 24       		.byte	0x24
 5364 01fe 22       		.byte	0x22
 5365 01ff 77       		.byte	0x77
 5366 0200 24       		.sleb128 36
 5367 0201 94       		.byte	0x94
 5368 0202 02       		.byte	0x2
 5369 0203 0A       		.byte	0xa
 5370 0204 FFFF     		.2byte	0xffff
 5371 0206 1A       		.byte	0x1a
 5372 0207 40       		.byte	0x40
 5373 0208 4B       		.byte	0x4b
 5374 0209 24       		.byte	0x24
 5375 020a 22       		.byte	0x22
 5376 020b 2D       		.byte	0x2d
 5377 020c 1F       		.byte	0x1f
 5378 020d 08       		.byte	0x8
 5379 020e C8       		.byte	0xc8
 5380 020f 1A       		.byte	0x1a
 5381 0210 9F       		.byte	0x9f
 5382 0211 92040000 		.4byte	.LVL120
 5383 0215 54050000 		.4byte	.LVL127
 5384 0219 0100     		.2byte	0x1
 5385 021b 55       		.byte	0x55
 5386 021c 54050000 		.4byte	.LVL127
 5387 0220 6B050000 		.4byte	.LVL128-1
 5388 0224 1900     		.2byte	0x19
 5389 0226 0A       		.byte	0xa
 5390 0227 D606     		.2byte	0x6d6
ARM GAS  C:\Users\Sven\AppData\Local\Temp\ccvvqGJt.s 			page 115


 5391 0229 40       		.byte	0x40
 5392 022a 4B       		.byte	0x4b
 5393 022b 24       		.byte	0x24
 5394 022c 22       		.byte	0x22
 5395 022d 77       		.byte	0x77
 5396 022e 24       		.sleb128 36
 5397 022f 94       		.byte	0x94
 5398 0230 02       		.byte	0x2
 5399 0231 0A       		.byte	0xa
 5400 0232 FFFF     		.2byte	0xffff
 5401 0234 1A       		.byte	0x1a
 5402 0235 40       		.byte	0x40
 5403 0236 4B       		.byte	0x4b
 5404 0237 24       		.byte	0x24
 5405 0238 22       		.byte	0x22
 5406 0239 2D       		.byte	0x2d
 5407 023a 1F       		.byte	0x1f
 5408 023b 08       		.byte	0x8
 5409 023c C8       		.byte	0xc8
 5410 023d 1A       		.byte	0x1a
 5411 023e 9F       		.byte	0x9f
 5412 023f 00000000 		.4byte	0
 5413 0243 00000000 		.4byte	0
 5414              	.LLST8:
 5415 0247 E4030000 		.4byte	.LVL110
 5416 024b F0030000 		.4byte	.LVL111
 5417 024f 0200     		.2byte	0x2
 5418 0251 30       		.byte	0x30
 5419 0252 9F       		.byte	0x9f
 5420 0253 F0030000 		.4byte	.LVL111
 5421 0257 24040000 		.4byte	.LVL114
 5422 025b 0100     		.2byte	0x1
 5423 025d 51       		.byte	0x51
 5424 025e 24040000 		.4byte	.LVL114
 5425 0262 40040000 		.4byte	.LVL115
 5426 0266 1300     		.2byte	0x13
 5427 0268 0A       		.byte	0xa
 5428 0269 D606     		.2byte	0x6d6
 5429 026b 40       		.byte	0x40
 5430 026c 4B       		.byte	0x4b
 5431 026d 24       		.byte	0x24
 5432 026e 22       		.byte	0x22
 5433 026f 72       		.byte	0x72
 5434 0270 00       		.sleb128 0
 5435 0271 40       		.byte	0x40
 5436 0272 4B       		.byte	0x4b
 5437 0273 24       		.byte	0x24
 5438 0274 22       		.byte	0x22
 5439 0275 2D       		.byte	0x2d
 5440 0276 1F       		.byte	0x1f
 5441 0277 08       		.byte	0x8
 5442 0278 C8       		.byte	0xc8
 5443 0279 1A       		.byte	0x1a
 5444 027a 9F       		.byte	0x9f
 5445 027b 40040000 		.4byte	.LVL115
 5446 027f 48040000 		.4byte	.LVL117
 5447 0283 0100     		.2byte	0x1
ARM GAS  C:\Users\Sven\AppData\Local\Temp\ccvvqGJt.s 			page 116


 5448 0285 51       		.byte	0x51
 5449 0286 48040000 		.4byte	.LVL117
 5450 028a 88040000 		.4byte	.LVL119
 5451 028e 1300     		.2byte	0x13
 5452 0290 0A       		.byte	0xa
 5453 0291 D606     		.2byte	0x6d6
 5454 0293 40       		.byte	0x40
 5455 0294 4B       		.byte	0x4b
 5456 0295 24       		.byte	0x24
 5457 0296 22       		.byte	0x22
 5458 0297 72       		.byte	0x72
 5459 0298 00       		.sleb128 0
 5460 0299 40       		.byte	0x40
 5461 029a 4B       		.byte	0x4b
 5462 029b 24       		.byte	0x24
 5463 029c 22       		.byte	0x22
 5464 029d 2D       		.byte	0x2d
 5465 029e 1F       		.byte	0x1f
 5466 029f 08       		.byte	0x8
 5467 02a0 C8       		.byte	0xc8
 5468 02a1 1A       		.byte	0x1a
 5469 02a2 9F       		.byte	0x9f
 5470 02a3 88040000 		.4byte	.LVL119
 5471 02a7 92040000 		.4byte	.LVL120
 5472 02ab 1900     		.2byte	0x19
 5473 02ad 0A       		.byte	0xa
 5474 02ae D606     		.2byte	0x6d6
 5475 02b0 40       		.byte	0x40
 5476 02b1 4B       		.byte	0x4b
 5477 02b2 24       		.byte	0x24
 5478 02b3 22       		.byte	0x22
 5479 02b4 77       		.byte	0x77
 5480 02b5 1E       		.sleb128 30
 5481 02b6 94       		.byte	0x94
 5482 02b7 02       		.byte	0x2
 5483 02b8 0A       		.byte	0xa
 5484 02b9 FFFF     		.2byte	0xffff
 5485 02bb 1A       		.byte	0x1a
 5486 02bc 40       		.byte	0x40
 5487 02bd 4B       		.byte	0x4b
 5488 02be 24       		.byte	0x24
 5489 02bf 22       		.byte	0x22
 5490 02c0 2D       		.byte	0x2d
 5491 02c1 1F       		.byte	0x1f
 5492 02c2 08       		.byte	0x8
 5493 02c3 C8       		.byte	0xc8
 5494 02c4 1A       		.byte	0x1a
 5495 02c5 9F       		.byte	0x9f
 5496 02c6 92040000 		.4byte	.LVL120
 5497 02ca A0040000 		.4byte	.LVL122
 5498 02ce 0100     		.2byte	0x1
 5499 02d0 51       		.byte	0x51
 5500 02d1 A0040000 		.4byte	.LVL122
 5501 02d5 44050000 		.4byte	.LVL123
 5502 02d9 1900     		.2byte	0x19
 5503 02db 0A       		.byte	0xa
 5504 02dc D606     		.2byte	0x6d6
ARM GAS  C:\Users\Sven\AppData\Local\Temp\ccvvqGJt.s 			page 117


 5505 02de 40       		.byte	0x40
 5506 02df 4B       		.byte	0x4b
 5507 02e0 24       		.byte	0x24
 5508 02e1 22       		.byte	0x22
 5509 02e2 77       		.byte	0x77
 5510 02e3 1E       		.sleb128 30
 5511 02e4 94       		.byte	0x94
 5512 02e5 02       		.byte	0x2
 5513 02e6 0A       		.byte	0xa
 5514 02e7 FFFF     		.2byte	0xffff
 5515 02e9 1A       		.byte	0x1a
 5516 02ea 40       		.byte	0x40
 5517 02eb 4B       		.byte	0x4b
 5518 02ec 24       		.byte	0x24
 5519 02ed 22       		.byte	0x22
 5520 02ee 2D       		.byte	0x2d
 5521 02ef 1F       		.byte	0x1f
 5522 02f0 08       		.byte	0x8
 5523 02f1 C8       		.byte	0xc8
 5524 02f2 1A       		.byte	0x1a
 5525 02f3 9F       		.byte	0x9f
 5526 02f4 44050000 		.4byte	.LVL123
 5527 02f8 46050000 		.4byte	.LVL124
 5528 02fc 0100     		.2byte	0x1
 5529 02fe 51       		.byte	0x51
 5530 02ff 46050000 		.4byte	.LVL124
 5531 0303 4E050000 		.4byte	.LVL126
 5532 0307 1300     		.2byte	0x13
 5533 0309 0A       		.byte	0xa
 5534 030a D606     		.2byte	0x6d6
 5535 030c 40       		.byte	0x40
 5536 030d 4B       		.byte	0x4b
 5537 030e 24       		.byte	0x24
 5538 030f 22       		.byte	0x22
 5539 0310 72       		.byte	0x72
 5540 0311 00       		.sleb128 0
 5541 0312 40       		.byte	0x40
 5542 0313 4B       		.byte	0x4b
 5543 0314 24       		.byte	0x24
 5544 0315 22       		.byte	0x22
 5545 0316 2D       		.byte	0x2d
 5546 0317 1F       		.byte	0x1f
 5547 0318 08       		.byte	0x8
 5548 0319 C8       		.byte	0xc8
 5549 031a 1A       		.byte	0x1a
 5550 031b 9F       		.byte	0x9f
 5551 031c 4E050000 		.4byte	.LVL126
 5552 0320 6B050000 		.4byte	.LVL128-1
 5553 0324 1900     		.2byte	0x19
 5554 0326 0A       		.byte	0xa
 5555 0327 D606     		.2byte	0x6d6
 5556 0329 40       		.byte	0x40
 5557 032a 4B       		.byte	0x4b
 5558 032b 24       		.byte	0x24
 5559 032c 22       		.byte	0x22
 5560 032d 77       		.byte	0x77
 5561 032e 1E       		.sleb128 30
ARM GAS  C:\Users\Sven\AppData\Local\Temp\ccvvqGJt.s 			page 118


 5562 032f 94       		.byte	0x94
 5563 0330 02       		.byte	0x2
 5564 0331 0A       		.byte	0xa
 5565 0332 FFFF     		.2byte	0xffff
 5566 0334 1A       		.byte	0x1a
 5567 0335 40       		.byte	0x40
 5568 0336 4B       		.byte	0x4b
 5569 0337 24       		.byte	0x24
 5570 0338 22       		.byte	0x22
 5571 0339 2D       		.byte	0x2d
 5572 033a 1F       		.byte	0x1f
 5573 033b 08       		.byte	0x8
 5574 033c C8       		.byte	0xc8
 5575 033d 1A       		.byte	0x1a
 5576 033e 9F       		.byte	0x9f
 5577 033f 00000000 		.4byte	0
 5578 0343 00000000 		.4byte	0
 5579              	.LLST9:
 5580 0347 8C050000 		.4byte	.LVL130
 5581 034b 3A060000 		.4byte	.LVL142
 5582 034f 0200     		.2byte	0x2
 5583 0351 35       		.byte	0x35
 5584 0352 9F       		.byte	0x9f
 5585 0353 00000000 		.4byte	0
 5586 0357 00000000 		.4byte	0
 5587              	.LLST11:
 5588 035b 8C050000 		.4byte	.LVL130
 5589 035f 3A060000 		.4byte	.LVL142
 5590 0363 0200     		.2byte	0x2
 5591 0365 31       		.byte	0x31
 5592 0366 9F       		.byte	0x9f
 5593 0367 00000000 		.4byte	0
 5594 036b 00000000 		.4byte	0
 5595              	.LLST12:
 5596 036f 3A060000 		.4byte	.LVL142
 5597 0373 CC060000 		.4byte	.LVL152
 5598 0377 0200     		.2byte	0x2
 5599 0379 32       		.byte	0x32
 5600 037a 9F       		.byte	0x9f
 5601 037b 00000000 		.4byte	0
 5602 037f 00000000 		.4byte	0
 5603              	.LLST14:
 5604 0383 3A060000 		.4byte	.LVL142
 5605 0387 CC060000 		.4byte	.LVL152
 5606 038b 0200     		.2byte	0x2
 5607 038d 30       		.byte	0x30
 5608 038e 9F       		.byte	0x9f
 5609 038f 00000000 		.4byte	0
 5610 0393 00000000 		.4byte	0
 5611              		.section	.debug_aranges,"",%progbits
 5612 0000 3C000000 		.4byte	0x3c
 5613 0004 0200     		.2byte	0x2
 5614 0006 00000000 		.4byte	.Ldebug_info0
 5615 000a 04       		.byte	0x4
 5616 000b 00       		.byte	0
 5617 000c 0000     		.2byte	0
 5618 000e 0000     		.2byte	0
ARM GAS  C:\Users\Sven\AppData\Local\Temp\ccvvqGJt.s 			page 119


 5619 0010 00000000 		.4byte	.LFB1489
 5620 0014 1C000000 		.4byte	.LFE1489-.LFB1489
 5621 0018 00000000 		.4byte	.LFB1490
 5622 001c 20000000 		.4byte	.LFE1490-.LFB1490
 5623 0020 00000000 		.4byte	.LFB1491
 5624 0024 16000000 		.4byte	.LFE1491-.LFB1491
 5625 0028 00000000 		.4byte	.LFB1492
 5626 002c 44000000 		.4byte	.LFE1492-.LFB1492
 5627 0030 00000000 		.4byte	.LFB1493
 5628 0034 54080000 		.4byte	.LFE1493-.LFB1493
 5629 0038 00000000 		.4byte	0
 5630 003c 00000000 		.4byte	0
 5631              		.section	.debug_ranges,"",%progbits
 5632              	.Ldebug_ranges0:
 5633 0000 00000000 		.4byte	.LFB1489
 5634 0004 1C000000 		.4byte	.LFE1489
 5635 0008 00000000 		.4byte	.LFB1490
 5636 000c 20000000 		.4byte	.LFE1490
 5637 0010 00000000 		.4byte	.LFB1491
 5638 0014 16000000 		.4byte	.LFE1491
 5639 0018 00000000 		.4byte	.LFB1492
 5640 001c 44000000 		.4byte	.LFE1492
 5641 0020 00000000 		.4byte	.LFB1493
 5642 0024 54080000 		.4byte	.LFE1493
 5643 0028 00000000 		.4byte	0
 5644 002c 00000000 		.4byte	0
 5645              		.section	.debug_line,"",%progbits
 5646              	.Ldebug_line0:
 5647 0000 E2040000 		.section	.debug_str,"MS",%progbits,1
 5647      0200AB02 
 5647      00000201 
 5647      FB0E0D00 
 5647      01010101 
 5648              	.LASF137:
 5649 0000 6374726C 		.ascii	"ctrl_mode\000"
 5649      5F6D6F64 
 5649      6500
 5650              	.LASF44:
 5651 000a 4D41565F 		.ascii	"MAV_AUTOPILOT_SLUGS\000"
 5651      4155544F 
 5651      50494C4F 
 5651      545F534C 
 5651      55475300 
 5652              	.LASF141:
 5653 001e 6175746F 		.ascii	"autonom\000"
 5653      6E6F6D00 
 5654              	.LASF245:
 5655 0026 43794465 		.ascii	"CyDelay\000"
 5655      6C617900 
 5656              	.LASF279:
 5657 002e 4144435F 		.ascii	"ADC_read_speed\000"
 5657      72656164 
 5657      5F737065 
 5657      656400
 5658              	.LASF71:
 5659 003d 4D41565F 		.ascii	"MAV_TYPE_FREE_BALLOON\000"
 5659      54595045 
ARM GAS  C:\Users\Sven\AppData\Local\Temp\ccvvqGJt.s 			page 120


 5659      5F465245 
 5659      455F4241 
 5659      4C4C4F4F 
 5660              	.LASF164:
 5661 0053 6374726C 		.ascii	"ctrl_out_PID\000"
 5661      5F6F7574 
 5661      5F504944 
 5661      00
 5662              	.LASF138:
 5663 0060 6D616E75 		.ascii	"manual\000"
 5663      616C00
 5664              	.LASF33:
 5665 0067 636F6D70 		.ascii	"compid\000"
 5665      696400
 5666              	.LASF109:
 5667 006e 4D41565F 		.ascii	"MAV_STATE_ACTIVE\000"
 5667      53544154 
 5667      455F4143 
 5667      54495645 
 5667      00
 5668              	.LASF270:
 5669 007f 4D505536 		.ascii	"MPU6050_data_read\000"
 5669      3035305F 
 5669      64617461 
 5669      5F726561 
 5669      6400
 5670              	.LASF94:
 5671 0091 4D41565F 		.ascii	"MAV_MODE_TEST_DISARMED\000"
 5671      4D4F4445 
 5671      5F544553 
 5671      545F4449 
 5671      5341524D 
 5672              	.LASF158:
 5673 00a8 626C696E 		.ascii	"blink_cnt\000"
 5673      6B5F636E 
 5673      7400
 5674              	.LASF89:
 5675 00b2 4D41565F 		.ascii	"MAV_TYPE_GIMBAL\000"
 5675      54595045 
 5675      5F47494D 
 5675      42414C00 
 5676              	.LASF132:
 5677 00c2 6F75745F 		.ascii	"out_ge1\000"
 5677      67653100 
 5678              	.LASF133:
 5679 00ca 6F75745F 		.ascii	"out_ge2\000"
 5679      67653200 
 5680              	.LASF134:
 5681 00d2 6F75745F 		.ascii	"out_ge3\000"
 5681      67653300 
 5682              	.LASF265:
 5683 00da 424D5031 		.ascii	"BMP180_baro_read_pressure\000"
 5683      38305F62 
 5683      61726F5F 
 5683      72656164 
 5683      5F707265 
 5684              	.LASF255:
ARM GAS  C:\Users\Sven\AppData\Local\Temp\ccvvqGJt.s 			page 121


 5685 00f4 50504D49 		.ascii	"PPMISR_Start\000"
 5685      53525F53 
 5685      74617274 
 5685      00
 5686              	.LASF100:
 5687 0101 4D41565F 		.ascii	"MAV_MODE_STABILIZE_ARMED\000"
 5687      4D4F4445 
 5687      5F535441 
 5687      42494C49 
 5687      5A455F41 
 5688              	.LASF251:
 5689 011a 5461736B 		.ascii	"TaskTimer_Start\000"
 5689      54696D65 
 5689      725F5374 
 5689      61727400 
 5690              	.LASF8:
 5691 012a 5F5F696E 		.ascii	"__int32_t\000"
 5691      7433325F 
 5691      7400
 5692              	.LASF25:
 5693 0134 696E7431 		.ascii	"int16\000"
 5693      3600
 5694              	.LASF236:
 5695 013a 73797374 		.ascii	"system_state\000"
 5695      656D5F73 
 5695      74617465 
 5695      00
 5696              	.LASF238:
 5697 0147 636E745F 		.ascii	"cnt_ML_ATTITUDE_send\000"
 5697      4D4C5F41 
 5697      54544954 
 5697      5544455F 
 5697      73656E64 
 5698              	.LASF83:
 5699 015c 4D41565F 		.ascii	"MAV_TYPE_VTOL_QUADROTOR\000"
 5699      54595045 
 5699      5F56544F 
 5699      4C5F5155 
 5699      4144524F 
 5700              	.LASF161:
 5701 0174 6374726C 		.ascii	"ctrl_in\000"
 5701      5F696E00 
 5702              	.LASF162:
 5703 017c 6374726C 		.ascii	"ctrl_out\000"
 5703      5F6F7574 
 5703      00
 5704              	.LASF107:
 5705 0185 4D41565F 		.ascii	"MAV_STATE_CALIBRATING\000"
 5705      53544154 
 5705      455F4341 
 5705      4C494252 
 5705      4154494E 
 5706              	.LASF239:
 5707 019b 55415254 		.ascii	"UART_1_UartPutString\000"
 5707      5F315F55 
 5707      61727450 
 5707      75745374 
ARM GAS  C:\Users\Sven\AppData\Local\Temp\ccvvqGJt.s 			page 122


 5707      72696E67 
 5708              	.LASF195:
 5709 01b0 63616C5F 		.ascii	"cal_cnt\000"
 5709      636E7400 
 5710              	.LASF130:
 5711 01b8 6F75745F 		.ascii	"out_fl1\000"
 5711      666C3100 
 5712              	.LASF131:
 5713 01c0 6F75745F 		.ascii	"out_fl2\000"
 5713      666C3200 
 5714              	.LASF121:
 5715 01c8 696E5F6D 		.ascii	"in_mod\000"
 5715      6F6400
 5716              	.LASF52:
 5717 01cf 4D41565F 		.ascii	"MAV_AUTOPILOT_UDB\000"
 5717      4155544F 
 5717      50494C4F 
 5717      545F5544 
 5717      4200
 5718              	.LASF105:
 5719 01e1 4D41565F 		.ascii	"MAV_STATE_UNINIT\000"
 5719      53544154 
 5719      455F554E 
 5719      494E4954 
 5719      00
 5720              	.LASF179:
 5721 01f2 6163635F 		.ascii	"acc_y_g\000"
 5721      795F6700 
 5722              	.LASF240:
 5723 01fa 55415254 		.ascii	"UART_1_SpiUartWriteTxData\000"
 5723      5F315F53 
 5723      70695561 
 5723      72745772 
 5723      69746554 
 5724              	.LASF39:
 5725 0214 6D736769 		.ascii	"msgid\000"
 5725      6400
 5726              	.LASF115:
 5727 021a 696E5F6D 		.ascii	"in_mot\000"
 5727      6F7400
 5728              	.LASF233:
 5729 0221 6175746F 		.ascii	"autopilot_type\000"
 5729      70696C6F 
 5729      745F7479 
 5729      706500
 5730              	.LASF104:
 5731 0230 4D41565F 		.ascii	"MAV_STATE\000"
 5731      53544154 
 5731      4500
 5732              	.LASF144:
 5733 023a 73706565 		.ascii	"speed\000"
 5733      6400
 5734              	.LASF65:
 5735 0240 4D41565F 		.ascii	"MAV_TYPE_QUADROTOR\000"
 5735      54595045 
 5735      5F515541 
 5735      44524F54 
ARM GAS  C:\Users\Sven\AppData\Local\Temp\ccvvqGJt.s 			page 123


 5735      4F5200
 5736              	.LASF32:
 5737 0253 73797369 		.ascii	"sysid\000"
 5737      6400
 5738              	.LASF124:
 5739 0259 6F75745F 		.ascii	"out_mot\000"
 5739      6D6F7400 
 5740              	.LASF224:
 5741 0261 5068695F 		.ascii	"Phi_Error\000"
 5741      4572726F 
 5741      7200
 5742              	.LASF153:
 5743 026b 4B645F54 		.ascii	"Kd_Theta\000"
 5743      68657461 
 5743      00
 5744              	.LASF2:
 5745 0274 7369676E 		.ascii	"signed char\000"
 5745      65642063 
 5745      68617200 
 5746              	.LASF151:
 5747 0280 4B705F54 		.ascii	"Kp_Theta\000"
 5747      68657461 
 5747      00
 5748              	.LASF21:
 5749 0289 75696E74 		.ascii	"uint32_t\000"
 5749      33325F74 
 5749      00
 5750              	.LASF16:
 5751 0292 696E7438 		.ascii	"int8_t\000"
 5751      5F7400
 5752              	.LASF82:
 5753 0299 4D41565F 		.ascii	"MAV_TYPE_VTOL_DUOROTOR\000"
 5753      54595045 
 5753      5F56544F 
 5753      4C5F4455 
 5753      4F524F54 
 5754              	.LASF95:
 5755 02b0 4D41565F 		.ascii	"MAV_MODE_STABILIZE_DISARMED\000"
 5755      4D4F4445 
 5755      5F535441 
 5755      42494C49 
 5755      5A455F44 
 5756              	.LASF205:
 5757 02cc 54686574 		.ascii	"Theta_temp\000"
 5757      615F7465 
 5757      6D7000
 5758              	.LASF59:
 5759 02d7 4D41565F 		.ascii	"MAV_AUTOPILOT_ASLUAV\000"
 5759      4155544F 
 5759      50494C4F 
 5759      545F4153 
 5759      4C554156 
 5760              	.LASF225:
 5761 02ec 5068695F 		.ascii	"Phi_Error_sum\000"
 5761      4572726F 
 5761      725F7375 
 5761      6D00
ARM GAS  C:\Users\Sven\AppData\Local\Temp\ccvvqGJt.s 			page 124


 5762              	.LASF26:
 5763 02fa 666C6F61 		.ascii	"float\000"
 5763      7400
 5764              	.LASF37:
 5765 0300 63686563 		.ascii	"checksum\000"
 5765      6B73756D 
 5765      00
 5766              	.LASF88:
 5767 0309 4D41565F 		.ascii	"MAV_TYPE_VTOL_RESERVED5\000"
 5767      54595045 
 5767      5F56544F 
 5767      4C5F5245 
 5767      53455256 
 5768              	.LASF232:
 5769 0321 73797374 		.ascii	"system_type\000"
 5769      656D5F74 
 5769      79706500 
 5770              	.LASF150:
 5771 032d 656C6576 		.ascii	"elevator_offset\000"
 5771      61746F72 
 5771      5F6F6666 
 5771      73657400 
 5772              	.LASF172:
 5773 033d 4E61764C 		.ascii	"NavLightStep\000"
 5773      69676874 
 5773      53746570 
 5773      00
 5774              	.LASF18:
 5775 034a 696E7431 		.ascii	"int16_t\000"
 5775      365F7400 
 5776              	.LASF60:
 5777 0352 4D41565F 		.ascii	"MAV_AUTOPILOT_ENUM_END\000"
 5777      4155544F 
 5777      50494C4F 
 5777      545F454E 
 5777      554D5F45 
 5778              	.LASF70:
 5779 0369 4D41565F 		.ascii	"MAV_TYPE_AIRSHIP\000"
 5779      54595045 
 5779      5F414952 
 5779      53484950 
 5779      00
 5780              	.LASF194:
 5781 037a 73706565 		.ascii	"speed_offset\000"
 5781      645F6F66 
 5781      66736574 
 5781      00
 5782              	.LASF14:
 5783 0387 6C6F6E67 		.ascii	"long long unsigned int\000"
 5783      206C6F6E 
 5783      6720756E 
 5783      7369676E 
 5783      65642069 
 5784              	.LASF187:
 5785 039e 5068695F 		.ascii	"Phi_Mav\000"
 5785      4D617600 
 5786              	.LASF182:
ARM GAS  C:\Users\Sven\AppData\Local\Temp\ccvvqGJt.s 			page 125


 5787 03a6 6D61675F 		.ascii	"mag_y_g\000"
 5787      795F6700 
 5788              	.LASF276:
 5789 03ae 474E5520 		.ascii	"GNU C 4.8.4 20140526 (release) [ARM/embedded-4_8-br"
 5789      4320342E 
 5789      382E3420 
 5789      32303134 
 5789      30353236 
 5790 03e1 616E6368 		.ascii	"anch revision 211358] -mcpu=cortex-m0 -mthumb -g -O"
 5790      20726576 
 5790      6973696F 
 5790      6E203231 
 5790      31333538 
 5791 0414 73202D66 		.ascii	"s -ffunction-sections -finline-functions\000"
 5791      66756E63 
 5791      74696F6E 
 5791      2D736563 
 5791      74696F6E 
 5792              	.LASF214:
 5793 043d 4B5F315F 		.ascii	"K_1_Phi\000"
 5793      50686900 
 5794              	.LASF73:
 5795 0445 4D41565F 		.ascii	"MAV_TYPE_GROUND_ROVER\000"
 5795      54595045 
 5795      5F47524F 
 5795      554E445F 
 5795      524F5645 
 5796              	.LASF211:
 5797 045b 5068695F 		.ascii	"Phi_temp\000"
 5797      74656D70 
 5797      00
 5798              	.LASF6:
 5799 0464 5F5F7569 		.ascii	"__uint16_t\000"
 5799      6E743136 
 5799      5F7400
 5800              	.LASF273:
 5801 046f 426F6F74 		.ascii	"Bootloadable_1_Load\000"
 5801      6C6F6164 
 5801      61626C65 
 5801      5F315F4C 
 5801      6F616400 
 5802              	.LASF77:
 5803 0483 4D41565F 		.ascii	"MAV_TYPE_OCTOROTOR\000"
 5803      54595045 
 5803      5F4F4354 
 5803      4F524F54 
 5803      4F5200
 5804              	.LASF191:
 5805 0496 4D61675F 		.ascii	"Mag_x\000"
 5805      7800
 5806              	.LASF192:
 5807 049c 4D61675F 		.ascii	"Mag_y\000"
 5807      7900
 5808              	.LASF188:
 5809 04a2 5068695F 		.ascii	"Phi_acc\000"
 5809      61636300 
 5810              	.LASF248:
ARM GAS  C:\Users\Sven\AppData\Local\Temp\ccvvqGJt.s 			page 126


 5811 04aa 4144435F 		.ascii	"ADC_Start\000"
 5811      53746172 
 5811      7400
 5812              	.LASF79:
 5813 04b4 4D41565F 		.ascii	"MAV_TYPE_FLAPPING_WING\000"
 5813      54595045 
 5813      5F464C41 
 5813      5050494E 
 5813      475F5749 
 5814              	.LASF166:
 5815 04cb 72656365 		.ascii	"receiver_connected\000"
 5815      69766572 
 5815      5F636F6E 
 5815      6E656374 
 5815      656400
 5816              	.LASF139:
 5817 04de 64616D70 		.ascii	"damped\000"
 5817      656400
 5818              	.LASF155:
 5819 04e5 4B695F50 		.ascii	"Ki_Phi\000"
 5819      686900
 5820              	.LASF27:
 5821 04ec 646F7562 		.ascii	"double\000"
 5821      6C6500
 5822              	.LASF231:
 5823 04f3 6D61766C 		.ascii	"mavlink_system\000"
 5823      696E6B5F 
 5823      73797374 
 5823      656D00
 5824              	.LASF171:
 5825 0502 4E61764C 		.ascii	"NavLightDim\000"
 5825      69676874 
 5825      44696D00 
 5826              	.LASF208:
 5827 050e 4B5F315F 		.ascii	"K_1_Theta\000"
 5827      54686574 
 5827      6100
 5828              	.LASF92:
 5829 0518 4D41565F 		.ascii	"MAV_MODE_PREFLIGHT\000"
 5829      4D4F4445 
 5829      5F505245 
 5829      464C4947 
 5829      485400
 5830              	.LASF13:
 5831 052b 5F5F7569 		.ascii	"__uint64_t\000"
 5831      6E743634 
 5831      5F7400
 5832              	.LASF169:
 5833 0536 666C6167 		.ascii	"flag_NavLightPulse\000"
 5833      5F4E6176 
 5833      4C696768 
 5833      7450756C 
 5833      736500
 5834              	.LASF98:
 5835 0549 4D41565F 		.ascii	"MAV_MODE_MANUAL_ARMED\000"
 5835      4D4F4445 
 5835      5F4D414E 
ARM GAS  C:\Users\Sven\AppData\Local\Temp\ccvvqGJt.s 			page 127


 5835      55414C5F 
 5835      41524D45 
 5836              	.LASF123:
 5837 055f 655F6F75 		.ascii	"e_out\000"
 5837      7400
 5838              	.LASF113:
 5839 0565 4D41565F 		.ascii	"MAV_STATE_ENUM_END\000"
 5839      53544154 
 5839      455F454E 
 5839      554D5F45 
 5839      4E4400
 5840              	.LASF12:
 5841 0578 6C6F6E67 		.ascii	"long long int\000"
 5841      206C6F6E 
 5841      6720696E 
 5841      7400
 5842              	.LASF199:
 5843 0586 70726573 		.ascii	"press\000"
 5843      7300
 5844              	.LASF55:
 5845 058c 4D41565F 		.ascii	"MAV_AUTOPILOT_SMACCMPILOT\000"
 5845      4155544F 
 5845      50494C4F 
 5845      545F534D 
 5845      4143434D 
 5846              	.LASF29:
 5847 05a6 63686172 		.ascii	"char\000"
 5847      00
 5848              	.LASF237:
 5849 05ab 636E745F 		.ascii	"cnt_ML_HEARTBEAT_send\000"
 5849      4D4C5F48 
 5849      45415254 
 5849      42454154 
 5849      5F73656E 
 5850              	.LASF80:
 5851 05c1 4D41565F 		.ascii	"MAV_TYPE_KITE\000"
 5851      54595045 
 5851      5F4B4954 
 5851      4500
 5852              	.LASF197:
 5853 05cf 636E745F 		.ascii	"cnt_baro\000"
 5853      6261726F 
 5853      00
 5854              	.LASF185:
 5855 05d8 54686574 		.ascii	"Theta_Mav\000"
 5855      615F4D61 
 5855      7600
 5856              	.LASF167:
 5857 05e2 4374726C 		.ascii	"Ctrl_Mode\000"
 5857      5F4D6F64 
 5857      6500
 5858              	.LASF234:
 5859 05ec 73797374 		.ascii	"system_mode\000"
 5859      656D5F6D 
 5859      6F646500 
 5860              	.LASF106:
 5861 05f8 4D41565F 		.ascii	"MAV_STATE_BOOT\000"
ARM GAS  C:\Users\Sven\AppData\Local\Temp\ccvvqGJt.s 			page 128


 5861      53544154 
 5861      455F424F 
 5861      4F5400
 5862              	.LASF78:
 5863 0607 4D41565F 		.ascii	"MAV_TYPE_TRICOPTER\000"
 5863      54595045 
 5863      5F545249 
 5863      434F5054 
 5863      455200
 5864              	.LASF15:
 5865 061a 756E7369 		.ascii	"unsigned int\000"
 5865      676E6564 
 5865      20696E74 
 5865      00
 5866              	.LASF184:
 5867 0627 54686574 		.ascii	"Theta\000"
 5867      6100
 5868              	.LASF63:
 5869 062d 4D41565F 		.ascii	"MAV_TYPE_GENERIC\000"
 5869      54595045 
 5869      5F47454E 
 5869      45524943 
 5869      00
 5870              	.LASF196:
 5871 063e 73706565 		.ascii	"speed_cal_compl\000"
 5871      645F6361 
 5871      6C5F636F 
 5871      6D706C00 
 5872              	.LASF17:
 5873 064e 75696E74 		.ascii	"uint8_t\000"
 5873      385F7400 
 5874              	.LASF45:
 5875 0656 4D41565F 		.ascii	"MAV_AUTOPILOT_ARDUPILOTMEGA\000"
 5875      4155544F 
 5875      50494C4F 
 5875      545F4152 
 5875      44555049 
 5876              	.LASF163:
 5877 0672 6374726C 		.ascii	"ctrl_in_trim\000"
 5877      5F696E5F 
 5877      7472696D 
 5877      00
 5878              	.LASF54:
 5879 067f 4D41565F 		.ascii	"MAV_AUTOPILOT_PX4\000"
 5879      4155544F 
 5879      50494C4F 
 5879      545F5058 
 5879      3400
 5880              	.LASF28:
 5881 0691 63686172 		.ascii	"char8\000"
 5881      3800
 5882              	.LASF157:
 5883 0697 7461736B 		.ascii	"task_flag\000"
 5883      5F666C61 
 5883      6700
 5884              	.LASF186:
 5885 06a1 54686574 		.ascii	"Theta_acc\000"
ARM GAS  C:\Users\Sven\AppData\Local\Temp\ccvvqGJt.s 			page 129


 5885      615F6163 
 5885      6300
 5886              	.LASF53:
 5887 06ab 4D41565F 		.ascii	"MAV_AUTOPILOT_FP\000"
 5887      4155544F 
 5887      50494C4F 
 5887      545F4650 
 5887      00
 5888              	.LASF201:
 5889 06bc 515F6779 		.ascii	"Q_gyro\000"
 5889      726F00
 5890              	.LASF47:
 5891 06c3 4D41565F 		.ascii	"MAV_AUTOPILOT_GENERIC_WAYPOINTS_ONLY\000"
 5891      4155544F 
 5891      50494C4F 
 5891      545F4745 
 5891      4E455249 
 5892              	.LASF254:
 5893 06e8 53657276 		.ascii	"ServoTimer_Start\000"
 5893      6F54696D 
 5893      65725F53 
 5893      74617274 
 5893      00
 5894              	.LASF119:
 5895 06f9 696E5F67 		.ascii	"in_gear\000"
 5895      65617200 
 5896              	.LASF67:
 5897 0701 4D41565F 		.ascii	"MAV_TYPE_HELICOPTER\000"
 5897      54595045 
 5897      5F48454C 
 5897      49434F50 
 5897      54455200 
 5898              	.LASF43:
 5899 0715 4D41565F 		.ascii	"MAV_AUTOPILOT_PIXHAWK\000"
 5899      4155544F 
 5899      50494C4F 
 5899      545F5049 
 5899      58484157 
 5900              	.LASF203:
 5901 072b 715F6269 		.ascii	"q_bias\000"
 5901      617300
 5902              	.LASF35:
 5903 0732 5F5F6D61 		.ascii	"__mavlink_system\000"
 5903      766C696E 
 5903      6B5F7379 
 5903      7374656D 
 5903      00
 5904              	.LASF114:
 5905 0743 655F696E 		.ascii	"e_in\000"
 5905      00
 5906              	.LASF118:
 5907 0748 696E5F72 		.ascii	"in_rud\000"
 5907      756400
 5908              	.LASF41:
 5909 074f 6D61766C 		.ascii	"mavlink_message_t\000"
 5909      696E6B5F 
 5909      6D657373 
ARM GAS  C:\Users\Sven\AppData\Local\Temp\ccvvqGJt.s 			page 130


 5909      6167655F 
 5909      7400
 5910              	.LASF149:
 5911 0761 61696C65 		.ascii	"aileron_offset\000"
 5911      726F6E5F 
 5911      6F666673 
 5911      657400
 5912              	.LASF4:
 5913 0770 5F5F696E 		.ascii	"__int16_t\000"
 5913      7431365F 
 5913      7400
 5914              	.LASF274:
 5915 077a 43795379 		.ascii	"CySysWdtResetCounters\000"
 5915      73576474 
 5915      52657365 
 5915      74436F75 
 5915      6E746572 
 5916              	.LASF64:
 5917 0790 4D41565F 		.ascii	"MAV_TYPE_FIXED_WING\000"
 5917      54595045 
 5917      5F464958 
 5917      45445F57 
 5917      494E4700 
 5918              	.LASF226:
 5919 07a4 5068695F 		.ascii	"Phi_Error_prev\000"
 5919      4572726F 
 5919      725F7072 
 5919      657600
 5920              	.LASF122:
 5921 07b3 696E5F73 		.ascii	"in_sp2\000"
 5921      703200
 5922              	.LASF210:
 5923 07ba 505F5068 		.ascii	"P_Phi\000"
 5923      6900
 5924              	.LASF219:
 5925 07c0 54686574 		.ascii	"Theta_Target\000"
 5925      615F5461 
 5925      72676574 
 5925      00
 5926              	.LASF42:
 5927 07cd 4D41565F 		.ascii	"MAV_AUTOPILOT_GENERIC\000"
 5927      4155544F 
 5927      50494C4F 
 5927      545F4745 
 5927      4E455249 
 5928              	.LASF148:
 5929 07e3 73746174 		.ascii	"state_change\000"
 5929      655F6368 
 5929      616E6765 
 5929      00
 5930              	.LASF135:
 5931 07f0 6F75745F 		.ascii	"out_sp1\000"
 5931      73703100 
 5932              	.LASF136:
 5933 07f8 6F75745F 		.ascii	"out_sp2\000"
 5933      73703200 
 5934              	.LASF58:
ARM GAS  C:\Users\Sven\AppData\Local\Temp\ccvvqGJt.s 			page 131


 5935 0800 4D41565F 		.ascii	"MAV_AUTOPILOT_AEROB\000"
 5935      4155544F 
 5935      50494C4F 
 5935      545F4145 
 5935      524F4200 
 5936              	.LASF202:
 5937 0814 525F616E 		.ascii	"R_angle\000"
 5937      676C6500 
 5938              	.LASF212:
 5939 081c 535F5068 		.ascii	"S_Phi\000"
 5939      6900
 5940              	.LASF31:
 5941 0822 6C6F6E67 		.ascii	"long double\000"
 5941      20646F75 
 5941      626C6500 
 5942              	.LASF50:
 5943 082e 4D41565F 		.ascii	"MAV_AUTOPILOT_INVALID\000"
 5943      4155544F 
 5943      50494C4F 
 5943      545F494E 
 5943      56414C49 
 5944              	.LASF24:
 5945 0844 75696E74 		.ascii	"uint32\000"
 5945      333200
 5946              	.LASF156:
 5947 084b 4B645F50 		.ascii	"Kd_Phi\000"
 5947      686900
 5948              	.LASF204:
 5949 0852 505F5468 		.ascii	"P_Theta\000"
 5949      65746100 
 5950              	.LASF102:
 5951 085a 4D41565F 		.ascii	"MAV_MODE_AUTO_ARMED\000"
 5951      4D4F4445 
 5951      5F415554 
 5951      4F5F4152 
 5951      4D454400 
 5952              	.LASF278:
 5953 086e 453A5C44 		.ascii	"E:\\Dokumente\\GitHub\\T-50_Project\\Software\\T-50"
 5953      6F6B756D 
 5953      656E7465 
 5953      5C476974 
 5953      4875625C 
 5954 089c 5F50726F 		.ascii	"_Project\\T-50_Project.cydsn\000"
 5954      6A656374 
 5954      5C542D35 
 5954      305F5072 
 5954      6F6A6563 
 5955              	.LASF111:
 5956 08b8 4D41565F 		.ascii	"MAV_STATE_EMERGENCY\000"
 5956      53544154 
 5956      455F454D 
 5956      45524745 
 5956      4E435900 
 5957              	.LASF90:
 5958 08cc 4D41565F 		.ascii	"MAV_TYPE_ENUM_END\000"
 5958      54595045 
 5958      5F454E55 
ARM GAS  C:\Users\Sven\AppData\Local\Temp\ccvvqGJt.s 			page 132


 5958      4D5F454E 
 5958      4400
 5959              	.LASF252:
 5960 08de 4E61764C 		.ascii	"NavLightPWM_Start\000"
 5960      69676874 
 5960      50574D5F 
 5960      53746172 
 5960      7400
 5961              	.LASF154:
 5962 08f0 4B705F50 		.ascii	"Kp_Phi\000"
 5962      686900
 5963              	.LASF223:
 5964 08f7 5068695F 		.ascii	"Phi_Target\000"
 5964      54617267 
 5964      657400
 5965              	.LASF69:
 5966 0902 4D41565F 		.ascii	"MAV_TYPE_GCS\000"
 5966      54595045 
 5966      5F474353 
 5966      00
 5967              	.LASF175:
 5968 090f 7475726E 		.ascii	"turn_rate_p\000"
 5968      5F726174 
 5968      655F7000 
 5969              	.LASF176:
 5970 091b 7475726E 		.ascii	"turn_rate_q\000"
 5970      5F726174 
 5970      655F7100 
 5971              	.LASF177:
 5972 0927 7475726E 		.ascii	"turn_rate_r\000"
 5972      5F726174 
 5972      655F7200 
 5973              	.LASF74:
 5974 0933 4D41565F 		.ascii	"MAV_TYPE_SURFACE_BOAT\000"
 5974      54595045 
 5974      5F535552 
 5974      46414345 
 5974      5F424F41 
 5975              	.LASF213:
 5976 0949 4B5F305F 		.ascii	"K_0_Phi\000"
 5976      50686900 
 5977              	.LASF256:
 5978 0951 50504D52 		.ascii	"PPMRstISR_Start\000"
 5978      73744953 
 5978      525F5374 
 5978      61727400 
 5979              	.LASF180:
 5980 0961 6163635F 		.ascii	"acc_z_g\000"
 5980      7A5F6700 
 5981              	.LASF34:
 5982 0969 6D61766C 		.ascii	"mavlink_system_t\000"
 5982      696E6B5F 
 5982      73797374 
 5982      656D5F74 
 5982      00
 5983              	.LASF145:
 5984 097a 4144435F 		.ascii	"ADC_calibrate_speed\000"
ARM GAS  C:\Users\Sven\AppData\Local\Temp\ccvvqGJt.s 			page 133


 5984      63616C69 
 5984      62726174 
 5984      655F7370 
 5984      65656400 
 5985              	.LASF228:
 5986 098e 52785F53 		.ascii	"Rx_String\000"
 5986      7472696E 
 5986      6700
 5987              	.LASF218:
 5988 0998 74756E65 		.ascii	"tune_cnt\000"
 5988      5F636E74 
 5988      00
 5989              	.LASF241:
 5990 09a1 73707269 		.ascii	"sprintf\000"
 5990      6E746600 
 5991              	.LASF19:
 5992 09a9 75696E74 		.ascii	"uint16_t\000"
 5992      31365F74 
 5992      00
 5993              	.LASF85:
 5994 09b2 4D41565F 		.ascii	"MAV_TYPE_VTOL_RESERVED2\000"
 5994      54595045 
 5994      5F56544F 
 5994      4C5F5245 
 5994      53455256 
 5995              	.LASF86:
 5996 09ca 4D41565F 		.ascii	"MAV_TYPE_VTOL_RESERVED3\000"
 5996      54595045 
 5996      5F56544F 
 5996      4C5F5245 
 5996      53455256 
 5997              	.LASF87:
 5998 09e2 4D41565F 		.ascii	"MAV_TYPE_VTOL_RESERVED4\000"
 5998      54595045 
 5998      5F56544F 
 5998      4C5F5245 
 5998      53455256 
 5999              	.LASF215:
 6000 09fa 4B5F645F 		.ascii	"K_d_p\000"
 6000      7000
 6001              	.LASF216:
 6002 0a00 4B5F645F 		.ascii	"K_d_q\000"
 6002      7100
 6003              	.LASF217:
 6004 0a06 4B5F645F 		.ascii	"K_d_r\000"
 6004      7200
 6005              	.LASF170:
 6006 0a0c 4E61764C 		.ascii	"NavLightBright\000"
 6006      69676874 
 6006      42726967 
 6006      687400
 6007              	.LASF183:
 6008 0a1b 6D61675F 		.ascii	"mag_z_g\000"
 6008      7A5F6700 
 6009              	.LASF266:
 6010 0a23 43795379 		.ascii	"CySysWdtEnable\000"
 6010      73576474 
ARM GAS  C:\Users\Sven\AppData\Local\Temp\ccvvqGJt.s 			page 134


 6010      456E6162 
 6010      6C6500
 6011              	.LASF259:
 6012 0a32 426F6F74 		.ascii	"BootISR_Start\000"
 6012      4953525F 
 6012      53746172 
 6012      7400
 6013              	.LASF66:
 6014 0a40 4D41565F 		.ascii	"MAV_TYPE_COAXIAL\000"
 6014      54595045 
 6014      5F434F41 
 6014      5849414C 
 6014      00
 6015              	.LASF5:
 6016 0a51 73686F72 		.ascii	"short int\000"
 6016      7420696E 
 6016      7400
 6017              	.LASF49:
 6018 0a5b 4D41565F 		.ascii	"MAV_AUTOPILOT_GENERIC_MISSION_FULL\000"
 6018      4155544F 
 6018      50494C4F 
 6018      545F4745 
 6018      4E455249 
 6019              	.LASF9:
 6020 0a7e 6C6F6E67 		.ascii	"long int\000"
 6020      20696E74 
 6020      00
 6021              	.LASF62:
 6022 0a87 4D41565F 		.ascii	"MAV_TYPE\000"
 6022      54595045 
 6022      00
 6023              	.LASF275:
 6024 0a90 55415254 		.ascii	"UART_1_UartGetChar\000"
 6024      5F315F55 
 6024      61727447 
 6024      65744368 
 6024      617200
 6025              	.LASF81:
 6026 0aa3 4D41565F 		.ascii	"MAV_TYPE_ONBOARD_CONTROLLER\000"
 6026      54595045 
 6026      5F4F4E42 
 6026      4F415244 
 6026      5F434F4E 
 6027              	.LASF101:
 6028 0abf 4D41565F 		.ascii	"MAV_MODE_GUIDED_ARMED\000"
 6028      4D4F4445 
 6028      5F475549 
 6028      4445445F 
 6028      41524D45 
 6029              	.LASF174:
 6030 0ad5 636E745F 		.ascii	"cnt_StrobeLight\000"
 6030      5374726F 
 6030      62654C69 
 6030      67687400 
 6031              	.LASF198:
 6032 0ae5 74656D70 		.ascii	"temp\000"
 6032      00
ARM GAS  C:\Users\Sven\AppData\Local\Temp\ccvvqGJt.s 			page 135


 6033              	.LASF209:
 6034 0aea 705F6269 		.ascii	"p_bias\000"
 6034      617300
 6035              	.LASF22:
 6036 0af1 75696E74 		.ascii	"uint64_t\000"
 6036      36345F74 
 6036      00
 6037              	.LASF147:
 6038 0afa 50726576 		.ascii	"PrevCtrl_Mode\000"
 6038      4374726C 
 6038      5F4D6F64 
 6038      6500
 6039              	.LASF193:
 6040 0b08 4261725F 		.ascii	"Bar_press\000"
 6040      70726573 
 6040      7300
 6041              	.LASF40:
 6042 0b12 7061796C 		.ascii	"payload64\000"
 6042      6F616436 
 6042      3400
 6043              	.LASF190:
 6044 0b1c 4D61675F 		.ascii	"Mag_Heading\000"
 6044      48656164 
 6044      696E6700 
 6045              	.LASF61:
 6046 0b28 4D41565F 		.ascii	"MAV_AUTOPILOT\000"
 6046      4155544F 
 6046      50494C4F 
 6046      5400
 6047              	.LASF222:
 6048 0b36 54686574 		.ascii	"Theta_Error_prev\000"
 6048      615F4572 
 6048      726F725F 
 6048      70726576 
 6048      00
 6049              	.LASF1:
 6050 0b47 5F5F7569 		.ascii	"__uint8_t\000"
 6050      6E74385F 
 6050      7400
 6051              	.LASF178:
 6052 0b51 6163635F 		.ascii	"acc_x_g\000"
 6052      785F6700 
 6053              	.LASF120:
 6054 0b59 696E5F63 		.ascii	"in_can\000"
 6054      616E00
 6055              	.LASF36:
 6056 0b60 5F5F6D61 		.ascii	"__mavlink_message\000"
 6056      766C696E 
 6056      6B5F6D65 
 6056      73736167 
 6056      6500
 6057              	.LASF250:
 6058 0b72 43795379 		.ascii	"CySysWdtWriteMatch\000"
 6058      73576474 
 6058      57726974 
 6058      654D6174 
 6058      636800
ARM GAS  C:\Users\Sven\AppData\Local\Temp\ccvvqGJt.s 			page 136


 6059              	.LASF72:
 6060 0b85 4D41565F 		.ascii	"MAV_TYPE_ROCKET\000"
 6060      54595045 
 6060      5F524F43 
 6060      4B455400 
 6061              	.LASF246:
 6062 0b95 55415254 		.ascii	"UART_1_Start\000"
 6062      5F315F53 
 6062      74617274 
 6062      00
 6063              	.LASF76:
 6064 0ba2 4D41565F 		.ascii	"MAV_TYPE_HEXAROTOR\000"
 6064      54595045 
 6064      5F484558 
 6064      41524F54 
 6064      4F5200
 6065              	.LASF267:
 6066 0bb5 4E61764C 		.ascii	"NavLightPWM_WriteCompare\000"
 6066      69676874 
 6066      50574D5F 
 6066      57726974 
 6066      65436F6D 
 6067              	.LASF38:
 6068 0bce 6D616769 		.ascii	"magic\000"
 6068      6300
 6069              	.LASF0:
 6070 0bd4 5F5F696E 		.ascii	"__int8_t\000"
 6070      74385F74 
 6070      00
 6071              	.LASF243:
 6072 0bdd 4144435F 		.ascii	"ADC_StartConvert\000"
 6072      53746172 
 6072      74436F6E 
 6072      76657274 
 6072      00
 6073              	.LASF206:
 6074 0bee 535F5468 		.ascii	"S_Theta\000"
 6074      65746100 
 6075              	.LASF46:
 6076 0bf6 4D41565F 		.ascii	"MAV_AUTOPILOT_OPENPILOT\000"
 6076      4155544F 
 6076      50494C4F 
 6076      545F4F50 
 6076      454E5049 
 6077              	.LASF117:
 6078 0c0e 696E5F65 		.ascii	"in_ele\000"
 6078      6C6500
 6079              	.LASF253:
 6080 0c15 50504D43 		.ascii	"PPMCounter_Start\000"
 6080      6F756E74 
 6080      65725F53 
 6080      74617274 
 6080      00
 6081              	.LASF160:
 6082 0c26 50504D5F 		.ascii	"PPM_channel\000"
 6082      6368616E 
 6082      6E656C00 
ARM GAS  C:\Users\Sven\AppData\Local\Temp\ccvvqGJt.s 			page 137


 6083              	.LASF30:
 6084 0c32 73697A65 		.ascii	"sizetype\000"
 6084      74797065 
 6084      00
 6085              	.LASF11:
 6086 0c3b 6C6F6E67 		.ascii	"long unsigned int\000"
 6086      20756E73 
 6086      69676E65 
 6086      6420696E 
 6086      7400
 6087              	.LASF207:
 6088 0c4d 4B5F305F 		.ascii	"K_0_Theta\000"
 6088      54686574 
 6088      6100
 6089              	.LASF263:
 6090 0c57 424D5031 		.ascii	"BMP180_baro_trigger_pressure\000"
 6090      38305F62 
 6090      61726F5F 
 6090      74726967 
 6090      6765725F 
 6091              	.LASF20:
 6092 0c74 696E7433 		.ascii	"int32_t\000"
 6092      325F7400 
 6093              	.LASF84:
 6094 0c7c 4D41565F 		.ascii	"MAV_TYPE_VTOL_RESERVED1\000"
 6094      54595045 
 6094      5F56544F 
 6094      4C5F5245 
 6094      53455256 
 6095              	.LASF242:
 6096 0c94 4144435F 		.ascii	"ADC_GetResult16\000"
 6096      47657452 
 6096      6573756C 
 6096      74313600 
 6097              	.LASF271:
 6098 0ca4 6174616E 		.ascii	"atan2\000"
 6098      3200
 6099              	.LASF103:
 6100 0caa 4D41565F 		.ascii	"MAV_MODE_ENUM_END\000"
 6100      4D4F4445 
 6100      5F454E55 
 6100      4D5F454E 
 6100      4400
 6101              	.LASF258:
 6102 0cbc 5461736B 		.ascii	"TaskISR_Start\000"
 6102      4953525F 
 6102      53746172 
 6102      7400
 6103              	.LASF3:
 6104 0cca 756E7369 		.ascii	"unsigned char\000"
 6104      676E6564 
 6104      20636861 
 6104      7200
 6105              	.LASF10:
 6106 0cd8 5F5F7569 		.ascii	"__uint32_t\000"
 6106      6E743332 
 6106      5F7400
ARM GAS  C:\Users\Sven\AppData\Local\Temp\ccvvqGJt.s 			page 138


 6107              	.LASF129:
 6108 0ce3 6F75745F 		.ascii	"out_rud\000"
 6108      72756400 
 6109              	.LASF200:
 6110 0ceb 515F616E 		.ascii	"Q_angle\000"
 6110      676C6500 
 6111              	.LASF235:
 6112 0cf3 63757374 		.ascii	"custom_mode\000"
 6112      6F6D5F6D 
 6112      6F646500 
 6113              	.LASF247:
 6114 0cff 4932434D 		.ascii	"I2CM_Start\000"
 6114      5F537461 
 6114      727400
 6115              	.LASF181:
 6116 0d0a 6D61675F 		.ascii	"mag_x_g\000"
 6116      785F6700 
 6117              	.LASF168:
 6118 0d12 666C6167 		.ascii	"flag_LightsEnabled\000"
 6118      5F4C6967 
 6118      68747345 
 6118      6E61626C 
 6118      656400
 6119              	.LASF165:
 6120 0d25 6374726C 		.ascii	"ctrl_out_DAMP\000"
 6120      5F6F7574 
 6120      5F44414D 
 6120      5000
 6121              	.LASF99:
 6122 0d33 4D41565F 		.ascii	"MAV_MODE_TEST_ARMED\000"
 6122      4D4F4445 
 6122      5F544553 
 6122      545F4152 
 6122      4D454400 
 6123              	.LASF221:
 6124 0d47 54686574 		.ascii	"Theta_Error_sum\000"
 6124      615F4572 
 6124      726F725F 
 6124      73756D00 
 6125              	.LASF249:
 6126 0d57 43795379 		.ascii	"CySysWdtWriteMode\000"
 6126      73576474 
 6126      57726974 
 6126      654D6F64 
 6126      6500
 6127              	.LASF230:
 6128 0d69 52785F66 		.ascii	"Rx_flag\000"
 6128      6C616700 
 6129              	.LASF269:
 6130 0d71 4C64675F 		.ascii	"Ldg_Write\000"
 6130      57726974 
 6130      6500
 6131              	.LASF112:
 6132 0d7b 4D41565F 		.ascii	"MAV_STATE_POWEROFF\000"
 6132      53544154 
 6132      455F504F 
 6132      5745524F 
ARM GAS  C:\Users\Sven\AppData\Local\Temp\ccvvqGJt.s 			page 139


 6132      464600
 6133              	.LASF56:
 6134 0d8e 4D41565F 		.ascii	"MAV_AUTOPILOT_AUTOQUAD\000"
 6134      4155544F 
 6134      50494C4F 
 6134      545F4155 
 6134      544F5155 
 6135              	.LASF244:
 6136 0da5 4144435F 		.ascii	"ADC_StopConvert\000"
 6136      53746F70 
 6136      436F6E76 
 6136      65727400 
 6137              	.LASF110:
 6138 0db5 4D41565F 		.ascii	"MAV_STATE_CRITICAL\000"
 6138      53544154 
 6138      455F4352 
 6138      49544943 
 6138      414C00
 6139              	.LASF142:
 6140 0dc8 55415254 		.ascii	"UART_1_UartPutNum\000"
 6140      5F315F55 
 6140      61727450 
 6140      75744E75 
 6140      6D00
 6141              	.LASF268:
 6142 0dda 5374726F 		.ascii	"Strobes_Write\000"
 6142      6265735F 
 6142      57726974 
 6142      6500
 6143              	.LASF68:
 6144 0de8 4D41565F 		.ascii	"MAV_TYPE_ANTENNA_TRACKER\000"
 6144      54595045 
 6144      5F414E54 
 6144      454E4E41 
 6144      5F545241 
 6145              	.LASF91:
 6146 0e01 4D41565F 		.ascii	"MAV_MODE\000"
 6146      4D4F4445 
 6146      00
 6147              	.LASF260:
 6148 0e0a 4D505536 		.ascii	"MPU6050_Init\000"
 6148      3035305F 
 6148      496E6974 
 6148      00
 6149              	.LASF229:
 6150 0e17 52785F69 		.ascii	"Rx_index\000"
 6150      6E646578 
 6150      00
 6151              	.LASF125:
 6152 0e20 6F75745F 		.ascii	"out_ail1\000"
 6152      61696C31 
 6152      00
 6153              	.LASF126:
 6154 0e29 6F75745F 		.ascii	"out_ail2\000"
 6154      61696C32 
 6154      00
 6155              	.LASF93:
ARM GAS  C:\Users\Sven\AppData\Local\Temp\ccvvqGJt.s 			page 140


 6156 0e32 4D41565F 		.ascii	"MAV_MODE_MANUAL_DISARMED\000"
 6156      4D4F4445 
 6156      5F4D414E 
 6156      55414C5F 
 6156      44495341 
 6157              	.LASF261:
 6158 0e4b 424D5031 		.ascii	"BMP180_baro_init\000"
 6158      38305F62 
 6158      61726F5F 
 6158      696E6974 
 6158      00
 6159              	.LASF7:
 6160 0e5c 73686F72 		.ascii	"short unsigned int\000"
 6160      7420756E 
 6160      7369676E 
 6160      65642069 
 6160      6E7400
 6161              	.LASF262:
 6162 0e6f 424D5031 		.ascii	"BMP180_baro_trigger_temp\000"
 6162      38305F62 
 6162      61726F5F 
 6162      74726967 
 6162      6765725F 
 6163              	.LASF146:
 6164 0e88 6D61696E 		.ascii	"main\000"
 6164      00
 6165              	.LASF96:
 6166 0e8d 4D41565F 		.ascii	"MAV_MODE_GUIDED_DISARMED\000"
 6166      4D4F4445 
 6166      5F475549 
 6166      4445445F 
 6166      44495341 
 6167              	.LASF97:
 6168 0ea6 4D41565F 		.ascii	"MAV_MODE_AUTO_DISARMED\000"
 6168      4D4F4445 
 6168      5F415554 
 6168      4F5F4449 
 6168      5341524D 
 6169              	.LASF143:
 6170 0ebd 55415254 		.ascii	"UART_1_UartSendMavlink\000"
 6170      5F315F55 
 6170      61727453 
 6170      656E644D 
 6170      61766C69 
 6171              	.LASF227:
 6172 0ed4 52785F63 		.ascii	"Rx_char\000"
 6172      68617200 
 6173              	.LASF152:
 6174 0edc 4B695F54 		.ascii	"Ki_Theta\000"
 6174      68657461 
 6174      00
 6175              	.LASF23:
 6176 0ee5 75696E74 		.ascii	"uint8\000"
 6176      3800
 6177              	.LASF127:
 6178 0eeb 6F75745F 		.ascii	"out_ele1\000"
 6178      656C6531 
ARM GAS  C:\Users\Sven\AppData\Local\Temp\ccvvqGJt.s 			page 141


 6178      00
 6179              	.LASF48:
 6180 0ef4 4D41565F 		.ascii	"MAV_AUTOPILOT_GENERIC_WAYPOINTS_AND_SIMPLE_NAVIGATI"
 6180      4155544F 
 6180      50494C4F 
 6180      545F4745 
 6180      4E455249 
 6181 0f27 4F4E5F4F 		.ascii	"ON_ONLY\000"
 6181      4E4C5900 
 6182              	.LASF108:
 6183 0f2f 4D41565F 		.ascii	"MAV_STATE_STANDBY\000"
 6183      53544154 
 6183      455F5354 
 6183      414E4442 
 6183      5900
 6184              	.LASF173:
 6185 0f41 4E61764C 		.ascii	"NavLightCompare\000"
 6185      69676874 
 6185      436F6D70 
 6185      61726500 
 6186              	.LASF159:
 6187 0f51 73616D70 		.ascii	"sample_time\000"
 6187      6C655F74 
 6187      696D6500 
 6188              	.LASF57:
 6189 0f5d 4D41565F 		.ascii	"MAV_AUTOPILOT_ARMAZILA\000"
 6189      4155544F 
 6189      50494C4F 
 6189      545F4152 
 6189      4D415A49 
 6190              	.LASF75:
 6191 0f74 4D41565F 		.ascii	"MAV_TYPE_SUBMARINE\000"
 6191      54595045 
 6191      5F535542 
 6191      4D415249 
 6191      4E4500
 6192              	.LASF51:
 6193 0f87 4D41565F 		.ascii	"MAV_AUTOPILOT_PPZ\000"
 6193      4155544F 
 6193      50494C4F 
 6193      545F5050 
 6193      5A00
 6194              	.LASF257:
 6195 0f99 53657276 		.ascii	"ServoISR_Start\000"
 6195      6F495352 
 6195      5F537461 
 6195      727400
 6196              	.LASF220:
 6197 0fa8 54686574 		.ascii	"Theta_Error\000"
 6197      615F4572 
 6197      726F7200 
 6198              	.LASF140:
 6199 0fb4 74756E65 		.ascii	"tune\000"
 6199      00
 6200              	.LASF264:
 6201 0fb9 424D5031 		.ascii	"BMP180_baro_read_temp\000"
 6201      38305F62 
ARM GAS  C:\Users\Sven\AppData\Local\Temp\ccvvqGJt.s 			page 142


 6201      61726F5F 
 6201      72656164 
 6201      5F74656D 
 6202              	.LASF128:
 6203 0fcf 6F75745F 		.ascii	"out_ele2\000"
 6203      656C6532 
 6203      00
 6204              	.LASF272:
 6205 0fd8 73747263 		.ascii	"strcmp\000"
 6205      6D7000
 6206              	.LASF277:
 6207 0fdf 2E5C6D61 		.ascii	".\\main.c\000"
 6207      696E2E63 
 6207      00
 6208              	.LASF116:
 6209 0fe8 696E5F61 		.ascii	"in_ail\000"
 6209      696C00
 6210              	.LASF189:
 6211 0fef 5073695F 		.ascii	"Psi_acc\000"
 6211      61636300 
 6212              		.ident	"GCC: (GNU Tools for ARM Embedded Processors) 4.8.4 20140526 (release) [ARM/embedded-4_8-br
