ARM GAS  C:\Users\SNFU\AppData\Local\Temp\ccHxQHwv.s 			page 1


   1              		.cpu cortex-m0
   2              		.fpu softvfp
   3              		.eabi_attribute 20, 1
   4              		.eabi_attribute 21, 1
   5              		.eabi_attribute 23, 3
   6              		.eabi_attribute 24, 1
   7              		.eabi_attribute 25, 1
   8              		.eabi_attribute 26, 1
   9              		.eabi_attribute 30, 4
  10              		.eabi_attribute 34, 0
  11              		.eabi_attribute 18, 4
  12              		.code	16
  13              		.file	"main.c"
  14              		.text
  15              	.Ltext0:
  16              		.cfi_sections	.debug_frame
  17              		.section	.text.UART_1_UartPutNum,"ax",%progbits
  18              		.align	1
  19              		.global	UART_1_UartPutNum
  20              		.code	16
  21              		.thumb_func
  22              		.type	UART_1_UartPutNum, %function
  23              	UART_1_UartPutNum:
  24              	.LFB1489:
  25              		.file 1 ".\\main.c"
   1:.\main.c      **** /* ========================================
   2:.\main.c      ****  *
   3:.\main.c      ****  * Copyright SNFU
   4:.\main.c      ****  * All Rights Reserved
   5:.\main.c      ****  * UNPUBLISHED, LICENSED SOFTWARE.
   6:.\main.c      ****  *
   7:.\main.c      ****  * CONFIDENTIAL AND PROPRIETARY INFORMATION
   8:.\main.c      ****  * WHICH IS THE PROPERTY OF your company.
   9:.\main.c      ****  *
  10:.\main.c      ****  * T-50_Project
  11:.\main.c      ****  *
  12:.\main.c      ****  * ========================================
  13:.\main.c      **** */
  14:.\main.c      **** #include <project.h>
  15:.\main.c      **** #include <stdio.h>
  16:.\main.c      **** #include <stdlib.h>
  17:.\main.c      **** #include <math.h>
  18:.\main.c      **** #include <IMU.h>
  19:.\main.c      **** #include <mavlink.h>
  20:.\main.c      **** #include <mavlink_types.h>
  21:.\main.c      **** 
  22:.\main.c      **** #define FALSE   0
  23:.\main.c      **** #define TRUE    1
  24:.\main.c      **** 
  25:.\main.c      **** #define PI			3.1415926535897932384626433832795
  26:.\main.c      **** 
  27:.\main.c      **** volatile uint8_t task_flag = FALSE;     // The Task Flag is set in TaskISR Interrupt Routine
  28:.\main.c      **** volatile uint8_t blink_cnt = 0;
  29:.\main.c      **** float sample_time = 0.01;               // 10 ms Sample time
  30:.\main.c      **** 
  31:.\main.c      **** /*=============================*/
  32:.\main.c      **** /* TASK Flags*/
ARM GAS  C:\Users\SNFU\AppData\Local\Temp\ccHxQHwv.s 			page 2


  33:.\main.c      **** /*=============================*/
  34:.\main.c      **** 
  35:.\main.c      **** 
  36:.\main.c      **** 
  37:.\main.c      **** /*=============================*/
  38:.\main.c      **** /*Remote Input variables*/
  39:.\main.c      **** /*=============================*/
  40:.\main.c      **** uint8_t PPM_channel = 0;                    // input channel variable
  41:.\main.c      **** uint16_t ctrl_in[8] = {0};                  // input control vector
  42:.\main.c      **** uint16_t ctrl_out[13] = {0};                // output control vector
  43:.\main.c      **** 
  44:.\main.c      **** enum e_in{   // Input Control Enum - 8 Channels
  45:.\main.c      ****     in_mot = 0,
  46:.\main.c      ****     in_ail,
  47:.\main.c      ****     in_ele,
  48:.\main.c      ****     in_rud,
  49:.\main.c      ****     in_fl,
  50:.\main.c      ****     in_ge,
  51:.\main.c      ****     in_sp1,
  52:.\main.c      ****     in_sp2
  53:.\main.c      **** };
  54:.\main.c      **** 
  55:.\main.c      **** enum e_out{   // Output Control Enum - 13 Signals
  56:.\main.c      ****     out_mot = 0,
  57:.\main.c      ****     out_ail1,
  58:.\main.c      ****     out_ail2,
  59:.\main.c      ****     out_ele1,
  60:.\main.c      ****     out_ele2,
  61:.\main.c      ****     out_rud,
  62:.\main.c      ****     out_fl1,
  63:.\main.c      ****     out_fl2,
  64:.\main.c      ****     out_ge1,
  65:.\main.c      ****     out_ge2,
  66:.\main.c      ****     out_ge3,
  67:.\main.c      ****     out_sp1,
  68:.\main.c      ****     out_sp2
  69:.\main.c      **** };
  70:.\main.c      **** 
  71:.\main.c      **** /*=============================*/
  72:.\main.c      **** /*Light control variables*/
  73:.\main.c      **** /*=============================*/
  74:.\main.c      **** uint8_t flag_LightsEnabled = TRUE;
  75:.\main.c      **** 
  76:.\main.c      **** /*Nav Light Control START -> Pulsing of the Navigation Lights*/
  77:.\main.c      **** uint8_t flag_NavLightPulse  = FALSE;    // Nav Light Pulse flag (to count up or down)
  78:.\main.c      **** uint16_t NavLightBright     = 100;  // Upper value for the brightness 100 = 100%
  79:.\main.c      **** uint16_t NavLightDim        = 0;    // Lower value for the brightness 0 = 0%
  80:.\main.c      **** uint16_t NavLightStep       = 1;    // Nav Light Pulse Stepwidth => brightness change per 10ms
  81:.\main.c      **** uint16_t NavLightCompare    = 0;    // Nav Light PWM Compare Value
  82:.\main.c      **** /*Strobe Light*/
  83:.\main.c      **** uint8_t cnt_StrobeLight     = 0;
  84:.\main.c      **** 
  85:.\main.c      **** 
  86:.\main.c      **** /*=============================*/
  87:.\main.c      **** /*IMU variables*/
  88:.\main.c      **** /*=============================*/
  89:.\main.c      **** #define GYRO_TASK   TRUE
ARM GAS  C:\Users\SNFU\AppData\Local\Temp\ccHxQHwv.s 			page 3


  90:.\main.c      **** #define ACC_TASK    TRUE
  91:.\main.c      **** #define MAG_TASK    TRUE
  92:.\main.c      **** #define BARO_TASK   TRUE
  93:.\main.c      **** 
  94:.\main.c      **** /* turn rates */
  95:.\main.c      **** int16_t turn_rate_p = 0;
  96:.\main.c      **** int16_t turn_rate_q = 0;
  97:.\main.c      **** int16_t turn_rate_r = 0;
  98:.\main.c      **** /* accelerations*/
  99:.\main.c      **** int16_t acc_x_g = 0;
 100:.\main.c      **** int16_t acc_y_g = 0;
 101:.\main.c      **** int16_t acc_z_g = 0;
 102:.\main.c      **** /* magnetic out*/
 103:.\main.c      **** int16_t mag_x_g = 0;
 104:.\main.c      **** int16_t mag_y_g = 0;
 105:.\main.c      **** int16_t mag_z_g = 0;
 106:.\main.c      **** 
 107:.\main.c      **** /* Euler Angles */
 108:.\main.c      **** float Theta, Theta_acc = 0;   // Theta => estimated angle after Kalman, Theta_acc => Theta from acc
 109:.\main.c      **** float Phi, Phi_acc = 0;       // Phi => estimated angle after Kalman, Phi_acc => Theta from acceler
 110:.\main.c      **** float Psi, Psi_acc = 0;       // Psi , Psi_acc => Psi from accelerometer
 111:.\main.c      **** 
 112:.\main.c      **** /* Magnetic Heading*/
 113:.\main.c      **** int32_t Mag_Heading = 0;
 114:.\main.c      **** float Mag_x, Mag_y = 0;    
 115:.\main.c      **** 
 116:.\main.c      **** /* Barometer Reading*/
 117:.\main.c      **** uint32_t Bar_press = 0;
 118:.\main.c      **** uint8_t cnt_baro  = 0;
 119:.\main.c      **** 
 120:.\main.c      **** /*=============================*/
 121:.\main.c      **** /* Kalman Filter Data			*/
 122:.\main.c      **** /*=============================*/
 123:.\main.c      **** // weighing matrices ???
 124:.\main.c      **** float Q_angle = 0.005;
 125:.\main.c      **** float Q_gyro = 0.005;
 126:.\main.c      **** float R_angle = 0.02;
 127:.\main.c      **** // Estimation of Theta (Kalman)
 128:.\main.c      **** float q_bias = 0;
 129:.\main.c      **** //int8_t P_00_Theta, P_01_Theta, P_10_Theta, P_11_Theta = 0;
 130:.\main.c      **** float P_Theta[2][2] = {0,0,0,0};
 131:.\main.c      **** float Theta_temp, S_Theta, K_0_Theta, K_1_Theta = 0;
 132:.\main.c      **** // Estimation of Phi (Kalman)
 133:.\main.c      **** float p_bias = 0;
 134:.\main.c      **** //int8_t P_00_Phi, P_01_Phi, P_10_Phi, P_11_Phi = 0;
 135:.\main.c      **** float P_Phi[2][2] = {0,0,0,0};
 136:.\main.c      **** float Phi_temp, S_Phi, K_0_Phi, K_1_Phi = 0;
 137:.\main.c      **** 
 138:.\main.c      **** /*=============================*/
 139:.\main.c      **** /* MAVLINK			*/
 140:.\main.c      **** /*=============================*/
 141:.\main.c      **** #define MAVLINK_TASK    FALSE
 142:.\main.c      **** 
 143:.\main.c      **** mavlink_system_t mavlink_system;
 144:.\main.c      **** // Define the system type, in this case an airplane
 145:.\main.c      **** uint8_t system_type = MAV_TYPE_FIXED_WING;        //MAV_TYPE_FIXED_WING;
 146:.\main.c      **** uint8_t autopilot_type = MAV_AUTOPILOT_GENERIC;     //MAV_AUTOPILOT_GENERIC;
ARM GAS  C:\Users\SNFU\AppData\Local\Temp\ccHxQHwv.s 			page 4


 147:.\main.c      **** 
 148:.\main.c      **** uint8_t system_mode = MAV_MODE_PREFLIGHT;       ///< Booting up //
 149:.\main.c      **** uint32_t custom_mode = 0;                       ///< Custom mode, can be defined by user/adopter
 150:.\main.c      **** uint8_t system_state = MAV_STATE_STANDBY;       ///< System ready for flight
 151:.\main.c      **** 
 152:.\main.c      **** // Initialize the required buffers
 153:.\main.c      **** mavlink_message_t msg;
 154:.\main.c      **** uint8_t buf[MAVLINK_MAX_PACKET_LEN];
 155:.\main.c      **** 
 156:.\main.c      **** uint8_t cnt_ML_HEARTBEAT_send = 0;          // used for timing of the HEARTBEAT message sending
 157:.\main.c      **** uint8_t cnt_ML_ATTITUDE_send = 0;           // used for timing of the ATTITUDE message sending
 158:.\main.c      **** 
 159:.\main.c      **** /*=============================*/
 160:.\main.c      **** /* General Functions */
 161:.\main.c      **** /*=============================*/
 162:.\main.c      **** // UART Put Num to write serial number data
 163:.\main.c      **** void UART_1_UartPutNum(int32_t num)
 164:.\main.c      **** {
  26              		.loc 1 164 0
  27              		.cfi_startproc
  28              	.LVL0:
  29 0000 00B5     		push	{lr}
  30              		.cfi_def_cfa_offset 4
  31              		.cfi_offset 14, -4
  32 0002 89B0     		sub	sp, sp, #36
  33              		.cfi_def_cfa_offset 40
  34              		.loc 1 164 0
  35 0004 021C     		mov	r2, r0
 165:.\main.c      ****     char k[31];
 166:.\main.c      ****     sprintf(k,"%d",num);
  36              		.loc 1 166 0
  37 0006 0449     		ldr	r1, .L2
  38 0008 6846     		mov	r0, sp
  39              	.LVL1:
  40 000a FFF7FEFF 		bl	sprintf
  41              	.LVL2:
 167:.\main.c      ****     UART_1_UartPutString(k);   
  42              		.loc 1 167 0
  43 000e 6846     		mov	r0, sp
  44 0010 FFF7FEFF 		bl	UART_1_UartPutString
  45              	.LVL3:
 168:.\main.c      **** }
  46              		.loc 1 168 0
  47 0014 09B0     		add	sp, sp, #36
  48              		@ sp needed
  49 0016 00BD     		pop	{pc}
  50              	.L3:
  51              		.align	2
  52              	.L2:
  53 0018 00000000 		.word	.LC0
  54              		.cfi_endproc
  55              	.LFE1489:
  56              		.size	UART_1_UartPutNum, .-UART_1_UartPutNum
  57              		.section	.text.UART_1_UartSendMavlink,"ax",%progbits
  58              		.align	1
  59              		.global	UART_1_UartSendMavlink
  60              		.code	16
ARM GAS  C:\Users\SNFU\AppData\Local\Temp\ccHxQHwv.s 			page 5


  61              		.thumb_func
  62              		.type	UART_1_UartSendMavlink, %function
  63              	UART_1_UartSendMavlink:
  64              	.LFB1490:
 169:.\main.c      **** 
 170:.\main.c      **** // UART Put Num to write serial number data
 171:.\main.c      **** void UART_1_UartSendMavlink(uint8_t buf[], uint16_t len)
 172:.\main.c      **** {
  65              		.loc 1 172 0
  66              		.cfi_startproc
  67              	.LVL4:
  68 0000 70B5     		push	{r4, r5, r6, lr}
  69              		.cfi_def_cfa_offset 16
  70              		.cfi_offset 4, -16
  71              		.cfi_offset 5, -12
  72              		.cfi_offset 6, -8
  73              		.cfi_offset 14, -4
  74              		.loc 1 172 0
  75 0002 061C     		mov	r6, r0
 173:.\main.c      ****     uint16_t i = 0;
 174:.\main.c      ****     UART_1_UartPutChar(0xFE);   // message header    
  76              		.loc 1 174 0
  77 0004 FE20     		mov	r0, #254
  78              	.LVL5:
 172:.\main.c      **** {
  79              		.loc 1 172 0
  80 0006 0D1C     		mov	r5, r1
  81              		.loc 1 174 0
  82 0008 FFF7FEFF 		bl	UART_1_SpiUartWriteTxData
  83              	.LVL6:
 173:.\main.c      ****     uint16_t i = 0;
  84              		.loc 1 173 0
  85 000c 0024     		mov	r4, #0
  86              	.LVL7:
  87              	.L5:
 175:.\main.c      ****     while(i<(len+1))
  88              		.loc 1 175 0 discriminator 1
  89 000e A542     		cmp	r5, r4
  90 0010 05DB     		blt	.L8
 176:.\main.c      **** 	{
 177:.\main.c      ****         i++;
  91              		.loc 1 177 0
  92 0012 0134     		add	r4, r4, #1
  93              	.LVL8:
  94 0014 A4B2     		uxth	r4, r4
  95              	.LVL9:
 178:.\main.c      ****         UART_1_UartPutChar(buf[i]);
  96              		.loc 1 178 0
  97 0016 305D     		ldrb	r0, [r6, r4]
  98 0018 FFF7FEFF 		bl	UART_1_SpiUartWriteTxData
  99              	.LVL10:
 100 001c F7E7     		b	.L5
 101              	.L8:
 179:.\main.c      **** 	}  
 180:.\main.c      **** }
 102              		.loc 1 180 0
 103              		@ sp needed
ARM GAS  C:\Users\SNFU\AppData\Local\Temp\ccHxQHwv.s 			page 6


 104              	.LVL11:
 105              	.LVL12:
 106 001e 70BD     		pop	{r4, r5, r6, pc}
 107              		.cfi_endproc
 108              	.LFE1490:
 109              		.size	UART_1_UartSendMavlink, .-UART_1_UartSendMavlink
 110              		.global	__aeabi_i2d
 111              		.global	__aeabi_dmul
 112              		.global	__aeabi_ddiv
 113              		.global	__aeabi_d2f
 114              		.global	__aeabi_i2f
 115              		.global	__aeabi_fmul
 116              		.global	__aeabi_fadd
 117              		.global	__aeabi_f2d
 118              		.global	__aeabi_dadd
 119              		.global	__aeabi_d2iz
 120              		.section	.text.startup.main,"ax",%progbits
 121              		.align	1
 122              		.global	main
 123              		.code	16
 124              		.thumb_func
 125              		.type	main, %function
 126              	main:
 127              	.LFB1491:
 181:.\main.c      **** 
 182:.\main.c      **** int main()
 183:.\main.c      **** {
 128              		.loc 1 183 0
 129              		.cfi_startproc
 130 0000 F0B5     		push	{r4, r5, r6, r7, lr}
 131              		.cfi_def_cfa_offset 20
 132              		.cfi_offset 4, -20
 133              		.cfi_offset 5, -16
 134              		.cfi_offset 6, -12
 135              		.cfi_offset 7, -8
 136              		.cfi_offset 14, -4
 137 0002 85B0     		sub	sp, sp, #20
 138              		.cfi_def_cfa_offset 40
 184:.\main.c      ****     /* Place your initialization/startup code here (e.g. MyInst_Start()) */
 185:.\main.c      ****     CyGlobalIntEnable; 
 139              		.loc 1 185 0
 140              	@ 185 ".\main.c" 1
 141 0004 62B6     		CPSIE   i
 142              	@ 0 "" 2
 186:.\main.c      **** 
 187:.\main.c      ****     UART_1_Start();     /* Enabling the UART */
 143              		.loc 1 187 0
 144              		.code	16
 145 0006 FFF7FEFF 		bl	UART_1_Start
 146              	.LVL13:
 188:.\main.c      ****     I2CM_Start();
 147              		.loc 1 188 0
 148 000a FFF7FEFF 		bl	I2CM_Start
 149              	.LVL14:
 189:.\main.c      ****     CyDelay(500);
 150              		.loc 1 189 0
 151 000e FA20     		mov	r0, #250
ARM GAS  C:\Users\SNFU\AppData\Local\Temp\ccHxQHwv.s 			page 7


 152 0010 4000     		lsl	r0, r0, #1
 153 0012 FFF7FEFF 		bl	CyDelay
 154              	.LVL15:
 190:.\main.c      ****     TaskTimer_Start();
 155              		.loc 1 190 0
 156 0016 FFF7FEFF 		bl	TaskTimer_Start
 157              	.LVL16:
 191:.\main.c      ****     NavLightPWM_Start();
 158              		.loc 1 191 0
 159 001a FFF7FEFF 		bl	NavLightPWM_Start
 160              	.LVL17:
 192:.\main.c      ****     PPMCounter_Start();
 161              		.loc 1 192 0
 162 001e FFF7FEFF 		bl	PPMCounter_Start
 163              	.LVL18:
 193:.\main.c      ****     ServoTimer_Start();
 164              		.loc 1 193 0
 165 0022 FFF7FEFF 		bl	ServoTimer_Start
 166              	.LVL19:
 194:.\main.c      ****     PPMISR_Start();
 167              		.loc 1 194 0
 168 0026 FFF7FEFF 		bl	PPMISR_Start
 169              	.LVL20:
 195:.\main.c      ****     PPMRstISR_Start();
 170              		.loc 1 195 0
 171 002a FFF7FEFF 		bl	PPMRstISR_Start
 172              	.LVL21:
 196:.\main.c      ****     ServoISR_Start();
 173              		.loc 1 196 0
 174 002e FFF7FEFF 		bl	ServoISR_Start
 175              	.LVL22:
 197:.\main.c      ****     TaskISR_Start();
 176              		.loc 1 197 0
 177 0032 FFF7FEFF 		bl	TaskISR_Start
 178              	.LVL23:
 198:.\main.c      ****     BootISR_Start();
 179              		.loc 1 198 0
 180 0036 FFF7FEFF 		bl	BootISR_Start
 181              	.LVL24:
 199:.\main.c      ****        
 200:.\main.c      ****     // Mavlink Initialization
 201:.\main.c      ****     mavlink_system.sysid = 58;     ///< ID 25 for this airplane
 182              		.loc 1 201 0
 183 003a A54B     		ldr	r3, .L23+40
 184 003c 3A22     		mov	r2, #58
 202:.\main.c      ****     mavlink_system.compid = 58;     ///< The component ID
 203:.\main.c      ****     
 204:.\main.c      ****     UART_1_UartPutString("UART OK\r\n");
 185              		.loc 1 204 0
 186 003e A548     		ldr	r0, .L23+44
 201:.\main.c      ****     mavlink_system.sysid = 58;     ///< ID 25 for this airplane
 187              		.loc 1 201 0
 188 0040 1A70     		strb	r2, [r3]
 202:.\main.c      ****     mavlink_system.compid = 58;     ///< The component ID
 189              		.loc 1 202 0
 190 0042 5A70     		strb	r2, [r3, #1]
 191              		.loc 1 204 0
ARM GAS  C:\Users\SNFU\AppData\Local\Temp\ccHxQHwv.s 			page 8


 192 0044 FFF7FEFF 		bl	UART_1_UartPutString
 193              	.LVL25:
 205:.\main.c      ****     
 206:.\main.c      ****     if(GYRO_TASK == TRUE) gyro_start();
 194              		.loc 1 206 0
 195 0048 FFF7FEFF 		bl	gyro_start
 196              	.LVL26:
 207:.\main.c      ****     if(ACC_TASK == TRUE) acc_start();
 197              		.loc 1 207 0
 198 004c FFF7FEFF 		bl	acc_start
 199              	.LVL27:
 208:.\main.c      ****     if(MAG_TASK == TRUE) mag_start();
 200              		.loc 1 208 0
 201 0050 FFF7FEFF 		bl	mag_start
 202              	.LVL28:
 209:.\main.c      ****     if(BARO_TASK == TRUE) baro_start();
 203              		.loc 1 209 0
 204 0054 FFF7FEFF 		bl	baro_start
 205              	.LVL29:
 210:.\main.c      ****     UART_1_UartPutString("Started OK\r\n");
 206              		.loc 1 210 0
 207 0058 9F48     		ldr	r0, .L23+48
 208 005a FFF7FEFF 		bl	UART_1_UartPutString
 209              	.LVL30:
 210              	.L11:
 211:.\main.c      ****     //CyDelay(500);
 212:.\main.c      ****     /* CyGlobalIntEnable; */ /* Uncomment this line to enable global interrupts. */
 213:.\main.c      ****     for(;;)
 214:.\main.c      ****     {
 215:.\main.c      ****         
 216:.\main.c      ****         if(task_flag == TRUE)
 211              		.loc 1 216 0
 212 005e 9F4E     		ldr	r6, .L23+52
 213 0060 3378     		ldrb	r3, [r6]
 214 0062 371C     		mov	r7, r6
 215 0064 012B     		cmp	r3, #1
 216 0066 FAD1     		bne	.L11
 217              	.LBB2:
 217:.\main.c      ****         {
 218:.\main.c      ****             /*=======================================
 219:.\main.c      ****                 Main Task that is executed every 10ms
 220:.\main.c      ****               =======================================*/
 221:.\main.c      ****             task_flag = FALSE;
 222:.\main.c      ****             
 223:.\main.c      **** //            blink_cnt++;
 224:.\main.c      **** //            if(blink_cnt == 10)
 225:.\main.c      **** //            {
 226:.\main.c      **** //                blink_cnt = 0;   
 227:.\main.c      **** //       
 228:.\main.c      **** //            }
 229:.\main.c      **** //            if(blink_cnt == 100)
 230:.\main.c      **** //            {
 231:.\main.c      **** //                //Pin_2_Write(0xFF);
 232:.\main.c      **** //                
 233:.\main.c      **** //            }
 234:.\main.c      **** //            if(blink_cnt == 110)
 235:.\main.c      **** //            {
ARM GAS  C:\Users\SNFU\AppData\Local\Temp\ccHxQHwv.s 			page 9


 236:.\main.c      **** //                blink_cnt = 0;
 237:.\main.c      **** //                //Pin_2_Write(0x00);    
 238:.\main.c      **** //            }
 239:.\main.c      **** //            //NavLightCompare++;
 240:.\main.c      **** //            //NavLightPWM_WriteCompare(NavLightCompare);      
 241:.\main.c      ****             
 242:.\main.c      ****             /*=======================================
 243:.\main.c      ****                 Light Control
 244:.\main.c      ****               =======================================*/
 245:.\main.c      ****             
 246:.\main.c      ****             if(flag_LightsEnabled == TRUE)
 218              		.loc 1 246 0
 219 0068 9D4A     		ldr	r2, .L23+56
 221:.\main.c      ****             task_flag = FALSE;
 220              		.loc 1 221 0
 221 006a 0020     		mov	r0, #0
 222              		.loc 1 246 0
 223 006c 1178     		ldrb	r1, [r2]
 221:.\main.c      ****             task_flag = FALSE;
 224              		.loc 1 221 0
 225 006e 3070     		strb	r0, [r6]
 226              		.loc 1 246 0
 227 0070 0129     		cmp	r1, #1
 228 0072 25D1     		bne	.L12
 247:.\main.c      ****             {
 248:.\main.c      ****                 /* Lights enabled */
 249:.\main.c      ****                 // START PWM FOR NAV LIGHTS HERE??
 250:.\main.c      ****                 if(NavLightCompare == NavLightBright)
 229              		.loc 1 250 0
 230 0074 7388     		ldrh	r3, [r6, #2]
 231 0076 5488     		ldrh	r4, [r2, #2]
 232 0078 9C42     		cmp	r4, r3
 233 007a 01D1     		bne	.L13
 251:.\main.c      ****                 {
 252:.\main.c      ****                     flag_NavLightPulse = TRUE;
 234              		.loc 1 252 0
 235 007c 3171     		strb	r1, [r6, #4]
 236 007e 03E0     		b	.L14
 237              	.L13:
 253:.\main.c      ****                 }
 254:.\main.c      ****                 else if (NavLightCompare == NavLightDim)
 238              		.loc 1 254 0
 239 0080 F188     		ldrh	r1, [r6, #6]
 240 0082 9942     		cmp	r1, r3
 241 0084 00D1     		bne	.L14
 255:.\main.c      ****                 {
 256:.\main.c      ****                     flag_NavLightPulse = FALSE;
 242              		.loc 1 256 0
 243 0086 3071     		strb	r0, [r6, #4]
 244              	.L14:
 257:.\main.c      ****                 }
 258:.\main.c      ****                 if(flag_NavLightPulse == 0)
 245              		.loc 1 258 0
 246 0088 3179     		ldrb	r1, [r6, #4]
 259:.\main.c      ****                 {
 260:.\main.c      ****                     NavLightCompare+=NavLightStep;
 247              		.loc 1 260 0
ARM GAS  C:\Users\SNFU\AppData\Local\Temp\ccHxQHwv.s 			page 10


 248 008a 9088     		ldrh	r0, [r2, #4]
 258:.\main.c      ****                 if(flag_NavLightPulse == 0)
 249              		.loc 1 258 0
 250 008c 0029     		cmp	r1, #0
 251 008e 01D1     		bne	.L15
 252              		.loc 1 260 0
 253 0090 1B18     		add	r3, r3, r0
 254 0092 00E0     		b	.L22
 255              	.L15:
 261:.\main.c      ****                     NavLightPWM_WriteCompare(NavLightCompare);
 262:.\main.c      ****                 }
 263:.\main.c      ****                 else
 264:.\main.c      ****                 {
 265:.\main.c      ****                     NavLightCompare-=NavLightStep;
 256              		.loc 1 265 0
 257 0094 1B1A     		sub	r3, r3, r0
 258              	.L22:
 259 0096 98B2     		uxth	r0, r3
 260 0098 7080     		strh	r0, [r6, #2]
 266:.\main.c      ****                     NavLightPWM_WriteCompare(NavLightCompare);
 261              		.loc 1 266 0
 262 009a FFF7FEFF 		bl	NavLightPWM_WriteCompare
 263              	.LVL31:
 267:.\main.c      ****                 }
 268:.\main.c      ****                 if(cnt_StrobeLight == 200) Strobes_Write(0xFF); // Setting Output High
 264              		.loc 1 268 0
 265 009e 337A     		ldrb	r3, [r6, #8]
 266 00a0 C82B     		cmp	r3, #200
 267 00a2 02D1     		bne	.L17
 268              		.loc 1 268 0 is_stmt 0 discriminator 1
 269 00a4 FF20     		mov	r0, #255
 270 00a6 FFF7FEFF 		bl	Strobes_Write
 271              	.LVL32:
 272              	.L17:
 269:.\main.c      ****                 if(cnt_StrobeLight == 205)  // (205 - 200) *10 ms = 5 * 10 ms = 50 ms Strobe
 273              		.loc 1 269 0 is_stmt 1
 274 00aa 337A     		ldrb	r3, [r6, #8]
 275 00ac CD2B     		cmp	r3, #205
 276 00ae 03D1     		bne	.L18
 270:.\main.c      ****                 {
 271:.\main.c      ****                     cnt_StrobeLight = 0;
 277              		.loc 1 271 0
 278 00b0 0020     		mov	r0, #0
 279 00b2 3072     		strb	r0, [r6, #8]
 272:.\main.c      ****                     Strobes_Write(0x00);    // Setting output Low
 280              		.loc 1 272 0
 281 00b4 FFF7FEFF 		bl	Strobes_Write
 282              	.LVL33:
 283              	.L18:
 273:.\main.c      ****                 }
 274:.\main.c      ****                 cnt_StrobeLight++;
 284              		.loc 1 274 0
 285 00b8 337A     		ldrb	r3, [r6, #8]
 286 00ba 0133     		add	r3, r3, #1
 287 00bc 3372     		strb	r3, [r6, #8]
 288 00be 01E0     		b	.L19
 289              	.L12:
ARM GAS  C:\Users\SNFU\AppData\Local\Temp\ccHxQHwv.s 			page 11


 275:.\main.c      ****                 //UART_1_UartPutNum(cnt_StrobeLight);UART_1_UartPutString("\r\n");
 276:.\main.c      ****             }
 277:.\main.c      ****             else
 278:.\main.c      ****             {
 279:.\main.c      ****                 /* Lights disabled*/
 280:.\main.c      ****                 NavLightPWM_WriteCompare(0);    // Nav Lights set to 0
 290              		.loc 1 280 0
 291 00c0 FFF7FEFF 		bl	NavLightPWM_WriteCompare
 292              	.LVL34:
 293              	.L19:
 281:.\main.c      ****                 
 282:.\main.c      ****             }
 283:.\main.c      ****             
 284:.\main.c      ****             /*=======================================
 285:.\main.c      ****                 Sensor Reading
 286:.\main.c      ****               =======================================*/
 287:.\main.c      ****             //turn_rate_p = gyro_read_p();
 288:.\main.c      ****             //UART_1_UartPutNum(turn_rate_p);
 289:.\main.c      ****             if(GYRO_TASK == TRUE)
 290:.\main.c      ****             {
 291:.\main.c      ****                 gyro_read();
 294              		.loc 1 291 0
 295 00c4 FFF7FEFF 		bl	gyro_read
 296              	.LVL35:
 292:.\main.c      ****             }
 293:.\main.c      ****             if(ACC_TASK == TRUE)
 294:.\main.c      ****             {
 295:.\main.c      ****                 acc_read();
 297              		.loc 1 295 0
 298 00c8 FFF7FEFF 		bl	acc_read
 299              	.LVL36:
 296:.\main.c      ****             }
 297:.\main.c      ****             if(MAG_TASK == TRUE)
 298:.\main.c      ****             {
 299:.\main.c      ****                 mag_read();
 300              		.loc 1 299 0
 301 00cc FFF7FEFF 		bl	mag_read
 302              	.LVL37:
 300:.\main.c      ****             }
 301:.\main.c      ****             if(BARO_TASK == TRUE)
 302:.\main.c      ****             {
 303:.\main.c      ****                 cnt_baro++;
 303              		.loc 1 303 0
 304 00d0 737A     		ldrb	r3, [r6, #9]
 305 00d2 0133     		add	r3, r3, #1
 306 00d4 DBB2     		uxtb	r3, r3
 307 00d6 7372     		strb	r3, [r6, #9]
 304:.\main.c      ****                 if(cnt_baro == 10)
 308              		.loc 1 304 0
 309 00d8 0A2B     		cmp	r3, #10
 310 00da 03D1     		bne	.L20
 305:.\main.c      ****                 {
 306:.\main.c      ****                     cnt_baro = 0;
 311              		.loc 1 306 0
 312 00dc 0023     		mov	r3, #0
 313 00de 7372     		strb	r3, [r6, #9]
 307:.\main.c      ****                     baro_read();
ARM GAS  C:\Users\SNFU\AppData\Local\Temp\ccHxQHwv.s 			page 12


 314              		.loc 1 307 0
 315 00e0 FFF7FEFF 		bl	baro_read
 316              	.LVL38:
 317              	.L20:
 308:.\main.c      ****                 }
 309:.\main.c      ****             }
 310:.\main.c      ****             
 311:.\main.c      ****             /* Theta and Phi out of acceleration data*/
 312:.\main.c      ****             Theta_acc = (atan2(acc_x_g,-acc_z_g))*180/PI;
 318              		.loc 1 312 0
 319 00e4 0A23     		mov	r3, #10
 320 00e6 F05E     		ldrsh	r0, [r6, r3]
 321 00e8 FFF7FEFF 		bl	__aeabi_i2d
 322              	.LVL39:
 323 00ec 041C     		mov	r4, r0
 324 00ee 0C23     		mov	r3, #12
 325 00f0 F05E     		ldrsh	r0, [r6, r3]
 326 00f2 0D1C     		mov	r5, r1
 327 00f4 4042     		neg	r0, r0
 328 00f6 FFF7FEFF 		bl	__aeabi_i2d
 329              	.LVL40:
 330 00fa 021C     		mov	r2, r0
 331 00fc 0B1C     		mov	r3, r1
 332 00fe 201C     		mov	r0, r4
 333 0100 291C     		mov	r1, r5
 334 0102 FFF7FEFF 		bl	atan2
 335              	.LVL41:
 336 0106 694B     		ldr	r3, .L23+4
 337 0108 674A     		ldr	r2, .L23
 338 010a FFF7FEFF 		bl	__aeabi_dmul
 339              	.LVL42:
 340 010e 684A     		ldr	r2, .L23+8
 341 0110 684B     		ldr	r3, .L23+12
 342 0112 FFF7FEFF 		bl	__aeabi_ddiv
 343              	.LVL43:
 344 0116 FFF7FEFF 		bl	__aeabi_d2f
 345              	.LVL44:
 346 011a 3061     		str	r0, [r6, #16]
 313:.\main.c      **** 		    Phi_acc = (atan2(-acc_y_g,-acc_z_g))*180/PI;
 347              		.loc 1 313 0
 348 011c 1423     		mov	r3, #20
 349 011e F05E     		ldrsh	r0, [r6, r3]
 350 0120 4042     		neg	r0, r0
 351 0122 FFF7FEFF 		bl	__aeabi_i2d
 352              	.LVL45:
 353 0126 041C     		mov	r4, r0
 354 0128 0C23     		mov	r3, #12
 355 012a F05E     		ldrsh	r0, [r6, r3]
 356 012c 0D1C     		mov	r5, r1
 357 012e 4042     		neg	r0, r0
 358 0130 FFF7FEFF 		bl	__aeabi_i2d
 359              	.LVL46:
 360 0134 021C     		mov	r2, r0
 361 0136 0B1C     		mov	r3, r1
 362 0138 201C     		mov	r0, r4
 363 013a 291C     		mov	r1, r5
 364 013c FFF7FEFF 		bl	atan2
ARM GAS  C:\Users\SNFU\AppData\Local\Temp\ccHxQHwv.s 			page 13


 365              	.LVL47:
 366 0140 5A4B     		ldr	r3, .L23+4
 367 0142 594A     		ldr	r2, .L23
 368 0144 FFF7FEFF 		bl	__aeabi_dmul
 369              	.LVL48:
 370 0148 594A     		ldr	r2, .L23+8
 371 014a 5A4B     		ldr	r3, .L23+12
 372 014c FFF7FEFF 		bl	__aeabi_ddiv
 373              	.LVL49:
 374 0150 FFF7FEFF 		bl	__aeabi_d2f
 375              	.LVL50:
 314:.\main.c      ****             //Psi_acc = (atan2(-acc_y_g,-acc_x_g))*180/PI;
 315:.\main.c      **** 			/*=========================================================*/
 316:.\main.c      **** 			/* Calculating the attitude by using Kalman Filtering START*/
 317:.\main.c      **** 			
 318:.\main.c      **** //            Theta += sample_time * (turn_rate_q-q_bias);
 319:.\main.c      **** //            
 320:.\main.c      **** //			//P_00_Theta +=  - sample_time * ((P_10_Theta + P_01_Theta) - Q_angle);
 321:.\main.c      **** //            P_Theta[0][0] +=  - sample_time * ((P_Theta[1][0] + P_Theta[0][1]) - Q_angle);
 322:.\main.c      **** ////			P_01_Theta +=  - sample_time * P_11_Theta;
 323:.\main.c      **** //            P_Theta[0][1] +=  - sample_time * P_Theta[1][1];
 324:.\main.c      **** //			//P_10_Theta = P_01_Theta;
 325:.\main.c      **** //            P_Theta[1][0] = P_Theta[0][1];
 326:.\main.c      **** //			//P_11_Theta +=  + Q_gyro * sample_time;
 327:.\main.c      **** //            P_Theta[1][1] +=  + Q_gyro * sample_time;
 328:.\main.c      **** //			
 329:.\main.c      **** //			
 330:.\main.c      **** //			Phi += sample_time * (turn_rate_p-p_bias);
 331:.\main.c      **** //			P_Phi[0][0] +=  - sample_time * ((P_Phi[1][0] + P_Phi[0][1]) - Q_angle);
 332:.\main.c      **** //			P_Phi[0][1] +=  - sample_time * P_Phi[1][1];
 333:.\main.c      **** //			P_Phi[1][0] = P_Phi[0][1];
 334:.\main.c      **** //			P_Phi[1][1] +=  + Q_gyro * sample_time;
 335:.\main.c      **** //			
 336:.\main.c      **** //		
 337:.\main.c      **** //			/*
 338:.\main.c      **** //			Psi += sample_time * (r_filt-r_bias);
 339:.\main.c      **** //			P_00_Psi +=  - sample_time * (P_10_Psi + P_01_Psi) + Q_angle * sample_time;
 340:.\main.c      **** //			P_01_Psi +=  - sample_time * P_11_Psi;
 341:.\main.c      **** //			P_10_Psi +=  - sample_time * P_11_Psi;
 342:.\main.c      **** //			P_11_Psi +=  + Q_gyro * sample_time;
 343:.\main.c      **** //			*/
 344:.\main.c      **** //			Theta_temp = Theta_acc - Theta;
 345:.\main.c      **** //			S_Theta = P_Theta[0][0] + R_angle;
 346:.\main.c      **** //			K_0_Theta = P_Theta[0][0] / S_Theta;
 347:.\main.c      **** //			K_1_Theta = P_Theta[1][0] / S_Theta;
 348:.\main.c      **** //			
 349:.\main.c      **** //			Phi_temp = Phi_acc - Phi;
 350:.\main.c      **** //			S_Phi = P_Phi[0][0] + R_angle;
 351:.\main.c      **** //			K_0_Phi = P_Phi[0][0] / S_Phi;
 352:.\main.c      **** //			K_1_Phi = P_Phi[1][0] / S_Phi;
 353:.\main.c      **** //			/*
 354:.\main.c      **** //			Psi_temp = mag - Psi;
 355:.\main.c      **** //			S_Psi = P_00_Psi + R_angle;
 356:.\main.c      **** //			K_0_Psi = P_00_Psi / S_Psi;
 357:.\main.c      **** //			K_1_Psi = P_10_Psi / S_Psi;
 358:.\main.c      **** //			*/
 359:.\main.c      **** //			Theta +=  K_0_Theta * Theta_temp;
ARM GAS  C:\Users\SNFU\AppData\Local\Temp\ccHxQHwv.s 			page 14


 360:.\main.c      **** //			q_bias  +=  K_1_Theta * Theta_temp;
 361:.\main.c      **** //			P_Theta[0][0] -= K_0_Theta * P_Theta[0][0];
 362:.\main.c      **** //			P_Theta[0][1] -= K_0_Theta * P_Theta[0][1];
 363:.\main.c      **** //			P_Theta[1][0] -= K_1_Theta * P_Theta[0][0];
 364:.\main.c      **** //			P_Theta[1][1] -= K_1_Theta * P_Theta[0][1];
 365:.\main.c      **** //			
 366:.\main.c      **** //			Phi +=  K_0_Phi * Phi_temp;
 367:.\main.c      **** //			p_bias  +=  K_1_Phi * Phi_temp;
 368:.\main.c      **** //			P_Phi[0][0] -= K_0_Phi * P_Phi[0][0];
 369:.\main.c      **** //			P_Phi[0][1] -= K_0_Phi * P_Phi[0][1];
 370:.\main.c      **** //			P_Phi[1][0] -= K_1_Phi * P_Phi[0][0];
 371:.\main.c      **** //			P_Phi[1][1] -= K_1_Phi * P_Phi[0][1];
 372:.\main.c      **** 		
 373:.\main.c      **** 			//angle = 0.98 *(angle+gyro*dt) + 0.02*acc
 374:.\main.c      ****             // Complementary filter. Substitute for Kalman filter.
 375:.\main.c      ****             // it is not clear why the 8 in the end is required, but it gives useable results
 376:.\main.c      ****             Theta = (0.90* (Theta + turn_rate_q*sample_time) + 0.10*Theta_acc)*PI/180*8;
 376              		.loc 1 376 0
 377 0154 624B     		ldr	r3, .L23+56
 378 0156 634D     		ldr	r5, .L23+60
 379 0158 9C68     		ldr	r4, [r3, #8]
 313:.\main.c      **** 		    Phi_acc = (atan2(-acc_y_g,-acc_z_g))*180/PI;
 380              		.loc 1 313 0
 381 015a 0190     		str	r0, [sp, #4]
 382 015c B061     		str	r0, [r6, #24]
 383              		.loc 1 376 0
 384 015e 1C23     		mov	r3, #28
 385 0160 F05E     		ldrsh	r0, [r6, r3]
 386 0162 FFF7FEFF 		bl	__aeabi_i2f
 387              	.LVL51:
 388 0166 211C     		add	r1, r4, #0
 389 0168 FFF7FEFF 		bl	__aeabi_fmul
 390              	.LVL52:
 391 016c 2968     		ldr	r1, [r5]
 392 016e FFF7FEFF 		bl	__aeabi_fadd
 393              	.LVL53:
 394 0172 FFF7FEFF 		bl	__aeabi_f2d
 395              	.LVL54:
 396 0176 504A     		ldr	r2, .L23+16
 397 0178 504B     		ldr	r3, .L23+20
 398 017a FFF7FEFF 		bl	__aeabi_dmul
 399              	.LVL55:
 400 017e 0290     		str	r0, [sp, #8]
 401 0180 0391     		str	r1, [sp, #12]
 402 0182 3069     		ldr	r0, [r6, #16]
 403 0184 FFF7FEFF 		bl	__aeabi_f2d
 404              	.LVL56:
 405 0188 4D4A     		ldr	r2, .L23+24
 406 018a 4E4B     		ldr	r3, .L23+28
 407 018c FFF7FEFF 		bl	__aeabi_dmul
 408              	.LVL57:
 409 0190 021C     		mov	r2, r0
 410 0192 0B1C     		mov	r3, r1
 411 0194 0298     		ldr	r0, [sp, #8]
 412 0196 0399     		ldr	r1, [sp, #12]
 413 0198 FFF7FEFF 		bl	__aeabi_dadd
 414              	.LVL58:
ARM GAS  C:\Users\SNFU\AppData\Local\Temp\ccHxQHwv.s 			page 15


 415 019c 444A     		ldr	r2, .L23+8
 416 019e 454B     		ldr	r3, .L23+12
 417 01a0 FFF7FEFF 		bl	__aeabi_dmul
 418              	.LVL59:
 419 01a4 414B     		ldr	r3, .L23+4
 420 01a6 404A     		ldr	r2, .L23
 421 01a8 FFF7FEFF 		bl	__aeabi_ddiv
 422              	.LVL60:
 423 01ac 464A     		ldr	r2, .L23+32
 424 01ae 474B     		ldr	r3, .L23+36
 425 01b0 FFF7FEFF 		bl	__aeabi_dmul
 426              	.LVL61:
 427 01b4 FFF7FEFF 		bl	__aeabi_d2f
 428              	.LVL62:
 429 01b8 2860     		str	r0, [r5]
 377:.\main.c      ****             Phi = (0.90 * (Phi + turn_rate_p*sample_time) + 0.10*Phi_acc)*PI/180*8;
 430              		.loc 1 377 0
 431 01ba 1E23     		mov	r3, #30
 432 01bc F05E     		ldrsh	r0, [r6, r3]
 433 01be FFF7FEFF 		bl	__aeabi_i2f
 434              	.LVL63:
 435 01c2 211C     		add	r1, r4, #0
 436 01c4 FFF7FEFF 		bl	__aeabi_fmul
 437              	.LVL64:
 438 01c8 474B     		ldr	r3, .L23+64
 439 01ca 1968     		ldr	r1, [r3]
 440 01cc FFF7FEFF 		bl	__aeabi_fadd
 441              	.LVL65:
 442 01d0 FFF7FEFF 		bl	__aeabi_f2d
 443              	.LVL66:
 444 01d4 384A     		ldr	r2, .L23+16
 445 01d6 394B     		ldr	r3, .L23+20
 446 01d8 FFF7FEFF 		bl	__aeabi_dmul
 447              	.LVL67:
 448 01dc 041C     		mov	r4, r0
 449 01de 0198     		ldr	r0, [sp, #4]
 450 01e0 0D1C     		mov	r5, r1
 451 01e2 FFF7FEFF 		bl	__aeabi_f2d
 452              	.LVL68:
 453 01e6 364A     		ldr	r2, .L23+24
 454 01e8 364B     		ldr	r3, .L23+28
 455 01ea FFF7FEFF 		bl	__aeabi_dmul
 456              	.LVL69:
 457 01ee 021C     		mov	r2, r0
 458 01f0 0B1C     		mov	r3, r1
 459 01f2 201C     		mov	r0, r4
 460 01f4 291C     		mov	r1, r5
 461 01f6 FFF7FEFF 		bl	__aeabi_dadd
 462              	.LVL70:
 463 01fa 2D4A     		ldr	r2, .L23+8
 464 01fc 2D4B     		ldr	r3, .L23+12
 465 01fe FFF7FEFF 		bl	__aeabi_dmul
 466              	.LVL71:
 467 0202 2A4B     		ldr	r3, .L23+4
 468 0204 284A     		ldr	r2, .L23
 469 0206 FFF7FEFF 		bl	__aeabi_ddiv
 470              	.LVL72:
ARM GAS  C:\Users\SNFU\AppData\Local\Temp\ccHxQHwv.s 			page 16


 471 020a 2F4A     		ldr	r2, .L23+32
 472 020c 2F4B     		ldr	r3, .L23+36
 473 020e FFF7FEFF 		bl	__aeabi_dmul
 474              	.LVL73:
 475 0212 FFF7FEFF 		bl	__aeabi_d2f
 476              	.LVL74:
 477 0216 344B     		ldr	r3, .L23+64
 478 0218 1860     		str	r0, [r3]
 378:.\main.c      **** 
 379:.\main.c      ****             
 380:.\main.c      ****              // Tilt compensated Magnetic filed X:
 381:.\main.c      ****             //  MAG_X = c_magnetom_x*cos_pitch+c_magnetom_y*sin_roll*sin_pitch+c_magnetom_z*cos_rol
 382:.\main.c      ****             //  // Tilt compensated Magnetic filed Y:
 383:.\main.c      ****             //  MAG_Y = c_magnetom_y*cos_roll-c_magnetom_z*sin_roll;
 384:.\main.c      ****             //  // Magnetic Heading
 385:.\main.c      ****             //  MAG_Heading = atan2(-MAG_Y,MAG_X);
 386:.\main.c      ****             
 387:.\main.c      ****             // cos of radian angles
 388:.\main.c      **** //            Mag_x = mag_x_g*cos(Theta) + mag_y_g*sin(Phi)*sin(Theta) + mag_z_g*cos(Phi)*sin(Theta
 389:.\main.c      **** //            Mag_y = mag_y_g*cos(Phi) - mag_z_g*sin(Phi);
 390:.\main.c      **** //
 391:.\main.c      ****             //Mag_x = mag_x_g*cos(Theta);//+ mag_y_g*sin(Phi)*sin(Theta)+ mag_z_g*cos(Phi)*sin(Thet
 392:.\main.c      ****             //Mag_y = mag_y_g*cos(Phi);// - mag_z_g*sin(Phi);
 393:.\main.c      ****             Mag_Heading = atan2(-(mag_y_g),(mag_x_g))*180/PI;
 479              		.loc 1 393 0
 480 021a 2023     		mov	r3, #32
 481 021c F05E     		ldrsh	r0, [r6, r3]
 482 021e 4042     		neg	r0, r0
 483 0220 FFF7FEFF 		bl	__aeabi_i2d
 484              	.LVL75:
 485 0224 041C     		mov	r4, r0
 486 0226 2223     		mov	r3, #34
 487 0228 F05E     		ldrsh	r0, [r6, r3]
 488 022a 0D1C     		mov	r5, r1
 489 022c FFF7FEFF 		bl	__aeabi_i2d
 490              	.LVL76:
 491 0230 021C     		mov	r2, r0
 492 0232 0B1C     		mov	r3, r1
 493 0234 201C     		mov	r0, r4
 494 0236 291C     		mov	r1, r5
 495 0238 FFF7FEFF 		bl	atan2
 496              	.LVL77:
 497 023c 1B4B     		ldr	r3, .L23+4
 498 023e 1A4A     		ldr	r2, .L23
 499 0240 FFF7FEFF 		bl	__aeabi_dmul
 500              	.LVL78:
 501 0244 1A4A     		ldr	r2, .L23+8
 502 0246 1B4B     		ldr	r3, .L23+12
 503 0248 FFF7FEFF 		bl	__aeabi_ddiv
 504              	.LVL79:
 505 024c FFF7FEFF 		bl	__aeabi_d2iz
 506              	.LVL80:
 507 0250 7062     		str	r0, [r6, #36]
 394:.\main.c      ****             //UART_1_UartPutNum(Mag_Heading);
 395:.\main.c      ****             UART_1_UartPutNum(Bar_press);   //Print Baro Press
 508              		.loc 1 395 0
 509 0252 B06A     		ldr	r0, [r6, #40]
ARM GAS  C:\Users\SNFU\AppData\Local\Temp\ccHxQHwv.s 			page 17


 510 0254 FFF7FEFF 		bl	UART_1_UartPutNum
 511              	.LVL81:
 396:.\main.c      ****             UART_1_UartPutString(";\r\n");
 512              		.loc 1 396 0
 513 0258 2448     		ldr	r0, .L23+68
 514 025a FFF7FEFF 		bl	UART_1_UartPutString
 515              	.LVL82:
 397:.\main.c      ****             
 398:.\main.c      **** 			/* Calculating the attitude by using Kalman Filtering END*/
 399:.\main.c      **** 			/*=======================================================*/
 400:.\main.c      ****             /* MAVLINK
 401:.\main.c      ****             /*=======================================================*/
 402:.\main.c      ****             
 403:.\main.c      **** 		    if(MAVLINK_TASK == TRUE)
 404:.\main.c      ****             {
 405:.\main.c      ****                 if((cnt_ML_HEARTBEAT_send % 20) == 0)  // 20*10ms = 200ms
 406:.\main.c      ****                 {
 407:.\main.c      ****                     mavlink_msg_attitude_pack(mavlink_system.sysid, mavlink_system.compid, &msg, 0,
 408:.\main.c      ****                     uint16_t len = mavlink_msg_to_send_buffer(buf, &msg);
 409:.\main.c      ****                     UART_1_UartSendMavlink(buf, len);
 410:.\main.c      ****                     
 411:.\main.c      ****                     // GLOBAL_POSITION_INT
 412:.\main.c      ****                     //mavlink_msg_global_position_int_pack(mavlink_system.sysid, mavlink_system.com
 413:.\main.c      ****                     //uint16_t len2 = mavlink_msg_to_send_buffer(buf, &msg);
 414:.\main.c      ****                     //UART_1_UartSendMavlink(buf, len);
 415:.\main.c      ****                     
 416:.\main.c      ****                 }               
 417:.\main.c      ****                 if((cnt_ML_HEARTBEAT_send % 100) == 0)  // 100*10ms = 1000ms
 418:.\main.c      ****                 {
 419:.\main.c      ****                     cnt_ML_HEARTBEAT_send = 0;
 420:.\main.c      ****                     mavlink_msg_heartbeat_pack(mavlink_system.sysid, mavlink_system.compid, &msg, s
 421:.\main.c      **** 
 422:.\main.c      ****                     // Copy the message to the send buffer
 423:.\main.c      ****                     uint16_t len = mavlink_msg_to_send_buffer(buf, &msg);
 424:.\main.c      ****                       
 425:.\main.c      ****                       UART_1_UartSendMavlink(buf, len);
 426:.\main.c      ****                 }
 427:.\main.c      ****                 cnt_ML_HEARTBEAT_send++;
 428:.\main.c      ****             }
 429:.\main.c      ****             /*=======================================
 430:.\main.c      ****                 Output Control
 431:.\main.c      ****               =======================================*/
 432:.\main.c      ****         uint8_t debug = 1;
 433:.\main.c      ****             if(debug == 0)
 434:.\main.c      ****             {
 435:.\main.c      ****                 ctrl_out[out_mot] = ctrl_in[in_mot];    
 436:.\main.c      ****                 ctrl_out[out_ail1] = ctrl_in[in_ail];    
 437:.\main.c      ****                 ctrl_out[out_ail2] = ctrl_in[in_ail];
 438:.\main.c      ****                 ctrl_out[out_ele1] = ctrl_in[in_ele];
 439:.\main.c      ****                 ctrl_out[out_ele2] = ctrl_in[in_ele];
 440:.\main.c      ****                 ctrl_out[out_rud] = ctrl_in[in_rud];
 441:.\main.c      ****                 ctrl_out[out_fl1] = ctrl_in[in_fl];
 442:.\main.c      ****                 ctrl_out[out_fl2] = ctrl_in[in_fl];
 443:.\main.c      ****                 ctrl_out[out_ge1] = ctrl_in[in_ge];
 444:.\main.c      ****                 ctrl_out[out_ge2] = ctrl_in[in_ge];
 445:.\main.c      ****                 ctrl_out[out_ge3] = ctrl_in[in_ge];
 446:.\main.c      ****                 ctrl_out[out_sp1] = ctrl_in[in_sp1];
ARM GAS  C:\Users\SNFU\AppData\Local\Temp\ccHxQHwv.s 			page 18


 447:.\main.c      ****                 ctrl_out[out_sp2] = ctrl_in[in_sp2];
 448:.\main.c      ****             }
 449:.\main.c      ****             else
 450:.\main.c      ****             {
 451:.\main.c      ****                 ctrl_in[in_mot] = 1000;
 516              		.loc 1 451 0
 517 025e FA23     		mov	r3, #250
 518 0260 9B00     		lsl	r3, r3, #2
 452:.\main.c      ****                 ctrl_out[out_mot] = ctrl_in[in_mot];    
 453:.\main.c      ****                 ctrl_out[out_ail1] = ctrl_in[in_mot];    
 454:.\main.c      ****                 ctrl_out[out_ail2] = ctrl_in[in_mot];
 519              		.loc 1 454 0
 520 0262 BA1C     		add	r2, r7, #2
 521 0264 D387     		strh	r3, [r2, #62]
 455:.\main.c      ****                 ctrl_out[out_ele1] = ctrl_in[in_mot];
 522              		.loc 1 455 0
 523 0266 3A1D     		add	r2, r7, #4
 524 0268 D387     		strh	r3, [r2, #62]
 456:.\main.c      ****                 ctrl_out[out_ele2] = ctrl_in[in_mot];
 525              		.loc 1 456 0
 526 026a BA1D     		add	r2, r7, #6
 527 026c D387     		strh	r3, [r2, #62]
 457:.\main.c      ****                 ctrl_out[out_rud] = ctrl_in[in_mot];
 528              		.loc 1 457 0
 529 026e 3A1C     		mov	r2, r7
 530 0270 0832     		add	r2, r2, #8
 531 0272 D387     		strh	r3, [r2, #62]
 458:.\main.c      ****                 ctrl_out[out_fl1] = ctrl_in[in_mot];
 532              		.loc 1 458 0
 533 0274 3A1C     		mov	r2, r7
 534 0276 4832     		add	r2, r2, #72
 535 0278 1380     		strh	r3, [r2]
 459:.\main.c      ****                 ctrl_out[out_fl2] = ctrl_in[in_mot];
 536              		.loc 1 459 0
 537 027a 3A1C     		mov	r2, r7
 538 027c 4A32     		add	r2, r2, #74
 539 027e 1380     		strh	r3, [r2]
 460:.\main.c      ****                 ctrl_out[out_ge1] = ctrl_in[in_mot];
 540              		.loc 1 460 0
 541 0280 3A1C     		mov	r2, r7
 542 0282 4C32     		add	r2, r2, #76
 543 0284 1380     		strh	r3, [r2]
 461:.\main.c      ****                 ctrl_out[out_ge2] = ctrl_in[in_mot];
 544              		.loc 1 461 0
 545 0286 3A1C     		mov	r2, r7
 546 0288 4E32     		add	r2, r2, #78
 547 028a 1380     		strh	r3, [r2]
 462:.\main.c      ****                 ctrl_out[out_ge3] = ctrl_in[in_mot];
 548              		.loc 1 462 0
 549 028c 3A1C     		mov	r2, r7
 550 028e 5032     		add	r2, r2, #80
 551 0290 1380     		strh	r3, [r2]
 463:.\main.c      ****                 ctrl_out[out_sp1] = ctrl_in[in_mot];
 552              		.loc 1 463 0
 553 0292 3A1C     		mov	r2, r7
 554 0294 5232     		add	r2, r2, #82
 464:.\main.c      ****                 ctrl_out[out_sp2] = ctrl_in[in_mot];
ARM GAS  C:\Users\SNFU\AppData\Local\Temp\ccHxQHwv.s 			page 19


 555              		.loc 1 464 0
 556 0296 5437     		add	r7, r7, #84
 451:.\main.c      ****                 ctrl_in[in_mot] = 1000;
 557              		.loc 1 451 0
 558 0298 B385     		strh	r3, [r6, #44]
 452:.\main.c      ****                 ctrl_out[out_mot] = ctrl_in[in_mot];    
 559              		.loc 1 452 0
 560 029a B387     		strh	r3, [r6, #60]
 453:.\main.c      ****                 ctrl_out[out_ail1] = ctrl_in[in_mot];    
 561              		.loc 1 453 0
 562 029c F387     		strh	r3, [r6, #62]
 463:.\main.c      ****                 ctrl_out[out_sp1] = ctrl_in[in_mot];
 563              		.loc 1 463 0
 564 029e 1380     		strh	r3, [r2]
 565              		.loc 1 464 0
 566 02a0 3B80     		strh	r3, [r7]
 567 02a2 DCE6     		b	.L11
 568              	.L24:
 569 02a4 C046C046 		.align	3
 570              	.L23:
 571 02a8 00000000 		.word	0
 572 02ac 00806640 		.word	1080459264
 573 02b0 182D4454 		.word	1413754136
 574 02b4 FB210940 		.word	1074340347
 575 02b8 CDCCCCCC 		.word	-858993459
 576 02bc CCCCEC3F 		.word	1072483532
 577 02c0 9A999999 		.word	-1717986918
 578 02c4 9999B93F 		.word	1069128089
 579 02c8 00000000 		.word	0
 580 02cc 00002040 		.word	1075838976
 581 02d0 00000000 		.word	mavlink_system
 582 02d4 03000000 		.word	.LC3
 583 02d8 0D000000 		.word	.LC5
 584 02dc 00000000 		.word	.LANCHOR0
 585 02e0 00000000 		.word	.LANCHOR1
 586 02e4 00000000 		.word	Theta
 587 02e8 00000000 		.word	Phi
 588 02ec 1A000000 		.word	.LC11
 589              	.LBE2:
 590              		.cfi_endproc
 591              	.LFE1491:
 592              		.size	main, .-main
 593              		.global	cnt_ML_ATTITUDE_send
 594              		.global	cnt_ML_HEARTBEAT_send
 595              		.comm	buf,263,1
 596              		.comm	msg,272,1
 597              		.global	system_state
 598              		.global	custom_mode
 599              		.global	system_mode
 600              		.global	autopilot_type
 601              		.global	system_type
 602              		.comm	mavlink_system,2,1
 603              		.global	K_1_Phi
 604              		.comm	K_0_Phi,4,4
 605              		.comm	S_Phi,4,4
 606              		.comm	Phi_temp,4,4
 607              		.global	P_Phi
ARM GAS  C:\Users\SNFU\AppData\Local\Temp\ccHxQHwv.s 			page 20


 608              		.global	p_bias
 609              		.global	K_1_Theta
 610              		.comm	K_0_Theta,4,4
 611              		.comm	S_Theta,4,4
 612              		.comm	Theta_temp,4,4
 613              		.global	P_Theta
 614              		.global	q_bias
 615              		.global	R_angle
 616              		.global	Q_gyro
 617              		.global	Q_angle
 618              		.global	cnt_baro
 619              		.global	Bar_press
 620              		.global	Mag_y
 621              		.comm	Mag_x,4,4
 622              		.global	Mag_Heading
 623              		.global	Psi_acc
 624              		.comm	Psi,4,4
 625              		.global	Phi_acc
 626              		.comm	Phi,4,4
 627              		.global	Theta_acc
 628              		.comm	Theta,4,4
 629              		.global	mag_z_g
 630              		.global	mag_y_g
 631              		.global	mag_x_g
 632              		.global	acc_z_g
 633              		.global	acc_y_g
 634              		.global	acc_x_g
 635              		.global	turn_rate_r
 636              		.global	turn_rate_q
 637              		.global	turn_rate_p
 638              		.global	cnt_StrobeLight
 639              		.global	NavLightCompare
 640              		.global	NavLightStep
 641              		.global	NavLightDim
 642              		.global	NavLightBright
 643              		.global	flag_NavLightPulse
 644              		.global	flag_LightsEnabled
 645              		.global	ctrl_out
 646              		.global	ctrl_in
 647              		.global	PPM_channel
 648              		.global	sample_time
 649              		.global	blink_cnt
 650              		.global	task_flag
 651              		.section	.rodata.str1.1,"aMS",%progbits,1
 652              	.LC0:
 653 0000 256400   		.ascii	"%d\000"
 654              	.LC3:
 655 0003 55415254 		.ascii	"UART OK\015\012\000"
 655      204F4B0D 
 655      0A00
 656              	.LC5:
 657 000d 53746172 		.ascii	"Started OK\015\012\000"
 657      74656420 
 657      4F4B0D0A 
 657      00
 658              	.LC11:
 659 001a 3B0D0A00 		.ascii	";\015\012\000"
ARM GAS  C:\Users\SNFU\AppData\Local\Temp\ccHxQHwv.s 			page 21


 660              		.data
 661              		.align	2
 662              		.set	.LANCHOR1,. + 0
 663              		.type	flag_LightsEnabled, %object
 664              		.size	flag_LightsEnabled, 1
 665              	flag_LightsEnabled:
 666 0000 01       		.byte	1
 667 0001 00       		.space	1
 668              		.type	NavLightBright, %object
 669              		.size	NavLightBright, 2
 670              	NavLightBright:
 671 0002 6400     		.short	100
 672              		.type	NavLightStep, %object
 673              		.size	NavLightStep, 2
 674              	NavLightStep:
 675 0004 0100     		.short	1
 676 0006 0000     		.space	2
 677              		.type	sample_time, %object
 678              		.size	sample_time, 4
 679              	sample_time:
 680 0008 0AD7233C 		.word	1008981770
 681              		.type	system_state, %object
 682              		.size	system_state, 1
 683              	system_state:
 684 000c 03       		.byte	3
 685              		.type	system_type, %object
 686              		.size	system_type, 1
 687              	system_type:
 688 000d 01       		.byte	1
 689 000e 0000     		.space	2
 690              		.type	R_angle, %object
 691              		.size	R_angle, 4
 692              	R_angle:
 693 0010 0AD7A33C 		.word	1017370378
 694              		.type	Q_gyro, %object
 695              		.size	Q_gyro, 4
 696              	Q_gyro:
 697 0014 0AD7A33B 		.word	1000593162
 698              		.type	Q_angle, %object
 699              		.size	Q_angle, 4
 700              	Q_angle:
 701 0018 0AD7A33B 		.word	1000593162
 702              		.bss
 703              		.align	2
 704              		.set	.LANCHOR0,. + 0
 705              		.type	task_flag, %object
 706              		.size	task_flag, 1
 707              	task_flag:
 708 0000 00       		.space	1
 709 0001 00       		.space	1
 710              		.type	NavLightCompare, %object
 711              		.size	NavLightCompare, 2
 712              	NavLightCompare:
 713 0002 0000     		.space	2
 714              		.type	flag_NavLightPulse, %object
 715              		.size	flag_NavLightPulse, 1
 716              	flag_NavLightPulse:
ARM GAS  C:\Users\SNFU\AppData\Local\Temp\ccHxQHwv.s 			page 22


 717 0004 00       		.space	1
 718 0005 00       		.space	1
 719              		.type	NavLightDim, %object
 720              		.size	NavLightDim, 2
 721              	NavLightDim:
 722 0006 0000     		.space	2
 723              		.type	cnt_StrobeLight, %object
 724              		.size	cnt_StrobeLight, 1
 725              	cnt_StrobeLight:
 726 0008 00       		.space	1
 727              		.type	cnt_baro, %object
 728              		.size	cnt_baro, 1
 729              	cnt_baro:
 730 0009 00       		.space	1
 731              		.type	acc_x_g, %object
 732              		.size	acc_x_g, 2
 733              	acc_x_g:
 734 000a 0000     		.space	2
 735              		.type	acc_z_g, %object
 736              		.size	acc_z_g, 2
 737              	acc_z_g:
 738 000c 0000     		.space	2
 739 000e 0000     		.space	2
 740              		.type	Theta_acc, %object
 741              		.size	Theta_acc, 4
 742              	Theta_acc:
 743 0010 00000000 		.space	4
 744              		.type	acc_y_g, %object
 745              		.size	acc_y_g, 2
 746              	acc_y_g:
 747 0014 0000     		.space	2
 748 0016 0000     		.space	2
 749              		.type	Phi_acc, %object
 750              		.size	Phi_acc, 4
 751              	Phi_acc:
 752 0018 00000000 		.space	4
 753              		.type	turn_rate_q, %object
 754              		.size	turn_rate_q, 2
 755              	turn_rate_q:
 756 001c 0000     		.space	2
 757              		.type	turn_rate_p, %object
 758              		.size	turn_rate_p, 2
 759              	turn_rate_p:
 760 001e 0000     		.space	2
 761              		.type	mag_y_g, %object
 762              		.size	mag_y_g, 2
 763              	mag_y_g:
 764 0020 0000     		.space	2
 765              		.type	mag_x_g, %object
 766              		.size	mag_x_g, 2
 767              	mag_x_g:
 768 0022 0000     		.space	2
 769              		.type	Mag_Heading, %object
 770              		.size	Mag_Heading, 4
 771              	Mag_Heading:
 772 0024 00000000 		.space	4
 773              		.type	Bar_press, %object
ARM GAS  C:\Users\SNFU\AppData\Local\Temp\ccHxQHwv.s 			page 23


 774              		.size	Bar_press, 4
 775              	Bar_press:
 776 0028 00000000 		.space	4
 777              		.type	ctrl_in, %object
 778              		.size	ctrl_in, 16
 779              	ctrl_in:
 780 002c 00000000 		.space	16
 780      00000000 
 780      00000000 
 780      00000000 
 781              		.type	ctrl_out, %object
 782              		.size	ctrl_out, 26
 783              	ctrl_out:
 784 003c 00000000 		.space	26
 784      00000000 
 784      00000000 
 784      00000000 
 784      00000000 
 785              		.type	cnt_ML_ATTITUDE_send, %object
 786              		.size	cnt_ML_ATTITUDE_send, 1
 787              	cnt_ML_ATTITUDE_send:
 788 0056 00       		.space	1
 789              		.type	cnt_ML_HEARTBEAT_send, %object
 790              		.size	cnt_ML_HEARTBEAT_send, 1
 791              	cnt_ML_HEARTBEAT_send:
 792 0057 00       		.space	1
 793              		.type	custom_mode, %object
 794              		.size	custom_mode, 4
 795              	custom_mode:
 796 0058 00000000 		.space	4
 797              		.type	system_mode, %object
 798              		.size	system_mode, 1
 799              	system_mode:
 800 005c 00       		.space	1
 801              		.type	autopilot_type, %object
 802              		.size	autopilot_type, 1
 803              	autopilot_type:
 804 005d 00       		.space	1
 805 005e 0000     		.space	2
 806              		.type	K_1_Phi, %object
 807              		.size	K_1_Phi, 4
 808              	K_1_Phi:
 809 0060 00000000 		.space	4
 810              		.type	P_Phi, %object
 811              		.size	P_Phi, 16
 812              	P_Phi:
 813 0064 00000000 		.space	16
 813      00000000 
 813      00000000 
 813      00000000 
 814              		.type	p_bias, %object
 815              		.size	p_bias, 4
 816              	p_bias:
 817 0074 00000000 		.space	4
 818              		.type	K_1_Theta, %object
 819              		.size	K_1_Theta, 4
 820              	K_1_Theta:
ARM GAS  C:\Users\SNFU\AppData\Local\Temp\ccHxQHwv.s 			page 24


 821 0078 00000000 		.space	4
 822              		.type	P_Theta, %object
 823              		.size	P_Theta, 16
 824              	P_Theta:
 825 007c 00000000 		.space	16
 825      00000000 
 825      00000000 
 825      00000000 
 826              		.type	q_bias, %object
 827              		.size	q_bias, 4
 828              	q_bias:
 829 008c 00000000 		.space	4
 830              		.type	Mag_y, %object
 831              		.size	Mag_y, 4
 832              	Mag_y:
 833 0090 00000000 		.space	4
 834              		.type	Psi_acc, %object
 835              		.size	Psi_acc, 4
 836              	Psi_acc:
 837 0094 00000000 		.space	4
 838              		.type	mag_z_g, %object
 839              		.size	mag_z_g, 2
 840              	mag_z_g:
 841 0098 0000     		.space	2
 842              		.type	turn_rate_r, %object
 843              		.size	turn_rate_r, 2
 844              	turn_rate_r:
 845 009a 0000     		.space	2
 846              		.type	PPM_channel, %object
 847              		.size	PPM_channel, 1
 848              	PPM_channel:
 849 009c 00       		.space	1
 850              		.type	blink_cnt, %object
 851              		.size	blink_cnt, 1
 852              	blink_cnt:
 853 009d 00       		.space	1
 854 009e 0000     		.text
 855              	.Letext0:
 856              		.file 2 "c:\\program files\\cypress\\psoc creator\\3.1\\psoc creator\\import\\gnu_cs\\arm\\4.8.4\\
 857              		.file 3 "c:\\program files\\cypress\\psoc creator\\3.1\\psoc creator\\import\\gnu_cs\\arm\\4.8.4\\
 858              		.file 4 ".\\Generated_Source\\PSoC4/cytypes.h"
 859              		.file 5 ".\\MAVLINK\\common/../mavlink_types.h"
 860              		.file 6 ".\\MAVLINK\\common/common.h"
 861              		.file 7 ".\\Generated_Source\\PSoC4/UART_1_SPI_UART.h"
 862              		.file 8 ".\\Generated_Source\\PSoC4/NavLightPWM.h"
 863              		.file 9 ".\\Generated_Source\\PSoC4/Strobes.h"
 864              		.file 10 "./IMU.h"
 865              		.file 11 "c:\\program files\\cypress\\psoc creator\\3.1\\psoc creator\\import\\gnu_cs\\arm\\4.8.4\
 866              		.file 12 "c:\\program files\\cypress\\psoc creator\\3.1\\psoc creator\\import\\gnu_cs\\arm\\4.8.4\
 867              		.file 13 ".\\Generated_Source\\PSoC4/UART_1.h"
 868              		.file 14 ".\\Generated_Source\\PSoC4/I2CM.h"
 869              		.file 15 ".\\Generated_Source\\PSoC4/CyLib.h"
 870              		.file 16 ".\\Generated_Source\\PSoC4/TaskTimer.h"
 871              		.file 17 ".\\Generated_Source\\PSoC4/PPMCounter.h"
 872              		.file 18 ".\\Generated_Source\\PSoC4/ServoTimer.h"
 873              		.file 19 ".\\Generated_Source\\PSoC4/PPMISR.h"
 874              		.file 20 ".\\Generated_Source\\PSoC4/PPMRstISR.h"
ARM GAS  C:\Users\SNFU\AppData\Local\Temp\ccHxQHwv.s 			page 25


 875              		.file 21 ".\\Generated_Source\\PSoC4/ServoISR.h"
 876              		.file 22 ".\\Generated_Source\\PSoC4/TaskISR.h"
 877              		.file 23 ".\\Generated_Source\\PSoC4/BootISR.h"