ARM GAS  C:\Users\Sven\AppData\Local\Temp\cc5mu159.s 			page 1


   1              		.cpu cortex-m0
   2              		.fpu softvfp
   3              		.eabi_attribute 20, 1
   4              		.eabi_attribute 21, 1
   5              		.eabi_attribute 23, 3
   6              		.eabi_attribute 24, 1
   7              		.eabi_attribute 25, 1
   8              		.eabi_attribute 26, 1
   9              		.eabi_attribute 30, 4
  10              		.eabi_attribute 34, 0
  11              		.eabi_attribute 18, 4
  12              		.code	16
  13              		.file	"main.c"
  14              		.text
  15              	.Ltext0:
  16              		.cfi_sections	.debug_frame
  17              		.section	.text.UART_1_UartPutNum,"ax",%progbits
  18              		.align	1
  19              		.global	UART_1_UartPutNum
  20              		.code	16
  21              		.thumb_func
  22              		.type	UART_1_UartPutNum, %function
  23              	UART_1_UartPutNum:
  24              	.LFB1489:
  25              		.file 1 ".\\main.c"
   1:.\main.c      **** /* ========================================
   2:.\main.c      ****  *
   3:.\main.c      ****  * Copyright SNFU
   4:.\main.c      ****  * All Rights Reserved
   5:.\main.c      ****  * UNPUBLISHED, LICENSED SOFTWARE.
   6:.\main.c      ****  *
   7:.\main.c      ****  * CONFIDENTIAL AND PROPRIETARY INFORMATION
   8:.\main.c      ****  * WHICH IS THE PROPERTY OF your company.
   9:.\main.c      ****  *
  10:.\main.c      ****  * T-50_Project
  11:.\main.c      ****  *
  12:.\main.c      ****  * ========================================
  13:.\main.c      **** */
  14:.\main.c      **** #include <project.h>
  15:.\main.c      **** #include <stdio.h>
  16:.\main.c      **** #include <stdlib.h>
  17:.\main.c      **** #include <math.h>
  18:.\main.c      **** #include <IMU.h>
  19:.\main.c      **** #include <mavlink.h>
  20:.\main.c      **** #include <mavlink_types.h>
  21:.\main.c      **** #include <Baro.h>
  22:.\main.c      **** 
  23:.\main.c      **** #define FALSE   0
  24:.\main.c      **** #define TRUE    1
  25:.\main.c      **** 
  26:.\main.c      **** #define PI			3.1415926535897932384626433832795
  27:.\main.c      **** 
  28:.\main.c      **** volatile uint8_t task_flag = FALSE;     // The Task Flag is set in TaskISR Interrupt Routine
  29:.\main.c      **** volatile uint8_t blink_cnt = 0;
  30:.\main.c      **** float sample_time = 0.01;               // 10 ms Sample time
  31:.\main.c      **** 
  32:.\main.c      **** /*=============================*/
ARM GAS  C:\Users\Sven\AppData\Local\Temp\cc5mu159.s 			page 2


  33:.\main.c      **** /*Remote Input variables*/
  34:.\main.c      **** /*=============================*/
  35:.\main.c      **** uint8_t PPM_channel = 0;                    // input channel variable
  36:.\main.c      **** uint16_t ctrl_in[8] = {0};                  // input control vector
  37:.\main.c      **** uint16_t ctrl_out[13] = {1500,
  38:.\main.c      ****                          1500,
  39:.\main.c      ****                          1500,
  40:.\main.c      ****                          1500,
  41:.\main.c      ****                          1500,
  42:.\main.c      ****                          1500,
  43:.\main.c      ****                          1500,
  44:.\main.c      ****                          1500,
  45:.\main.c      ****                          1500,
  46:.\main.c      ****                          1500,
  47:.\main.c      ****                          1500,
  48:.\main.c      ****                          1500,
  49:.\main.c      ****                          1500};                // output control vector
  50:.\main.c      **** 
  51:.\main.c      **** uint16_t ctrl_in_trim[5] = {1500,				/* motor*/
  52:.\main.c      **** 							1500,				/* aileron */
  53:.\main.c      **** 							1500,				/* elevator */
  54:.\main.c      **** 							1500,				/* rudder */
  55:.\main.c      **** 							1500};			 
  56:.\main.c      **** uint16_t ctrl_out_PID[5] =  {0};				/* PID Control Vector */
  57:.\main.c      **** uint16_t ctrl_out_DAMP[5] =  {0};				/* DAMPING Control Vector */			 
  58:.\main.c      **** 						 
  59:.\main.c      **** enum e_in{   // Input Control Enum - 8 Channels
  60:.\main.c      ****     in_mot = 0,
  61:.\main.c      ****     in_ail,
  62:.\main.c      ****     in_ele,
  63:.\main.c      ****     in_rud,
  64:.\main.c      ****     in_gear,
  65:.\main.c      ****     in_can,
  66:.\main.c      ****     in_mod,
  67:.\main.c      ****     in_sp2
  68:.\main.c      **** };
  69:.\main.c      **** 
  70:.\main.c      **** enum e_out{   // Output Control Enum - 13 Signals
  71:.\main.c      ****     out_mot = 0,
  72:.\main.c      ****     out_ail1,
  73:.\main.c      ****     out_ail2,
  74:.\main.c      ****     out_ele1,
  75:.\main.c      ****     out_ele2,
  76:.\main.c      ****     out_rud,
  77:.\main.c      ****     out_fl1,
  78:.\main.c      ****     out_fl2,
  79:.\main.c      ****     out_ge1,
  80:.\main.c      ****     out_ge2,
  81:.\main.c      ****     out_ge3,
  82:.\main.c      ****     out_sp1,
  83:.\main.c      ****     out_sp2
  84:.\main.c      **** };
  85:.\main.c      **** 
  86:.\main.c      **** 
  87:.\main.c      **** 
  88:.\main.c      **** /*=============================*/
  89:.\main.c      **** /* State Machine for mode control*/
ARM GAS  C:\Users\Sven\AppData\Local\Temp\cc5mu159.s 			page 3


  90:.\main.c      **** /*=============================*/
  91:.\main.c      **** uint8_t Ctrl_Mode = 0;
  92:.\main.c      **** enum ctrl_mode
  93:.\main.c      **** {
  94:.\main.c      ****     manual = 0,
  95:.\main.c      ****     damped,
  96:.\main.c      ****     tune,
  97:.\main.c      ****     autonom
  98:.\main.c      **** };
  99:.\main.c      **** 
 100:.\main.c      **** /*=============================*/
 101:.\main.c      **** /* TASK FLAGS */
 102:.\main.c      **** /*=============================*/
 103:.\main.c      **** #define GYRO_TASK       TRUE
 104:.\main.c      **** #define ACC_TASK        TRUE
 105:.\main.c      **** #define MAG_TASK        FALSE
 106:.\main.c      **** #define BARO_TASK       TRUE
 107:.\main.c      **** #define SPEED_TASK      TRUE    
 108:.\main.c      **** #define DATA_LOG        TRUE
 109:.\main.c      **** #define MAVLINK_TASK    FALSE
 110:.\main.c      **** 
 111:.\main.c      **** /*=============================*/
 112:.\main.c      **** /*Light control variables*/
 113:.\main.c      **** /*=============================*/
 114:.\main.c      **** uint8_t flag_LightsEnabled = TRUE;
 115:.\main.c      **** 
 116:.\main.c      **** /*Nav Light Control START -> Pulsing of the Navigation Lights*/
 117:.\main.c      **** uint8_t flag_NavLightPulse  = FALSE;    // Nav Light Pulse flag (to count up or down)
 118:.\main.c      **** uint16_t NavLightBright     = 100;  // Upper value for the brightness 100 = 100%
 119:.\main.c      **** uint16_t NavLightDim        = 0;    // Lower value for the brightness 0 = 0%
 120:.\main.c      **** uint16_t NavLightStep       = 1;    // Nav Light Pulse Stepwidth => brightness change per 10ms
 121:.\main.c      **** uint16_t NavLightCompare    = 0;    // Nav Light PWM Compare Value
 122:.\main.c      **** /*Strobe Light*/
 123:.\main.c      **** uint8_t cnt_StrobeLight     = 0;
 124:.\main.c      **** 
 125:.\main.c      **** 
 126:.\main.c      **** /*=============================*/
 127:.\main.c      **** /*IMU variables*/
 128:.\main.c      **** /*=============================*/
 129:.\main.c      **** 
 130:.\main.c      **** /* turn rates */
 131:.\main.c      **** int16_t turn_rate_p = 0;
 132:.\main.c      **** int16_t turn_rate_q = 0;
 133:.\main.c      **** int16_t turn_rate_r = 0;
 134:.\main.c      **** /* accelerations*/
 135:.\main.c      **** int16_t acc_x_g = 0;
 136:.\main.c      **** int16_t acc_y_g = 0;
 137:.\main.c      **** int16_t acc_z_g = 0;
 138:.\main.c      **** /* magnetic out*/
 139:.\main.c      **** int16_t mag_x_g = 0;
 140:.\main.c      **** int16_t mag_y_g = 0;
 141:.\main.c      **** int16_t mag_z_g = 0;
 142:.\main.c      **** 
 143:.\main.c      **** /* Euler Angles */
 144:.\main.c      **** float Theta, Theta_Mav, Theta_acc = 0;   // Theta => estimated angle after Kalman, Theta_acc => The
 145:.\main.c      **** float Phi, Phi_Mav, Phi_acc = 0;       // Phi => estimated angle after Kalman, Phi_acc => Theta fro
 146:.\main.c      **** float Psi, Psi_acc = 0;       // Psi , Psi_acc => Psi from accelerometer
ARM GAS  C:\Users\Sven\AppData\Local\Temp\cc5mu159.s 			page 4


 147:.\main.c      **** 
 148:.\main.c      **** /* Magnetic Heading*/
 149:.\main.c      **** int32_t Mag_Heading = 0;
 150:.\main.c      **** float Mag_x, Mag_y = 0;    
 151:.\main.c      **** 
 152:.\main.c      **** /* Barometer Reading*/
 153:.\main.c      **** int32_t Bar_press = 0;
 154:.\main.c      **** 
 155:.\main.c      **** 
 156:.\main.c      **** /*=============================*/
 157:.\main.c      **** /* Speed reading       		*/
 158:.\main.c      **** /*=============================*/
 159:.\main.c      **** uint16_t speed_offset = 172;
 160:.\main.c      **** int16_t speed = 0;
 161:.\main.c      **** uint8_t cal_cnt = 0;
 162:.\main.c      **** uint8_t speed_cal_compl = 0;
 163:.\main.c      **** 
 164:.\main.c      **** /*=============================*/
 165:.\main.c      **** /* Altitude reading    
 166:.\main.c      ****    used for external pressure sensor BMP180 */
 167:.\main.c      **** /*=============================*/
 168:.\main.c      **** 
 169:.\main.c      **** int32_t alt = 0;    // altitude from pressure
 170:.\main.c      **** //extern int32_t alt;     /* from main.c file */
 171:.\main.c      **** 
 172:.\main.c      **** uint8_t cnt_baro  = 0;  /* baro counter */
 173:.\main.c      **** int32_t temp = 0;   // temperature reading by BMP180
 174:.\main.c      **** int32_t press = 0;   // pressure reading by BMP180
 175:.\main.c      **** int32_t QFE = 0;	/* QFE Ground pressure -> gives altitude to current ground pressure */
 176:.\main.c      **** /*=============================*/
 177:.\main.c      **** /* Kalman Filter Data			*/
 178:.\main.c      **** /*=============================*/
 179:.\main.c      **** // weighing matrices ???
 180:.\main.c      **** float Q_angle = 0.005;
 181:.\main.c      **** float Q_gyro = 0.005;
 182:.\main.c      **** float R_angle = 0.02;
 183:.\main.c      **** // Estimation of Theta (Kalman)
 184:.\main.c      **** float q_bias = 0;
 185:.\main.c      **** //int8_t P_00_Theta, P_01_Theta, P_10_Theta, P_11_Theta = 0;
 186:.\main.c      **** float P_Theta[2][2] = {0,0,0,0};
 187:.\main.c      **** float Theta_temp, S_Theta, K_0_Theta, K_1_Theta = 0;
 188:.\main.c      **** // Estimation of Phi (Kalman)
 189:.\main.c      **** float p_bias = 0;
 190:.\main.c      **** //int8_t P_00_Phi, P_01_Phi, P_10_Phi, P_11_Phi = 0;
 191:.\main.c      **** float P_Phi[2][2] = {0,0,0,0};
 192:.\main.c      **** float Phi_temp, S_Phi, K_0_Phi, K_1_Phi = 0;
 193:.\main.c      **** 
 194:.\main.c      **** /*============================*/
 195:.\main.c      **** /* Control variables	*/
 196:.\main.c      **** /*=============================*/
 197:.\main.c      **** uint8_t K_d_p = 1;
 198:.\main.c      **** uint8_t K_d_q = 2;
 199:.\main.c      **** uint8_t K_d_r = 3;
 200:.\main.c      **** 
 201:.\main.c      **** /*============================*/
 202:.\main.c      **** /* Tune variables	            */
 203:.\main.c      **** /*=============================*/
ARM GAS  C:\Users\Sven\AppData\Local\Temp\cc5mu159.s 			page 5


 204:.\main.c      **** uint8_t tune_cnt = 0;
 205:.\main.c      **** 
 206:.\main.c      **** /*============================*/
 207:.\main.c      **** /* Autopilot variables	            */
 208:.\main.c      **** /*=============================*/
 209:.\main.c      **** int8_t Theta_Target = 0;			/* Initializing Theta Target Pitch Angle */
 210:.\main.c      **** int8_t Theta_Error = 0;			    /* Initializing Theta Error */
 211:.\main.c      **** int32_t Theta_Error_sum = 0;		/* Initializing Theta Error Sum */
 212:.\main.c      **** int8_t Theta_Error_prev = 0;		/* Initializing Theta Error Sum */
 213:.\main.c      **** 
 214:.\main.c      **** int8_t Phi_Target = 0;			    /* Initializing Phi Target Bank Angle */
 215:.\main.c      **** int8_t Phi_Error = 0;			    /* Initializing Phi Error */
 216:.\main.c      **** int32_t Phi_Error_sum = 0;		    /* Initializing Phi Error Sum */
 217:.\main.c      **** int8_t Phi_Error_prev = 0;		    /* Initializing Phi Error Sum */
 218:.\main.c      **** 
 219:.\main.c      **** /*============================*/
 220:.\main.c      **** /* UART Rx Tx variables		*/
 221:.\main.c      **** /*=============================*/
 222:.\main.c      **** uint8_t Rx_char = 0;
 223:.\main.c      **** char Rx_String[10] = {0,0,0,0,0,0,0,0,0,0};
 224:.\main.c      **** uint8_t Rx_index = 0;
 225:.\main.c      **** uint8_t Rx_flag = 0;
 226:.\main.c      **** 
 227:.\main.c      **** /*=============================*/
 228:.\main.c      **** /* MAVLINK			*/
 229:.\main.c      **** /*=============================*/
 230:.\main.c      **** 
 231:.\main.c      **** mavlink_system_t mavlink_system;
 232:.\main.c      **** // Define the system type, in this case an airplane
 233:.\main.c      **** uint8_t system_type = MAV_TYPE_FIXED_WING;        //MAV_TYPE_FIXED_WING;
 234:.\main.c      **** uint8_t autopilot_type = MAV_AUTOPILOT_GENERIC;     //MAV_AUTOPILOT_GENERIC;
 235:.\main.c      **** 
 236:.\main.c      **** uint8_t system_mode = MAV_MODE_PREFLIGHT;       ///< Booting up //
 237:.\main.c      **** uint32_t custom_mode = 0;                       ///< Custom mode, can be defined by user/adopter
 238:.\main.c      **** uint8_t system_state = MAV_STATE_STANDBY;       ///< System ready for flight
 239:.\main.c      **** 
 240:.\main.c      **** // Initialize the required buffers
 241:.\main.c      **** mavlink_message_t msg;
 242:.\main.c      **** uint8_t buf[MAVLINK_MAX_PACKET_LEN];
 243:.\main.c      **** 
 244:.\main.c      **** uint8_t cnt_ML_HEARTBEAT_send = 0;          // used for timing of the HEARTBEAT message sending
 245:.\main.c      **** uint8_t cnt_ML_ATTITUDE_send = 0;           // used for timing of the ATTITUDE message sending
 246:.\main.c      **** 
 247:.\main.c      **** /*=============================*/
 248:.\main.c      **** /* General Functions */
 249:.\main.c      **** /*=============================*/
 250:.\main.c      **** // UART Put Num to write serial number data
 251:.\main.c      **** void UART_1_UartPutNum(int32_t num)
 252:.\main.c      **** {
  26              		.loc 1 252 0
  27              		.cfi_startproc
  28              	.LVL0:
  29 0000 00B5     		push	{lr}
  30              		.cfi_def_cfa_offset 4
  31              		.cfi_offset 14, -4
  32 0002 89B0     		sub	sp, sp, #36
  33              		.cfi_def_cfa_offset 40
ARM GAS  C:\Users\Sven\AppData\Local\Temp\cc5mu159.s 			page 6


  34              		.loc 1 252 0
  35 0004 021C     		mov	r2, r0
 253:.\main.c      ****     char k[31];
 254:.\main.c      ****     sprintf(k,"%d",num);
  36              		.loc 1 254 0
  37 0006 0449     		ldr	r1, .L2
  38 0008 6846     		mov	r0, sp
  39              	.LVL1:
  40 000a FFF7FEFF 		bl	sprintf
  41              	.LVL2:
 255:.\main.c      ****     UART_1_UartPutString(k);   
  42              		.loc 1 255 0
  43 000e 6846     		mov	r0, sp
  44 0010 FFF7FEFF 		bl	UART_1_UartPutString
  45              	.LVL3:
 256:.\main.c      **** }
  46              		.loc 1 256 0
  47 0014 09B0     		add	sp, sp, #36
  48              		@ sp needed
  49 0016 00BD     		pop	{pc}
  50              	.L3:
  51              		.align	2
  52              	.L2:
  53 0018 00000000 		.word	.LC0
  54              		.cfi_endproc
  55              	.LFE1489:
  56              		.size	UART_1_UartPutNum, .-UART_1_UartPutNum
  57              		.section	.text.UART_1_UartSendMavlink,"ax",%progbits
  58              		.align	1
  59              		.global	UART_1_UartSendMavlink
  60              		.code	16
  61              		.thumb_func
  62              		.type	UART_1_UartSendMavlink, %function
  63              	UART_1_UartSendMavlink:
  64              	.LFB1490:
 257:.\main.c      **** 
 258:.\main.c      **** // UART Put Num to write serial number data
 259:.\main.c      **** void UART_1_UartSendMavlink(uint8_t buf[], uint16_t len)
 260:.\main.c      **** {
  65              		.loc 1 260 0
  66              		.cfi_startproc
  67              	.LVL4:
  68 0000 70B5     		push	{r4, r5, r6, lr}
  69              		.cfi_def_cfa_offset 16
  70              		.cfi_offset 4, -16
  71              		.cfi_offset 5, -12
  72              		.cfi_offset 6, -8
  73              		.cfi_offset 14, -4
  74              		.loc 1 260 0
  75 0002 061C     		mov	r6, r0
 261:.\main.c      ****     uint16_t i = 0;
 262:.\main.c      ****     UART_1_UartPutChar(0xFE);   // message header    
  76              		.loc 1 262 0
  77 0004 FE20     		mov	r0, #254
  78              	.LVL5:
 260:.\main.c      **** {
  79              		.loc 1 260 0
ARM GAS  C:\Users\Sven\AppData\Local\Temp\cc5mu159.s 			page 7


  80 0006 0D1C     		mov	r5, r1
  81              		.loc 1 262 0
  82 0008 FFF7FEFF 		bl	UART_1_SpiUartWriteTxData
  83              	.LVL6:
 261:.\main.c      ****     uint16_t i = 0;
  84              		.loc 1 261 0
  85 000c 0024     		mov	r4, #0
  86              	.LVL7:
  87              	.L5:
 263:.\main.c      ****     while(i<(len+1))
  88              		.loc 1 263 0 discriminator 1
  89 000e A542     		cmp	r5, r4
  90 0010 05DB     		blt	.L8
 264:.\main.c      **** 	{
 265:.\main.c      ****         i++;
  91              		.loc 1 265 0
  92 0012 0134     		add	r4, r4, #1
  93              	.LVL8:
  94 0014 A4B2     		uxth	r4, r4
  95              	.LVL9:
 266:.\main.c      ****         UART_1_UartPutChar(buf[i]);
  96              		.loc 1 266 0
  97 0016 305D     		ldrb	r0, [r6, r4]
  98 0018 FFF7FEFF 		bl	UART_1_SpiUartWriteTxData
  99              	.LVL10:
 100 001c F7E7     		b	.L5
 101              	.L8:
 267:.\main.c      **** 	}  
 268:.\main.c      **** }
 102              		.loc 1 268 0
 103              		@ sp needed
 104              	.LVL11:
 105              	.LVL12:
 106 001e 70BD     		pop	{r4, r5, r6, pc}
 107              		.cfi_endproc
 108              	.LFE1490:
 109              		.size	UART_1_UartSendMavlink, .-UART_1_UartSendMavlink
 110              		.section	.text.ADC_read_speed,"ax",%progbits
 111              		.align	1
 112              		.global	ADC_read_speed
 113              		.code	16
 114              		.thumb_func
 115              		.type	ADC_read_speed, %function
 116              	ADC_read_speed:
 117              	.LFB1491:
 269:.\main.c      **** 
 270:.\main.c      **** /* Read speed */
 271:.\main.c      **** int16_t ADC_read_speed(void)
 272:.\main.c      **** {
 118              		.loc 1 272 0
 119              		.cfi_startproc
 120 0000 10B5     		push	{r4, lr}
 121              		.cfi_def_cfa_offset 8
 122              		.cfi_offset 4, -8
 123              		.cfi_offset 14, -4
 273:.\main.c      ****     ADC_StartConvert();		/* Start Conversion */
 124              		.loc 1 273 0
ARM GAS  C:\Users\Sven\AppData\Local\Temp\cc5mu159.s 			page 8


 125 0002 FFF7FEFF 		bl	ADC_StartConvert
 126              	.LVL13:
 274:.\main.c      ****     int16_t speed = ADC_GetResult16(0); /* channel 0 is the first ADC */
 127              		.loc 1 274 0
 128 0006 0020     		mov	r0, #0
 129 0008 FFF7FEFF 		bl	ADC_GetResult16
 130              	.LVL14:
 131 000c 041C     		mov	r4, r0
 132              	.LVL15:
 275:.\main.c      ****     ADC_StopConvert();		/* Stop Conversion */	
 276:.\main.c      ****     return(speed);
 277:.\main.c      **** }
 133              		.loc 1 277 0
 134              		@ sp needed
 275:.\main.c      ****     ADC_StopConvert();		/* Stop Conversion */	
 135              		.loc 1 275 0
 136 000e FFF7FEFF 		bl	ADC_StopConvert
 137              	.LVL16:
 138              		.loc 1 277 0
 139 0012 201C     		mov	r0, r4
 140              	.LVL17:
 141 0014 10BD     		pop	{r4, pc}
 142              		.cfi_endproc
 143              	.LFE1491:
 144              		.size	ADC_read_speed, .-ADC_read_speed
 145              		.global	__aeabi_idiv
 146              		.section	.text.ADC_calibrate_speed,"ax",%progbits
 147              		.align	1
 148              		.global	ADC_calibrate_speed
 149              		.code	16
 150              		.thumb_func
 151              		.type	ADC_calibrate_speed, %function
 152              	ADC_calibrate_speed:
 153              	.LFB1492:
 278:.\main.c      **** 
 279:.\main.c      **** /* Speed calibration */
 280:.\main.c      **** void ADC_calibrate_speed(void)
 281:.\main.c      **** {
 154              		.loc 1 281 0
 155              		.cfi_startproc
 156 0000 38B5     		push	{r3, r4, r5, lr}
 157              		.cfi_def_cfa_offset 16
 158              		.cfi_offset 3, -16
 159              		.cfi_offset 4, -12
 160              		.cfi_offset 5, -8
 161              		.cfi_offset 14, -4
 282:.\main.c      ****     speed_offset = 0;
 162              		.loc 1 282 0
 163 0002 0D4C     		ldr	r4, .L15
 164 0004 0023     		mov	r3, #0
 283:.\main.c      ****     cal_cnt = 0;
 165              		.loc 1 283 0
 166 0006 0D4D     		ldr	r5, .L15+4
 282:.\main.c      ****     speed_offset = 0;
 167              		.loc 1 282 0
 168 0008 2380     		strh	r3, [r4]
 169              	.L13:
ARM GAS  C:\Users\Sven\AppData\Local\Temp\cc5mu159.s 			page 9


 284:.\main.c      ****     while(cal_cnt < 254)
 285:.\main.c      ****         {
 286:.\main.c      ****             speed = ADC_read_speed();
 287:.\main.c      ****             speed_offset+=speed;
 288:.\main.c      ****             cal_cnt++;
 170              		.loc 1 288 0
 171 000a 2B70     		strb	r3, [r5]
 284:.\main.c      ****     while(cal_cnt < 254)
 172              		.loc 1 284 0
 173 000c 2978     		ldrb	r1, [r5]
 174 000e FD29     		cmp	r1, #253
 175 0010 08D8     		bhi	.L14
 286:.\main.c      ****             speed = ADC_read_speed();
 176              		.loc 1 286 0
 177 0012 FFF7FEFF 		bl	ADC_read_speed
 178              	.LVL18:
 287:.\main.c      ****             speed_offset+=speed;
 179              		.loc 1 287 0
 180 0016 2388     		ldrh	r3, [r4]
 286:.\main.c      ****             speed = ADC_read_speed();
 181              		.loc 1 286 0
 182 0018 6880     		strh	r0, [r5, #2]
 287:.\main.c      ****             speed_offset+=speed;
 183              		.loc 1 287 0
 184 001a C018     		add	r0, r0, r3
 185              		.loc 1 288 0
 186 001c 2B78     		ldrb	r3, [r5]
 287:.\main.c      ****             speed_offset+=speed;
 187              		.loc 1 287 0
 188 001e 2080     		strh	r0, [r4]
 189              		.loc 1 288 0
 190 0020 0133     		add	r3, r3, #1
 191 0022 F2E7     		b	.L13
 192              	.L14:
 289:.\main.c      ****         }
 290:.\main.c      ****     speed_offset /= cal_cnt;
 193              		.loc 1 290 0
 194 0024 2088     		ldrh	r0, [r4]
 195 0026 FFF7FEFF 		bl	__aeabi_idiv
 196              	.LVL19:
 197 002a 2080     		strh	r0, [r4]
 291:.\main.c      ****     //cal_cnt = 0;
 292:.\main.c      ****     UART_1_UartPutNum(speed_offset);
 198              		.loc 1 292 0
 199 002c FFF7FEFF 		bl	UART_1_UartPutNum
 200              	.LVL20:
 293:.\main.c      ****     UART_1_UartPutString("Cal Compl\r\n");    
 201              		.loc 1 293 0
 202 0030 0348     		ldr	r0, .L15+8
 203 0032 FFF7FEFF 		bl	UART_1_UartPutString
 204              	.LVL21:
 294:.\main.c      **** }
 205              		.loc 1 294 0
 206              		@ sp needed
 207 0036 38BD     		pop	{r3, r4, r5, pc}
 208              	.L16:
 209              		.align	2
ARM GAS  C:\Users\Sven\AppData\Local\Temp\cc5mu159.s 			page 10


 210              	.L15:
 211 0038 00000000 		.word	.LANCHOR0
 212 003c 00000000 		.word	.LANCHOR1
 213 0040 03000000 		.word	.LC4
 214              		.cfi_endproc
 215              	.LFE1492:
 216              		.size	ADC_calibrate_speed, .-ADC_calibrate_speed
 217              		.global	__aeabi_i2d
 218              		.global	__aeabi_dmul
 219              		.global	__aeabi_d2iz
 220              		.global	__aeabi_ddiv
 221              		.global	__aeabi_d2f
 222              		.global	__aeabi_i2f
 223              		.global	__aeabi_fmul
 224              		.global	__aeabi_fadd
 225              		.global	__aeabi_f2d
 226              		.global	__aeabi_dadd
 227              		.global	__aeabi_f2iz
 228              		.global	__aeabi_fsub
 229              		.global	__aeabi_f2uiz
 230              		.section	.text.startup.main,"ax",%progbits
 231              		.align	1
 232              		.global	main
 233              		.code	16
 234              		.thumb_func
 235              		.type	main, %function
 236              	main:
 237              	.LFB1493:
 295:.\main.c      **** 
 296:.\main.c      **** /*=============================*/
 297:.\main.c      **** /* main */
 298:.\main.c      **** /* Application Code */
 299:.\main.c      **** /*=============================*/
 300:.\main.c      **** int main()
 301:.\main.c      **** {
 238              		.loc 1 301 0
 239              		.cfi_startproc
 240 0000 F0B5     		push	{r4, r5, r6, r7, lr}
 241              		.cfi_def_cfa_offset 20
 242              		.cfi_offset 4, -20
 243              		.cfi_offset 5, -16
 244              		.cfi_offset 6, -12
 245              		.cfi_offset 7, -8
 246              		.cfi_offset 14, -4
 302:.\main.c      ****     /* initialization/startup code */
 303:.\main.c      ****     
 304:.\main.c      ****     CyDelay(500); 		/* Wait before initialization happens. -> gives time for receiver to send PPM s
 247              		.loc 1 304 0
 248 0002 FA20     		mov	r0, #250
 301:.\main.c      **** {
 249              		.loc 1 301 0
 250 0004 89B0     		sub	sp, sp, #36
 251              		.cfi_def_cfa_offset 56
 252              		.loc 1 304 0
 253 0006 4000     		lsl	r0, r0, #1
 254 0008 FFF7FEFF 		bl	CyDelay
 255              	.LVL22:
ARM GAS  C:\Users\Sven\AppData\Local\Temp\cc5mu159.s 			page 11


 305:.\main.c      ****     CyGlobalIntEnable; 	/* Enable Global Interrupts */
 256              		.loc 1 305 0
 257              	@ 305 ".\main.c" 1
 258 000c 62B6     		CPSIE   i
 259              	@ 0 "" 2
 306:.\main.c      ****     UART_1_Start();     /* Enabling the UART */
 260              		.loc 1 306 0
 261              		.code	16
 262 000e FFF7FEFF 		bl	UART_1_Start
 263              	.LVL23:
 307:.\main.c      ****     I2CM_Start();		/* Enabling I2C */
 264              		.loc 1 307 0
 265 0012 FFF7FEFF 		bl	I2CM_Start
 266              	.LVL24:
 308:.\main.c      ****     ADC_Start();		/* Starting ADC */
 267              		.loc 1 308 0
 268 0016 FFF7FEFF 		bl	ADC_Start
 269              	.LVL25:
 309:.\main.c      ****     
 310:.\main.c      **** 	/*  watchdog Setup */
 311:.\main.c      ****     CySysWdtWriteMode(CY_SYS_WDT_COUNTER0, CY_SYS_WDT_MODE_RESET);  /* Generate SW RESET when not t
 270              		.loc 1 311 0
 271 001a 0020     		mov	r0, #0
 272 001c 0221     		mov	r1, #2
 273 001e FFF7FEFF 		bl	CySysWdtWriteMode
 274              	.LVL26:
 312:.\main.c      ****     CySysWdtWriteMatch(CY_SYS_WDT_COUNTER0, 16000);                 /* Every 16000 cycles // 500ms 
 275              		.loc 1 312 0
 276 0022 FA21     		mov	r1, #250
 277 0024 8901     		lsl	r1, r1, #6
 278 0026 0020     		mov	r0, #0
 279 0028 FFF7FEFF 		bl	CySysWdtWriteMatch
 280              	.LVL27:
 313:.\main.c      ****     //CySysWdtLock(); // Lock WDT settings
 314:.\main.c      ****     
 315:.\main.c      ****     
 316:.\main.c      ****     CyDelay(500);			/* 500ms Delay */
 281              		.loc 1 316 0
 282 002c FA20     		mov	r0, #250
 283 002e 4000     		lsl	r0, r0, #1
 284 0030 FFF7FEFF 		bl	CyDelay
 285              	.LVL28:
 317:.\main.c      ****     TaskTimer_Start();		/* Timer for main Task */
 286              		.loc 1 317 0
 287 0034 FFF7FEFF 		bl	TaskTimer_Start
 288              	.LVL29:
 318:.\main.c      ****     NavLightPWM_Start();	/* Navigation Light PWM Timer Start */
 289              		.loc 1 318 0
 290 0038 FFF7FEFF 		bl	NavLightPWM_Start
 291              	.LVL30:
 319:.\main.c      ****     PPMCounter_Start();		/* PPM counter for input */
 292              		.loc 1 319 0
 293 003c FFF7FEFF 		bl	PPMCounter_Start
 294              	.LVL31:
 320:.\main.c      ****     ServoTimer_Start();		/* Timer for Servo PWM */
 295              		.loc 1 320 0
 296 0040 FFF7FEFF 		bl	ServoTimer_Start
ARM GAS  C:\Users\Sven\AppData\Local\Temp\cc5mu159.s 			page 12


 297              	.LVL32:
 321:.\main.c      ****     PPMISR_Start();			/* PPM ISR Start */
 298              		.loc 1 321 0
 299 0044 FFF7FEFF 		bl	PPMISR_Start
 300              	.LVL33:
 322:.\main.c      ****     PPMRstISR_Start();		/* PPM Reset ISR Start*/
 301              		.loc 1 322 0
 302 0048 FFF7FEFF 		bl	PPMRstISR_Start
 303              	.LVL34:
 323:.\main.c      ****     ServoISR_Start();		/* Servo PWM ISR */
 304              		.loc 1 323 0
 305 004c FFF7FEFF 		bl	ServoISR_Start
 306              	.LVL35:
 324:.\main.c      ****     TaskISR_Start();		/* main task ISR */
 307              		.loc 1 324 0
 308 0050 FFF7FEFF 		bl	TaskISR_Start
 309              	.LVL36:
 325:.\main.c      ****     BootISR_Start();		/* Boot ISR Start */
 310              		.loc 1 325 0
 311 0054 FFF7FEFF 		bl	BootISR_Start
 312              	.LVL37:
 326:.\main.c      ****        
 327:.\main.c      ****     /* Mavlink Initialization */
 328:.\main.c      ****     mavlink_system.sysid = 58;     /* ID for Airplane*/
 313              		.loc 1 328 0
 314 0058 D34B     		ldr	r3, .L75+48
 315 005a 3A22     		mov	r2, #58
 316 005c 1A70     		strb	r2, [r3]
 329:.\main.c      ****     mavlink_system.compid = 58;    /* The component ID */
 317              		.loc 1 329 0
 318 005e 5A70     		strb	r2, [r3, #1]
 330:.\main.c      ****     
 331:.\main.c      **** 	/* in use if ALT IMU installed */
 332:.\main.c      ****     #ifdef ALTIMU	
 333:.\main.c      ****     if(GYRO_TASK == TRUE) gyro_start();
 334:.\main.c      ****     if(ACC_TASK == TRUE) acc_start();
 335:.\main.c      ****     if(MAG_TASK == TRUE) mag_start();
 336:.\main.c      **** 	/* in use if MPU6050 installed */
 337:.\main.c      ****     #else 
 338:.\main.c      ****     if(GYRO_TASK == TRUE) MPU6050_Init();
 319              		.loc 1 338 0
 320 0060 FFF7FEFF 		bl	MPU6050_Init
 321              	.LVL38:
 339:.\main.c      ****     #endif
 340:.\main.c      ****     
 341:.\main.c      ****     if(BARO_TASK == TRUE) 
 342:.\main.c      **** 	{
 343:.\main.c      **** 		BMP180_baro_init();		/* Initialize Barometer BMP180 */
 322              		.loc 1 343 0
 323 0064 FFF7FEFF 		bl	BMP180_baro_init
 324              	.LVL39:
 344:.\main.c      **** 		
 345:.\main.c      **** 		/* Determine current pressure setting (On ground pressure (QNH) */
 346:.\main.c      **** 		
 347:.\main.c      ****         BMP180_baro_trigger_temp();			/* Trigger Temperature conversion and wait min 4.5ms */
 325              		.loc 1 347 0
 326 0068 FFF7FEFF 		bl	BMP180_baro_trigger_temp
ARM GAS  C:\Users\Sven\AppData\Local\Temp\cc5mu159.s 			page 13


 327              	.LVL40:
 348:.\main.c      **** 		CyDelay(5);
 328              		.loc 1 348 0
 329 006c 0520     		mov	r0, #5
 330 006e FFF7FEFF 		bl	CyDelay
 331              	.LVL41:
 349:.\main.c      **** 		temp = BMP180_baro_read_temp();		/* Read temperature from Barometer */
 332              		.loc 1 349 0
 333 0072 FFF7FEFF 		bl	BMP180_baro_read_temp
 334              	.LVL42:
 335 0076 CD4C     		ldr	r4, .L75+52
 336 0078 6060     		str	r0, [r4, #4]
 350:.\main.c      **** 		CyDelay(5);
 337              		.loc 1 350 0
 338 007a 0520     		mov	r0, #5
 339 007c FFF7FEFF 		bl	CyDelay
 340              	.LVL43:
 351:.\main.c      **** 		BMP180_baro_trigger_pressure();		/* Trigger pressure conversion and wait min 4.5ms */
 341              		.loc 1 351 0
 342 0080 FFF7FEFF 		bl	BMP180_baro_trigger_pressure
 343              	.LVL44:
 352:.\main.c      **** 		CyDelay(5);                    
 344              		.loc 1 352 0
 345 0084 0520     		mov	r0, #5
 346 0086 FFF7FEFF 		bl	CyDelay
 347              	.LVL45:
 353:.\main.c      **** 		QFE = BMP180_baro_read_pressure();/* Read pressure and calculate pressure output */
 348              		.loc 1 353 0
 349 008a FFF7FEFF 		bl	BMP180_baro_read_pressure
 350              	.LVL46:
 351 008e A060     		str	r0, [r4, #8]
 354:.\main.c      **** 		UART_1_UartPutString("Current QFE: ");
 352              		.loc 1 354 0
 353 0090 C748     		ldr	r0, .L75+56
 354 0092 FFF7FEFF 		bl	UART_1_UartPutString
 355              	.LVL47:
 355:.\main.c      **** 		UART_1_UartPutNum(QFE);
 356              		.loc 1 355 0
 357 0096 A068     		ldr	r0, [r4, #8]
 358 0098 FFF7FEFF 		bl	UART_1_UartPutNum
 359              	.LVL48:
 356:.\main.c      **** 		UART_1_UartPutString("\r\n");
 360              		.loc 1 356 0
 361 009c C548     		ldr	r0, .L75+60
 362 009e FFF7FEFF 		bl	UART_1_UartPutString
 363              	.LVL49:
 357:.\main.c      **** 	}
 358:.\main.c      ****     
 359:.\main.c      ****     /* Enable Watchdog */
 360:.\main.c      ****     CySysWdtEnable(CY_SYS_WDT_COUNTER0_MASK);
 364              		.loc 1 360 0
 365 00a2 0120     		mov	r0, #1
 366 00a4 FFF7FEFF 		bl	CySysWdtEnable
 367              	.LVL50:
 361:.\main.c      **** 	
 362:.\main.c      **** 	/* Initialization Complete */
 363:.\main.c      ****     UART_1_UartPutString("Init Complete\r\n");
ARM GAS  C:\Users\Sven\AppData\Local\Temp\cc5mu159.s 			page 14


 368              		.loc 1 363 0
 369 00a8 C348     		ldr	r0, .L75+64
 370 00aa FFF7FEFF 		bl	UART_1_UartPutString
 371              	.LVL51:
 372              	.L63:
 364:.\main.c      ****     for(;;)
 365:.\main.c      ****     {
 366:.\main.c      ****         
 367:.\main.c      ****         if(task_flag == TRUE)
 373              		.loc 1 367 0
 374 00ae BF4E     		ldr	r6, .L75+52
 375 00b0 337B     		ldrb	r3, [r6, #12]
 376 00b2 351C     		mov	r5, r6
 377 00b4 012B     		cmp	r3, #1
 378 00b6 00D0     		beq	.LCB274
 379 00b8 66E3     		b	.L19	@long jump
 380              	.LCB274:
 381              	.LBB2:
 368:.\main.c      ****         {
 369:.\main.c      ****             /*=======================================
 370:.\main.c      ****                 Main Task that is executed every 10ms
 371:.\main.c      ****               =======================================*/
 372:.\main.c      ****             task_flag = FALSE;	/* Resetting Task Flag */    
 373:.\main.c      ****             
 374:.\main.c      ****             /*=======================================
 375:.\main.c      ****                 Light Control
 376:.\main.c      ****               =======================================*/
 377:.\main.c      ****             
 378:.\main.c      ****             if(flag_LightsEnabled == TRUE)
 382              		.loc 1 378 0
 383 00ba C04F     		ldr	r7, .L75+68
 372:.\main.c      ****             task_flag = FALSE;	/* Resetting Task Flag */    
 384              		.loc 1 372 0
 385 00bc 0024     		mov	r4, #0
 386              		.loc 1 378 0
 387 00be BA78     		ldrb	r2, [r7, #2]
 372:.\main.c      ****             task_flag = FALSE;	/* Resetting Task Flag */    
 388              		.loc 1 372 0
 389 00c0 3473     		strb	r4, [r6, #12]
 390              		.loc 1 378 0
 391 00c2 012A     		cmp	r2, #1
 392 00c4 2BD1     		bne	.L20
 379:.\main.c      ****             {
 380:.\main.c      ****                 /* Lights enabled */
 381:.\main.c      ****                 /* START PWM FOR NAV LIGHTS HERE */
 382:.\main.c      ****                 if(NavLightCompare == NavLightBright)
 393              		.loc 1 382 0
 394 00c6 F389     		ldrh	r3, [r6, #14]
 395 00c8 B988     		ldrh	r1, [r7, #4]
 396 00ca 9942     		cmp	r1, r3
 397 00cc 01D1     		bne	.L21
 383:.\main.c      ****                 {
 384:.\main.c      ****                     flag_NavLightPulse = TRUE;
 398              		.loc 1 384 0
 399 00ce 3274     		strb	r2, [r6, #16]
 400 00d0 03E0     		b	.L22
 401              	.L21:
ARM GAS  C:\Users\Sven\AppData\Local\Temp\cc5mu159.s 			page 15


 385:.\main.c      ****                 }
 386:.\main.c      ****                 else if (NavLightCompare == NavLightDim)
 402              		.loc 1 386 0
 403 00d2 728A     		ldrh	r2, [r6, #18]
 404 00d4 9A42     		cmp	r2, r3
 405 00d6 00D1     		bne	.L22
 387:.\main.c      ****                 {
 388:.\main.c      ****                     flag_NavLightPulse = FALSE;
 406              		.loc 1 388 0
 407 00d8 3474     		strb	r4, [r6, #16]
 408              	.L22:
 389:.\main.c      ****                 }
 390:.\main.c      ****                 if(flag_NavLightPulse == 0)
 409              		.loc 1 390 0
 410 00da 327C     		ldrb	r2, [r6, #16]
 391:.\main.c      ****                 {
 392:.\main.c      ****                     NavLightCompare+=NavLightStep;
 411              		.loc 1 392 0
 412 00dc F888     		ldrh	r0, [r7, #6]
 390:.\main.c      ****                 if(flag_NavLightPulse == 0)
 413              		.loc 1 390 0
 414 00de 002A     		cmp	r2, #0
 415 00e0 01D1     		bne	.L23
 416              		.loc 1 392 0
 417 00e2 1B18     		add	r3, r3, r0
 418 00e4 00E0     		b	.L70
 419              	.L23:
 393:.\main.c      ****                     NavLightPWM_WriteCompare(NavLightCompare);
 394:.\main.c      ****                 }
 395:.\main.c      ****                 else
 396:.\main.c      ****                 {
 397:.\main.c      ****                     NavLightCompare-=NavLightStep;
 420              		.loc 1 397 0
 421 00e6 1B1A     		sub	r3, r3, r0
 422              	.L70:
 423 00e8 98B2     		uxth	r0, r3
 424 00ea F081     		strh	r0, [r6, #14]
 398:.\main.c      ****                     NavLightPWM_WriteCompare(NavLightCompare);
 425              		.loc 1 398 0
 426 00ec FFF7FEFF 		bl	NavLightPWM_WriteCompare
 427              	.LVL52:
 399:.\main.c      ****                 }
 400:.\main.c      ****                 /* Strobe Light Control */
 401:.\main.c      ****                 if(cnt_StrobeLight == 200) Strobes_Write(0xFF); /* Setting Output High */
 428              		.loc 1 401 0
 429 00f0 337D     		ldrb	r3, [r6, #20]
 430 00f2 C82B     		cmp	r3, #200
 431 00f4 02D1     		bne	.L25
 432              		.loc 1 401 0 is_stmt 0 discriminator 1
 433 00f6 FF20     		mov	r0, #255
 434 00f8 FFF7FEFF 		bl	Strobes_Write
 435              	.LVL53:
 436              	.L25:
 402:.\main.c      ****                 if(cnt_StrobeLight == 205)  /* (205 - 200) *10 ms = 5 * 10 ms = 50 ms Strobe */
 437              		.loc 1 402 0 is_stmt 1
 438 00fc 337D     		ldrb	r3, [r6, #20]
 439 00fe CD2B     		cmp	r3, #205
ARM GAS  C:\Users\Sven\AppData\Local\Temp\cc5mu159.s 			page 16


 440 0100 03D1     		bne	.L26
 403:.\main.c      ****                 {
 404:.\main.c      ****                     cnt_StrobeLight = 0;
 441              		.loc 1 404 0
 442 0102 0020     		mov	r0, #0
 443 0104 3075     		strb	r0, [r6, #20]
 405:.\main.c      ****                     Strobes_Write(0x00);    /* Setting output Low */
 444              		.loc 1 405 0
 445 0106 FFF7FEFF 		bl	Strobes_Write
 446              	.LVL54:
 447              	.L26:
 406:.\main.c      ****                 }
 407:.\main.c      ****                 cnt_StrobeLight++;
 448              		.loc 1 407 0
 449 010a 337D     		ldrb	r3, [r6, #20]
 408:.\main.c      ****                 /* Landing Light Control */
 409:.\main.c      ****                 if(ctrl_in[in_gear] < 1100)
 410:.\main.c      ****                 {
 411:.\main.c      ****                     Ldg_Write(0xFF);
 450              		.loc 1 411 0
 451 010c FF20     		mov	r0, #255
 407:.\main.c      ****                 cnt_StrobeLight++;
 452              		.loc 1 407 0
 453 010e 0133     		add	r3, r3, #1
 454 0110 3375     		strb	r3, [r6, #20]
 409:.\main.c      ****                 if(ctrl_in[in_gear] < 1100)
 455              		.loc 1 409 0
 456 0112 EA8B     		ldrh	r2, [r5, #30]
 457 0114 AA4B     		ldr	r3, .L75+72
 458 0116 9A42     		cmp	r2, r3
 459 0118 08D9     		bls	.L71
 412:.\main.c      ****                 }
 413:.\main.c      ****                 else Ldg_Write(0x00);
 460              		.loc 1 413 0
 461 011a 0020     		mov	r0, #0
 462 011c 06E0     		b	.L71
 463              	.L20:
 414:.\main.c      ****             }
 415:.\main.c      ****             else
 416:.\main.c      ****             {
 417:.\main.c      ****                 /* Lights disabled*/
 418:.\main.c      ****                 NavLightPWM_WriteCompare(0);    /* Nav Lights set to 0 */
 464              		.loc 1 418 0
 465 011e 201C     		mov	r0, r4
 466 0120 FFF7FEFF 		bl	NavLightPWM_WriteCompare
 467              	.LVL55:
 419:.\main.c      ****                 Strobes_Write(0x00);    		/* Setting output Low */
 468              		.loc 1 419 0
 469 0124 201C     		mov	r0, r4
 470 0126 FFF7FEFF 		bl	Strobes_Write
 471              	.LVL56:
 420:.\main.c      ****                 Ldg_Write(0x00);
 472              		.loc 1 420 0
 473 012a 201C     		mov	r0, r4
 474              	.L71:
 475 012c FFF7FEFF 		bl	Ldg_Write
 476              	.LVL57:
ARM GAS  C:\Users\Sven\AppData\Local\Temp\cc5mu159.s 			page 17


 421:.\main.c      ****             }
 422:.\main.c      ****             
 423:.\main.c      ****             /*=======================================
 424:.\main.c      ****                 Sensor Reading
 425:.\main.c      ****               =======================================*/
 426:.\main.c      **** 			/* Gyro Reading */
 427:.\main.c      ****             if(GYRO_TASK == TRUE)
 428:.\main.c      ****             {
 429:.\main.c      ****                 #ifdef ALTIMU
 430:.\main.c      ****                     gyro_read();
 431:.\main.c      ****                 #else
 432:.\main.c      ****                     MPU6050_data_read();    /* All MPU Data is read at once */
 477              		.loc 1 432 0
 478 0130 FFF7FEFF 		bl	MPU6050_data_read
 479              	.LVL58:
 433:.\main.c      ****                 #endif
 434:.\main.c      **** 
 435:.\main.c      ****             }
 436:.\main.c      ****             if(ACC_TASK == TRUE)
 437:.\main.c      ****             {
 438:.\main.c      ****                 #ifdef ALTIMU
 439:.\main.c      ****                     acc_read();
 440:.\main.c      ****                 #else
 441:.\main.c      ****                     //MPU6050_acc_read();
 442:.\main.c      ****                     
 443:.\main.c      ****                 #endif
 444:.\main.c      **** 
 445:.\main.c      ****             }
 446:.\main.c      ****             if(MAG_TASK == TRUE)
 447:.\main.c      ****             {
 448:.\main.c      ****                 #ifdef ALTIMU
 449:.\main.c      ****                     mag_read();
 450:.\main.c      ****                 #endif
 451:.\main.c      ****             }
 452:.\main.c      ****             if(BARO_TASK == TRUE)
 453:.\main.c      ****             {
 454:.\main.c      **** 				/* The pressure reading from BMP180 takes some time (check functions) 
 455:.\main.c      **** 					therefore we are not in one cycle doing all calculcations but put
 456:.\main.c      **** 					one cycle in between calculations / triggering etc. */
 457:.\main.c      ****                 cnt_baro++;
 480              		.loc 1 457 0
 481 0134 EA1D     		add	r2, r5, #7
 482 0136 D37F     		ldrb	r3, [r2, #31]
 483 0138 0133     		add	r3, r3, #1
 484 013a DBB2     		uxtb	r3, r3
 485 013c D377     		strb	r3, [r2, #31]
 458:.\main.c      ****                 if(cnt_baro == 49)
 486              		.loc 1 458 0
 487 013e 312B     		cmp	r3, #49
 488 0140 01D1     		bne	.L29
 459:.\main.c      ****                 {
 460:.\main.c      ****                     /* Trigger Temperature conversion and wait min 4.5ms */
 461:.\main.c      ****                     BMP180_baro_trigger_temp();
 489              		.loc 1 461 0
 490 0142 FFF7FEFF 		bl	BMP180_baro_trigger_temp
 491              	.LVL59:
 492              	.L29:
ARM GAS  C:\Users\Sven\AppData\Local\Temp\cc5mu159.s 			page 18


 462:.\main.c      ****                 }
 463:.\main.c      ****                 if(cnt_baro == 50)
 493              		.loc 1 463 0
 494 0146 EB1D     		add	r3, r5, #7
 495 0148 DB7F     		ldrb	r3, [r3, #31]
 496 014a 322B     		cmp	r3, #50
 497 014c 02D1     		bne	.L30
 464:.\main.c      ****                 {
 465:.\main.c      ****                     /* Read temperature from Barometer */
 466:.\main.c      ****                     temp = BMP180_baro_read_temp();
 498              		.loc 1 466 0
 499 014e FFF7FEFF 		bl	BMP180_baro_read_temp
 500              	.LVL60:
 501 0152 7060     		str	r0, [r6, #4]
 502              	.L30:
 467:.\main.c      **** 
 468:.\main.c      ****                     //UART_1_UartPutNum(temp);
 469:.\main.c      ****                     //UART_1_UartPutString("; ");
 470:.\main.c      ****                 }
 471:.\main.c      ****                 if(cnt_baro == 51)
 503              		.loc 1 471 0
 504 0154 EB1D     		add	r3, r5, #7
 505 0156 DB7F     		ldrb	r3, [r3, #31]
 506 0158 332B     		cmp	r3, #51
 507 015a 01D1     		bne	.L31
 472:.\main.c      ****                 {
 473:.\main.c      ****                     /* Trigger pressure conversion and wait min 4.5ms */
 474:.\main.c      ****                     BMP180_baro_trigger_pressure();
 508              		.loc 1 474 0
 509 015c FFF7FEFF 		bl	BMP180_baro_trigger_pressure
 510              	.LVL61:
 511              	.L31:
 475:.\main.c      ****                 }
 476:.\main.c      ****                 if(cnt_baro == 52)
 512              		.loc 1 476 0
 513 0160 EB1D     		add	r3, r5, #7
 514 0162 DB7F     		ldrb	r3, [r3, #31]
 515 0164 342B     		cmp	r3, #52
 516 0166 02D1     		bne	.L32
 477:.\main.c      ****                 {
 478:.\main.c      ****                     
 479:.\main.c      ****                     /* Read pressure and calculate pressure output */
 480:.\main.c      ****                     press = BMP180_baro_read_pressure();
 517              		.loc 1 480 0
 518 0168 FFF7FEFF 		bl	BMP180_baro_read_pressure
 519              	.LVL62:
 520 016c B062     		str	r0, [r6, #40]
 521              	.L32:
 481:.\main.c      ****                     //UART_1_UartPutNum(press/100);
 482:.\main.c      ****                     //UART_1_UartPutString("; ");
 483:.\main.c      ****                 }
 484:.\main.c      ****                 if(cnt_baro == 53)
 522              		.loc 1 484 0
 523 016e EB1D     		add	r3, r5, #7
 524 0170 DA7F     		ldrb	r2, [r3, #31]
 525 0172 352A     		cmp	r2, #53
 526 0174 0DD1     		bne	.L33
ARM GAS  C:\Users\Sven\AppData\Local\Temp\cc5mu159.s 			page 19


 485:.\main.c      ****                 {
 486:.\main.c      ****                     cnt_baro = 0;
 527              		.loc 1 486 0
 528 0176 0022     		mov	r2, #0
 529 0178 DA77     		strb	r2, [r3, #31]
 487:.\main.c      ****                     /* Calculate Altitude */
 488:.\main.c      ****                     /* take calibrated pressure (QFE) and determine by press difference the altitud
 489:.\main.c      ****                     alt = (QFE-(press))*0.0843;  // pressure in Pa -> 0.0843m / Pa of change
 530              		.loc 1 489 0
 531 017a B168     		ldr	r1, [r6, #8]
 532 017c B26A     		ldr	r2, [r6, #40]
 533 017e 881A     		sub	r0, r1, r2
 534 0180 FFF7FEFF 		bl	__aeabi_i2d
 535              	.LVL63:
 536 0184 7D4B     		ldr	r3, .L75+4
 537 0186 7C4A     		ldr	r2, .L75
 538 0188 FFF7FEFF 		bl	__aeabi_dmul
 539              	.LVL64:
 540 018c FFF7FEFF 		bl	__aeabi_d2iz
 541              	.LVL65:
 542 0190 F062     		str	r0, [r6, #44]
 543              	.L33:
 490:.\main.c      ****                     
 491:.\main.c      ****                 }
 492:.\main.c      ****             }
 493:.\main.c      ****             if(SPEED_TASK == TRUE)
 494:.\main.c      ****             {
 495:.\main.c      ****                 
 496:.\main.c      ****                 /*
 497:.\main.c      **** 				For calibrating the speed reading, put both sticks to lower left corner
 498:.\main.c      **** 				
 499:.\main.c      ****                      - - - -         - - - -
 500:.\main.c      ****                     |       |       |       |
 501:.\main.c      ****                     |       |       |       |
 502:.\main.c      ****                     |       |       |       |
 503:.\main.c      ****                     |X      |       |X      |
 504:.\main.c      ****                      - - - -         - - - -
 505:.\main.c      ****                 */
 506:.\main.c      ****                 
 507:.\main.c      ****                 if((ctrl_in[in_mot]<1200) &&        
 544              		.loc 1 507 0
 545 0192 8C4A     		ldr	r2, .L75+76
 546 0194 F18A     		ldrh	r1, [r6, #22]
 547 0196 2B1C     		mov	r3, r5
 548 0198 1633     		add	r3, r3, #22
 549 019a 9142     		cmp	r1, r2
 550 019c 18D8     		bhi	.L34
 551              		.loc 1 507 0 is_stmt 0 discriminator 1
 552 019e D988     		ldrh	r1, [r3, #6]
 553 01a0 9142     		cmp	r1, r2
 554 01a2 15D8     		bhi	.L34
 508:.\main.c      ****                    (ctrl_in[in_rud]<1200) && 
 555              		.loc 1 508 0 is_stmt 1
 556 01a4 5988     		ldrh	r1, [r3, #2]
 557 01a6 884A     		ldr	r2, .L75+80
 558 01a8 9142     		cmp	r1, r2
 559 01aa 11D9     		bls	.L34
ARM GAS  C:\Users\Sven\AppData\Local\Temp\cc5mu159.s 			page 20


 509:.\main.c      ****                    (ctrl_in[in_ail]>1700) &&
 560              		.loc 1 509 0
 561 01ac 9A88     		ldrh	r2, [r3, #4]
 562 01ae E123     		mov	r3, #225
 563 01b0 DB00     		lsl	r3, r3, #3
 564 01b2 9A42     		cmp	r2, r3
 565 01b4 0CD9     		bls	.L34
 510:.\main.c      ****                    (ctrl_in[in_ele]>1800) &&
 511:.\main.c      ****                     speed_cal_compl == FALSE)
 566              		.loc 1 511 0
 567 01b6 2B1C     		mov	r3, r5
 568 01b8 3033     		add	r3, r3, #48
 510:.\main.c      ****                    (ctrl_in[in_ele]>1800) &&
 569              		.loc 1 510 0
 570 01ba 1A78     		ldrb	r2, [r3]
 571 01bc 002A     		cmp	r2, #0
 572 01be 07D1     		bne	.L34
 512:.\main.c      ****                 {
 513:.\main.c      ****                     speed_cal_compl = TRUE;
 573              		.loc 1 513 0
 574 01c0 0122     		mov	r2, #1
 575 01c2 1A70     		strb	r2, [r3]
 514:.\main.c      **** 					/* used to determine the speed offset (not during power up as 
 515:.\main.c      **** 					the reading stablizes after some seconds only) */
 516:.\main.c      ****                     ADC_calibrate_speed();
 576              		.loc 1 516 0
 577 01c4 FFF7FEFF 		bl	ADC_calibrate_speed
 578              	.LVL66:
 517:.\main.c      ****                     UART_1_UartPutString("ADC Calibrated\r\n");
 579              		.loc 1 517 0
 580 01c8 8048     		ldr	r0, .L75+84
 581 01ca FFF7FEFF 		bl	UART_1_UartPutString
 582              	.LVL67:
 583 01ce 14E0     		b	.L35
 584              	.L34:
 518:.\main.c      ****                 }
 519:.\main.c      ****                 else if((ctrl_in[in_rud]>1200) && 
 585              		.loc 1 519 0
 586 01d0 A98B     		ldrh	r1, [r5, #28]
 587 01d2 2B1C     		mov	r3, r5
 588 01d4 9622     		mov	r2, #150
 589 01d6 D200     		lsl	r2, r2, #3
 590 01d8 1633     		add	r3, r3, #22
 591 01da 9142     		cmp	r1, r2
 592 01dc 0DD9     		bls	.L35
 593              		.loc 1 519 0 is_stmt 0 discriminator 1
 594 01de 5988     		ldrh	r1, [r3, #2]
 595 01e0 9142     		cmp	r1, r2
 596 01e2 0AD9     		bls	.L35
 520:.\main.c      ****                    (ctrl_in[in_ail]>1200) &&
 597              		.loc 1 520 0 is_stmt 1
 598 01e4 9A88     		ldrh	r2, [r3, #4]
 599 01e6 7A4B     		ldr	r3, .L75+88
 600 01e8 9A42     		cmp	r2, r3
 601 01ea 06D8     		bhi	.L35
 521:.\main.c      ****                    (ctrl_in[in_ele]<1800) &&
 522:.\main.c      ****                     speed_cal_compl == TRUE)
ARM GAS  C:\Users\Sven\AppData\Local\Temp\cc5mu159.s 			page 21


 602              		.loc 1 522 0
 603 01ec 2B1C     		mov	r3, r5
 604 01ee 3033     		add	r3, r3, #48
 521:.\main.c      ****                    (ctrl_in[in_ele]<1800) &&
 605              		.loc 1 521 0
 606 01f0 1A78     		ldrb	r2, [r3]
 607 01f2 012A     		cmp	r2, #1
 608 01f4 01D1     		bne	.L35
 523:.\main.c      ****                 {
 524:.\main.c      ****                     speed_cal_compl = FALSE;
 609              		.loc 1 524 0
 610 01f6 0022     		mov	r2, #0
 611 01f8 1A70     		strb	r2, [r3]
 612              	.L35:
 525:.\main.c      ****                 }
 526:.\main.c      ****                 speed = ADC_read_speed() - speed_offset;
 613              		.loc 1 526 0
 614 01fa FFF7FEFF 		bl	ADC_read_speed
 615              	.LVL68:
 616 01fe 3B88     		ldrh	r3, [r7]
 617 0200 C01A     		sub	r0, r0, r3
 618 0202 7080     		strh	r0, [r6, #2]
 527:.\main.c      ****             }
 528:.\main.c      ****             
 529:.\main.c      ****             /* Theta and Phi out of acceleration data*/
 530:.\main.c      ****             Theta_acc = (atan2(acc_x_g,-acc_z_g))*180/PI;
 619              		.loc 1 530 0
 620 0204 3223     		mov	r3, #50
 621 0206 F05E     		ldrsh	r0, [r6, r3]
 622 0208 FFF7FEFF 		bl	__aeabi_i2d
 623              	.LVL69:
 624 020c 0090     		str	r0, [sp]
 625 020e 0191     		str	r1, [sp, #4]
 626 0210 3421     		mov	r1, #52
 627 0212 705E     		ldrsh	r0, [r6, r1]
 628 0214 4042     		neg	r0, r0
 629 0216 FFF7FEFF 		bl	__aeabi_i2d
 630              	.LVL70:
 631 021a 021C     		mov	r2, r0
 632 021c 0B1C     		mov	r3, r1
 633 021e 0098     		ldr	r0, [sp]
 634 0220 0199     		ldr	r1, [sp, #4]
 635 0222 FFF7FEFF 		bl	atan2
 636              	.LVL71:
 637 0226 564A     		ldr	r2, .L75+8
 638 0228 564B     		ldr	r3, .L75+12
 639 022a FFF7FEFF 		bl	__aeabi_dmul
 640              	.LVL72:
 641 022e 564A     		ldr	r2, .L75+16
 642 0230 564B     		ldr	r3, .L75+20
 643 0232 FFF7FEFF 		bl	__aeabi_ddiv
 644              	.LVL73:
 645 0236 FFF7FEFF 		bl	__aeabi_d2f
 646              	.LVL74:
 647 023a B063     		str	r0, [r6, #56]
 531:.\main.c      **** 		    Phi_acc = (atan2(-acc_y_g,-acc_z_g))*180/PI;
 648              		.loc 1 531 0
ARM GAS  C:\Users\Sven\AppData\Local\Temp\cc5mu159.s 			page 22


 649 023c 3C22     		mov	r2, #60
 650 023e B05E     		ldrsh	r0, [r6, r2]
 651 0240 4042     		neg	r0, r0
 652 0242 FFF7FEFF 		bl	__aeabi_i2d
 653              	.LVL75:
 654 0246 0090     		str	r0, [sp]
 655 0248 0191     		str	r1, [sp, #4]
 656 024a 3423     		mov	r3, #52
 657 024c F05E     		ldrsh	r0, [r6, r3]
 658 024e 4042     		neg	r0, r0
 659 0250 FFF7FEFF 		bl	__aeabi_i2d
 660              	.LVL76:
 661 0254 021C     		mov	r2, r0
 662 0256 0B1C     		mov	r3, r1
 663 0258 0098     		ldr	r0, [sp]
 664 025a 0199     		ldr	r1, [sp, #4]
 665 025c FFF7FEFF 		bl	atan2
 666              	.LVL77:
 667 0260 474A     		ldr	r2, .L75+8
 668 0262 484B     		ldr	r3, .L75+12
 669 0264 FFF7FEFF 		bl	__aeabi_dmul
 670              	.LVL78:
 671 0268 474A     		ldr	r2, .L75+16
 672 026a 484B     		ldr	r3, .L75+20
 673 026c FFF7FEFF 		bl	__aeabi_ddiv
 674              	.LVL79:
 675 0270 FFF7FEFF 		bl	__aeabi_d2f
 676              	.LVL80:
 532:.\main.c      ****             //Psi_acc = (atan2(-acc_y_g,-acc_x_g))*180/PI;	/* Psi is not of any use, Heading would 
 533:.\main.c      **** 			
 534:.\main.c      **** 			
 535:.\main.c      **** 			/*=========================================================*/
 536:.\main.c      **** 			/* KALMAN FILTER  */
 537:.\main.c      **** 			/* Calculating the attitude by using Kalman Filtering START*/
 538:.\main.c      **** 			/* Currently not in use due to high calculation efforts, using complementary filter only (see be
 539:.\main.c      **** 			/*=======================================================*/
 540:.\main.c      **** //            Theta += sample_time * (turn_rate_q-q_bias);
 541:.\main.c      **** //            
 542:.\main.c      **** //			//P_00_Theta +=  - sample_time * ((P_10_Theta + P_01_Theta) - Q_angle);
 543:.\main.c      **** //            P_Theta[0][0] +=  - sample_time * ((P_Theta[1][0] + P_Theta[0][1]) - Q_angle);
 544:.\main.c      **** ////			P_01_Theta +=  - sample_time * P_11_Theta;
 545:.\main.c      **** //            P_Theta[0][1] +=  - sample_time * P_Theta[1][1];
 546:.\main.c      **** //			//P_10_Theta = P_01_Theta;
 547:.\main.c      **** //            P_Theta[1][0] = P_Theta[0][1];
 548:.\main.c      **** //			//P_11_Theta +=  + Q_gyro * sample_time;
 549:.\main.c      **** //            P_Theta[1][1] +=  + Q_gyro * sample_time;
 550:.\main.c      **** //			
 551:.\main.c      **** //			
 552:.\main.c      **** //			Phi += sample_time * (turn_rate_p-p_bias);
 553:.\main.c      **** //			P_Phi[0][0] +=  - sample_time * ((P_Phi[1][0] + P_Phi[0][1]) - Q_angle);
 554:.\main.c      **** //			P_Phi[0][1] +=  - sample_time * P_Phi[1][1];
 555:.\main.c      **** //			P_Phi[1][0] = P_Phi[0][1];
 556:.\main.c      **** //			P_Phi[1][1] +=  + Q_gyro * sample_time;
 557:.\main.c      **** //			
 558:.\main.c      **** //		
 559:.\main.c      **** //			/*
 560:.\main.c      **** //			Psi += sample_time * (r_filt-r_bias);
ARM GAS  C:\Users\Sven\AppData\Local\Temp\cc5mu159.s 			page 23


 561:.\main.c      **** //			P_00_Psi +=  - sample_time * (P_10_Psi + P_01_Psi) + Q_angle * sample_time;
 562:.\main.c      **** //			P_01_Psi +=  - sample_time * P_11_Psi;
 563:.\main.c      **** //			P_10_Psi +=  - sample_time * P_11_Psi;
 564:.\main.c      **** //			P_11_Psi +=  + Q_gyro * sample_time;
 565:.\main.c      **** //			*/
 566:.\main.c      **** //			Theta_temp = Theta_acc - Theta;
 567:.\main.c      **** //			S_Theta = P_Theta[0][0] + R_angle;
 568:.\main.c      **** //			K_0_Theta = P_Theta[0][0] / S_Theta;
 569:.\main.c      **** //			K_1_Theta = P_Theta[1][0] / S_Theta;
 570:.\main.c      **** //			
 571:.\main.c      **** //			Phi_temp = Phi_acc - Phi;
 572:.\main.c      **** //			S_Phi = P_Phi[0][0] + R_angle;
 573:.\main.c      **** //			K_0_Phi = P_Phi[0][0] / S_Phi;
 574:.\main.c      **** //			K_1_Phi = P_Phi[1][0] / S_Phi;
 575:.\main.c      **** //			/*
 576:.\main.c      **** //			Psi_temp = mag - Psi;
 577:.\main.c      **** //			S_Psi = P_00_Psi + R_angle;
 578:.\main.c      **** //			K_0_Psi = P_00_Psi / S_Psi;
 579:.\main.c      **** //			K_1_Psi = P_10_Psi / S_Psi;
 580:.\main.c      **** //			*/
 581:.\main.c      **** //			Theta +=  K_0_Theta * Theta_temp;
 582:.\main.c      **** //			q_bias  +=  K_1_Theta * Theta_temp;
 583:.\main.c      **** //			P_Theta[0][0] -= K_0_Theta * P_Theta[0][0];
 584:.\main.c      **** //			P_Theta[0][1] -= K_0_Theta * P_Theta[0][1];
 585:.\main.c      **** //			P_Theta[1][0] -= K_1_Theta * P_Theta[0][0];
 586:.\main.c      **** //			P_Theta[1][1] -= K_1_Theta * P_Theta[0][1];
 587:.\main.c      **** //			
 588:.\main.c      **** //			Phi +=  K_0_Phi * Phi_temp;
 589:.\main.c      **** //			p_bias  +=  K_1_Phi * Phi_temp;
 590:.\main.c      **** //			P_Phi[0][0] -= K_0_Phi * P_Phi[0][0];
 591:.\main.c      **** //			P_Phi[0][1] -= K_0_Phi * P_Phi[0][1];
 592:.\main.c      **** //			P_Phi[1][0] -= K_1_Phi * P_Phi[0][0];
 593:.\main.c      **** //			P_Phi[1][1] -= K_1_Phi * P_Phi[0][1];
 594:.\main.c      **** 
 595:.\main.c      **** 			/* ============================================== */
 596:.\main.c      **** 			/* Complementary Filter Design 					  */
 597:.\main.c      **** 			/* ============================================== */
 598:.\main.c      **** 		
 599:.\main.c      **** 			//angle = 0.98 *(angle+gyro*dt) + 0.02*acc
 600:.\main.c      ****             // Complementary filter. Substitute for Kalman filter.
 601:.\main.c      ****             // gives useable results
 602:.\main.c      ****             Theta = (0.90* (Theta + turn_rate_q*sample_time) + 0.10*Theta_acc);
 677              		.loc 1 602 0
 678 0274 AB1D     		add	r3, r5, #6
 679 0276 DB8F     		ldrh	r3, [r3, #62]
 680 0278 BF68     		ldr	r7, [r7, #8]
 531:.\main.c      **** 		    Phi_acc = (atan2(-acc_y_g,-acc_z_g))*180/PI;
 681              		.loc 1 531 0
 682 027a 3064     		str	r0, [r6, #64]
 683 027c 0790     		str	r0, [sp, #28]
 684              		.loc 1 602 0
 685 027e 18B2     		sxth	r0, r3
 686 0280 0593     		str	r3, [sp, #20]
 687 0282 0097     		str	r7, [sp]
 688 0284 FFF7FEFF 		bl	__aeabi_i2f
 689              	.LVL81:
 690 0288 0099     		ldr	r1, [sp]
ARM GAS  C:\Users\Sven\AppData\Local\Temp\cc5mu159.s 			page 24


 691 028a FFF7FEFF 		bl	__aeabi_fmul
 692              	.LVL82:
 693 028e 514A     		ldr	r2, .L75+92
 694 0290 1168     		ldr	r1, [r2]
 695 0292 FFF7FEFF 		bl	__aeabi_fadd
 696              	.LVL83:
 697 0296 FFF7FEFF 		bl	__aeabi_f2d
 698              	.LVL84:
 699 029a 3D4A     		ldr	r2, .L75+24
 700 029c 3D4B     		ldr	r3, .L75+28
 701 029e FFF7FEFF 		bl	__aeabi_dmul
 702              	.LVL85:
 703 02a2 0290     		str	r0, [sp, #8]
 704 02a4 0391     		str	r1, [sp, #12]
 705 02a6 B06B     		ldr	r0, [r6, #56]
 706 02a8 FFF7FEFF 		bl	__aeabi_f2d
 707              	.LVL86:
 708 02ac 3A4A     		ldr	r2, .L75+32
 709 02ae 3B4B     		ldr	r3, .L75+36
 710 02b0 FFF7FEFF 		bl	__aeabi_dmul
 711              	.LVL87:
 712 02b4 021C     		mov	r2, r0
 713 02b6 0B1C     		mov	r3, r1
 714 02b8 0298     		ldr	r0, [sp, #8]
 715 02ba 0399     		ldr	r1, [sp, #12]
 716 02bc FFF7FEFF 		bl	__aeabi_dadd
 717              	.LVL88:
 718 02c0 FFF7FEFF 		bl	__aeabi_d2f
 719              	.LVL89:
 720 02c4 434E     		ldr	r6, .L75+92
 721 02c6 0290     		str	r0, [sp, #8]
 722 02c8 3060     		str	r0, [r6]
 603:.\main.c      ****             Theta_Mav = Theta*PI/180*8;	/* Theta in radians for MavLink (not sure why divided by 8)
 723              		.loc 1 603 0
 724 02ca FFF7FEFF 		bl	__aeabi_f2d
 725              	.LVL90:
 726 02ce 2E4A     		ldr	r2, .L75+16
 727 02d0 2E4B     		ldr	r3, .L75+20
 728 02d2 FFF7FEFF 		bl	__aeabi_dmul
 729              	.LVL91:
 730 02d6 2A4A     		ldr	r2, .L75+8
 731 02d8 2A4B     		ldr	r3, .L75+12
 732 02da FFF7FEFF 		bl	__aeabi_ddiv
 733              	.LVL92:
 734 02de 304A     		ldr	r2, .L75+40
 735 02e0 304B     		ldr	r3, .L75+44
 736 02e2 FFF7FEFF 		bl	__aeabi_dmul
 737              	.LVL93:
 738 02e6 FFF7FEFF 		bl	__aeabi_d2f
 739              	.LVL94:
 740 02ea 3B4B     		ldr	r3, .L75+96
 604:.\main.c      ****             Phi = (0.90 * (Phi + turn_rate_p*sample_time) + 0.10*Phi_acc);
 741              		.loc 1 604 0
 742 02ec 3B4C     		ldr	r4, .L75+100
 603:.\main.c      ****             Theta_Mav = Theta*PI/180*8;	/* Theta in radians for MavLink (not sure why divided by 8)
 743              		.loc 1 603 0
 744 02ee 1860     		str	r0, [r3]
ARM GAS  C:\Users\Sven\AppData\Local\Temp\cc5mu159.s 			page 25


 745              		.loc 1 604 0
 746 02f0 2B1C     		mov	r3, r5
 747 02f2 0833     		add	r3, r3, #8
 748 02f4 DB8F     		ldrh	r3, [r3, #62]
 749 02f6 18B2     		sxth	r0, r3
 750 02f8 0693     		str	r3, [sp, #24]
 751 02fa FFF7FEFF 		bl	__aeabi_i2f
 752              	.LVL95:
 753 02fe 0099     		ldr	r1, [sp]
 754 0300 FFF7FEFF 		bl	__aeabi_fmul
 755              	.LVL96:
 756 0304 2168     		ldr	r1, [r4]
 757 0306 FFF7FEFF 		bl	__aeabi_fadd
 758              	.LVL97:
 759 030a FFF7FEFF 		bl	__aeabi_f2d
 760              	.LVL98:
 761 030e 204A     		ldr	r2, .L75+24
 762 0310 204B     		ldr	r3, .L75+28
 763 0312 FFF7FEFF 		bl	__aeabi_dmul
 764              	.LVL99:
 765 0316 061C     		mov	r6, r0
 766 0318 0798     		ldr	r0, [sp, #28]
 767 031a 0F1C     		mov	r7, r1
 768 031c FFF7FEFF 		bl	__aeabi_f2d
 769              	.LVL100:
 770 0320 1D4A     		ldr	r2, .L75+32
 771 0322 1E4B     		ldr	r3, .L75+36
 772 0324 FFF7FEFF 		bl	__aeabi_dmul
 773              	.LVL101:
 774 0328 021C     		mov	r2, r0
 775 032a 0B1C     		mov	r3, r1
 776 032c 301C     		mov	r0, r6
 777 032e 391C     		mov	r1, r7
 778 0330 FFF7FEFF 		bl	__aeabi_dadd
 779              	.LVL102:
 780 0334 FFF7FEFF 		bl	__aeabi_d2f
 781              	.LVL103:
 782 0338 071C     		add	r7, r0, #0
 783 033a 2060     		str	r0, [r4]
 605:.\main.c      ****             Phi_Mav = Phi*PI/180*8;		/* Phi in radians for MavLink */
 784              		.loc 1 605 0
 785 033c FFF7FEFF 		bl	__aeabi_f2d
 786              	.LVL104:
 787 0340 114A     		ldr	r2, .L75+16
 788 0342 124B     		ldr	r3, .L75+20
 789 0344 FFF7FEFF 		bl	__aeabi_dmul
 790              	.LVL105:
 791 0348 0D4A     		ldr	r2, .L75+8
 792 034a 0E4B     		ldr	r3, .L75+12
 793 034c FFF7FEFF 		bl	__aeabi_ddiv
 794              	.LVL106:
 795 0350 134A     		ldr	r2, .L75+40
 796 0352 144B     		ldr	r3, .L75+44
 797 0354 FFF7FEFF 		bl	__aeabi_dmul
 798              	.LVL107:
 799 0358 FFF7FEFF 		bl	__aeabi_d2f
 800              	.LVL108:
ARM GAS  C:\Users\Sven\AppData\Local\Temp\cc5mu159.s 			page 26


 801 035c 204B     		ldr	r3, .L75+104
 802 035e 1860     		str	r0, [r3]
 803              	.LVL109:
 804              	.LBB3:
 606:.\main.c      ****             
 607:.\main.c      ****             // Tilt compensated Magnetic field X:
 608:.\main.c      ****             //  MAG_X = c_magnetom_x*cos_pitch+c_magnetom_y*sin_roll*sin_pitch+c_magnetom_z*cos_rol
 609:.\main.c      ****             //  // Tilt compensated Magnetic filed Y:
 610:.\main.c      ****             //  MAG_Y = c_magnetom_y*cos_roll-c_magnetom_z*sin_roll;
 611:.\main.c      ****             //  // Magnetic Heading
 612:.\main.c      ****             //  MAG_Heading = atan2(-MAG_Y,MAG_X);
 613:.\main.c      ****             
 614:.\main.c      ****             // cos of radian angles
 615:.\main.c      **** //            Mag_x = mag_x_g*cos(Theta) + mag_y_g*sin(Phi)*sin(Theta) + mag_z_g*cos(Phi)*sin(Theta
 616:.\main.c      **** //            Mag_y = mag_y_g*cos(Phi) - mag_z_g*sin(Phi);
 617:.\main.c      **** //
 618:.\main.c      ****             //Mag_x = mag_x_g*cos(Theta);//+ mag_y_g*sin(Phi)*sin(Theta)+ mag_z_g*cos(Phi)*sin(Thet
 619:.\main.c      ****             //Mag_y = mag_y_g*cos(Phi);// - mag_z_g*sin(Phi);
 620:.\main.c      ****             //Mag_Heading = atan2(-(mag_y_g),(mag_x_g))*180/PI;
 621:.\main.c      ****             //UART_1_UartPutNum(Mag_Heading);
 622:.\main.c      ****             //UART_1_UartPutNum(Bar_press);   //Print Baro Press
 623:.\main.c      ****             //UART_1_UartPutString(";\r\n");
 624:.\main.c      ****             
 625:.\main.c      **** 
 626:.\main.c      **** 			/*=======================================================*/
 627:.\main.c      ****             /* MAVLINK */
 628:.\main.c      ****             /*=======================================================*/
 629:.\main.c      ****             
 630:.\main.c      **** 		    if(MAVLINK_TASK == TRUE)
 631:.\main.c      ****             {
 632:.\main.c      ****                 if((cnt_ML_HEARTBEAT_send % 20) == 0)  // 20*10ms = 200ms
 633:.\main.c      ****                 {
 634:.\main.c      ****                     mavlink_msg_attitude_pack(mavlink_system.sysid, mavlink_system.compid, &msg, 0,
 635:.\main.c      ****                     uint16_t len = mavlink_msg_to_send_buffer(buf, &msg);
 636:.\main.c      ****                     UART_1_UartSendMavlink(buf, len);
 637:.\main.c      ****                     
 638:.\main.c      ****                     // GLOBAL_POSITION_INT
 639:.\main.c      ****                     //mavlink_msg_global_position_int_pack(mavlink_system.sysid, mavlink_system.com
 640:.\main.c      ****                     //uint16_t len2 = mavlink_msg_to_send_buffer(buf, &msg);
 641:.\main.c      ****                     //UART_1_UartSendMavlink(buf, len);
 642:.\main.c      ****                     
 643:.\main.c      ****                 }               
 644:.\main.c      ****                 if((cnt_ML_HEARTBEAT_send % 100) == 0)  // 100*10ms = 1000ms
 645:.\main.c      ****                 {
 646:.\main.c      ****                     cnt_ML_HEARTBEAT_send = 0;
 647:.\main.c      ****                     mavlink_msg_heartbeat_pack(mavlink_system.sysid, mavlink_system.compid, &msg, s
 648:.\main.c      **** 
 649:.\main.c      ****                     // Copy the message to the send buffer
 650:.\main.c      ****                     uint16_t len = mavlink_msg_to_send_buffer(buf, &msg);
 651:.\main.c      ****                       
 652:.\main.c      ****                       UART_1_UartSendMavlink(buf, len);
 653:.\main.c      ****                 }
 654:.\main.c      ****                 cnt_ML_HEARTBEAT_send++;
 655:.\main.c      ****             }
 656:.\main.c      ****             /*=======================================
 657:.\main.c      ****                 Airplane Control
 658:.\main.c      ****               =======================================*/
ARM GAS  C:\Users\Sven\AppData\Local\Temp\cc5mu159.s 			page 27


 659:.\main.c      ****             uint8_t debug = 0;
 660:.\main.c      ****             
 661:.\main.c      ****            
 662:.\main.c      ****             if(debug == 0)
 663:.\main.c      ****             {                     
 664:.\main.c      **** 				uint8_t PrevCtrl_Mode = Ctrl_Mode;
 665:.\main.c      **** 				uint8_t state_change = FALSE;
 666:.\main.c      ****                 if (ctrl_in[in_mod]<1250) Ctrl_Mode = damped;       /* up:      damped mode */
 805              		.loc 1 666 0
 806 0360 6A8C     		ldrh	r2, [r5, #34]
 664:.\main.c      **** 				uint8_t PrevCtrl_Mode = Ctrl_Mode;
 807              		.loc 1 664 0
 808 0362 2B1C     		mov	r3, r5
 809              		.loc 1 666 0
 810 0364 1F48     		ldr	r0, .L75+108
 664:.\main.c      **** 				uint8_t PrevCtrl_Mode = Ctrl_Mode;
 811              		.loc 1 664 0
 812 0366 4833     		add	r3, r3, #72
 813 0368 1978     		ldrb	r1, [r3]
 814              	.LVL110:
 815              		.loc 1 666 0
 816 036a 8242     		cmp	r2, r0
 817 036c 3CD8     		bhi	.L36
 818              		.loc 1 666 0 is_stmt 0 discriminator 1
 819 036e 0122     		mov	r2, #1
 820 0370 40E0     		b	.L72
 821              	.L76:
 822 0372 C046C046 		.align	3
 822      C046
 823              	.L75:
 824 0378 4D840D4F 		.word	1326285901
 825 037c AF94B53F 		.word	1068864687
 826 0380 00000000 		.word	0
 827 0384 00806640 		.word	1080459264
 828 0388 182D4454 		.word	1413754136
 829 038c FB210940 		.word	1074340347
 830 0390 CDCCCCCC 		.word	-858993459
 831 0394 CCCCEC3F 		.word	1072483532
 832 0398 9A999999 		.word	-1717986918
 833 039c 9999B93F 		.word	1069128089
 834 03a0 00000000 		.word	0
 835 03a4 00002040 		.word	1075838976
 836 03a8 00000000 		.word	mavlink_system
 837 03ac 00000000 		.word	.LANCHOR1
 838 03b0 0F000000 		.word	.LC9
 839 03b4 1D000000 		.word	.LC11
 840 03b8 20000000 		.word	.LC13
 841 03bc 00000000 		.word	.LANCHOR0
 842 03c0 4B040000 		.word	1099
 843 03c4 AF040000 		.word	1199
 844 03c8 A4060000 		.word	1700
 845 03cc 30000000 		.word	.LC16
 846 03d0 07070000 		.word	1799
 847 03d4 00000000 		.word	Theta
 848 03d8 00000000 		.word	Theta_Mav
 849 03dc 00000000 		.word	Phi
 850 03e0 00000000 		.word	Phi_Mav
ARM GAS  C:\Users\Sven\AppData\Local\Temp\cc5mu159.s 			page 28


 851 03e4 E1040000 		.word	1249
 852              	.L36:
 667:.\main.c      ****                 else if (ctrl_in[in_mod]>1750) Ctrl_Mode = autonom;    /* down:    auto mode */
 853              		.loc 1 667 0 is_stmt 1
 854 03e8 A448     		ldr	r0, .L77
 855 03ea 8242     		cmp	r2, r0
 856 03ec 01D9     		bls	.L38
 857              		.loc 1 667 0 is_stmt 0 discriminator 1
 858 03ee 0322     		mov	r2, #3
 859 03f0 00E0     		b	.L72
 860              	.L38:
 668:.\main.c      ****                 else Ctrl_Mode = manual;                            /* mid:     manual mode */
 861              		.loc 1 668 0 is_stmt 1
 862 03f2 0022     		mov	r2, #0
 863              	.L72:
 669:.\main.c      ****                  
 670:.\main.c      **** 				/* Indicate State Change */
 671:.\main.c      **** 				if(PrevCtrl_Mode != Ctrl_Mode) state_change = TRUE;
 864              		.loc 1 671 0
 865 03f4 A24D     		ldr	r5, .L77+4
 668:.\main.c      ****                 else Ctrl_Mode = manual;                            /* mid:     manual mode */
 866              		.loc 1 668 0
 867 03f6 1A70     		strb	r2, [r3]
 868              		.loc 1 671 0
 869 03f8 2B1C     		mov	r3, r5
 870 03fa 4833     		add	r3, r3, #72
 871 03fc 1878     		ldrb	r0, [r3]
 872              	.LVL111:
 672:.\main.c      **** 				 
 673:.\main.c      ****                 uint16_t flap_offset = 0;
 674:.\main.c      ****                 /* Flap Control */
 675:.\main.c      ****                 if(ctrl_in[in_sp2]>1750)
 873              		.loc 1 675 0
 874 03fe 9F4A     		ldr	r2, .L77
 875 0400 AB8C     		ldrh	r3, [r5, #36]
 876 0402 2C1C     		mov	r4, r5
 877 0404 9342     		cmp	r3, r2
 878 0406 01D8     		bhi	.L66
 673:.\main.c      ****                 uint16_t flap_offset = 0;
 879              		.loc 1 673 0
 880 0408 0022     		mov	r2, #0
 881 040a 01E0     		b	.L39
 882              	.L66:
 676:.\main.c      ****                 {
 677:.\main.c      ****                     flap_offset = 300;
 883              		.loc 1 677 0
 884 040c 9622     		mov	r2, #150
 885 040e 5200     		lsl	r2, r2, #1
 886              	.L39:
 887              	.LVL112:
 678:.\main.c      ****                 }
 679:.\main.c      ****                 
 680:.\main.c      ****                 switch (Ctrl_Mode)
 888              		.loc 1 680 0
 889 0410 0328     		cmp	r0, #3
 890 0412 00D9     		bls	.LCB708
 891 0414 45E1     		b	.L40	@long jump
ARM GAS  C:\Users\Sven\AppData\Local\Temp\cc5mu159.s 			page 29


 892              	.LCB708:
 893 0416 9B4B     		ldr	r3, .L77+8
 894 0418 FFF7FEFF 		bl	__gnu_thumb1_case_uqi
 895              	.L42:
 896 041c 02       		.byte	(.L41-.L42)/2
 897 041d 1C       		.byte	(.L43-.L42)/2
 898 041e 47       		.byte	(.L44-.L42)/2
 899 041f 75       		.byte	(.L45-.L42)/2
 900              		.p2align 1
 901              	.L41:
 681:.\main.c      ****                 {
 682:.\main.c      ****                     case manual:
 683:.\main.c      ****                         tune_cnt= 0;    // Reset in case tune cnt was used before...
 902              		.loc 1 683 0
 903 0420 211C     		mov	r1, r4
 904              	.LVL113:
 905 0422 4931     		add	r1, r1, #73
 906 0424 0020     		mov	r0, #0
 907              	.LVL114:
 908 0426 0870     		strb	r0, [r1]
 684:.\main.c      ****                         ctrl_out[out_mot] = ctrl_in[in_mot];//ctrl_in[in_mot];            // motor:
 909              		.loc 1 684 0
 910 0428 E98A     		ldrh	r1, [r5, #22]
 911 042a 9981     		strh	r1, [r3, #12]
 685:.\main.c      ****                         //ctrl_out[out_mot] = 800;
 686:.\main.c      ****                         ctrl_out[out_ail1] = ctrl_in[in_ail]+flap_offset;           // ail:     lef
 912              		.loc 1 686 0
 913 042c 208B     		ldrh	r0, [r4, #24]
 914 042e 1518     		add	r5, r2, r0
 687:.\main.c      ****                         ctrl_out[out_ail2] = ctrl_in[in_ail]-flap_offset;
 915              		.loc 1 687 0
 916 0430 821A     		sub	r2, r0, r2
 917              	.LVL115:
 686:.\main.c      ****                         ctrl_out[out_ail1] = ctrl_in[in_ail]+flap_offset;           // ail:     lef
 918              		.loc 1 686 0
 919 0432 DD81     		strh	r5, [r3, #14]
 920              		.loc 1 687 0
 921 0434 1A82     		strh	r2, [r3, #16]
 688:.\main.c      ****                         ctrl_out[out_ele1] = ctrl_in[in_ele];           // ele:     low: 2000   hig
 922              		.loc 1 688 0
 923 0436 628B     		ldrh	r2, [r4, #26]
 924 0438 5A82     		strh	r2, [r3, #18]
 689:.\main.c      ****                         ctrl_out[out_ele2] = ctrl_in[in_ele];
 925              		.loc 1 689 0
 926 043a 9A82     		strh	r2, [r3, #20]
 690:.\main.c      ****                         ctrl_out[out_rud] = ctrl_in[in_rud];            // rud:     left: 1000  rig
 927              		.loc 1 690 0
 928 043c A28B     		ldrh	r2, [r4, #28]
 929 043e DA82     		strh	r2, [r3, #22]
 691:.\main.c      ****                         ctrl_out[out_ge1] = ctrl_in[in_gear];           // gear:    down: 1000  ret
 930              		.loc 1 691 0
 931 0440 E28B     		ldrh	r2, [r4, #30]
 932 0442 9A83     		strh	r2, [r3, #28]
 692:.\main.c      ****                         ctrl_out[out_ge2] = ctrl_in[in_gear];
 933              		.loc 1 692 0
 934 0444 DA83     		strh	r2, [r3, #30]
 693:.\main.c      ****                         ctrl_out[out_ge3] = ctrl_in[in_gear];             
ARM GAS  C:\Users\Sven\AppData\Local\Temp\cc5mu159.s 			page 30


 935              		.loc 1 693 0
 936 0446 1A84     		strh	r2, [r3, #32]
 694:.\main.c      ****                         ctrl_out[out_fl1] = ctrl_in[in_can];            // canopy:  open: 1000  clo
 937              		.loc 1 694 0
 938 0448 228C     		ldrh	r2, [r4, #32]
 695:.\main.c      ****                         ctrl_out[out_fl2] = ctrl_in[in_can];
 696:.\main.c      ****                         ctrl_out[out_sp1] = ctrl_in[in_mot];            // mode:    down: 2000 mid:
 939              		.loc 1 696 0
 940 044a 5984     		strh	r1, [r3, #34]
 694:.\main.c      ****                         ctrl_out[out_fl1] = ctrl_in[in_can];            // canopy:  open: 1000  clo
 941              		.loc 1 694 0
 942 044c 1A83     		strh	r2, [r3, #24]
 695:.\main.c      ****                         ctrl_out[out_fl2] = ctrl_in[in_can];
 943              		.loc 1 695 0
 944 044e 5A83     		strh	r2, [r3, #26]
 697:.\main.c      ****                         ctrl_out[out_sp2] = ctrl_in[in_mot];
 945              		.loc 1 697 0
 946 0450 9984     		strh	r1, [r3, #36]
 698:.\main.c      ****  
 699:.\main.c      ****                         
 700:.\main.c      ****                     break;
 947              		.loc 1 700 0
 948 0452 26E1     		b	.L40
 949              	.LVL116:
 950              	.L43:
 701:.\main.c      ****                     
 702:.\main.c      ****                     case damped:
 703:.\main.c      ****                         
 704:.\main.c      ****                         /* Speed related damp GAINs */
 705:.\main.c      ****                         if (speed > 25)
 706:.\main.c      **** 						{
 707:.\main.c      **** 
 708:.\main.c      **** 						}
 709:.\main.c      **** 						else if (speed >16)
 710:.\main.c      **** 						{
 711:.\main.c      **** 
 712:.\main.c      **** 						}
 713:.\main.c      **** 						else
 714:.\main.c      **** 						{
 715:.\main.c      **** 
 716:.\main.c      **** 						}
 717:.\main.c      ****                         
 718:.\main.c      ****                         
 719:.\main.c      ****                         ctrl_out[out_mot] = ctrl_in[in_mot];            // motor:   low: 1000   hig
 951              		.loc 1 719 0
 952 0454 E88A     		ldrh	r0, [r5, #22]
 953              	.LVL117:
 720:.\main.c      ****                         //ctrl_out[out_mot] = 800;
 721:.\main.c      ****                         ctrl_out[out_ail1] = ctrl_in[in_ail]+(K_d_p*turn_rate_p)+flap_offset;      
 954              		.loc 1 721 0
 955 0456 DD1D     		add	r5, r3, #7
 956 0458 069E     		ldr	r6, [sp, #24]
 957 045a ED7F     		ldrb	r5, [r5, #31]
 719:.\main.c      ****                         ctrl_out[out_mot] = ctrl_in[in_mot];            // motor:   low: 1000   hig
 958              		.loc 1 719 0
 959 045c 9881     		strh	r0, [r3, #12]
 960              		.loc 1 721 0
ARM GAS  C:\Users\Sven\AppData\Local\Temp\cc5mu159.s 			page 31


 961 045e 7543     		mul	r5, r6
 962 0460 268B     		ldrh	r6, [r4, #24]
 719:.\main.c      ****                         ctrl_out[out_mot] = ctrl_in[in_mot];            // motor:   low: 1000   hig
 963              		.loc 1 719 0
 964 0462 211C     		mov	r1, r4
 965              	.LVL118:
 966              		.loc 1 721 0
 967 0464 AD19     		add	r5, r5, r6
 968 0466 ADB2     		uxth	r5, r5
 969 0468 5619     		add	r6, r2, r5
 722:.\main.c      ****                         ctrl_out[out_ail2] = ctrl_in[in_ail]+(K_d_p*turn_rate_p)-flap_offset;
 970              		.loc 1 722 0
 971 046a AA1A     		sub	r2, r5, r2
 972              	.LVL119:
 973 046c 1A82     		strh	r2, [r3, #16]
 723:.\main.c      ****                         ctrl_out[out_ele1] = ctrl_in[in_ele]-(K_d_q*turn_rate_q);           // ele:
 974              		.loc 1 723 0
 975 046e 1A1C     		mov	r2, r3
 976 0470 0832     		add	r2, r2, #8
 977 0472 059D     		ldr	r5, [sp, #20]
 978 0474 D27F     		ldrb	r2, [r2, #31]
 721:.\main.c      ****                         ctrl_out[out_ail1] = ctrl_in[in_ail]+(K_d_p*turn_rate_p)+flap_offset;      
 979              		.loc 1 721 0
 980 0476 DE81     		strh	r6, [r3, #14]
 981              		.loc 1 723 0
 982 0478 6A43     		mul	r2, r5
 983 047a 658B     		ldrh	r5, [r4, #26]
 724:.\main.c      ****                         ctrl_out[out_ele2] = ctrl_in[in_ele]-(K_d_q*turn_rate_q);
 725:.\main.c      ****                         ctrl_out[out_rud] = ctrl_in[in_rud]-(K_d_r*turn_rate_r);            // rud:
 984              		.loc 1 725 0
 985 047c 4A34     		add	r4, r4, #74
 723:.\main.c      ****                         ctrl_out[out_ele1] = ctrl_in[in_ele]-(K_d_q*turn_rate_q);           // ele:
 986              		.loc 1 723 0
 987 047e AA1A     		sub	r2, r5, r2
 988 0480 92B2     		uxth	r2, r2
 989 0482 5A82     		strh	r2, [r3, #18]
 724:.\main.c      ****                         ctrl_out[out_ele2] = ctrl_in[in_ele]-(K_d_q*turn_rate_q);
 990              		.loc 1 724 0
 991 0484 9A82     		strh	r2, [r3, #20]
 992              		.loc 1 725 0
 993 0486 1A1C     		mov	r2, r3
 994 0488 2832     		add	r2, r2, #40
 995 048a 1578     		ldrb	r5, [r2]
 996 048c 2288     		ldrh	r2, [r4]
 997 048e 8C8B     		ldrh	r4, [r1, #28]
 998 0490 6A43     		mul	r2, r5
 999 0492 A21A     		sub	r2, r4, r2
 1000 0494 DA82     		strh	r2, [r3, #22]
 726:.\main.c      ****                         ctrl_out[out_ge1] = ctrl_in[in_mot];           // gear:    down: 1000  retr
 1001              		.loc 1 726 0
 1002 0496 9883     		strh	r0, [r3, #28]
 727:.\main.c      ****                         ctrl_out[out_ge2] = ctrl_in[in_gear];
 1003              		.loc 1 727 0
 1004 0498 CA8B     		ldrh	r2, [r1, #30]
 1005 049a DA83     		strh	r2, [r3, #30]
 728:.\main.c      ****                         ctrl_out[out_ge3] = ctrl_in[in_gear];             
 1006              		.loc 1 728 0
ARM GAS  C:\Users\Sven\AppData\Local\Temp\cc5mu159.s 			page 32


 1007 049c 1A84     		strh	r2, [r3, #32]
 729:.\main.c      ****                         ctrl_out[out_fl1] = ctrl_in[in_can];            // canopy:  front: 1000  ba
 1008              		.loc 1 729 0
 1009 049e 0A8C     		ldrh	r2, [r1, #32]
 730:.\main.c      ****                         ctrl_out[out_fl2] = ctrl_in[in_can];
 731:.\main.c      ****                         ctrl_out[out_sp1] = ctrl_in[in_mot];            // mode:    down: 2000 mid:
 1010              		.loc 1 731 0
 1011 04a0 5884     		strh	r0, [r3, #34]
 729:.\main.c      ****                         ctrl_out[out_fl1] = ctrl_in[in_can];            // canopy:  front: 1000  ba
 1012              		.loc 1 729 0
 1013 04a2 1A83     		strh	r2, [r3, #24]
 730:.\main.c      ****                         ctrl_out[out_fl2] = ctrl_in[in_can];
 1014              		.loc 1 730 0
 1015 04a4 5A83     		strh	r2, [r3, #26]
 732:.\main.c      ****                         ctrl_out[out_sp2] = ctrl_in[in_mot];
 1016              		.loc 1 732 0
 1017 04a6 9884     		strh	r0, [r3, #36]
 733:.\main.c      ****                     break;
 1018              		.loc 1 733 0
 1019 04a8 FBE0     		b	.L40
 1020              	.LVL120:
 1021              	.L44:
 734:.\main.c      ****                         
 735:.\main.c      ****                     case tune:
 736:.\main.c      ****                         if(tune_cnt == 0)
 1022              		.loc 1 736 0
 1023 04aa 221C     		mov	r2, r4
 1024              	.LVL121:
 1025 04ac 4932     		add	r2, r2, #73
 1026 04ae 1278     		ldrb	r2, [r2]
 1027 04b0 002A     		cmp	r2, #0
 1028 04b2 0BD1     		bne	.L46
 737:.\main.c      ****                         {
 738:.\main.c      ****                             ctrl_out[out_mot] = ctrl_in[in_mot];            // motor:   low: 1000  
 1029              		.loc 1 738 0
 1030 04b4 E88A     		ldrh	r0, [r5, #22]
 1031              	.LVL122:
 1032 04b6 211C     		mov	r1, r4
 1033              	.LVL123:
 1034 04b8 9881     		strh	r0, [r3, #12]
 739:.\main.c      ****                             ctrl_out[out_ail1] = ctrl_in[in_ail];           // ail:     left: 1000 
 1035              		.loc 1 739 0
 1036 04ba 208B     		ldrh	r0, [r4, #24]
 738:.\main.c      ****                             ctrl_out[out_mot] = ctrl_in[in_mot];            // motor:   low: 1000  
 1037              		.loc 1 738 0
 1038 04bc 1631     		add	r1, r1, #22
 1039              		.loc 1 739 0
 1040 04be D881     		strh	r0, [r3, #14]
 740:.\main.c      ****                             ctrl_out[out_ail2] = ctrl_in[in_ail];
 1041              		.loc 1 740 0
 1042 04c0 1882     		strh	r0, [r3, #16]
 741:.\main.c      ****                             ctrl_out[out_ele1] = ctrl_in[in_ele];           // ele:     low: 2000  
 1043              		.loc 1 741 0
 1044 04c2 608B     		ldrh	r0, [r4, #26]
 1045 04c4 5882     		strh	r0, [r3, #18]
 742:.\main.c      ****                             ctrl_out[out_ele2] = ctrl_in[in_ele];
 1046              		.loc 1 742 0
ARM GAS  C:\Users\Sven\AppData\Local\Temp\cc5mu159.s 			page 33


 1047 04c6 9882     		strh	r0, [r3, #20]
 743:.\main.c      ****                             ctrl_out[out_rud] = ctrl_in[in_rud];
 1048              		.loc 1 743 0
 1049 04c8 C988     		ldrh	r1, [r1, #6]
 1050 04ca D982     		strh	r1, [r3, #22]
 1051              	.L46:
 744:.\main.c      ****                         }
 745:.\main.c      ****                         if(ctrl_in[in_can] < 1500 && (tune_cnt == 100))
 1052              		.loc 1 745 0
 1053 04cc 218C     		ldrh	r1, [r4, #32]
 1054 04ce 6E48     		ldr	r0, .L77+12
 1055 04d0 8142     		cmp	r1, r0
 1056 04d2 08D8     		bhi	.L47
 1057              		.loc 1 745 0 is_stmt 0 discriminator 1
 1058 04d4 642A     		cmp	r2, #100
 1059 04d6 0FD1     		bne	.L48
 746:.\main.c      ****                         {
 747:.\main.c      ****                             // step Aileron
 748:.\main.c      ****                             ctrl_out[out_ail1]+= 150;
 1060              		.loc 1 748 0 is_stmt 1
 1061 04d8 D989     		ldrh	r1, [r3, #14]
 1062 04da 9631     		add	r1, r1, #150
 1063 04dc D981     		strh	r1, [r3, #14]
 749:.\main.c      ****                             ctrl_out[out_ail2]-= 150;
 1064              		.loc 1 749 0
 1065 04de 198A     		ldrh	r1, [r3, #16]
 1066 04e0 9639     		sub	r1, r1, #150
 1067 04e2 1982     		strh	r1, [r3, #16]
 1068 04e4 0BE0     		b	.L50
 1069              	.L47:
 750:.\main.c      ****                         }
 751:.\main.c      ****                         else if (ctrl_in[in_can] > 1500 && (tune_cnt == 100))
 1070              		.loc 1 751 0
 1071 04e6 6948     		ldr	r0, .L77+16
 1072 04e8 8142     		cmp	r1, r0
 1073 04ea 05D0     		beq	.L48
 1074              		.loc 1 751 0 is_stmt 0 discriminator 1
 1075 04ec 642A     		cmp	r2, #100
 1076 04ee 03D1     		bne	.L48
 752:.\main.c      ****                         {
 753:.\main.c      ****                             // step Elevator
 754:.\main.c      ****                             ctrl_out[out_ele1]+= 150;   // positive step -> Up
 1077              		.loc 1 754 0 is_stmt 1
 1078 04f0 598A     		ldrh	r1, [r3, #18]
 1079 04f2 9631     		add	r1, r1, #150
 1080 04f4 5982     		strh	r1, [r3, #18]
 1081 04f6 02E0     		b	.L50
 1082              	.L48:
 755:.\main.c      ****                         }
 756:.\main.c      ****                         
 757:.\main.c      ****                         if(tune_cnt < 250) tune_cnt++;
 1083              		.loc 1 757 0
 1084 04f8 F92A     		cmp	r2, #249
 1085 04fa 00D9     		bls	.LCB853
 1086 04fc D1E0     		b	.L40	@long jump
 1087              	.LCB853:
 1088              	.L50:
ARM GAS  C:\Users\Sven\AppData\Local\Temp\cc5mu159.s 			page 34


 1089              		.loc 1 757 0 is_stmt 0 discriminator 1
 1090 04fe 4934     		add	r4, r4, #73
 1091 0500 0132     		add	r2, r2, #1
 1092 0502 2270     		strb	r2, [r4]
 1093 0504 CDE0     		b	.L40
 1094              	.LVL124:
 1095              	.L45:
 758:.\main.c      ****                         
 759:.\main.c      ****                     break;
 760:.\main.c      ****                     
 761:.\main.c      ****                     case autonom:
 762:.\main.c      ****                         /* autonomous mode */
 763:.\main.c      **** 
 764:.\main.c      **** 						
 765:.\main.c      **** 						if(state_change == TRUE)
 1096              		.loc 1 765 0 is_stmt 1
 1097 0506 0329     		cmp	r1, #3
 1098 0508 1BD0     		beq	.L51
 766:.\main.c      **** 						{
 767:.\main.c      ****                             /* Entering Autonomous Mode */
 768:.\main.c      **** 							/* Store current ctrl inputs in trim vecotr*/
 769:.\main.c      **** 							ctrl_in_trim[in_mot] = ctrl_in[in_mot];  /* Set trimmed Motor input */
 1099              		.loc 1 769 0
 1100 050a E88A     		ldrh	r0, [r5, #22]
 1101              	.LVL125:
 1102 050c 1A1C     		mov	r2, r3
 1103              	.LVL126:
 1104 050e 5885     		strh	r0, [r3, #42]
 770:.\main.c      ****                             ctrl_in_trim[in_ele] = ctrl_in[in_ele];  /* Set trimmed Elevator input 
 1105              		.loc 1 770 0
 1106 0510 638B     		ldrh	r3, [r4, #26]
 771:.\main.c      **** 							ctrl_in_trim[in_ail] = ctrl_in[in_ail];  /* Set trimmed Aileron input */
 772:.\main.c      ****                             ctrl_in_trim[in_rud] = ctrl_in[in_rud];  /* Set trimmed Rudder input */
 773:.\main.c      ****                             /* In case the autonomous mode is entered 
 774:.\main.c      **** 							all errors etc need to be reset */
 775:.\main.c      **** 							
 776:.\main.c      ****                             /* Theta Control */
 777:.\main.c      **** 							Theta_Error = 0;					/* Needs to be reset always when this state is entered */
 1107              		.loc 1 777 0
 1108 0512 0026     		mov	r6, #0
 770:.\main.c      ****                             ctrl_in_trim[in_ele] = ctrl_in[in_ele];  /* Set trimmed Elevator input 
 1109              		.loc 1 770 0
 1110 0514 D385     		strh	r3, [r2, #46]
 771:.\main.c      **** 							ctrl_in_trim[in_ail] = ctrl_in[in_ail];  /* Set trimmed Aileron input */
 1111              		.loc 1 771 0
 1112 0516 238B     		ldrh	r3, [r4, #24]
 778:.\main.c      **** 							Theta_Error_sum = 0;				/* Theta Sum to be reset */
 779:.\main.c      **** 							Theta_Target = Theta; /* = 0 */		/* Set Theta Target */
 1113              		.loc 1 779 0
 1114 0518 0298     		ldr	r0, [sp, #8]
 771:.\main.c      **** 							ctrl_in_trim[in_ail] = ctrl_in[in_ail];  /* Set trimmed Aileron input */
 1115              		.loc 1 771 0
 1116 051a 9385     		strh	r3, [r2, #44]
 772:.\main.c      ****                             ctrl_in_trim[in_rud] = ctrl_in[in_rud];  /* Set trimmed Rudder input */
 1117              		.loc 1 772 0
 1118 051c A38B     		ldrh	r3, [r4, #28]
 778:.\main.c      **** 							Theta_Error_sum = 0;				/* Theta Sum to be reset */
ARM GAS  C:\Users\Sven\AppData\Local\Temp\cc5mu159.s 			page 35


 1119              		.loc 1 778 0
 1120 051e 2E65     		str	r6, [r5, #80]
 772:.\main.c      ****                             ctrl_in_trim[in_rud] = ctrl_in[in_rud];  /* Set trimmed Rudder input */
 1121              		.loc 1 772 0
 1122 0520 1386     		strh	r3, [r2, #48]
 777:.\main.c      **** 							Theta_Error = 0;					/* Needs to be reset always when this state is entered */
 1123              		.loc 1 777 0
 1124 0522 231C     		mov	r3, r4
 1125 0524 4C33     		add	r3, r3, #76
 1126 0526 1E70     		strb	r6, [r3]
 1127              		.loc 1 779 0
 1128 0528 FFF7FEFF 		bl	__aeabi_f2iz
 1129              	.LVL127:
 1130 052c 5849     		ldr	r1, .L77+20
 780:.\main.c      **** 							
 781:.\main.c      ****                             /* Phi Control */
 782:.\main.c      **** 							Phi_Error = 0;					/* Needs to be reset always when this state is entered */
 1131              		.loc 1 782 0
 1132 052e 231C     		mov	r3, r4
 1133 0530 5533     		add	r3, r3, #85
 779:.\main.c      **** 							Theta_Target = Theta; /* = 0 */		/* Set Theta Target */
 1134              		.loc 1 779 0
 1135 0532 0870     		strb	r0, [r1]
 1136              		.loc 1 782 0
 1137 0534 1E70     		strb	r6, [r3]
 783:.\main.c      **** 							Phi_Error_sum = 0;				/* Phi Sum to be reset */
 1138              		.loc 1 783 0
 1139 0536 AE65     		str	r6, [r5, #88]
 784:.\main.c      **** 							Phi_Target = Phi; /* = 0 */		/* Set Phi Target */
 1140              		.loc 1 784 0
 1141 0538 381C     		add	r0, r7, #0
 1142 053a FFF7FEFF 		bl	__aeabi_f2iz
 1143              	.LVL128:
 1144 053e 5C34     		add	r4, r4, #92
 1145 0540 2070     		strb	r0, [r4]
 1146              	.L51:
 785:.\main.c      **** 						}
 786:.\main.c      ****                         if(ctrl_in[in_can] > 1750)
 1147              		.loc 1 786 0
 1148 0542 4F4C     		ldr	r4, .L77+4
 1149 0544 4D4A     		ldr	r2, .L77
 1150 0546 238C     		ldrh	r3, [r4, #32]
 1151 0548 9342     		cmp	r3, r2
 1152 054a 4ED9     		bls	.L52
 1153              	.LVL129:
 1154              	.LBB4:
 787:.\main.c      ****                         {
 788:.\main.c      ****                         //#ifdef THCTRL
 789:.\main.c      **** 						//******************************************************
 790:.\main.c      ****  						// Theta control with elevator
 791:.\main.c      ****  						// Input: Theta command from Altitude Hold loop
 792:.\main.c      ****  						// Output: elevator command pid loop
 793:.\main.c      ****  						// Controller: PID Controller
 794:.\main.c      **** 						// Gains: K_p = 10 K_i = 10 K_d = 5
 795:.\main.c      **** 						uint8_t Kp_Theta = 5;
 796:.\main.c      **** 						uint8_t Ki_Theta = 5;
 797:.\main.c      **** 						uint8_t Kd_Theta = 1;
ARM GAS  C:\Users\Sven\AppData\Local\Temp\cc5mu159.s 			page 36


 798:.\main.c      **** 						
 799:.\main.c      ****  						Theta_Error = Theta - Theta_Target; // as per Simulation in SCILAB this convention is best
 1155              		.loc 1 799 0
 1156 054c 5420     		mov	r0, #84
 1157 054e 2056     		ldrsb	r0, [r4, r0]
 1158 0550 FFF7FEFF 		bl	__aeabi_i2f
 1159              	.LVL130:
 1160 0554 011C     		add	r1, r0, #0
 1161 0556 0298     		ldr	r0, [sp, #8]
 1162 0558 FFF7FEFF 		bl	__aeabi_fsub
 1163              	.LVL131:
 1164 055c FFF7FEFF 		bl	__aeabi_f2iz
 1165              	.LVL132:
 1166 0560 231C     		mov	r3, r4
 1167 0562 C5B2     		uxtb	r5, r0
 1168 0564 4C33     		add	r3, r3, #76
 1169 0566 1D70     		strb	r5, [r3]
 800:.\main.c      ****  						Theta_Error_sum += Theta_Error;
 1170              		.loc 1 800 0
 1171 0568 236D     		ldr	r3, [r4, #80]
 1172 056a 6EB2     		sxtb	r6, r5
 1173 056c F718     		add	r7, r6, r3
 801:.\main.c      ****  						// controller formula for the necessary control change						 
 802:.\main.c      ****  						ctrl_out_PID[out_ele1] = (Kp_Theta*Theta_Error + Ki_Theta*Theta_Error_sum*sample_time + Kd_T
 1174              		.loc 1 802 0
 1175 056e 0520     		mov	r0, #5
 800:.\main.c      ****  						Theta_Error_sum += Theta_Error;
 1176              		.loc 1 800 0
 1177 0570 2765     		str	r7, [r4, #80]
 1178              		.loc 1 802 0
 1179 0572 7043     		mul	r0, r6
 1180 0574 FFF7FEFF 		bl	__aeabi_i2f
 1181              	.LVL133:
 1182 0578 0290     		str	r0, [sp, #8]
 1183 057a 0520     		mov	r0, #5
 1184 057c 7843     		mul	r0, r7
 1185 057e FFF7FEFF 		bl	__aeabi_i2f
 1186              	.LVL134:
 1187 0582 0099     		ldr	r1, [sp]
 1188 0584 FFF7FEFF 		bl	__aeabi_fmul
 1189              	.LVL135:
 1190 0588 011C     		add	r1, r0, #0
 1191 058a 0298     		ldr	r0, [sp, #8]
 1192 058c FFF7FEFF 		bl	__aeabi_fadd
 1193              	.LVL136:
 1194 0590 271C     		mov	r7, r4
 1195 0592 0090     		str	r0, [sp]
 1196 0594 5D37     		add	r7, r7, #93
 1197 0596 0020     		mov	r0, #0
 1198 0598 3856     		ldrsb	r0, [r7, r0]
 1199 059a 301A     		sub	r0, r6, r0
 1200 059c FFF7FEFF 		bl	__aeabi_i2f
 1201              	.LVL137:
 1202 05a0 011C     		add	r1, r0, #0
 1203 05a2 0098     		ldr	r0, [sp]
 1204 05a4 FFF7FEFF 		bl	__aeabi_fadd
 1205              	.LVL138:
ARM GAS  C:\Users\Sven\AppData\Local\Temp\cc5mu159.s 			page 37


 1206 05a8 FFF7FEFF 		bl	__aeabi_f2uiz
 1207              	.LVL139:
 1208 05ac 231C     		mov	r3, r4
 1209 05ae 80B2     		uxth	r0, r0
 1210 05b0 5E33     		add	r3, r3, #94
 1211 05b2 D880     		strh	r0, [r3, #6]
 803:.\main.c      ****                         Theta_Error_prev = Theta_Error;
 804:.\main.c      **** 						//******************************************************
 805:.\main.c      **** 						
 806:.\main.c      **** 						//******************************************************
 807:.\main.c      **** 						// Pitch damping
 808:.\main.c      **** 						// Input: turn rate q
 809:.\main.c      **** 						// Output: elevator command damping
 810:.\main.c      **** 						// Gains: K_d_q
 811:.\main.c      **** 						ctrl_out_DAMP[out_ele1] = K_d_q * (turn_rate_q);
 1212              		.loc 1 811 0
 1213 05b4 334B     		ldr	r3, .L77+8
 803:.\main.c      ****                         Theta_Error_prev = Theta_Error;
 1214              		.loc 1 803 0
 1215 05b6 3D70     		strb	r5, [r7]
 1216              		.loc 1 811 0
 1217 05b8 1A1C     		mov	r2, r3
 1218 05ba 0832     		add	r2, r2, #8
 1219 05bc D27F     		ldrb	r2, [r2, #31]
 1220 05be 059D     		ldr	r5, [sp, #20]
 1221 05c0 6834     		add	r4, r4, #104
 1222 05c2 6A43     		mul	r2, r5
 1223 05c4 92B2     		uxth	r2, r2
 1224 05c6 E280     		strh	r2, [r4, #6]
 812:.\main.c      **** 						//******************************************************
 813:.\main.c      **** 						
 814:.\main.c      **** 						//******************************************************
 815:.\main.c      **** 						// Combining the calculated inputs elevator and limiting elevator command
 816:.\main.c      **** 						ctrl_out[out_ele1] = ctrl_in_trim[in_ele] - ctrl_out_PID[out_ele1] - ctrl_out_DAMP[out_ele1];
 1225              		.loc 1 816 0
 1226 05c8 D98D     		ldrh	r1, [r3, #46]
 1227 05ca 081A     		sub	r0, r1, r0
 1228 05cc 801A     		sub	r0, r0, r2
 1229 05ce 80B2     		uxth	r0, r0
 817:.\main.c      **** 						if(ctrl_out[out_ele1] > 2000) ctrl_out[out_ele1] = 2000;
 1230              		.loc 1 817 0
 1231 05d0 FA22     		mov	r2, #250
 1232 05d2 D200     		lsl	r2, r2, #3
 1233 05d4 9042     		cmp	r0, r2
 1234 05d6 06D8     		bhi	.L74
 818:.\main.c      **** 						else if (ctrl_out[out_ele1] < 900) ctrl_out[out_ele1] = 900;
 1235              		.loc 1 818 0
 1236 05d8 2E4A     		ldr	r2, .L77+24
 1237 05da 9042     		cmp	r0, r2
 1238 05dc 01D9     		bls	.L54
 816:.\main.c      **** 						ctrl_out[out_ele1] = ctrl_in_trim[in_ele] - ctrl_out_PID[out_ele1] - ctrl_out_DAMP[out_ele1];
 1239              		.loc 1 816 0
 1240 05de 5882     		strh	r0, [r3, #18]
 1241 05e0 5FE0     		b	.L40
 1242              	.L54:
 1243              		.loc 1 818 0 discriminator 1
 1244 05e2 E122     		mov	r2, #225
ARM GAS  C:\Users\Sven\AppData\Local\Temp\cc5mu159.s 			page 38


 1245 05e4 9200     		lsl	r2, r2, #2
 1246              	.L74:
 1247 05e6 5A82     		strh	r2, [r3, #18]
 1248 05e8 5BE0     		b	.L40
 1249              	.LVL140:
 1250              	.L52:
 1251              	.LBE4:
 1252              	.LBB5:
 819:.\main.c      **** 						//******************************************************
 820:.\main.c      **** 						//#endif
 821:.\main.c      ****                         }
 822:.\main.c      ****                         else
 823:.\main.c      ****                         {
 824:.\main.c      ****                         
 825:.\main.c      ****                         //#ifdef PHICTRL
 826:.\main.c      ****                         //******************************************************
 827:.\main.c      ****  						// Phi control with Aileron
 828:.\main.c      ****  						// Input: Phi command from Heading hold loop
 829:.\main.c      ****  						// Output: aileron command pid loop
 830:.\main.c      ****  						// Controller: PID Controller
 831:.\main.c      **** 						// Gains: K_p = 10 K_i = 10 K_d = 5
 832:.\main.c      **** 						uint8_t Kp_Phi = 5;
 833:.\main.c      **** 						uint8_t Ki_Phi = 5;
 834:.\main.c      **** 						uint8_t Kd_Phi = 1;
 835:.\main.c      **** 						
 836:.\main.c      ****  						Phi_Error = Phi_Target - Phi; // as per Simulation in SCILAB this convention is best
 1253              		.loc 1 836 0
 1254 05ea 5C20     		mov	r0, #92
 1255 05ec 2056     		ldrsb	r0, [r4, r0]
 1256 05ee FFF7FEFF 		bl	__aeabi_i2f
 1257              	.LVL141:
 1258 05f2 391C     		add	r1, r7, #0
 1259 05f4 FFF7FEFF 		bl	__aeabi_fsub
 1260              	.LVL142:
 1261 05f8 FFF7FEFF 		bl	__aeabi_f2iz
 1262              	.LVL143:
 1263 05fc C5B2     		uxtb	r5, r0
 837:.\main.c      ****  						Phi_Error_sum += Phi_Error;
 1264              		.loc 1 837 0
 1265 05fe A06D     		ldr	r0, [r4, #88]
 1266 0600 6EB2     		sxtb	r6, r5
 836:.\main.c      ****  						Phi_Error = Phi_Target - Phi; // as per Simulation in SCILAB this convention is best
 1267              		.loc 1 836 0
 1268 0602 231C     		mov	r3, r4
 1269 0604 5533     		add	r3, r3, #85
 1270              		.loc 1 837 0
 1271 0606 3718     		add	r7, r6, r0
 838:.\main.c      ****  						// controller formula for the necessary control change						 
 839:.\main.c      ****  						ctrl_out_PID[out_ail1] = (Kp_Phi*Phi_Error + Ki_Phi*Phi_Error_sum*sample_time + Kd_Phi*(-Phi
 1272              		.loc 1 839 0
 1273 0608 0520     		mov	r0, #5
 836:.\main.c      ****  						Phi_Error = Phi_Target - Phi; // as per Simulation in SCILAB this convention is best
 1274              		.loc 1 836 0
 1275 060a 1D70     		strb	r5, [r3]
 837:.\main.c      ****  						Phi_Error_sum += Phi_Error;
 1276              		.loc 1 837 0
 1277 060c A765     		str	r7, [r4, #88]
ARM GAS  C:\Users\Sven\AppData\Local\Temp\cc5mu159.s 			page 39


 1278              		.loc 1 839 0
 1279 060e 7043     		mul	r0, r6
 1280 0610 FFF7FEFF 		bl	__aeabi_i2f
 1281              	.LVL144:
 1282 0614 0290     		str	r0, [sp, #8]
 1283 0616 0520     		mov	r0, #5
 1284 0618 7843     		mul	r0, r7
 1285 061a FFF7FEFF 		bl	__aeabi_i2f
 1286              	.LVL145:
 1287 061e 0099     		ldr	r1, [sp]
 1288 0620 FFF7FEFF 		bl	__aeabi_fmul
 1289              	.LVL146:
 1290 0624 011C     		add	r1, r0, #0
 1291 0626 0298     		ldr	r0, [sp, #8]
 1292 0628 FFF7FEFF 		bl	__aeabi_fadd
 1293              	.LVL147:
 1294 062c 271C     		mov	r7, r4
 1295 062e 0090     		str	r0, [sp]
 1296 0630 7237     		add	r7, r7, #114
 1297 0632 0020     		mov	r0, #0
 1298 0634 3856     		ldrsb	r0, [r7, r0]
 1299 0636 301A     		sub	r0, r6, r0
 1300 0638 FFF7FEFF 		bl	__aeabi_i2f
 1301              	.LVL148:
 1302 063c 011C     		add	r1, r0, #0
 1303 063e 0098     		ldr	r0, [sp]
 1304 0640 FFF7FEFF 		bl	__aeabi_fadd
 1305              	.LVL149:
 1306 0644 FFF7FEFF 		bl	__aeabi_f2uiz
 1307              	.LVL150:
 1308 0648 231C     		mov	r3, r4
 1309 064a 80B2     		uxth	r0, r0
 1310 064c 5E33     		add	r3, r3, #94
 1311 064e 5880     		strh	r0, [r3, #2]
 840:.\main.c      ****                         Phi_Error_prev = Phi_Error;
 841:.\main.c      **** 						//******************************************************
 842:.\main.c      **** 						
 843:.\main.c      **** 						//******************************************************
 844:.\main.c      **** 						// Pitch damping
 845:.\main.c      **** 						// Input: turn rate q
 846:.\main.c      **** 						// Output: elevator command damping
 847:.\main.c      **** 						// Gains: K_d_q
 848:.\main.c      **** 						ctrl_out_DAMP[out_ail1] = K_d_p * (turn_rate_p);
 1312              		.loc 1 848 0
 1313 0650 0C4B     		ldr	r3, .L77+8
 840:.\main.c      ****                         Phi_Error_prev = Phi_Error;
 1314              		.loc 1 840 0
 1315 0652 3D70     		strb	r5, [r7]
 1316              		.loc 1 848 0
 1317 0654 DA1D     		add	r2, r3, #7
 1318 0656 D27F     		ldrb	r2, [r2, #31]
 1319 0658 069D     		ldr	r5, [sp, #24]
 1320 065a 6834     		add	r4, r4, #104
 1321 065c 6A43     		mul	r2, r5
 1322 065e 92B2     		uxth	r2, r2
 1323 0660 6280     		strh	r2, [r4, #2]
 849:.\main.c      **** 						//******************************************************
ARM GAS  C:\Users\Sven\AppData\Local\Temp\cc5mu159.s 			page 40


 850:.\main.c      **** 						
 851:.\main.c      **** 						//******************************************************
 852:.\main.c      **** 						// Combining the calculated inputs elevator and limiting elevator command
 853:.\main.c      **** 						ctrl_out[out_ail1] = ctrl_in_trim[in_ail] - ctrl_out_PID[out_ail1] + ctrl_out_DAMP[out_ail1];
 1324              		.loc 1 853 0
 1325 0662 998D     		ldrh	r1, [r3, #44]
 1326 0664 5218     		add	r2, r2, r1
 1327 0666 101A     		sub	r0, r2, r0
 1328 0668 80B2     		uxth	r0, r0
 854:.\main.c      **** 						if(ctrl_out[out_ail1] > 2000) ctrl_out[out_ail1] = 2000;
 1329              		.loc 1 854 0
 1330 066a FA22     		mov	r2, #250
 1331 066c D200     		lsl	r2, r2, #3
 1332 066e 9042     		cmp	r0, r2
 1333 0670 14D8     		bhi	.L73
 855:.\main.c      **** 						else if (ctrl_out[out_ail1] < 900) ctrl_out[out_ail1] = 900;
 1334              		.loc 1 855 0
 1335 0672 084A     		ldr	r2, .L77+24
 1336 0674 9042     		cmp	r0, r2
 1337 0676 0FD9     		bls	.L58
 853:.\main.c      **** 						ctrl_out[out_ail1] = ctrl_in_trim[in_ail] - ctrl_out_PID[out_ail1] + ctrl_out_DAMP[out_ail1];
 1338              		.loc 1 853 0
 1339 0678 D881     		strh	r0, [r3, #14]
 1340 067a 10E0     		b	.L57
 1341              	.L78:
 1342              		.align	2
 1343              	.L77:
 1344 067c D6060000 		.word	1750
 1345 0680 00000000 		.word	.LANCHOR1
 1346 0684 00000000 		.word	.LANCHOR0
 1347 0688 DB050000 		.word	1499
 1348 068c DC050000 		.word	1500
 1349 0690 54000000 		.word	.LANCHOR1+84
 1350 0694 83030000 		.word	899
 1351              	.L58:
 1352              		.loc 1 855 0 discriminator 1
 1353 0698 E122     		mov	r2, #225
 1354 069a 9200     		lsl	r2, r2, #2
 1355              	.L73:
 1356 069c DA81     		strh	r2, [r3, #14]
 1357              	.L57:
 856:.\main.c      ****                         ctrl_out[out_ail2] = ctrl_out[out_ail1];    /* Both Servos need to be contr
 1358              		.loc 1 856 0
 1359 069e DA89     		ldrh	r2, [r3, #14]
 1360 06a0 1A82     		strh	r2, [r3, #16]
 1361              	.LVL151:
 1362              	.L40:
 1363              	.LBE5:
 1364              	.LBE3:
 857:.\main.c      **** 						//******************************************************
 858:.\main.c      ****                         //#endif
 859:.\main.c      ****                         }
 860:.\main.c      ****                         
 861:.\main.c      ****                     break;
 862:.\main.c      ****                         
 863:.\main.c      ****                 }
 864:.\main.c      ****             }
ARM GAS  C:\Users\Sven\AppData\Local\Temp\cc5mu159.s 			page 41


 865:.\main.c      ****             else    // for debug use only (no receiver connected)
 866:.\main.c      ****             {
 867:.\main.c      ****                 ctrl_in[in_mot] = 1000;
 868:.\main.c      ****                 ctrl_out[out_mot] = ctrl_in[in_mot];    
 869:.\main.c      ****                 ctrl_out[out_ail1] = ctrl_in[in_mot];    
 870:.\main.c      ****                 ctrl_out[out_ail2] = ctrl_in[in_mot];
 871:.\main.c      ****                 ctrl_out[out_ele1] = ctrl_in[in_mot];
 872:.\main.c      ****                 ctrl_out[out_ele2] = ctrl_in[in_mot];
 873:.\main.c      ****                 ctrl_out[out_rud] = ctrl_in[in_mot];
 874:.\main.c      ****                 ctrl_out[out_fl1] = ctrl_in[in_mot];
 875:.\main.c      ****                 ctrl_out[out_fl2] = ctrl_in[in_mot];
 876:.\main.c      ****                 ctrl_out[out_ge1] = ctrl_in[in_mot];
 877:.\main.c      ****                 ctrl_out[out_ge2] = ctrl_in[in_mot];
 878:.\main.c      ****                 ctrl_out[out_ge3] = ctrl_in[in_mot];
 879:.\main.c      ****                 ctrl_out[out_sp1] = ctrl_in[in_mot];
 880:.\main.c      ****                 ctrl_out[out_sp2] = ctrl_in[in_mot];
 881:.\main.c      ****             }
 882:.\main.c      ****             
 883:.\main.c      ****             /*=======================================
 884:.\main.c      ****                 Data Logging
 885:.\main.c      ****               =======================================*/
 886:.\main.c      ****             if(DATA_LOG == TRUE)
 887:.\main.c      ****             {
 888:.\main.c      ****                 UART_1_UartPutNum(ctrl_out[out_mot]);
 1365              		.loc 1 888 0
 1366 06a2 484D     		ldr	r5, .L79
 1367 06a4 A889     		ldrh	r0, [r5, #12]
 1368 06a6 FFF7FEFF 		bl	UART_1_UartPutNum
 1369              	.LVL152:
 889:.\main.c      ****                 UART_1_UartPutString(";");
 1370              		.loc 1 889 0
 1371 06aa 474C     		ldr	r4, .L79+4
 1372 06ac 201C     		mov	r0, r4
 1373 06ae FFF7FEFF 		bl	UART_1_UartPutString
 1374              	.LVL153:
 890:.\main.c      ****                 UART_1_UartPutNum(ctrl_out[out_ail1]);
 1375              		.loc 1 890 0
 1376 06b2 E889     		ldrh	r0, [r5, #14]
 1377 06b4 FFF7FEFF 		bl	UART_1_UartPutNum
 1378              	.LVL154:
 891:.\main.c      ****                 UART_1_UartPutString(";");
 1379              		.loc 1 891 0
 1380 06b8 201C     		mov	r0, r4
 1381 06ba FFF7FEFF 		bl	UART_1_UartPutString
 1382              	.LVL155:
 892:.\main.c      ****                 UART_1_UartPutNum(ctrl_out[out_ele1]);
 1383              		.loc 1 892 0
 1384 06be 688A     		ldrh	r0, [r5, #18]
 1385 06c0 FFF7FEFF 		bl	UART_1_UartPutNum
 1386              	.LVL156:
 893:.\main.c      ****                 UART_1_UartPutString(";");
 1387              		.loc 1 893 0
 1388 06c4 201C     		mov	r0, r4
 1389 06c6 FFF7FEFF 		bl	UART_1_UartPutString
 1390              	.LVL157:
 894:.\main.c      ****                 UART_1_UartPutNum(ctrl_out[out_rud]);
 1391              		.loc 1 894 0
ARM GAS  C:\Users\Sven\AppData\Local\Temp\cc5mu159.s 			page 42


 1392 06ca E88A     		ldrh	r0, [r5, #22]
 1393 06cc FFF7FEFF 		bl	UART_1_UartPutNum
 1394              	.LVL158:
 895:.\main.c      ****                 UART_1_UartPutString(";");
 1395              		.loc 1 895 0
 1396 06d0 201C     		mov	r0, r4
 1397 06d2 FFF7FEFF 		bl	UART_1_UartPutString
 1398              	.LVL159:
 896:.\main.c      ****                 UART_1_UartPutNum(ctrl_out[out_ge2]);
 1399              		.loc 1 896 0
 1400 06d6 E88B     		ldrh	r0, [r5, #30]
 1401 06d8 FFF7FEFF 		bl	UART_1_UartPutNum
 1402              	.LVL160:
 897:.\main.c      ****                 UART_1_UartPutString(";");
 1403              		.loc 1 897 0
 1404 06dc 201C     		mov	r0, r4
 1405 06de FFF7FEFF 		bl	UART_1_UartPutString
 1406              	.LVL161:
 898:.\main.c      ****                 UART_1_UartPutNum(ctrl_out[out_fl1]);
 1407              		.loc 1 898 0
 1408 06e2 288B     		ldrh	r0, [r5, #24]
 1409 06e4 FFF7FEFF 		bl	UART_1_UartPutNum
 1410              	.LVL162:
 899:.\main.c      ****                 UART_1_UartPutString(";");
 1411              		.loc 1 899 0
 1412 06e8 201C     		mov	r0, r4
 1413 06ea FFF7FEFF 		bl	UART_1_UartPutString
 1414              	.LVL163:
 900:.\main.c      ****                 //UART_1_UartPutNum(ctrl_in[7]);
 901:.\main.c      ****                 //UART_1_UartPutString("\r\n");
 902:.\main.c      ****                 UART_1_UartPutNum(Phi);
 1415              		.loc 1 902 0
 1416 06ee 374B     		ldr	r3, .L79+8
 1417 06f0 1868     		ldr	r0, [r3]
 1418 06f2 FFF7FEFF 		bl	__aeabi_f2iz
 1419              	.LVL164:
 1420 06f6 FFF7FEFF 		bl	UART_1_UartPutNum
 1421              	.LVL165:
 903:.\main.c      ****                 UART_1_UartPutString(";");
 1422              		.loc 1 903 0
 1423 06fa 201C     		mov	r0, r4
 1424 06fc FFF7FEFF 		bl	UART_1_UartPutString
 1425              	.LVL166:
 904:.\main.c      ****                 UART_1_UartPutNum(Theta);
 1426              		.loc 1 904 0
 1427 0700 334E     		ldr	r6, .L79+12
 1428 0702 3068     		ldr	r0, [r6]
 1429 0704 FFF7FEFF 		bl	__aeabi_f2iz
 1430              	.LVL167:
 1431 0708 FFF7FEFF 		bl	UART_1_UartPutNum
 1432              	.LVL168:
 905:.\main.c      ****                 UART_1_UartPutString(";");
 1433              		.loc 1 905 0
 1434 070c 201C     		mov	r0, r4
 1435 070e FFF7FEFF 		bl	UART_1_UartPutString
 1436              	.LVL169:
 906:.\main.c      ****                 UART_1_UartPutNum(speed);
ARM GAS  C:\Users\Sven\AppData\Local\Temp\cc5mu159.s 			page 43


 1437              		.loc 1 906 0
 1438 0712 304D     		ldr	r5, .L79+16
 1439 0714 0221     		mov	r1, #2
 1440 0716 685E     		ldrsh	r0, [r5, r1]
 1441 0718 FFF7FEFF 		bl	UART_1_UartPutNum
 1442              	.LVL170:
 907:.\main.c      ****                 UART_1_UartPutString(";");
 1443              		.loc 1 907 0
 1444 071c 201C     		mov	r0, r4
 1445 071e FFF7FEFF 		bl	UART_1_UartPutString
 1446              	.LVL171:
 908:.\main.c      ****                 UART_1_UartPutNum(press);
 1447              		.loc 1 908 0
 1448 0722 A86A     		ldr	r0, [r5, #40]
 1449 0724 FFF7FEFF 		bl	UART_1_UartPutNum
 1450              	.LVL172:
 909:.\main.c      ****                 UART_1_UartPutString(";");
 1451              		.loc 1 909 0
 1452 0728 201C     		mov	r0, r4
 1453 072a FFF7FEFF 		bl	UART_1_UartPutString
 1454              	.LVL173:
 910:.\main.c      ****                 UART_1_UartPutNum(alt);
 1455              		.loc 1 910 0
 1456 072e E86A     		ldr	r0, [r5, #44]
 1457 0730 FFF7FEFF 		bl	UART_1_UartPutNum
 1458              	.LVL174:
 911:.\main.c      ****                 UART_1_UartPutString(";");
 1459              		.loc 1 911 0
 1460 0734 201C     		mov	r0, r4
 1461 0736 FFF7FEFF 		bl	UART_1_UartPutString
 1462              	.LVL175:
 912:.\main.c      ****                 UART_1_UartPutNum(Ctrl_Mode);
 1463              		.loc 1 912 0
 1464 073a 2B1C     		mov	r3, r5
 1465 073c 4833     		add	r3, r3, #72
 1466 073e 1878     		ldrb	r0, [r3]
 1467 0740 FFF7FEFF 		bl	UART_1_UartPutNum
 1468              	.LVL176:
 913:.\main.c      ****                 UART_1_UartPutString(";\r\n");
 1469              		.loc 1 913 0
 1470 0744 2448     		ldr	r0, .L79+20
 1471 0746 FFF7FEFF 		bl	UART_1_UartPutString
 1472              	.LVL177:
 914:.\main.c      ****             }
 915:.\main.c      ****                 //UART_1_UartPutNum(Phi);
 916:.\main.c      ****                 //UART_1_UartPutString(";");
 917:.\main.c      ****                 //UART_1_UartPutNum(Theta);
 918:.\main.c      ****                 //UART_1_UartPutString(";");
 919:.\main.c      ****                 //UART_1_UartPutNum(speed);
 920:.\main.c      ****                 //UART_1_UartPutString(";\r\n");
 921:.\main.c      ****             if(Rx_flag == 1)
 1473              		.loc 1 921 0
 1474 074a 2B1C     		mov	r3, r5
 1475 074c 7333     		add	r3, r3, #115
 1476 074e 1A78     		ldrb	r2, [r3]
 1477 0750 012A     		cmp	r2, #1
 1478 0752 16D1     		bne	.L60
ARM GAS  C:\Users\Sven\AppData\Local\Temp\cc5mu159.s 			page 44


 922:.\main.c      ****             {
 923:.\main.c      ****                 Rx_flag = 0;
 924:.\main.c      ****                 UART_1_UartPutString(Rx_String);
 1479              		.loc 1 924 0
 1480 0754 7435     		add	r5, r5, #116
 923:.\main.c      ****                 Rx_flag = 0;
 1481              		.loc 1 923 0
 1482 0756 0022     		mov	r2, #0
 1483              		.loc 1 924 0
 1484 0758 281C     		mov	r0, r5
 923:.\main.c      ****                 Rx_flag = 0;
 1485              		.loc 1 923 0
 1486 075a 1A70     		strb	r2, [r3]
 1487              		.loc 1 924 0
 1488 075c FFF7FEFF 		bl	UART_1_UartPutString
 1489              	.LVL178:
 925:.\main.c      ****                 UART_1_UartPutString("\r\n");
 1490              		.loc 1 925 0
 1491 0760 1E48     		ldr	r0, .L79+24
 1492 0762 FFF7FEFF 		bl	UART_1_UartPutString
 1493              	.LVL179:
 926:.\main.c      ****                 // In case "Boot" is received -> Bootloader gets enabled
 927:.\main.c      ****                 if(strcmp(Rx_String,"Boot")==0)
 1494              		.loc 1 927 0
 1495 0766 281C     		mov	r0, r5
 1496 0768 1D49     		ldr	r1, .L79+28
 1497 076a FFF7FEFF 		bl	strcmp
 1498              	.LVL180:
 1499 076e 0028     		cmp	r0, #0
 1500 0770 07D1     		bne	.L60
 928:.\main.c      ****                 {
 929:.\main.c      ****                     //CySysWdtUnlock();   // Stop The Watchdog...?
 930:.\main.c      ****                     //CySysWdtDisable(CY_SYS_WDT_COUNTER0_MASK);
 931:.\main.c      ****                     UART_1_UartPutString("BootEnabl\r\n");
 1501              		.loc 1 931 0
 1502 0772 1C48     		ldr	r0, .L79+32
 1503 0774 FFF7FEFF 		bl	UART_1_UartPutString
 1504              	.LVL181:
 932:.\main.c      ****                     CyDelay(100);
 1505              		.loc 1 932 0
 1506 0778 6420     		mov	r0, #100
 1507 077a FFF7FEFF 		bl	CyDelay
 1508              	.LVL182:
 933:.\main.c      ****                     Bootloadable_1_Load(); 
 1509              		.loc 1 933 0
 1510 077e FFF7FEFF 		bl	Bootloadable_1_Load
 1511              	.LVL183:
 1512              	.L60:
 934:.\main.c      ****                 }
 935:.\main.c      ****             }
 936:.\main.c      ****             // Feed the Watchdog
 937:.\main.c      ****             //CySysWdtClearInterrupt(CY_SYS_WDT_COUNTER0);
 938:.\main.c      ****             //CySysWdtClearInterrupt(CY_SYS_WDT_COUNTER0_MASK);
 939:.\main.c      ****             //CySysWdtClearInterrupt(CY_SYS_WDT_COUNTER0_INT);
 940:.\main.c      ****             //CySysWdtClearInterrupt(CY_SYS_WDT_COUNTER0_);
 941:.\main.c      ****             CySysWdtResetCounters(CY_SYS_WDT_COUNTER0_RESET);
 1513              		.loc 1 941 0
ARM GAS  C:\Users\Sven\AppData\Local\Temp\cc5mu159.s 			page 45


 1514 0782 0820     		mov	r0, #8
 1515 0784 FFF7FEFF 		bl	CySysWdtResetCounters
 1516              	.LVL184:
 1517              	.L19:
 1518              	.LBE2:
 942:.\main.c      ****         }
 943:.\main.c      ****         // Reading the serial data and putting it to a string
 944:.\main.c      ****         Rx_char = UART_1_UartGetChar(); // Poll for Characters
 1519              		.loc 1 944 0
 1520 0788 FFF7FEFF 		bl	UART_1_UartGetChar
 1521              	.LVL185:
 1522 078c 114A     		ldr	r2, .L79+16
 1523 078e C0B2     		uxtb	r0, r0
 1524 0790 131C     		mov	r3, r2
 1525 0792 7E33     		add	r3, r3, #126
 1526 0794 1870     		strb	r0, [r3]
 945:.\main.c      ****         if(Rx_char > 0u)  
 1527              		.loc 1 945 0
 1528 0796 0028     		cmp	r0, #0
 1529 0798 00D1     		bne	.LCB1249
 1530 079a 88E4     		b	.L63	@long jump
 1531              	.LCB1249:
 1532 079c 111C     		mov	r1, r2
 1533 079e 131C     		mov	r3, r2
 1534 07a0 7431     		add	r1, r1, #116
 1535 07a2 7F33     		add	r3, r3, #127
 946:.\main.c      ****             {
 947:.\main.c      ****                 if(Rx_char == '\r')
 1536              		.loc 1 947 0
 1537 07a4 0D28     		cmp	r0, #13
 1538 07a6 07D1     		bne	.L64
 948:.\main.c      ****                 {
 949:.\main.c      ****                     Rx_String[Rx_index] = '\0';
 1539              		.loc 1 949 0
 1540 07a8 1C78     		ldrb	r4, [r3]
 1541 07aa 0020     		mov	r0, #0
 1542 07ac 0855     		strb	r0, [r1, r4]
 950:.\main.c      ****                     Rx_flag = 1;
 1543              		.loc 1 950 0
 1544 07ae 7332     		add	r2, r2, #115
 1545 07b0 0121     		mov	r1, #1
 1546 07b2 1170     		strb	r1, [r2]
 951:.\main.c      ****                     Rx_index = 0;
 1547              		.loc 1 951 0
 1548 07b4 1870     		strb	r0, [r3]
 1549 07b6 7AE4     		b	.L63
 1550              	.L64:
 952:.\main.c      ****                 }
 953:.\main.c      ****                 else
 954:.\main.c      ****                 {
 955:.\main.c      ****                     Rx_String[Rx_index] = Rx_char;
 1551              		.loc 1 955 0
 1552 07b8 1A78     		ldrb	r2, [r3]
 1553 07ba 8854     		strb	r0, [r1, r2]
 956:.\main.c      ****                     Rx_index++;
 1554              		.loc 1 956 0
 1555 07bc 0132     		add	r2, r2, #1
ARM GAS  C:\Users\Sven\AppData\Local\Temp\cc5mu159.s 			page 46


 1556 07be 1A70     		strb	r2, [r3]
 1557 07c0 75E4     		b	.L63
 1558              	.L80:
 1559 07c2 C046     		.align	2
 1560              	.L79:
 1561 07c4 00000000 		.word	.LANCHOR0
 1562 07c8 41000000 		.word	.LC22
 1563 07cc 00000000 		.word	Phi
 1564 07d0 00000000 		.word	Theta
 1565 07d4 00000000 		.word	.LANCHOR1
 1566 07d8 43000000 		.word	.LC24
 1567 07dc 1D000000 		.word	.LC11
 1568 07e0 47000000 		.word	.LC26
 1569 07e4 4C000000 		.word	.LC28
 1570              		.cfi_endproc
 1571              	.LFE1493:
 1572              		.size	main, .-main
 1573              		.global	cnt_ML_ATTITUDE_send
 1574              		.global	cnt_ML_HEARTBEAT_send
 1575              		.comm	buf,263,1
 1576              		.comm	msg,272,1
 1577              		.global	system_state
 1578              		.global	custom_mode
 1579              		.global	system_mode
 1580              		.global	autopilot_type
 1581              		.global	system_type
 1582              		.comm	mavlink_system,2,1
 1583              		.global	Rx_flag
 1584              		.global	Rx_index
 1585              		.global	Rx_String
 1586              		.global	Rx_char
 1587              		.global	Phi_Error_prev
 1588              		.global	Phi_Error_sum
 1589              		.global	Phi_Error
 1590              		.global	Phi_Target
 1591              		.global	Theta_Error_prev
 1592              		.global	Theta_Error_sum
 1593              		.global	Theta_Error
 1594              		.global	Theta_Target
 1595              		.global	tune_cnt
 1596              		.global	K_d_r
 1597              		.global	K_d_q
 1598              		.global	K_d_p
 1599              		.global	K_1_Phi
 1600              		.comm	K_0_Phi,4,4
 1601              		.comm	S_Phi,4,4
 1602              		.comm	Phi_temp,4,4
 1603              		.global	P_Phi
 1604              		.global	p_bias
 1605              		.global	K_1_Theta
 1606              		.comm	K_0_Theta,4,4
 1607              		.comm	S_Theta,4,4
 1608              		.comm	Theta_temp,4,4
 1609              		.global	P_Theta
 1610              		.global	q_bias
 1611              		.global	R_angle
 1612              		.global	Q_gyro
ARM GAS  C:\Users\Sven\AppData\Local\Temp\cc5mu159.s 			page 47


 1613              		.global	Q_angle
 1614              		.global	QFE
 1615              		.global	press
 1616              		.global	temp
 1617              		.global	cnt_baro
 1618              		.global	alt
 1619              		.global	speed_cal_compl
 1620              		.global	cal_cnt
 1621              		.global	speed
 1622              		.global	speed_offset
 1623              		.global	Bar_press
 1624              		.global	Mag_y
 1625              		.comm	Mag_x,4,4
 1626              		.global	Mag_Heading
 1627              		.global	Psi_acc
 1628              		.comm	Psi,4,4
 1629              		.global	Phi_acc
 1630              		.comm	Phi_Mav,4,4
 1631              		.comm	Phi,4,4
 1632              		.global	Theta_acc
 1633              		.comm	Theta_Mav,4,4
 1634              		.comm	Theta,4,4
 1635              		.global	mag_z_g
 1636              		.global	mag_y_g
 1637              		.global	mag_x_g
 1638              		.global	acc_z_g
 1639              		.global	acc_y_g
 1640              		.global	acc_x_g
 1641              		.global	turn_rate_r
 1642              		.global	turn_rate_q
 1643              		.global	turn_rate_p
 1644              		.global	cnt_StrobeLight
 1645              		.global	NavLightCompare
 1646              		.global	NavLightStep
 1647              		.global	NavLightDim
 1648              		.global	NavLightBright
 1649              		.global	flag_NavLightPulse
 1650              		.global	flag_LightsEnabled
 1651              		.global	Ctrl_Mode
 1652              		.global	ctrl_out_DAMP
 1653              		.global	ctrl_out_PID
 1654              		.global	ctrl_in_trim
 1655              		.global	ctrl_out
 1656              		.global	ctrl_in
 1657              		.global	PPM_channel
 1658              		.global	sample_time
 1659              		.global	blink_cnt
 1660              		.global	task_flag
 1661              		.section	.rodata.str1.1,"aMS",%progbits,1
 1662              	.LC0:
 1663 0000 256400   		.ascii	"%d\000"
 1664              	.LC4:
 1665 0003 43616C20 		.ascii	"Cal Compl\015\012\000"
 1665      436F6D70 
 1665      6C0D0A00 
 1666              	.LC9:
 1667 000f 43757272 		.ascii	"Current QFE: \000"
ARM GAS  C:\Users\Sven\AppData\Local\Temp\cc5mu159.s 			page 48


 1667      656E7420 
 1667      5146453A 
 1667      2000
 1668              	.LC11:
 1669 001d 0D0A00   		.ascii	"\015\012\000"
 1670              	.LC13:
 1671 0020 496E6974 		.ascii	"Init Complete\015\012\000"
 1671      20436F6D 
 1671      706C6574 
 1671      650D0A00 
 1672              	.LC16:
 1673 0030 41444320 		.ascii	"ADC Calibrated\015\012\000"
 1673      43616C69 
 1673      62726174 
 1673      65640D0A 
 1673      00
 1674              	.LC22:
 1675 0041 3B00     		.ascii	";\000"
 1676              	.LC24:
 1677 0043 3B0D0A00 		.ascii	";\015\012\000"
 1678              	.LC26:
 1679 0047 426F6F74 		.ascii	"Boot\000"
 1679      00
 1680              	.LC28:
 1681 004c 426F6F74 		.ascii	"BootEnabl\015\012\000"
 1681      456E6162 
 1681      6C0D0A00 
 1682              		.data
 1683              		.align	2
 1684              		.set	.LANCHOR0,. + 0
 1685              		.type	speed_offset, %object
 1686              		.size	speed_offset, 2
 1687              	speed_offset:
 1688 0000 AC00     		.short	172
 1689              		.type	flag_LightsEnabled, %object
 1690              		.size	flag_LightsEnabled, 1
 1691              	flag_LightsEnabled:
 1692 0002 01       		.byte	1
 1693 0003 00       		.space	1
 1694              		.type	NavLightBright, %object
 1695              		.size	NavLightBright, 2
 1696              	NavLightBright:
 1697 0004 6400     		.short	100
 1698              		.type	NavLightStep, %object
 1699              		.size	NavLightStep, 2
 1700              	NavLightStep:
 1701 0006 0100     		.short	1
 1702              		.type	sample_time, %object
 1703              		.size	sample_time, 4
 1704              	sample_time:
 1705 0008 0AD7233C 		.word	1008981770
 1706              		.type	ctrl_out, %object
 1707              		.size	ctrl_out, 26
 1708              	ctrl_out:
 1709 000c DC05     		.short	1500
 1710 000e DC05     		.short	1500
 1711 0010 DC05     		.short	1500
ARM GAS  C:\Users\Sven\AppData\Local\Temp\cc5mu159.s 			page 49


 1712 0012 DC05     		.short	1500
 1713 0014 DC05     		.short	1500
 1714 0016 DC05     		.short	1500
 1715 0018 DC05     		.short	1500
 1716 001a DC05     		.short	1500
 1717 001c DC05     		.short	1500
 1718 001e DC05     		.short	1500
 1719 0020 DC05     		.short	1500
 1720 0022 DC05     		.short	1500
 1721 0024 DC05     		.short	1500
 1722              		.type	K_d_p, %object
 1723              		.size	K_d_p, 1
 1724              	K_d_p:
 1725 0026 01       		.byte	1
 1726              		.type	K_d_q, %object
 1727              		.size	K_d_q, 1
 1728              	K_d_q:
 1729 0027 02       		.byte	2
 1730              		.type	K_d_r, %object
 1731              		.size	K_d_r, 1
 1732              	K_d_r:
 1733 0028 03       		.byte	3
 1734 0029 00       		.space	1
 1735              		.type	ctrl_in_trim, %object
 1736              		.size	ctrl_in_trim, 10
 1737              	ctrl_in_trim:
 1738 002a DC05     		.short	1500
 1739 002c DC05     		.short	1500
 1740 002e DC05     		.short	1500
 1741 0030 DC05     		.short	1500
 1742 0032 DC05     		.short	1500
 1743              		.type	system_state, %object
 1744              		.size	system_state, 1
 1745              	system_state:
 1746 0034 03       		.byte	3
 1747              		.type	system_type, %object
 1748              		.size	system_type, 1
 1749              	system_type:
 1750 0035 01       		.byte	1
 1751 0036 0000     		.space	2
 1752              		.type	R_angle, %object
 1753              		.size	R_angle, 4
 1754              	R_angle:
 1755 0038 0AD7A33C 		.word	1017370378
 1756              		.type	Q_gyro, %object
 1757              		.size	Q_gyro, 4
 1758              	Q_gyro:
 1759 003c 0AD7A33B 		.word	1000593162
 1760              		.type	Q_angle, %object
 1761              		.size	Q_angle, 4
 1762              	Q_angle:
 1763 0040 0AD7A33B 		.word	1000593162
 1764              		.bss
 1765              		.align	2
 1766              		.set	.LANCHOR1,. + 0
 1767              		.type	cal_cnt, %object
 1768              		.size	cal_cnt, 1
ARM GAS  C:\Users\Sven\AppData\Local\Temp\cc5mu159.s 			page 50


 1769              	cal_cnt:
 1770 0000 00       		.space	1
 1771 0001 00       		.space	1
 1772              		.type	speed, %object
 1773              		.size	speed, 2
 1774              	speed:
 1775 0002 0000     		.space	2
 1776              		.type	temp, %object
 1777              		.size	temp, 4
 1778              	temp:
 1779 0004 00000000 		.space	4
 1780              		.type	QFE, %object
 1781              		.size	QFE, 4
 1782              	QFE:
 1783 0008 00000000 		.space	4
 1784              		.type	task_flag, %object
 1785              		.size	task_flag, 1
 1786              	task_flag:
 1787 000c 00       		.space	1
 1788 000d 00       		.space	1
 1789              		.type	NavLightCompare, %object
 1790              		.size	NavLightCompare, 2
 1791              	NavLightCompare:
 1792 000e 0000     		.space	2
 1793              		.type	flag_NavLightPulse, %object
 1794              		.size	flag_NavLightPulse, 1
 1795              	flag_NavLightPulse:
 1796 0010 00       		.space	1
 1797 0011 00       		.space	1
 1798              		.type	NavLightDim, %object
 1799              		.size	NavLightDim, 2
 1800              	NavLightDim:
 1801 0012 0000     		.space	2
 1802              		.type	cnt_StrobeLight, %object
 1803              		.size	cnt_StrobeLight, 1
 1804              	cnt_StrobeLight:
 1805 0014 00       		.space	1
 1806 0015 00       		.space	1
 1807              		.type	ctrl_in, %object
 1808              		.size	ctrl_in, 16
 1809              	ctrl_in:
 1810 0016 00000000 		.space	16
 1810      00000000 
 1810      00000000 
 1810      00000000 
 1811              		.type	cnt_baro, %object
 1812              		.size	cnt_baro, 1
 1813              	cnt_baro:
 1814 0026 00       		.space	1
 1815 0027 00       		.space	1
 1816              		.type	press, %object
 1817              		.size	press, 4
 1818              	press:
 1819 0028 00000000 		.space	4
 1820              		.type	alt, %object
 1821              		.size	alt, 4
 1822              	alt:
ARM GAS  C:\Users\Sven\AppData\Local\Temp\cc5mu159.s 			page 51


 1823 002c 00000000 		.space	4
 1824              		.type	speed_cal_compl, %object
 1825              		.size	speed_cal_compl, 1
 1826              	speed_cal_compl:
 1827 0030 00       		.space	1
 1828 0031 00       		.space	1
 1829              		.type	acc_x_g, %object
 1830              		.size	acc_x_g, 2
 1831              	acc_x_g:
 1832 0032 0000     		.space	2
 1833              		.type	acc_z_g, %object
 1834              		.size	acc_z_g, 2
 1835              	acc_z_g:
 1836 0034 0000     		.space	2
 1837 0036 0000     		.space	2
 1838              		.type	Theta_acc, %object
 1839              		.size	Theta_acc, 4
 1840              	Theta_acc:
 1841 0038 00000000 		.space	4
 1842              		.type	acc_y_g, %object
 1843              		.size	acc_y_g, 2
 1844              	acc_y_g:
 1845 003c 0000     		.space	2
 1846 003e 0000     		.space	2
 1847              		.type	Phi_acc, %object
 1848              		.size	Phi_acc, 4
 1849              	Phi_acc:
 1850 0040 00000000 		.space	4
 1851              		.type	turn_rate_q, %object
 1852              		.size	turn_rate_q, 2
 1853              	turn_rate_q:
 1854 0044 0000     		.space	2
 1855              		.type	turn_rate_p, %object
 1856              		.size	turn_rate_p, 2
 1857              	turn_rate_p:
 1858 0046 0000     		.space	2
 1859              		.type	Ctrl_Mode, %object
 1860              		.size	Ctrl_Mode, 1
 1861              	Ctrl_Mode:
 1862 0048 00       		.space	1
 1863              		.type	tune_cnt, %object
 1864              		.size	tune_cnt, 1
 1865              	tune_cnt:
 1866 0049 00       		.space	1
 1867              		.type	turn_rate_r, %object
 1868              		.size	turn_rate_r, 2
 1869              	turn_rate_r:
 1870 004a 0000     		.space	2
 1871              		.type	Theta_Error, %object
 1872              		.size	Theta_Error, 1
 1873              	Theta_Error:
 1874 004c 00       		.space	1
 1875 004d 000000   		.space	3
 1876              		.type	Theta_Error_sum, %object
 1877              		.size	Theta_Error_sum, 4
 1878              	Theta_Error_sum:
 1879 0050 00000000 		.space	4
ARM GAS  C:\Users\Sven\AppData\Local\Temp\cc5mu159.s 			page 52


 1880              		.type	Theta_Target, %object
 1881              		.size	Theta_Target, 1
 1882              	Theta_Target:
 1883 0054 00       		.space	1
 1884              		.type	Phi_Error, %object
 1885              		.size	Phi_Error, 1
 1886              	Phi_Error:
 1887 0055 00       		.space	1
 1888 0056 0000     		.space	2
 1889              		.type	Phi_Error_sum, %object
 1890              		.size	Phi_Error_sum, 4
 1891              	Phi_Error_sum:
 1892 0058 00000000 		.space	4
 1893              		.type	Phi_Target, %object
 1894              		.size	Phi_Target, 1
 1895              	Phi_Target:
 1896 005c 00       		.space	1
 1897              		.type	Theta_Error_prev, %object
 1898              		.size	Theta_Error_prev, 1
 1899              	Theta_Error_prev:
 1900 005d 00       		.space	1
 1901              		.type	ctrl_out_PID, %object
 1902              		.size	ctrl_out_PID, 10
 1903              	ctrl_out_PID:
 1904 005e 00000000 		.space	10
 1904      00000000 
 1904      0000
 1905              		.type	ctrl_out_DAMP, %object
 1906              		.size	ctrl_out_DAMP, 10
 1907              	ctrl_out_DAMP:
 1908 0068 00000000 		.space	10
 1908      00000000 
 1908      0000
 1909              		.type	Phi_Error_prev, %object
 1910              		.size	Phi_Error_prev, 1
 1911              	Phi_Error_prev:
 1912 0072 00       		.space	1
 1913              		.type	Rx_flag, %object
 1914              		.size	Rx_flag, 1
 1915              	Rx_flag:
 1916 0073 00       		.space	1
 1917              		.type	Rx_String, %object
 1918              		.size	Rx_String, 10
 1919              	Rx_String:
 1920 0074 00000000 		.space	10
 1920      00000000 
 1920      0000
 1921              		.type	Rx_char, %object
 1922              		.size	Rx_char, 1
 1923              	Rx_char:
 1924 007e 00       		.space	1
 1925              		.type	Rx_index, %object
 1926              		.size	Rx_index, 1
 1927              	Rx_index:
 1928 007f 00       		.space	1
 1929              		.type	cnt_ML_ATTITUDE_send, %object
 1930              		.size	cnt_ML_ATTITUDE_send, 1
ARM GAS  C:\Users\Sven\AppData\Local\Temp\cc5mu159.s 			page 53


 1931              	cnt_ML_ATTITUDE_send:
 1932 0080 00       		.space	1
 1933              		.type	cnt_ML_HEARTBEAT_send, %object
 1934              		.size	cnt_ML_HEARTBEAT_send, 1
 1935              	cnt_ML_HEARTBEAT_send:
 1936 0081 00       		.space	1
 1937 0082 0000     		.space	2
 1938              		.type	custom_mode, %object
 1939              		.size	custom_mode, 4
 1940              	custom_mode:
 1941 0084 00000000 		.space	4
 1942              		.type	system_mode, %object
 1943              		.size	system_mode, 1
 1944              	system_mode:
 1945 0088 00       		.space	1
 1946              		.type	autopilot_type, %object
 1947              		.size	autopilot_type, 1
 1948              	autopilot_type:
 1949 0089 00       		.space	1
 1950 008a 0000     		.space	2
 1951              		.type	K_1_Phi, %object
 1952              		.size	K_1_Phi, 4
 1953              	K_1_Phi:
 1954 008c 00000000 		.space	4
 1955              		.type	P_Phi, %object
 1956              		.size	P_Phi, 16
 1957              	P_Phi:
 1958 0090 00000000 		.space	16
 1958      00000000 
 1958      00000000 
 1958      00000000 
 1959              		.type	p_bias, %object
 1960              		.size	p_bias, 4
 1961              	p_bias:
 1962 00a0 00000000 		.space	4
 1963              		.type	K_1_Theta, %object
 1964              		.size	K_1_Theta, 4
 1965              	K_1_Theta:
 1966 00a4 00000000 		.space	4
 1967              		.type	P_Theta, %object
 1968              		.size	P_Theta, 16
 1969              	P_Theta:
 1970 00a8 00000000 		.space	16
 1970      00000000 
 1970      00000000 
 1970      00000000 
 1971              		.type	q_bias, %object
 1972              		.size	q_bias, 4
 1973              	q_bias:
 1974 00b8 00000000 		.space	4
 1975              		.type	Bar_press, %object
 1976              		.size	Bar_press, 4
 1977              	Bar_press:
 1978 00bc 00000000 		.space	4
 1979              		.type	Mag_y, %object
 1980              		.size	Mag_y, 4
 1981              	Mag_y:
ARM GAS  C:\Users\Sven\AppData\Local\Temp\cc5mu159.s 			page 54


 1982 00c0 00000000 		.space	4
 1983              		.type	Mag_Heading, %object
 1984              		.size	Mag_Heading, 4
 1985              	Mag_Heading:
 1986 00c4 00000000 		.space	4
 1987              		.type	Psi_acc, %object
 1988              		.size	Psi_acc, 4
 1989              	Psi_acc:
 1990 00c8 00000000 		.space	4
 1991              		.type	mag_z_g, %object
 1992              		.size	mag_z_g, 2
 1993              	mag_z_g:
 1994 00cc 0000     		.space	2
 1995              		.type	mag_y_g, %object
 1996              		.size	mag_y_g, 2
 1997              	mag_y_g:
 1998 00ce 0000     		.space	2
 1999              		.type	mag_x_g, %object
 2000              		.size	mag_x_g, 2
 2001              	mag_x_g:
 2002 00d0 0000     		.space	2
 2003              		.type	PPM_channel, %object
 2004              		.size	PPM_channel, 1
 2005              	PPM_channel:
 2006 00d2 00       		.space	1
 2007              		.type	blink_cnt, %object
 2008              		.size	blink_cnt, 1
 2009              	blink_cnt:
 2010 00d3 00       		.space	1
 2011              		.text
 2012              	.Letext0:
 2013              		.file 2 "e:\\program files (x86)\\cypress\\psoc creator\\3.1\\psoc creator\\import\\gnu_cs\\arm\\4
 2014              		.file 3 "e:\\program files (x86)\\cypress\\psoc creator\\3.1\\psoc creator\\import\\gnu_cs\\arm\\4
 2015              		.file 4 ".\\Generated_Source\\PSoC4/cytypes.h"
 2016              		.file 5 ".\\MAVLINK\\common/../mavlink_types.h"
 2017              		.file 6 ".\\MAVLINK\\common/common.h"
 2018              		.file 7 ".\\Generated_Source\\PSoC4/UART_1_SPI_UART.h"
 2019              		.file 8 "e:\\program files (x86)\\cypress\\psoc creator\\3.1\\psoc creator\\import\\gnu_cs\\arm\\4
 2020              		.file 9 ".\\Generated_Source\\PSoC4/ADC.h"
 2021              		.file 10 ".\\Generated_Source\\PSoC4/NavLightPWM.h"
 2022              		.file 11 ".\\Generated_Source\\PSoC4/Strobes.h"
 2023              		.file 12 ".\\Generated_Source\\PSoC4/Ldg.h"
 2024              		.file 13 "./IMU.h"
 2025              		.file 14 "./Baro.h"
 2026              		.file 15 "e:\\program files (x86)\\cypress\\psoc creator\\3.1\\psoc creator\\import\\gnu_cs\\arm\\
 2027              		.file 16 "e:\\program files (x86)\\cypress\\psoc creator\\3.1\\psoc creator\\import\\gnu_cs\\arm\\
 2028              		.file 17 ".\\Generated_Source\\PSoC4/CyLib.h"
 2029              		.file 18 ".\\Generated_Source\\PSoC4/Bootloadable_1.h"
 2030              		.file 19 ".\\Generated_Source\\PSoC4/UART_1.h"
 2031              		.file 20 ".\\Generated_Source\\PSoC4/I2CM.h"
 2032              		.file 21 ".\\Generated_Source\\PSoC4/TaskTimer.h"
 2033              		.file 22 ".\\Generated_Source\\PSoC4/PPMCounter.h"
 2034              		.file 23 ".\\Generated_Source\\PSoC4/ServoTimer.h"
 2035              		.file 24 ".\\Generated_Source\\PSoC4/PPMISR.h"
 2036              		.file 25 ".\\Generated_Source\\PSoC4/PPMRstISR.h"
 2037              		.file 26 ".\\Generated_Source\\PSoC4/ServoISR.h"
 2038              		.file 27 ".\\Generated_Source\\PSoC4/TaskISR.h"
ARM GAS  C:\Users\Sven\AppData\Local\Temp\cc5mu159.s 			page 55


 2039              		.file 28 ".\\Generated_Source\\PSoC4/BootISR.h"
 2040              		.section	.debug_info,"",%progbits
 2041              	.Ldebug_info0:
 2042 0000 9E130000 		.4byte	0x139e
 2043 0004 0400     		.2byte	0x4
 2044 0006 00000000 		.4byte	.Ldebug_abbrev0
 2045 000a 04       		.byte	0x4
 2046 000b 01       		.uleb128 0x1
 2047 000c A4030000 		.4byte	.LASF275
 2048 0010 01       		.byte	0x1
 2049 0011 BF0F0000 		.4byte	.LASF276
 2050 0015 4B080000 		.4byte	.LASF277
 2051 0019 00000000 		.4byte	.Ldebug_ranges0+0
 2052 001d 00000000 		.4byte	0
 2053 0021 00000000 		.4byte	.Ldebug_line0
 2054 0025 02       		.uleb128 0x2
 2055 0026 08       		.byte	0x8
 2056 0027 04       		.byte	0x4
 2057 0028 CF040000 		.4byte	.LASF0
 2058 002c 03       		.uleb128 0x3
 2059 002d B10B0000 		.4byte	.LASF2
 2060 0031 02       		.byte	0x2
 2061 0032 1B       		.byte	0x1b
 2062 0033 37000000 		.4byte	0x37
 2063 0037 02       		.uleb128 0x2
 2064 0038 01       		.byte	0x1
 2065 0039 06       		.byte	0x6
 2066 003a 7E020000 		.4byte	.LASF1
 2067 003e 03       		.uleb128 0x3
 2068 003f 240B0000 		.4byte	.LASF3
 2069 0043 02       		.byte	0x2
 2070 0044 1C       		.byte	0x1c
 2071 0045 49000000 		.4byte	0x49
 2072 0049 02       		.uleb128 0x2
 2073 004a 01       		.byte	0x1
 2074 004b 08       		.byte	0x8
 2075 004c B30C0000 		.4byte	.LASF4
 2076 0050 03       		.uleb128 0x3
 2077 0051 4D070000 		.4byte	.LASF5
 2078 0055 02       		.byte	0x2
 2079 0056 25       		.byte	0x25
 2080 0057 5B000000 		.4byte	0x5b
 2081 005b 02       		.uleb128 0x2
 2082 005c 02       		.byte	0x2
 2083 005d 05       		.byte	0x5
 2084 005e 2E0A0000 		.4byte	.LASF6
 2085 0062 03       		.uleb128 0x3
 2086 0063 5A040000 		.4byte	.LASF7
 2087 0067 02       		.byte	0x2
 2088 0068 26       		.byte	0x26
 2089 0069 6D000000 		.4byte	0x6d
 2090 006d 02       		.uleb128 0x2
 2091 006e 02       		.byte	0x2
 2092 006f 07       		.byte	0x7
 2093 0070 450E0000 		.4byte	.LASF8
 2094 0074 03       		.uleb128 0x3
 2095 0075 3D010000 		.4byte	.LASF9
ARM GAS  C:\Users\Sven\AppData\Local\Temp\cc5mu159.s 			page 56


 2096 0079 02       		.byte	0x2
 2097 007a 37       		.byte	0x37
 2098 007b 7F000000 		.4byte	0x7f
 2099 007f 02       		.uleb128 0x2
 2100 0080 04       		.byte	0x4
 2101 0081 05       		.byte	0x5
 2102 0082 5B0A0000 		.4byte	.LASF10
 2103 0086 03       		.uleb128 0x3
 2104 0087 C10C0000 		.4byte	.LASF11
 2105 008b 02       		.byte	0x2
 2106 008c 38       		.byte	0x38
 2107 008d 91000000 		.4byte	0x91
 2108 0091 02       		.uleb128 0x2
 2109 0092 04       		.byte	0x4
 2110 0093 07       		.byte	0x7
 2111 0094 180C0000 		.4byte	.LASF12
 2112 0098 02       		.uleb128 0x2
 2113 0099 08       		.byte	0x8
 2114 009a 05       		.byte	0x5
 2115 009b 5B050000 		.4byte	.LASF13
 2116 009f 03       		.uleb128 0x3
 2117 00a0 0E050000 		.4byte	.LASF14
 2118 00a4 02       		.byte	0x2
 2119 00a5 4E       		.byte	0x4e
 2120 00a6 AA000000 		.4byte	0xaa
 2121 00aa 02       		.uleb128 0x2
 2122 00ab 08       		.byte	0x8
 2123 00ac 07       		.byte	0x7
 2124 00ad 7D030000 		.4byte	.LASF15
 2125 00b1 04       		.uleb128 0x4
 2126 00b2 04       		.byte	0x4
 2127 00b3 05       		.byte	0x5
 2128 00b4 696E7400 		.ascii	"int\000"
 2129 00b8 02       		.uleb128 0x2
 2130 00b9 04       		.byte	0x4
 2131 00ba 07       		.byte	0x7
 2132 00bb FD050000 		.4byte	.LASF16
 2133 00bf 03       		.uleb128 0x3
 2134 00c0 9C020000 		.4byte	.LASF17
 2135 00c4 03       		.byte	0x3
 2136 00c5 29       		.byte	0x29
 2137 00c6 2C000000 		.4byte	0x2c
 2138 00ca 03       		.uleb128 0x3
 2139 00cb 31060000 		.4byte	.LASF18
 2140 00cf 03       		.byte	0x3
 2141 00d0 2A       		.byte	0x2a
 2142 00d1 3E000000 		.4byte	0x3e
 2143 00d5 03       		.uleb128 0x3
 2144 00d6 44030000 		.4byte	.LASF19
 2145 00da 03       		.byte	0x3
 2146 00db 35       		.byte	0x35
 2147 00dc 50000000 		.4byte	0x50
 2148 00e0 03       		.uleb128 0x3
 2149 00e1 86090000 		.4byte	.LASF20
 2150 00e5 03       		.byte	0x3
 2151 00e6 36       		.byte	0x36
 2152 00e7 62000000 		.4byte	0x62
ARM GAS  C:\Users\Sven\AppData\Local\Temp\cc5mu159.s 			page 57


 2153 00eb 03       		.uleb128 0x3
 2154 00ec 510C0000 		.4byte	.LASF21
 2155 00f0 03       		.byte	0x3
 2156 00f1 41       		.byte	0x41
 2157 00f2 74000000 		.4byte	0x74
 2158 00f6 03       		.uleb128 0x3
 2159 00f7 93020000 		.4byte	.LASF22
 2160 00fb 03       		.byte	0x3
 2161 00fc 42       		.byte	0x42
 2162 00fd 86000000 		.4byte	0x86
 2163 0101 03       		.uleb128 0x3
 2164 0102 CE0A0000 		.4byte	.LASF23
 2165 0106 03       		.byte	0x3
 2166 0107 4E       		.byte	0x4e
 2167 0108 9F000000 		.4byte	0x9f
 2168 010c 03       		.uleb128 0x3
 2169 010d C50E0000 		.4byte	.LASF24
 2170 0111 04       		.byte	0x4
 2171 0112 A1       		.byte	0xa1
 2172 0113 49000000 		.4byte	0x49
 2173 0117 03       		.uleb128 0x3
 2174 0118 21080000 		.4byte	.LASF25
 2175 011c 04       		.byte	0x4
 2176 011d A3       		.byte	0xa3
 2177 011e 91000000 		.4byte	0x91
 2178 0122 03       		.uleb128 0x3
 2179 0123 47010000 		.4byte	.LASF26
 2180 0127 04       		.byte	0x4
 2181 0128 A5       		.byte	0xa5
 2182 0129 5B000000 		.4byte	0x5b
 2183 012d 02       		.uleb128 0x2
 2184 012e 04       		.byte	0x4
 2185 012f 04       		.byte	0x4
 2186 0130 04030000 		.4byte	.LASF27
 2187 0134 03       		.uleb128 0x3
 2188 0135 74060000 		.4byte	.LASF28
 2189 0139 04       		.byte	0x4
 2190 013a B2       		.byte	0xb2
 2191 013b 3F010000 		.4byte	0x13f
 2192 013f 02       		.uleb128 0x2
 2193 0140 01       		.byte	0x1
 2194 0141 08       		.byte	0x8
 2195 0142 89050000 		.4byte	.LASF29
 2196 0146 02       		.uleb128 0x2
 2197 0147 04       		.byte	0x4
 2198 0148 07       		.byte	0x7
 2199 0149 0F0C0000 		.4byte	.LASF30
 2200 014d 05       		.uleb128 0x5
 2201 014e 04       		.byte	0x4
 2202 014f 3F010000 		.4byte	0x13f
 2203 0153 05       		.uleb128 0x5
 2204 0154 04       		.byte	0x4
 2205 0155 59010000 		.4byte	0x159
 2206 0159 06       		.uleb128 0x6
 2207 015a 3F010000 		.4byte	0x13f
 2208 015e 02       		.uleb128 0x2
 2209 015f 08       		.byte	0x8
ARM GAS  C:\Users\Sven\AppData\Local\Temp\cc5mu159.s 			page 58


 2210 0160 04       		.byte	0x4
 2211 0161 FF070000 		.4byte	.LASF31
 2212 0165 07       		.uleb128 0x7
 2213 0166 15070000 		.4byte	.LASF35
 2214 016a 02       		.byte	0x2
 2215 016b 05       		.byte	0x5
 2216 016c 6A       		.byte	0x6a
 2217 016d 8A010000 		.4byte	0x18a
 2218 0171 08       		.uleb128 0x8
 2219 0172 66020000 		.4byte	.LASF32
 2220 0176 05       		.byte	0x5
 2221 0177 6A       		.byte	0x6a
 2222 0178 CA000000 		.4byte	0xca
 2223 017c 00       		.byte	0
 2224 017d 08       		.uleb128 0x8
 2225 017e 6D000000 		.4byte	.LASF33
 2226 0182 05       		.byte	0x5
 2227 0183 6A       		.byte	0x6a
 2228 0184 CA000000 		.4byte	0xca
 2229 0188 01       		.byte	0x1
 2230 0189 00       		.byte	0
 2231 018a 03       		.uleb128 0x3
 2232 018b 46090000 		.4byte	.LASF34
 2233 018f 05       		.byte	0x5
 2234 0190 6E       		.byte	0x6e
 2235 0191 65010000 		.4byte	0x165
 2236 0195 09       		.uleb128 0x9
 2237 0196 3D0B0000 		.4byte	.LASF36
 2238 019a 1001     		.2byte	0x110
 2239 019c 05       		.byte	0x5
 2240 019d 70       		.byte	0x70
 2241 019e 03020000 		.4byte	0x203
 2242 01a2 08       		.uleb128 0x8
 2243 01a3 0A030000 		.4byte	.LASF37
 2244 01a7 05       		.byte	0x5
 2245 01a8 70       		.byte	0x70
 2246 01a9 E0000000 		.4byte	0xe0
 2247 01ad 00       		.byte	0
 2248 01ae 08       		.uleb128 0x8
 2249 01af AB0B0000 		.4byte	.LASF38
 2250 01b3 05       		.byte	0x5
 2251 01b4 70       		.byte	0x70
 2252 01b5 CA000000 		.4byte	0xca
 2253 01b9 02       		.byte	0x2
 2254 01ba 0A       		.uleb128 0xa
 2255 01bb 6C656E00 		.ascii	"len\000"
 2256 01bf 05       		.byte	0x5
 2257 01c0 70       		.byte	0x70
 2258 01c1 CA000000 		.4byte	0xca
 2259 01c5 03       		.byte	0x3
 2260 01c6 0A       		.uleb128 0xa
 2261 01c7 73657100 		.ascii	"seq\000"
 2262 01cb 05       		.byte	0x5
 2263 01cc 70       		.byte	0x70
 2264 01cd CA000000 		.4byte	0xca
 2265 01d1 04       		.byte	0x4
 2266 01d2 08       		.uleb128 0x8
ARM GAS  C:\Users\Sven\AppData\Local\Temp\cc5mu159.s 			page 59


 2267 01d3 66020000 		.4byte	.LASF32
 2268 01d7 05       		.byte	0x5
 2269 01d8 70       		.byte	0x70
 2270 01d9 CA000000 		.4byte	0xca
 2271 01dd 05       		.byte	0x5
 2272 01de 08       		.uleb128 0x8
 2273 01df 6D000000 		.4byte	.LASF33
 2274 01e3 05       		.byte	0x5
 2275 01e4 70       		.byte	0x70
 2276 01e5 CA000000 		.4byte	0xca
 2277 01e9 06       		.byte	0x6
 2278 01ea 08       		.uleb128 0x8
 2279 01eb 27020000 		.4byte	.LASF39
 2280 01ef 05       		.byte	0x5
 2281 01f0 70       		.byte	0x70
 2282 01f1 CA000000 		.4byte	0xca
 2283 01f5 07       		.byte	0x7
 2284 01f6 08       		.uleb128 0x8
 2285 01f7 EF0A0000 		.4byte	.LASF40
 2286 01fb 05       		.byte	0x5
 2287 01fc 70       		.byte	0x70
 2288 01fd 03020000 		.4byte	0x203
 2289 0201 08       		.byte	0x8
 2290 0202 00       		.byte	0
 2291 0203 0B       		.uleb128 0xb
 2292 0204 01010000 		.4byte	0x101
 2293 0208 13020000 		.4byte	0x213
 2294 020c 0C       		.uleb128 0xc
 2295 020d 46010000 		.4byte	0x146
 2296 0211 20       		.byte	0x20
 2297 0212 00       		.byte	0
 2298 0213 03       		.uleb128 0x3
 2299 0214 32070000 		.4byte	.LASF41
 2300 0218 05       		.byte	0x5
 2301 0219 7A       		.byte	0x7a
 2302 021a 95010000 		.4byte	0x195
 2303 021e 0D       		.uleb128 0xd
 2304 021f 050B0000 		.4byte	.LASF61
 2305 0223 01       		.byte	0x1
 2306 0224 06       		.byte	0x6
 2307 0225 28       		.byte	0x28
 2308 0226 9D020000 		.4byte	0x29d
 2309 022a 0E       		.uleb128 0xe
 2310 022b AA070000 		.4byte	.LASF42
 2311 022f 00       		.sleb128 0
 2312 0230 0E       		.uleb128 0xe
 2313 0231 F8060000 		.4byte	.LASF43
 2314 0235 01       		.sleb128 1
 2315 0236 0E       		.uleb128 0xe
 2316 0237 0A000000 		.4byte	.LASF44
 2317 023b 02       		.sleb128 2
 2318 023c 0E       		.uleb128 0xe
 2319 023d 39060000 		.4byte	.LASF45
 2320 0241 03       		.sleb128 3
 2321 0242 0E       		.uleb128 0xe
 2322 0243 D30B0000 		.4byte	.LASF46
 2323 0247 04       		.sleb128 4
ARM GAS  C:\Users\Sven\AppData\Local\Temp\cc5mu159.s 			page 60


 2324 0248 0E       		.uleb128 0xe
 2325 0249 A6060000 		.4byte	.LASF47
 2326 024d 05       		.sleb128 5
 2327 024e 0E       		.uleb128 0xe
 2328 024f D40E0000 		.4byte	.LASF48
 2329 0253 06       		.sleb128 6
 2330 0254 0E       		.uleb128 0xe
 2331 0255 380A0000 		.4byte	.LASF49
 2332 0259 07       		.sleb128 7
 2333 025a 0E       		.uleb128 0xe
 2334 025b 0B080000 		.4byte	.LASF50
 2335 025f 08       		.sleb128 8
 2336 0260 0E       		.uleb128 0xe
 2337 0261 670F0000 		.4byte	.LASF51
 2338 0265 09       		.sleb128 9
 2339 0266 0E       		.uleb128 0xe
 2340 0267 E2010000 		.4byte	.LASF52
 2341 026b 0A       		.sleb128 10
 2342 026c 0E       		.uleb128 0xe
 2343 026d 8E060000 		.4byte	.LASF53
 2344 0271 0B       		.sleb128 11
 2345 0272 0E       		.uleb128 0xe
 2346 0273 62060000 		.4byte	.LASF54
 2347 0277 0C       		.sleb128 12
 2348 0278 0E       		.uleb128 0xe
 2349 0279 6F050000 		.4byte	.LASF55
 2350 027d 0D       		.sleb128 13
 2351 027e 0E       		.uleb128 0xe
 2352 027f 770D0000 		.4byte	.LASF56
 2353 0283 0E       		.sleb128 14
 2354 0284 0E       		.uleb128 0xe
 2355 0285 3D0F0000 		.4byte	.LASF57
 2356 0289 0F       		.sleb128 15
 2357 028a 0E       		.uleb128 0xe
 2358 028b DD070000 		.4byte	.LASF58
 2359 028f 10       		.sleb128 16
 2360 0290 0E       		.uleb128 0xe
 2361 0291 E1020000 		.4byte	.LASF59
 2362 0295 11       		.sleb128 17
 2363 0296 0E       		.uleb128 0xe
 2364 0297 4C030000 		.4byte	.LASF60
 2365 029b 12       		.sleb128 18
 2366 029c 00       		.byte	0
 2367 029d 0D       		.uleb128 0xd
 2368 029e 640A0000 		.4byte	.LASF62
 2369 02a2 01       		.byte	0x1
 2370 02a3 06       		.byte	0x6
 2371 02a4 43       		.byte	0x43
 2372 02a5 52030000 		.4byte	0x352
 2373 02a9 0E       		.uleb128 0xe
 2374 02aa 10060000 		.4byte	.LASF63
 2375 02ae 00       		.sleb128 0
 2376 02af 0E       		.uleb128 0xe
 2377 02b0 6D070000 		.4byte	.LASF64
 2378 02b4 01       		.sleb128 1
 2379 02b5 0E       		.uleb128 0xe
 2380 02b6 53020000 		.4byte	.LASF65
ARM GAS  C:\Users\Sven\AppData\Local\Temp\cc5mu159.s 			page 61


 2381 02ba 02       		.sleb128 2
 2382 02bb 0E       		.uleb128 0xe
 2383 02bc 1D0A0000 		.4byte	.LASF66
 2384 02c0 03       		.sleb128 3
 2385 02c1 0E       		.uleb128 0xe
 2386 02c2 E4060000 		.4byte	.LASF67
 2387 02c6 04       		.sleb128 4
 2388 02c7 0E       		.uleb128 0xe
 2389 02c8 D10D0000 		.4byte	.LASF68
 2390 02cc 05       		.sleb128 5
 2391 02cd 0E       		.uleb128 0xe
 2392 02ce DF080000 		.4byte	.LASF69
 2393 02d2 06       		.sleb128 6
 2394 02d3 0E       		.uleb128 0xe
 2395 02d4 63030000 		.4byte	.LASF70
 2396 02d8 07       		.sleb128 7
 2397 02d9 0E       		.uleb128 0xe
 2398 02da 43000000 		.4byte	.LASF71
 2399 02de 08       		.sleb128 8
 2400 02df 0E       		.uleb128 0xe
 2401 02e0 620B0000 		.4byte	.LASF72
 2402 02e4 09       		.sleb128 9
 2403 02e5 0E       		.uleb128 0xe
 2404 02e6 3B040000 		.4byte	.LASF73
 2405 02ea 0A       		.sleb128 10
 2406 02eb 0E       		.uleb128 0xe
 2407 02ec 10090000 		.4byte	.LASF74
 2408 02f0 0B       		.sleb128 11
 2409 02f1 0E       		.uleb128 0xe
 2410 02f2 540F0000 		.4byte	.LASF75
 2411 02f6 0C       		.sleb128 12
 2412 02f7 0E       		.uleb128 0xe
 2413 02f8 7F0B0000 		.4byte	.LASF76
 2414 02fc 0D       		.sleb128 13
 2415 02fd 0E       		.uleb128 0xe
 2416 02fe 79040000 		.4byte	.LASF77
 2417 0302 0E       		.sleb128 14
 2418 0303 0E       		.uleb128 0xe
 2419 0304 EA050000 		.4byte	.LASF78
 2420 0308 0F       		.sleb128 15
 2421 0309 0E       		.uleb128 0xe
 2422 030a AA040000 		.4byte	.LASF79
 2423 030e 10       		.sleb128 16
 2424 030f 0E       		.uleb128 0xe
 2425 0310 A4050000 		.4byte	.LASF80
 2426 0314 11       		.sleb128 17
 2427 0315 0E       		.uleb128 0xe
 2428 0316 800A0000 		.4byte	.LASF81
 2429 031a 12       		.sleb128 18
 2430 031b 0E       		.uleb128 0xe
 2431 031c A3020000 		.4byte	.LASF82
 2432 0320 13       		.sleb128 19
 2433 0321 0E       		.uleb128 0xe
 2434 0322 6F010000 		.4byte	.LASF83
 2435 0326 14       		.sleb128 20
 2436 0327 0E       		.uleb128 0xe
 2437 0328 590C0000 		.4byte	.LASF84
ARM GAS  C:\Users\Sven\AppData\Local\Temp\cc5mu159.s 			page 62


 2438 032c 15       		.sleb128 21
 2439 032d 0E       		.uleb128 0xe
 2440 032e 8F090000 		.4byte	.LASF85
 2441 0332 16       		.sleb128 22
 2442 0333 0E       		.uleb128 0xe
 2443 0334 A7090000 		.4byte	.LASF86
 2444 0338 17       		.sleb128 23
 2445 0339 0E       		.uleb128 0xe
 2446 033a BF090000 		.4byte	.LASF87
 2447 033e 18       		.sleb128 24
 2448 033f 0E       		.uleb128 0xe
 2449 0340 13030000 		.4byte	.LASF88
 2450 0344 19       		.sleb128 25
 2451 0345 0E       		.uleb128 0xe
 2452 0346 B8000000 		.4byte	.LASF89
 2453 034a 1A       		.sleb128 26
 2454 034b 0E       		.uleb128 0xe
 2455 034c A9080000 		.4byte	.LASF90
 2456 0350 1B       		.sleb128 27
 2457 0351 00       		.byte	0
 2458 0352 0D       		.uleb128 0xd
 2459 0353 EA0D0000 		.4byte	.LASF91
 2460 0357 01       		.byte	0x1
 2461 0358 06       		.byte	0x6
 2462 0359 97       		.byte	0x97
 2463 035a B2030000 		.4byte	0x3b2
 2464 035e 0E       		.uleb128 0xe
 2465 035f FB040000 		.4byte	.LASF92
 2466 0363 00       		.sleb128 0
 2467 0364 0E       		.uleb128 0xe
 2468 0365 1B0E0000 		.4byte	.LASF93
 2469 0369 C000     		.sleb128 64
 2470 036b 0E       		.uleb128 0xe
 2471 036c 97000000 		.4byte	.LASF94
 2472 0370 C200     		.sleb128 66
 2473 0372 0E       		.uleb128 0xe
 2474 0373 BA020000 		.4byte	.LASF95
 2475 0377 D000     		.sleb128 80
 2476 0379 0E       		.uleb128 0xe
 2477 037a 760E0000 		.4byte	.LASF96
 2478 037e D800     		.sleb128 88
 2479 0380 0E       		.uleb128 0xe
 2480 0381 8F0E0000 		.4byte	.LASF97
 2481 0385 DC00     		.sleb128 92
 2482 0387 0E       		.uleb128 0xe
 2483 0388 2C050000 		.4byte	.LASF98
 2484 038c C001     		.sleb128 192
 2485 038e 0E       		.uleb128 0xe
 2486 038f 1C0D0000 		.4byte	.LASF99
 2487 0393 C201     		.sleb128 194
 2488 0395 0E       		.uleb128 0xe
 2489 0396 14010000 		.4byte	.LASF100
 2490 039a D001     		.sleb128 208
 2491 039c 0E       		.uleb128 0xe
 2492 039d 9C0A0000 		.4byte	.LASF101
 2493 03a1 D801     		.sleb128 216
 2494 03a3 0E       		.uleb128 0xe
ARM GAS  C:\Users\Sven\AppData\Local\Temp\cc5mu159.s 			page 63


 2495 03a4 37080000 		.4byte	.LASF102
 2496 03a8 DC01     		.sleb128 220
 2497 03aa 0E       		.uleb128 0xe
 2498 03ab 870C0000 		.4byte	.LASF103
 2499 03af DD01     		.sleb128 221
 2500 03b1 00       		.byte	0
 2501 03b2 0D       		.uleb128 0xd
 2502 03b3 43020000 		.4byte	.LASF104
 2503 03b7 01       		.byte	0x1
 2504 03b8 06       		.byte	0x6
 2505 03b9 AB       		.byte	0xab
 2506 03ba F5030000 		.4byte	0x3f5
 2507 03be 0E       		.uleb128 0xe
 2508 03bf F4010000 		.4byte	.LASF105
 2509 03c3 00       		.sleb128 0
 2510 03c4 0E       		.uleb128 0xe
 2511 03c5 DB050000 		.4byte	.LASF106
 2512 03c9 01       		.sleb128 1
 2513 03ca 0E       		.uleb128 0xe
 2514 03cb 98010000 		.4byte	.LASF107
 2515 03cf 02       		.sleb128 2
 2516 03d0 0E       		.uleb128 0xe
 2517 03d1 0F0F0000 		.4byte	.LASF108
 2518 03d5 03       		.sleb128 3
 2519 03d6 0E       		.uleb128 0xe
 2520 03d7 74000000 		.4byte	.LASF109
 2521 03db 04       		.sleb128 4
 2522 03dc 0E       		.uleb128 0xe
 2523 03dd 9E0D0000 		.4byte	.LASF110
 2524 03e1 05       		.sleb128 5
 2525 03e2 0E       		.uleb128 0xe
 2526 03e3 95080000 		.4byte	.LASF111
 2527 03e7 06       		.sleb128 6
 2528 03e8 0E       		.uleb128 0xe
 2529 03e9 640D0000 		.4byte	.LASF112
 2530 03ed 07       		.sleb128 7
 2531 03ee 0E       		.uleb128 0xe
 2532 03ef 48050000 		.4byte	.LASF113
 2533 03f3 08       		.sleb128 8
 2534 03f4 00       		.byte	0
 2535 03f5 0B       		.uleb128 0xb
 2536 03f6 3F010000 		.4byte	0x13f
 2537 03fa 05040000 		.4byte	0x405
 2538 03fe 0C       		.uleb128 0xc
 2539 03ff 46010000 		.4byte	0x146
 2540 0403 09       		.byte	0x9
 2541 0404 00       		.byte	0
 2542 0405 0D       		.uleb128 0xd
 2543 0406 26070000 		.4byte	.LASF114
 2544 040a 01       		.byte	0x1
 2545 040b 01       		.byte	0x1
 2546 040c 3B       		.byte	0x3b
 2547 040d 42040000 		.4byte	0x442
 2548 0411 0E       		.uleb128 0xe
 2549 0412 2D020000 		.4byte	.LASF115
 2550 0416 00       		.sleb128 0
 2551 0417 0E       		.uleb128 0xe
ARM GAS  C:\Users\Sven\AppData\Local\Temp\cc5mu159.s 			page 64


 2552 0418 C80F0000 		.4byte	.LASF116
 2553 041c 01       		.sleb128 1
 2554 041d 0E       		.uleb128 0xe
 2555 041e EB0B0000 		.4byte	.LASF117
 2556 0422 02       		.sleb128 2
 2557 0423 0E       		.uleb128 0xe
 2558 0424 2B070000 		.4byte	.LASF118
 2559 0428 03       		.sleb128 3
 2560 0429 0E       		.uleb128 0xe
 2561 042a DC060000 		.4byte	.LASF119
 2562 042e 04       		.sleb128 4
 2563 042f 0E       		.uleb128 0xe
 2564 0430 360B0000 		.4byte	.LASF120
 2565 0434 05       		.sleb128 5
 2566 0435 0E       		.uleb128 0xe
 2567 0436 DB010000 		.4byte	.LASF121
 2568 043a 06       		.sleb128 6
 2569 043b 0E       		.uleb128 0xe
 2570 043c 90070000 		.4byte	.LASF122
 2571 0440 07       		.sleb128 7
 2572 0441 00       		.byte	0
 2573 0442 0D       		.uleb128 0xd
 2574 0443 42050000 		.4byte	.LASF123
 2575 0447 01       		.byte	0x1
 2576 0448 01       		.byte	0x1
 2577 0449 46       		.byte	0x46
 2578 044a 9D040000 		.4byte	0x49d
 2579 044e 0E       		.uleb128 0xe
 2580 044f 6C020000 		.4byte	.LASF124
 2581 0453 00       		.sleb128 0
 2582 0454 0E       		.uleb128 0xe
 2583 0455 090E0000 		.4byte	.LASF125
 2584 0459 01       		.sleb128 1
 2585 045a 0E       		.uleb128 0xe
 2586 045b 120E0000 		.4byte	.LASF126
 2587 045f 02       		.sleb128 2
 2588 0460 0E       		.uleb128 0xe
 2589 0461 CB0E0000 		.4byte	.LASF127
 2590 0465 03       		.sleb128 3
 2591 0466 0E       		.uleb128 0xe
 2592 0467 AF0F0000 		.4byte	.LASF128
 2593 046b 04       		.sleb128 4
 2594 046c 0E       		.uleb128 0xe
 2595 046d CC0C0000 		.4byte	.LASF129
 2596 0471 05       		.sleb128 5
 2597 0472 0E       		.uleb128 0xe
 2598 0473 CB010000 		.4byte	.LASF130
 2599 0477 06       		.sleb128 6
 2600 0478 0E       		.uleb128 0xe
 2601 0479 D3010000 		.4byte	.LASF131
 2602 047d 07       		.sleb128 7
 2603 047e 0E       		.uleb128 0xe
 2604 047f D5000000 		.4byte	.LASF132
 2605 0483 08       		.sleb128 8
 2606 0484 0E       		.uleb128 0xe
 2607 0485 DD000000 		.4byte	.LASF133
 2608 0489 09       		.sleb128 9
ARM GAS  C:\Users\Sven\AppData\Local\Temp\cc5mu159.s 			page 65


 2609 048a 0E       		.uleb128 0xe
 2610 048b E5000000 		.4byte	.LASF134
 2611 048f 0A       		.sleb128 10
 2612 0490 0E       		.uleb128 0xe
 2613 0491 CD070000 		.4byte	.LASF135
 2614 0495 0B       		.sleb128 11
 2615 0496 0E       		.uleb128 0xe
 2616 0497 D5070000 		.4byte	.LASF136
 2617 049b 0C       		.sleb128 12
 2618 049c 00       		.byte	0
 2619 049d 0D       		.uleb128 0xd
 2620 049e 00000000 		.4byte	.LASF137
 2621 04a2 01       		.byte	0x1
 2622 04a3 01       		.byte	0x1
 2623 04a4 5C       		.byte	0x5c
 2624 04a5 C2040000 		.4byte	0x4c2
 2625 04a9 0E       		.uleb128 0xe
 2626 04aa 66000000 		.4byte	.LASF138
 2627 04ae 00       		.sleb128 0
 2628 04af 0E       		.uleb128 0xe
 2629 04b0 C1040000 		.4byte	.LASF139
 2630 04b4 01       		.sleb128 1
 2631 04b5 0E       		.uleb128 0xe
 2632 04b6 940F0000 		.4byte	.LASF140
 2633 04ba 02       		.sleb128 2
 2634 04bb 0E       		.uleb128 0xe
 2635 04bc 1E000000 		.4byte	.LASF141
 2636 04c0 03       		.sleb128 3
 2637 04c1 00       		.byte	0
 2638 04c2 0F       		.uleb128 0xf
 2639 04c3 B10D0000 		.4byte	.LASF142
 2640 04c7 01       		.byte	0x1
 2641 04c8 FB       		.byte	0xfb
 2642 04c9 00000000 		.4byte	.LFB1489
 2643 04cd 1C000000 		.4byte	.LFE1489-.LFB1489
 2644 04d1 01       		.uleb128 0x1
 2645 04d2 9C       		.byte	0x9c
 2646 04d3 27050000 		.4byte	0x527
 2647 04d7 10       		.uleb128 0x10
 2648 04d8 6E756D00 		.ascii	"num\000"
 2649 04dc 01       		.byte	0x1
 2650 04dd FB       		.byte	0xfb
 2651 04de EB000000 		.4byte	0xeb
 2652 04e2 00000000 		.4byte	.LLST0
 2653 04e6 11       		.uleb128 0x11
 2654 04e7 6B00     		.ascii	"k\000"
 2655 04e9 01       		.byte	0x1
 2656 04ea FD       		.byte	0xfd
 2657 04eb 27050000 		.4byte	0x527
 2658 04ef 02       		.uleb128 0x2
 2659 04f0 91       		.byte	0x91
 2660 04f1 58       		.sleb128 -40
 2661 04f2 12       		.uleb128 0x12
 2662 04f3 0E000000 		.4byte	.LVL2
 2663 04f7 C9110000 		.4byte	0x11c9
 2664 04fb 16050000 		.4byte	0x516
 2665 04ff 13       		.uleb128 0x13
ARM GAS  C:\Users\Sven\AppData\Local\Temp\cc5mu159.s 			page 66


 2666 0500 01       		.uleb128 0x1
 2667 0501 52       		.byte	0x52
 2668 0502 03       		.uleb128 0x3
 2669 0503 F3       		.byte	0xf3
 2670 0504 01       		.uleb128 0x1
 2671 0505 50       		.byte	0x50
 2672 0506 13       		.uleb128 0x13
 2673 0507 01       		.uleb128 0x1
 2674 0508 51       		.byte	0x51
 2675 0509 05       		.uleb128 0x5
 2676 050a 03       		.byte	0x3
 2677 050b 00000000 		.4byte	.LC0
 2678 050f 13       		.uleb128 0x13
 2679 0510 01       		.uleb128 0x1
 2680 0511 50       		.byte	0x50
 2681 0512 02       		.uleb128 0x2
 2682 0513 7D       		.byte	0x7d
 2683 0514 00       		.sleb128 0
 2684 0515 00       		.byte	0
 2685 0516 14       		.uleb128 0x14
 2686 0517 14000000 		.4byte	.LVL3
 2687 051b E4110000 		.4byte	0x11e4
 2688 051f 13       		.uleb128 0x13
 2689 0520 01       		.uleb128 0x1
 2690 0521 50       		.byte	0x50
 2691 0522 02       		.uleb128 0x2
 2692 0523 7D       		.byte	0x7d
 2693 0524 00       		.sleb128 0
 2694 0525 00       		.byte	0
 2695 0526 00       		.byte	0
 2696 0527 0B       		.uleb128 0xb
 2697 0528 3F010000 		.4byte	0x13f
 2698 052c 37050000 		.4byte	0x537
 2699 0530 0C       		.uleb128 0xc
 2700 0531 46010000 		.4byte	0x146
 2701 0535 1E       		.byte	0x1e
 2702 0536 00       		.byte	0
 2703 0537 15       		.uleb128 0x15
 2704 0538 A60E0000 		.4byte	.LASF143
 2705 053c 01       		.byte	0x1
 2706 053d 0301     		.2byte	0x103
 2707 053f 00000000 		.4byte	.LFB1490
 2708 0543 20000000 		.4byte	.LFE1490-.LFB1490
 2709 0547 01       		.uleb128 0x1
 2710 0548 9C       		.byte	0x9c
 2711 0549 99050000 		.4byte	0x599
 2712 054d 16       		.uleb128 0x16
 2713 054e 62756600 		.ascii	"buf\000"
 2714 0552 01       		.byte	0x1
 2715 0553 0301     		.2byte	0x103
 2716 0555 99050000 		.4byte	0x599
 2717 0559 2C000000 		.4byte	.LLST1
 2718 055d 16       		.uleb128 0x16
 2719 055e 6C656E00 		.ascii	"len\000"
 2720 0562 01       		.byte	0x1
 2721 0563 0301     		.2byte	0x103
 2722 0565 E0000000 		.4byte	0xe0
ARM GAS  C:\Users\Sven\AppData\Local\Temp\cc5mu159.s 			page 67


 2723 0569 58000000 		.4byte	.LLST2
 2724 056d 17       		.uleb128 0x17
 2725 056e 6900     		.ascii	"i\000"
 2726 0570 01       		.byte	0x1
 2727 0571 0501     		.2byte	0x105
 2728 0573 E0000000 		.4byte	0xe0
 2729 0577 79000000 		.4byte	.LLST3
 2730 057b 12       		.uleb128 0x12
 2731 057c 0C000000 		.4byte	.LVL6
 2732 0580 01120000 		.4byte	0x1201
 2733 0584 8F050000 		.4byte	0x58f
 2734 0588 13       		.uleb128 0x13
 2735 0589 01       		.uleb128 0x1
 2736 058a 50       		.byte	0x50
 2737 058b 02       		.uleb128 0x2
 2738 058c 08       		.byte	0x8
 2739 058d FE       		.byte	0xfe
 2740 058e 00       		.byte	0
 2741 058f 18       		.uleb128 0x18
 2742 0590 1C000000 		.4byte	.LVL10
 2743 0594 01120000 		.4byte	0x1201
 2744 0598 00       		.byte	0
 2745 0599 05       		.uleb128 0x5
 2746 059a 04       		.byte	0x4
 2747 059b CA000000 		.4byte	0xca
 2748 059f 19       		.uleb128 0x19
 2749 05a0 2E000000 		.4byte	.LASF278
 2750 05a4 01       		.byte	0x1
 2751 05a5 0F01     		.2byte	0x10f
 2752 05a7 D5000000 		.4byte	0xd5
 2753 05ab 00000000 		.4byte	.LFB1491
 2754 05af 16000000 		.4byte	.LFE1491-.LFB1491
 2755 05b3 01       		.uleb128 0x1
 2756 05b4 9C       		.byte	0x9c
 2757 05b5 EF050000 		.4byte	0x5ef
 2758 05b9 1A       		.uleb128 0x1a
 2759 05ba 4D020000 		.4byte	.LASF144
 2760 05be 01       		.byte	0x1
 2761 05bf 1201     		.2byte	0x112
 2762 05c1 D5000000 		.4byte	0xd5
 2763 05c5 B0000000 		.4byte	.LLST4
 2764 05c9 18       		.uleb128 0x18
 2765 05ca 06000000 		.4byte	.LVL13
 2766 05ce 13120000 		.4byte	0x1213
 2767 05d2 12       		.uleb128 0x12
 2768 05d3 0C000000 		.4byte	.LVL14
 2769 05d7 1A120000 		.4byte	0x121a
 2770 05db E5050000 		.4byte	0x5e5
 2771 05df 13       		.uleb128 0x13
 2772 05e0 01       		.uleb128 0x1
 2773 05e1 50       		.byte	0x50
 2774 05e2 01       		.uleb128 0x1
 2775 05e3 30       		.byte	0x30
 2776 05e4 00       		.byte	0
 2777 05e5 18       		.uleb128 0x18
 2778 05e6 12000000 		.4byte	.LVL16
 2779 05ea 2F120000 		.4byte	0x122f
ARM GAS  C:\Users\Sven\AppData\Local\Temp\cc5mu159.s 			page 68


 2780 05ee 00       		.byte	0
 2781 05ef 1B       		.uleb128 0x1b
 2782 05f0 57090000 		.4byte	.LASF145
 2783 05f4 01       		.byte	0x1
 2784 05f5 1801     		.2byte	0x118
 2785 05f7 00000000 		.4byte	.LFB1492
 2786 05fb 44000000 		.4byte	.LFE1492-.LFB1492
 2787 05ff 01       		.uleb128 0x1
 2788 0600 9C       		.byte	0x9c
 2789 0601 2B060000 		.4byte	0x62b
 2790 0605 18       		.uleb128 0x18
 2791 0606 16000000 		.4byte	.LVL18
 2792 060a 9F050000 		.4byte	0x59f
 2793 060e 18       		.uleb128 0x18
 2794 060f 30000000 		.4byte	.LVL20
 2795 0613 C2040000 		.4byte	0x4c2
 2796 0617 14       		.uleb128 0x14
 2797 0618 36000000 		.4byte	.LVL21
 2798 061c E4110000 		.4byte	0x11e4
 2799 0620 13       		.uleb128 0x13
 2800 0621 01       		.uleb128 0x1
 2801 0622 50       		.byte	0x50
 2802 0623 05       		.uleb128 0x5
 2803 0624 03       		.byte	0x3
 2804 0625 03000000 		.4byte	.LC4
 2805 0629 00       		.byte	0
 2806 062a 00       		.byte	0
 2807 062b 1C       		.uleb128 0x1c
 2808 062c 710E0000 		.4byte	.LASF146
 2809 0630 01       		.byte	0x1
 2810 0631 2C01     		.2byte	0x12c
 2811 0633 B1000000 		.4byte	0xb1
 2812 0637 00000000 		.4byte	.LFB1493
 2813 063b E8070000 		.4byte	.LFE1493-.LFB1493
 2814 063f 01       		.uleb128 0x1
 2815 0640 9C       		.byte	0x9c
 2816 0641 950B0000 		.4byte	0xb95
 2817 0645 1D       		.uleb128 0x1d
 2818 0646 BA000000 		.4byte	.LBB2
 2819 064a CE060000 		.4byte	.LBE2-.LBB2
 2820 064e F3090000 		.4byte	0x9f3
 2821 0652 1A       		.uleb128 0x1a
 2822 0653 3D000000 		.4byte	.LASF147
 2823 0657 01       		.byte	0x1
 2824 0658 9302     		.2byte	0x293
 2825 065a CA000000 		.4byte	0xca
 2826 065e D9000000 		.4byte	.LLST5
 2827 0662 1D       		.uleb128 0x1d
 2828 0663 60030000 		.4byte	.LBB3
 2829 0667 42030000 		.4byte	.LBE3-.LBB3
 2830 066b 18070000 		.4byte	0x718
 2831 066f 1A       		.uleb128 0x1a
 2832 0670 D70A0000 		.4byte	.LASF148
 2833 0674 01       		.byte	0x1
 2834 0675 9802     		.2byte	0x298
 2835 0677 CA000000 		.4byte	0xca
 2836 067b ED000000 		.4byte	.LLST6
ARM GAS  C:\Users\Sven\AppData\Local\Temp\cc5mu159.s 			page 69


 2837 067f 1A       		.uleb128 0x1a
 2838 0680 C0070000 		.4byte	.LASF149
 2839 0684 01       		.byte	0x1
 2840 0685 9902     		.2byte	0x299
 2841 0687 CA000000 		.4byte	0xca
 2842 068b 04010000 		.4byte	.LLST7
 2843 068f 1A       		.uleb128 0x1a
 2844 0690 A70C0000 		.4byte	.LASF150
 2845 0694 01       		.byte	0x1
 2846 0695 A102     		.2byte	0x2a1
 2847 0697 E0000000 		.4byte	0xe0
 2848 069b F0010000 		.4byte	.LLST8
 2849 069f 1D       		.uleb128 0x1d
 2850 06a0 4C050000 		.4byte	.LBB4
 2851 06a4 9E000000 		.4byte	.LBE4-.LBB4
 2852 06a8 DD060000 		.4byte	0x6dd
 2853 06ac 1A       		.uleb128 0x1a
 2854 06ad 8A020000 		.4byte	.LASF151
 2855 06b1 01       		.byte	0x1
 2856 06b2 1B03     		.2byte	0x31b
 2857 06b4 CA000000 		.4byte	0xca
 2858 06b8 30020000 		.4byte	.LLST9
 2859 06bc 1A       		.uleb128 0x1a
 2860 06bd 74030000 		.4byte	.LASF152
 2861 06c1 01       		.byte	0x1
 2862 06c2 1C03     		.2byte	0x31c
 2863 06c4 CA000000 		.4byte	0xca
 2864 06c8 30020000 		.4byte	.LLST9
 2865 06cc 1A       		.uleb128 0x1a
 2866 06cd 44070000 		.4byte	.LASF153
 2867 06d1 01       		.byte	0x1
 2868 06d2 1D03     		.2byte	0x31d
 2869 06d4 CA000000 		.4byte	0xca
 2870 06d8 44020000 		.4byte	.LLST11
 2871 06dc 00       		.byte	0
 2872 06dd 1E       		.uleb128 0x1e
 2873 06de EA050000 		.4byte	.LBB5
 2874 06e2 B8000000 		.4byte	.LBE5-.LBB5
 2875 06e6 1A       		.uleb128 0x1a
 2876 06e7 CD080000 		.4byte	.LASF154
 2877 06eb 01       		.byte	0x1
 2878 06ec 4003     		.2byte	0x340
 2879 06ee CA000000 		.4byte	0xca
 2880 06f2 58020000 		.4byte	.LLST12
 2881 06f6 1A       		.uleb128 0x1a
 2882 06f7 C8040000 		.4byte	.LASF155
 2883 06fb 01       		.byte	0x1
 2884 06fc 4103     		.2byte	0x341
 2885 06fe CA000000 		.4byte	0xca
 2886 0702 58020000 		.4byte	.LLST12
 2887 0706 1A       		.uleb128 0x1a
 2888 0707 28080000 		.4byte	.LASF156
 2889 070b 01       		.byte	0x1
 2890 070c 4203     		.2byte	0x342
 2891 070e CA000000 		.4byte	0xca
 2892 0712 6C020000 		.4byte	.LLST14
 2893 0716 00       		.byte	0
ARM GAS  C:\Users\Sven\AppData\Local\Temp\cc5mu159.s 			page 70


 2894 0717 00       		.byte	0
 2895 0718 18       		.uleb128 0x18
 2896 0719 F0000000 		.4byte	.LVL52
 2897 071d 36120000 		.4byte	0x1236
 2898 0721 12       		.uleb128 0x12
 2899 0722 FC000000 		.4byte	.LVL53
 2900 0726 48120000 		.4byte	0x1248
 2901 072a 35070000 		.4byte	0x735
 2902 072e 13       		.uleb128 0x13
 2903 072f 01       		.uleb128 0x1
 2904 0730 50       		.byte	0x50
 2905 0731 02       		.uleb128 0x2
 2906 0732 09       		.byte	0x9
 2907 0733 FF       		.byte	0xff
 2908 0734 00       		.byte	0
 2909 0735 12       		.uleb128 0x12
 2910 0736 0A010000 		.4byte	.LVL54
 2911 073a 48120000 		.4byte	0x1248
 2912 073e 49070000 		.4byte	0x749
 2913 0742 13       		.uleb128 0x13
 2914 0743 01       		.uleb128 0x1
 2915 0744 50       		.byte	0x50
 2916 0745 02       		.uleb128 0x2
 2917 0746 74       		.byte	0x74
 2918 0747 00       		.sleb128 0
 2919 0748 00       		.byte	0
 2920 0749 12       		.uleb128 0x12
 2921 074a 24010000 		.4byte	.LVL55
 2922 074e 36120000 		.4byte	0x1236
 2923 0752 5D070000 		.4byte	0x75d
 2924 0756 13       		.uleb128 0x13
 2925 0757 01       		.uleb128 0x1
 2926 0758 50       		.byte	0x50
 2927 0759 02       		.uleb128 0x2
 2928 075a 74       		.byte	0x74
 2929 075b 00       		.sleb128 0
 2930 075c 00       		.byte	0
 2931 075d 12       		.uleb128 0x12
 2932 075e 2A010000 		.4byte	.LVL56
 2933 0762 48120000 		.4byte	0x1248
 2934 0766 71070000 		.4byte	0x771
 2935 076a 13       		.uleb128 0x13
 2936 076b 01       		.uleb128 0x1
 2937 076c 50       		.byte	0x50
 2938 076d 02       		.uleb128 0x2
 2939 076e 74       		.byte	0x74
 2940 076f 00       		.sleb128 0
 2941 0770 00       		.byte	0
 2942 0771 18       		.uleb128 0x18
 2943 0772 30010000 		.4byte	.LVL57
 2944 0776 59120000 		.4byte	0x1259
 2945 077a 18       		.uleb128 0x18
 2946 077b 34010000 		.4byte	.LVL58
 2947 077f 6A120000 		.4byte	0x126a
 2948 0783 18       		.uleb128 0x18
 2949 0784 46010000 		.4byte	.LVL59
 2950 0788 71120000 		.4byte	0x1271
ARM GAS  C:\Users\Sven\AppData\Local\Temp\cc5mu159.s 			page 71


 2951 078c 18       		.uleb128 0x18
 2952 078d 52010000 		.4byte	.LVL60
 2953 0791 78120000 		.4byte	0x1278
 2954 0795 18       		.uleb128 0x18
 2955 0796 60010000 		.4byte	.LVL61
 2956 079a 83120000 		.4byte	0x1283
 2957 079e 18       		.uleb128 0x18
 2958 079f 6C010000 		.4byte	.LVL62
 2959 07a3 8A120000 		.4byte	0x128a
 2960 07a7 18       		.uleb128 0x18
 2961 07a8 C8010000 		.4byte	.LVL66
 2962 07ac EF050000 		.4byte	0x5ef
 2963 07b0 12       		.uleb128 0x12
 2964 07b1 CE010000 		.4byte	.LVL67
 2965 07b5 E4110000 		.4byte	0x11e4
 2966 07b9 C7070000 		.4byte	0x7c7
 2967 07bd 13       		.uleb128 0x13
 2968 07be 01       		.uleb128 0x1
 2969 07bf 50       		.byte	0x50
 2970 07c0 05       		.uleb128 0x5
 2971 07c1 03       		.byte	0x3
 2972 07c2 30000000 		.4byte	.LC16
 2973 07c6 00       		.byte	0
 2974 07c7 18       		.uleb128 0x18
 2975 07c8 FE010000 		.4byte	.LVL68
 2976 07cc 9F050000 		.4byte	0x59f
 2977 07d0 12       		.uleb128 0x12
 2978 07d1 26020000 		.4byte	.LVL71
 2979 07d5 95120000 		.4byte	0x1295
 2980 07d9 EC070000 		.4byte	0x7ec
 2981 07dd 13       		.uleb128 0x13
 2982 07de 06       		.uleb128 0x6
 2983 07df 50       		.byte	0x50
 2984 07e0 93       		.byte	0x93
 2985 07e1 04       		.uleb128 0x4
 2986 07e2 51       		.byte	0x51
 2987 07e3 93       		.byte	0x93
 2988 07e4 04       		.uleb128 0x4
 2989 07e5 05       		.uleb128 0x5
 2990 07e6 7D       		.byte	0x7d
 2991 07e7 00       		.sleb128 0
 2992 07e8 F6       		.byte	0xf6
 2993 07e9 08       		.byte	0x8
 2994 07ea 25       		.uleb128 0x25
 2995 07eb 00       		.byte	0
 2996 07ec 12       		.uleb128 0x12
 2997 07ed 60020000 		.4byte	.LVL77
 2998 07f1 95120000 		.4byte	0x1295
 2999 07f5 08080000 		.4byte	0x808
 3000 07f9 13       		.uleb128 0x13
 3001 07fa 06       		.uleb128 0x6
 3002 07fb 50       		.byte	0x50
 3003 07fc 93       		.byte	0x93
 3004 07fd 04       		.uleb128 0x4
 3005 07fe 51       		.byte	0x51
 3006 07ff 93       		.byte	0x93
 3007 0800 04       		.uleb128 0x4
ARM GAS  C:\Users\Sven\AppData\Local\Temp\cc5mu159.s 			page 72


 3008 0801 05       		.uleb128 0x5
 3009 0802 7D       		.byte	0x7d
 3010 0803 00       		.sleb128 0
 3011 0804 F6       		.byte	0xf6
 3012 0805 08       		.byte	0x8
 3013 0806 25       		.uleb128 0x25
 3014 0807 00       		.byte	0
 3015 0808 18       		.uleb128 0x18
 3016 0809 AA060000 		.4byte	.LVL152
 3017 080d C2040000 		.4byte	0x4c2
 3018 0811 12       		.uleb128 0x12
 3019 0812 B2060000 		.4byte	.LVL153
 3020 0816 E4110000 		.4byte	0x11e4
 3021 081a 25080000 		.4byte	0x825
 3022 081e 13       		.uleb128 0x13
 3023 081f 01       		.uleb128 0x1
 3024 0820 50       		.byte	0x50
 3025 0821 02       		.uleb128 0x2
 3026 0822 74       		.byte	0x74
 3027 0823 00       		.sleb128 0
 3028 0824 00       		.byte	0
 3029 0825 18       		.uleb128 0x18
 3030 0826 B8060000 		.4byte	.LVL154
 3031 082a C2040000 		.4byte	0x4c2
 3032 082e 12       		.uleb128 0x12
 3033 082f BE060000 		.4byte	.LVL155
 3034 0833 E4110000 		.4byte	0x11e4
 3035 0837 42080000 		.4byte	0x842
 3036 083b 13       		.uleb128 0x13
 3037 083c 01       		.uleb128 0x1
 3038 083d 50       		.byte	0x50
 3039 083e 02       		.uleb128 0x2
 3040 083f 74       		.byte	0x74
 3041 0840 00       		.sleb128 0
 3042 0841 00       		.byte	0
 3043 0842 18       		.uleb128 0x18
 3044 0843 C4060000 		.4byte	.LVL156
 3045 0847 C2040000 		.4byte	0x4c2
 3046 084b 12       		.uleb128 0x12
 3047 084c CA060000 		.4byte	.LVL157
 3048 0850 E4110000 		.4byte	0x11e4
 3049 0854 5F080000 		.4byte	0x85f
 3050 0858 13       		.uleb128 0x13
 3051 0859 01       		.uleb128 0x1
 3052 085a 50       		.byte	0x50
 3053 085b 02       		.uleb128 0x2
 3054 085c 74       		.byte	0x74
 3055 085d 00       		.sleb128 0
 3056 085e 00       		.byte	0
 3057 085f 18       		.uleb128 0x18
 3058 0860 D0060000 		.4byte	.LVL158
 3059 0864 C2040000 		.4byte	0x4c2
 3060 0868 12       		.uleb128 0x12
 3061 0869 D6060000 		.4byte	.LVL159
 3062 086d E4110000 		.4byte	0x11e4
 3063 0871 7C080000 		.4byte	0x87c
 3064 0875 13       		.uleb128 0x13
ARM GAS  C:\Users\Sven\AppData\Local\Temp\cc5mu159.s 			page 73


 3065 0876 01       		.uleb128 0x1
 3066 0877 50       		.byte	0x50
 3067 0878 02       		.uleb128 0x2
 3068 0879 74       		.byte	0x74
 3069 087a 00       		.sleb128 0
 3070 087b 00       		.byte	0
 3071 087c 18       		.uleb128 0x18
 3072 087d DC060000 		.4byte	.LVL160
 3073 0881 C2040000 		.4byte	0x4c2
 3074 0885 12       		.uleb128 0x12
 3075 0886 E2060000 		.4byte	.LVL161
 3076 088a E4110000 		.4byte	0x11e4
 3077 088e 99080000 		.4byte	0x899
 3078 0892 13       		.uleb128 0x13
 3079 0893 01       		.uleb128 0x1
 3080 0894 50       		.byte	0x50
 3081 0895 02       		.uleb128 0x2
 3082 0896 74       		.byte	0x74
 3083 0897 00       		.sleb128 0
 3084 0898 00       		.byte	0
 3085 0899 18       		.uleb128 0x18
 3086 089a E8060000 		.4byte	.LVL162
 3087 089e C2040000 		.4byte	0x4c2
 3088 08a2 12       		.uleb128 0x12
 3089 08a3 EE060000 		.4byte	.LVL163
 3090 08a7 E4110000 		.4byte	0x11e4
 3091 08ab B6080000 		.4byte	0x8b6
 3092 08af 13       		.uleb128 0x13
 3093 08b0 01       		.uleb128 0x1
 3094 08b1 50       		.byte	0x50
 3095 08b2 02       		.uleb128 0x2
 3096 08b3 74       		.byte	0x74
 3097 08b4 00       		.sleb128 0
 3098 08b5 00       		.byte	0
 3099 08b6 18       		.uleb128 0x18
 3100 08b7 FA060000 		.4byte	.LVL165
 3101 08bb C2040000 		.4byte	0x4c2
 3102 08bf 12       		.uleb128 0x12
 3103 08c0 00070000 		.4byte	.LVL166
 3104 08c4 E4110000 		.4byte	0x11e4
 3105 08c8 D3080000 		.4byte	0x8d3
 3106 08cc 13       		.uleb128 0x13
 3107 08cd 01       		.uleb128 0x1
 3108 08ce 50       		.byte	0x50
 3109 08cf 02       		.uleb128 0x2
 3110 08d0 74       		.byte	0x74
 3111 08d1 00       		.sleb128 0
 3112 08d2 00       		.byte	0
 3113 08d3 18       		.uleb128 0x18
 3114 08d4 0C070000 		.4byte	.LVL168
 3115 08d8 C2040000 		.4byte	0x4c2
 3116 08dc 12       		.uleb128 0x12
 3117 08dd 12070000 		.4byte	.LVL169
 3118 08e1 E4110000 		.4byte	0x11e4
 3119 08e5 F0080000 		.4byte	0x8f0
 3120 08e9 13       		.uleb128 0x13
 3121 08ea 01       		.uleb128 0x1
ARM GAS  C:\Users\Sven\AppData\Local\Temp\cc5mu159.s 			page 74


 3122 08eb 50       		.byte	0x50
 3123 08ec 02       		.uleb128 0x2
 3124 08ed 74       		.byte	0x74
 3125 08ee 00       		.sleb128 0
 3126 08ef 00       		.byte	0
 3127 08f0 18       		.uleb128 0x18
 3128 08f1 1C070000 		.4byte	.LVL170
 3129 08f5 C2040000 		.4byte	0x4c2
 3130 08f9 12       		.uleb128 0x12
 3131 08fa 22070000 		.4byte	.LVL171
 3132 08fe E4110000 		.4byte	0x11e4
 3133 0902 0D090000 		.4byte	0x90d
 3134 0906 13       		.uleb128 0x13
 3135 0907 01       		.uleb128 0x1
 3136 0908 50       		.byte	0x50
 3137 0909 02       		.uleb128 0x2
 3138 090a 74       		.byte	0x74
 3139 090b 00       		.sleb128 0
 3140 090c 00       		.byte	0
 3141 090d 18       		.uleb128 0x18
 3142 090e 28070000 		.4byte	.LVL172
 3143 0912 C2040000 		.4byte	0x4c2
 3144 0916 12       		.uleb128 0x12
 3145 0917 2E070000 		.4byte	.LVL173
 3146 091b E4110000 		.4byte	0x11e4
 3147 091f 2A090000 		.4byte	0x92a
 3148 0923 13       		.uleb128 0x13
 3149 0924 01       		.uleb128 0x1
 3150 0925 50       		.byte	0x50
 3151 0926 02       		.uleb128 0x2
 3152 0927 74       		.byte	0x74
 3153 0928 00       		.sleb128 0
 3154 0929 00       		.byte	0
 3155 092a 18       		.uleb128 0x18
 3156 092b 34070000 		.4byte	.LVL174
 3157 092f C2040000 		.4byte	0x4c2
 3158 0933 12       		.uleb128 0x12
 3159 0934 3A070000 		.4byte	.LVL175
 3160 0938 E4110000 		.4byte	0x11e4
 3161 093c 47090000 		.4byte	0x947
 3162 0940 13       		.uleb128 0x13
 3163 0941 01       		.uleb128 0x1
 3164 0942 50       		.byte	0x50
 3165 0943 02       		.uleb128 0x2
 3166 0944 74       		.byte	0x74
 3167 0945 00       		.sleb128 0
 3168 0946 00       		.byte	0
 3169 0947 18       		.uleb128 0x18
 3170 0948 44070000 		.4byte	.LVL176
 3171 094c C2040000 		.4byte	0x4c2
 3172 0950 12       		.uleb128 0x12
 3173 0951 4A070000 		.4byte	.LVL177
 3174 0955 E4110000 		.4byte	0x11e4
 3175 0959 67090000 		.4byte	0x967
 3176 095d 13       		.uleb128 0x13
 3177 095e 01       		.uleb128 0x1
 3178 095f 50       		.byte	0x50
ARM GAS  C:\Users\Sven\AppData\Local\Temp\cc5mu159.s 			page 75


 3179 0960 05       		.uleb128 0x5
 3180 0961 03       		.byte	0x3
 3181 0962 43000000 		.4byte	.LC24
 3182 0966 00       		.byte	0
 3183 0967 12       		.uleb128 0x12
 3184 0968 60070000 		.4byte	.LVL178
 3185 096c E4110000 		.4byte	0x11e4
 3186 0970 7B090000 		.4byte	0x97b
 3187 0974 13       		.uleb128 0x13
 3188 0975 01       		.uleb128 0x1
 3189 0976 50       		.byte	0x50
 3190 0977 02       		.uleb128 0x2
 3191 0978 75       		.byte	0x75
 3192 0979 00       		.sleb128 0
 3193 097a 00       		.byte	0
 3194 097b 12       		.uleb128 0x12
 3195 097c 66070000 		.4byte	.LVL179
 3196 0980 E4110000 		.4byte	0x11e4
 3197 0984 92090000 		.4byte	0x992
 3198 0988 13       		.uleb128 0x13
 3199 0989 01       		.uleb128 0x1
 3200 098a 50       		.byte	0x50
 3201 098b 05       		.uleb128 0x5
 3202 098c 03       		.byte	0x3
 3203 098d 1D000000 		.4byte	.LC11
 3204 0991 00       		.byte	0
 3205 0992 12       		.uleb128 0x12
 3206 0993 6E070000 		.4byte	.LVL180
 3207 0997 AF120000 		.4byte	0x12af
 3208 099b AF090000 		.4byte	0x9af
 3209 099f 13       		.uleb128 0x13
 3210 09a0 01       		.uleb128 0x1
 3211 09a1 51       		.byte	0x51
 3212 09a2 05       		.uleb128 0x5
 3213 09a3 03       		.byte	0x3
 3214 09a4 47000000 		.4byte	.LC26
 3215 09a8 13       		.uleb128 0x13
 3216 09a9 01       		.uleb128 0x1
 3217 09aa 50       		.byte	0x50
 3218 09ab 02       		.uleb128 0x2
 3219 09ac 75       		.byte	0x75
 3220 09ad 00       		.sleb128 0
 3221 09ae 00       		.byte	0
 3222 09af 12       		.uleb128 0x12
 3223 09b0 78070000 		.4byte	.LVL181
 3224 09b4 E4110000 		.4byte	0x11e4
 3225 09b8 C6090000 		.4byte	0x9c6
 3226 09bc 13       		.uleb128 0x13
 3227 09bd 01       		.uleb128 0x1
 3228 09be 50       		.byte	0x50
 3229 09bf 05       		.uleb128 0x5
 3230 09c0 03       		.byte	0x3
 3231 09c1 4C000000 		.4byte	.LC28
 3232 09c5 00       		.byte	0
 3233 09c6 12       		.uleb128 0x12
 3234 09c7 7E070000 		.4byte	.LVL182
 3235 09cb C9120000 		.4byte	0x12c9
ARM GAS  C:\Users\Sven\AppData\Local\Temp\cc5mu159.s 			page 76


 3236 09cf DA090000 		.4byte	0x9da
 3237 09d3 13       		.uleb128 0x13
 3238 09d4 01       		.uleb128 0x1
 3239 09d5 50       		.byte	0x50
 3240 09d6 02       		.uleb128 0x2
 3241 09d7 08       		.byte	0x8
 3242 09d8 64       		.byte	0x64
 3243 09d9 00       		.byte	0
 3244 09da 18       		.uleb128 0x18
 3245 09db 82070000 		.4byte	.LVL183
 3246 09df DA120000 		.4byte	0x12da
 3247 09e3 14       		.uleb128 0x14
 3248 09e4 88070000 		.4byte	.LVL184
 3249 09e8 E1120000 		.4byte	0x12e1
 3250 09ec 13       		.uleb128 0x13
 3251 09ed 01       		.uleb128 0x1
 3252 09ee 50       		.byte	0x50
 3253 09ef 01       		.uleb128 0x1
 3254 09f0 38       		.byte	0x38
 3255 09f1 00       		.byte	0
 3256 09f2 00       		.byte	0
 3257 09f3 12       		.uleb128 0x12
 3258 09f4 0C000000 		.4byte	.LVL22
 3259 09f8 C9120000 		.4byte	0x12c9
 3260 09fc 080A0000 		.4byte	0xa08
 3261 0a00 13       		.uleb128 0x13
 3262 0a01 01       		.uleb128 0x1
 3263 0a02 50       		.byte	0x50
 3264 0a03 03       		.uleb128 0x3
 3265 0a04 0A       		.byte	0xa
 3266 0a05 F401     		.2byte	0x1f4
 3267 0a07 00       		.byte	0
 3268 0a08 18       		.uleb128 0x18
 3269 0a09 12000000 		.4byte	.LVL23
 3270 0a0d F2120000 		.4byte	0x12f2
 3271 0a11 18       		.uleb128 0x18
 3272 0a12 16000000 		.4byte	.LVL24
 3273 0a16 F9120000 		.4byte	0x12f9
 3274 0a1a 18       		.uleb128 0x18
 3275 0a1b 1A000000 		.4byte	.LVL25
 3276 0a1f 00130000 		.4byte	0x1300
 3277 0a23 12       		.uleb128 0x12
 3278 0a24 22000000 		.4byte	.LVL26
 3279 0a28 07130000 		.4byte	0x1307
 3280 0a2c 3B0A0000 		.4byte	0xa3b
 3281 0a30 13       		.uleb128 0x13
 3282 0a31 01       		.uleb128 0x1
 3283 0a32 51       		.byte	0x51
 3284 0a33 01       		.uleb128 0x1
 3285 0a34 32       		.byte	0x32
 3286 0a35 13       		.uleb128 0x13
 3287 0a36 01       		.uleb128 0x1
 3288 0a37 50       		.byte	0x50
 3289 0a38 01       		.uleb128 0x1
 3290 0a39 30       		.byte	0x30
 3291 0a3a 00       		.byte	0
 3292 0a3b 12       		.uleb128 0x12
ARM GAS  C:\Users\Sven\AppData\Local\Temp\cc5mu159.s 			page 77


 3293 0a3c 2C000000 		.4byte	.LVL27
 3294 0a40 1D130000 		.4byte	0x131d
 3295 0a44 550A0000 		.4byte	0xa55
 3296 0a48 13       		.uleb128 0x13
 3297 0a49 01       		.uleb128 0x1
 3298 0a4a 51       		.byte	0x51
 3299 0a4b 03       		.uleb128 0x3
 3300 0a4c 0A       		.byte	0xa
 3301 0a4d 803E     		.2byte	0x3e80
 3302 0a4f 13       		.uleb128 0x13
 3303 0a50 01       		.uleb128 0x1
 3304 0a51 50       		.byte	0x50
 3305 0a52 01       		.uleb128 0x1
 3306 0a53 30       		.byte	0x30
 3307 0a54 00       		.byte	0
 3308 0a55 12       		.uleb128 0x12
 3309 0a56 34000000 		.4byte	.LVL28
 3310 0a5a C9120000 		.4byte	0x12c9
 3311 0a5e 6A0A0000 		.4byte	0xa6a
 3312 0a62 13       		.uleb128 0x13
 3313 0a63 01       		.uleb128 0x1
 3314 0a64 50       		.byte	0x50
 3315 0a65 03       		.uleb128 0x3
 3316 0a66 0A       		.byte	0xa
 3317 0a67 F401     		.2byte	0x1f4
 3318 0a69 00       		.byte	0
 3319 0a6a 18       		.uleb128 0x18
 3320 0a6b 38000000 		.4byte	.LVL29
 3321 0a6f 33130000 		.4byte	0x1333
 3322 0a73 18       		.uleb128 0x18
 3323 0a74 3C000000 		.4byte	.LVL30
 3324 0a78 3B130000 		.4byte	0x133b
 3325 0a7c 18       		.uleb128 0x18
 3326 0a7d 40000000 		.4byte	.LVL31
 3327 0a81 43130000 		.4byte	0x1343
 3328 0a85 18       		.uleb128 0x18
 3329 0a86 44000000 		.4byte	.LVL32
 3330 0a8a 4B130000 		.4byte	0x134b
 3331 0a8e 18       		.uleb128 0x18
 3332 0a8f 48000000 		.4byte	.LVL33
 3333 0a93 53130000 		.4byte	0x1353
 3334 0a97 18       		.uleb128 0x18
 3335 0a98 4C000000 		.4byte	.LVL34
 3336 0a9c 5A130000 		.4byte	0x135a
 3337 0aa0 18       		.uleb128 0x18
 3338 0aa1 50000000 		.4byte	.LVL35
 3339 0aa5 61130000 		.4byte	0x1361
 3340 0aa9 18       		.uleb128 0x18
 3341 0aaa 54000000 		.4byte	.LVL36
 3342 0aae 68130000 		.4byte	0x1368
 3343 0ab2 18       		.uleb128 0x18
 3344 0ab3 58000000 		.4byte	.LVL37
 3345 0ab7 6F130000 		.4byte	0x136f
 3346 0abb 18       		.uleb128 0x18
 3347 0abc 64000000 		.4byte	.LVL38
 3348 0ac0 76130000 		.4byte	0x1376
 3349 0ac4 18       		.uleb128 0x18
ARM GAS  C:\Users\Sven\AppData\Local\Temp\cc5mu159.s 			page 78


 3350 0ac5 68000000 		.4byte	.LVL39
 3351 0ac9 7D130000 		.4byte	0x137d
 3352 0acd 18       		.uleb128 0x18
 3353 0ace 6C000000 		.4byte	.LVL40
 3354 0ad2 71120000 		.4byte	0x1271
 3355 0ad6 12       		.uleb128 0x12
 3356 0ad7 72000000 		.4byte	.LVL41
 3357 0adb C9120000 		.4byte	0x12c9
 3358 0adf E90A0000 		.4byte	0xae9
 3359 0ae3 13       		.uleb128 0x13
 3360 0ae4 01       		.uleb128 0x1
 3361 0ae5 50       		.byte	0x50
 3362 0ae6 01       		.uleb128 0x1
 3363 0ae7 35       		.byte	0x35
 3364 0ae8 00       		.byte	0
 3365 0ae9 18       		.uleb128 0x18
 3366 0aea 76000000 		.4byte	.LVL42
 3367 0aee 78120000 		.4byte	0x1278
 3368 0af2 12       		.uleb128 0x12
 3369 0af3 80000000 		.4byte	.LVL43
 3370 0af7 C9120000 		.4byte	0x12c9
 3371 0afb 050B0000 		.4byte	0xb05
 3372 0aff 13       		.uleb128 0x13
 3373 0b00 01       		.uleb128 0x1
 3374 0b01 50       		.byte	0x50
 3375 0b02 01       		.uleb128 0x1
 3376 0b03 35       		.byte	0x35
 3377 0b04 00       		.byte	0
 3378 0b05 18       		.uleb128 0x18
 3379 0b06 84000000 		.4byte	.LVL44
 3380 0b0a 83120000 		.4byte	0x1283
 3381 0b0e 12       		.uleb128 0x12
 3382 0b0f 8A000000 		.4byte	.LVL45
 3383 0b13 C9120000 		.4byte	0x12c9
 3384 0b17 210B0000 		.4byte	0xb21
 3385 0b1b 13       		.uleb128 0x13
 3386 0b1c 01       		.uleb128 0x1
 3387 0b1d 50       		.byte	0x50
 3388 0b1e 01       		.uleb128 0x1
 3389 0b1f 35       		.byte	0x35
 3390 0b20 00       		.byte	0
 3391 0b21 18       		.uleb128 0x18
 3392 0b22 8E000000 		.4byte	.LVL46
 3393 0b26 8A120000 		.4byte	0x128a
 3394 0b2a 12       		.uleb128 0x12
 3395 0b2b 96000000 		.4byte	.LVL47
 3396 0b2f E4110000 		.4byte	0x11e4
 3397 0b33 410B0000 		.4byte	0xb41
 3398 0b37 13       		.uleb128 0x13
 3399 0b38 01       		.uleb128 0x1
 3400 0b39 50       		.byte	0x50
 3401 0b3a 05       		.uleb128 0x5
 3402 0b3b 03       		.byte	0x3
 3403 0b3c 0F000000 		.4byte	.LC9
 3404 0b40 00       		.byte	0
 3405 0b41 18       		.uleb128 0x18
 3406 0b42 9C000000 		.4byte	.LVL48
ARM GAS  C:\Users\Sven\AppData\Local\Temp\cc5mu159.s 			page 79


 3407 0b46 C2040000 		.4byte	0x4c2
 3408 0b4a 12       		.uleb128 0x12
 3409 0b4b A2000000 		.4byte	.LVL49
 3410 0b4f E4110000 		.4byte	0x11e4
 3411 0b53 610B0000 		.4byte	0xb61
 3412 0b57 13       		.uleb128 0x13
 3413 0b58 01       		.uleb128 0x1
 3414 0b59 50       		.byte	0x50
 3415 0b5a 05       		.uleb128 0x5
 3416 0b5b 03       		.byte	0x3
 3417 0b5c 1D000000 		.4byte	.LC11
 3418 0b60 00       		.byte	0
 3419 0b61 12       		.uleb128 0x12
 3420 0b62 A8000000 		.4byte	.LVL50
 3421 0b66 84130000 		.4byte	0x1384
 3422 0b6a 740B0000 		.4byte	0xb74
 3423 0b6e 13       		.uleb128 0x13
 3424 0b6f 01       		.uleb128 0x1
 3425 0b70 50       		.byte	0x50
 3426 0b71 01       		.uleb128 0x1
 3427 0b72 31       		.byte	0x31
 3428 0b73 00       		.byte	0
 3429 0b74 12       		.uleb128 0x12
 3430 0b75 AE000000 		.4byte	.LVL51
 3431 0b79 E4110000 		.4byte	0x11e4
 3432 0b7d 8B0B0000 		.4byte	0xb8b
 3433 0b81 13       		.uleb128 0x13
 3434 0b82 01       		.uleb128 0x1
 3435 0b83 50       		.byte	0x50
 3436 0b84 05       		.uleb128 0x5
 3437 0b85 03       		.byte	0x3
 3438 0b86 20000000 		.4byte	.LC13
 3439 0b8a 00       		.byte	0
 3440 0b8b 18       		.uleb128 0x18
 3441 0b8c 8C070000 		.4byte	.LVL185
 3442 0b90 95130000 		.4byte	0x1395
 3443 0b94 00       		.byte	0
 3444 0b95 1F       		.uleb128 0x1f
 3445 0b96 7A060000 		.4byte	.LASF157
 3446 0b9a 01       		.byte	0x1
 3447 0b9b 1C       		.byte	0x1c
 3448 0b9c A60B0000 		.4byte	0xba6
 3449 0ba0 05       		.uleb128 0x5
 3450 0ba1 03       		.byte	0x3
 3451 0ba2 00000000 		.4byte	task_flag
 3452 0ba6 20       		.uleb128 0x20
 3453 0ba7 CA000000 		.4byte	0xca
 3454 0bab 1F       		.uleb128 0x1f
 3455 0bac AE000000 		.4byte	.LASF158
 3456 0bb0 01       		.byte	0x1
 3457 0bb1 1D       		.byte	0x1d
 3458 0bb2 A60B0000 		.4byte	0xba6
 3459 0bb6 05       		.uleb128 0x5
 3460 0bb7 03       		.byte	0x3
 3461 0bb8 00000000 		.4byte	blink_cnt
 3462 0bbc 1F       		.uleb128 0x1f
 3463 0bbd 310F0000 		.4byte	.LASF159
ARM GAS  C:\Users\Sven\AppData\Local\Temp\cc5mu159.s 			page 80


 3464 0bc1 01       		.byte	0x1
 3465 0bc2 1E       		.byte	0x1e
 3466 0bc3 2D010000 		.4byte	0x12d
 3467 0bc7 05       		.uleb128 0x5
 3468 0bc8 03       		.byte	0x3
 3469 0bc9 00000000 		.4byte	sample_time
 3470 0bcd 1F       		.uleb128 0x1f
 3471 0bce 030C0000 		.4byte	.LASF160
 3472 0bd2 01       		.byte	0x1
 3473 0bd3 23       		.byte	0x23
 3474 0bd4 CA000000 		.4byte	0xca
 3475 0bd8 05       		.uleb128 0x5
 3476 0bd9 03       		.byte	0x3
 3477 0bda 00000000 		.4byte	PPM_channel
 3478 0bde 0B       		.uleb128 0xb
 3479 0bdf E0000000 		.4byte	0xe0
 3480 0be3 EE0B0000 		.4byte	0xbee
 3481 0be7 0C       		.uleb128 0xc
 3482 0be8 46010000 		.4byte	0x146
 3483 0bec 07       		.byte	0x7
 3484 0bed 00       		.byte	0
 3485 0bee 1F       		.uleb128 0x1f
 3486 0bef 87010000 		.4byte	.LASF161
 3487 0bf3 01       		.byte	0x1
 3488 0bf4 24       		.byte	0x24
 3489 0bf5 DE0B0000 		.4byte	0xbde
 3490 0bf9 05       		.uleb128 0x5
 3491 0bfa 03       		.byte	0x3
 3492 0bfb 00000000 		.4byte	ctrl_in
 3493 0bff 0B       		.uleb128 0xb
 3494 0c00 E0000000 		.4byte	0xe0
 3495 0c04 0F0C0000 		.4byte	0xc0f
 3496 0c08 0C       		.uleb128 0xc
 3497 0c09 46010000 		.4byte	0x146
 3498 0c0d 0C       		.byte	0xc
 3499 0c0e 00       		.byte	0
 3500 0c0f 1F       		.uleb128 0x1f
 3501 0c10 8F010000 		.4byte	.LASF162
 3502 0c14 01       		.byte	0x1
 3503 0c15 25       		.byte	0x25
 3504 0c16 FF0B0000 		.4byte	0xbff
 3505 0c1a 05       		.uleb128 0x5
 3506 0c1b 03       		.byte	0x3
 3507 0c1c 00000000 		.4byte	ctrl_out
 3508 0c20 0B       		.uleb128 0xb
 3509 0c21 E0000000 		.4byte	0xe0
 3510 0c25 300C0000 		.4byte	0xc30
 3511 0c29 0C       		.uleb128 0xc
 3512 0c2a 46010000 		.4byte	0x146
 3513 0c2e 04       		.byte	0x4
 3514 0c2f 00       		.byte	0
 3515 0c30 1F       		.uleb128 0x1f
 3516 0c31 55060000 		.4byte	.LASF163
 3517 0c35 01       		.byte	0x1
 3518 0c36 33       		.byte	0x33
 3519 0c37 200C0000 		.4byte	0xc20
 3520 0c3b 05       		.uleb128 0x5
ARM GAS  C:\Users\Sven\AppData\Local\Temp\cc5mu159.s 			page 81


 3521 0c3c 03       		.byte	0x3
 3522 0c3d 00000000 		.4byte	ctrl_in_trim
 3523 0c41 1F       		.uleb128 0x1f
 3524 0c42 59000000 		.4byte	.LASF164
 3525 0c46 01       		.byte	0x1
 3526 0c47 38       		.byte	0x38
 3527 0c48 200C0000 		.4byte	0xc20
 3528 0c4c 05       		.uleb128 0x5
 3529 0c4d 03       		.byte	0x3
 3530 0c4e 00000000 		.4byte	ctrl_out_PID
 3531 0c52 1F       		.uleb128 0x1f
 3532 0c53 0E0D0000 		.4byte	.LASF165
 3533 0c57 01       		.byte	0x1
 3534 0c58 39       		.byte	0x39
 3535 0c59 200C0000 		.4byte	0xc20
 3536 0c5d 05       		.uleb128 0x5
 3537 0c5e 03       		.byte	0x3
 3538 0c5f 00000000 		.4byte	ctrl_out_DAMP
 3539 0c63 1F       		.uleb128 0x1f
 3540 0c64 C5050000 		.4byte	.LASF166
 3541 0c68 01       		.byte	0x1
 3542 0c69 5B       		.byte	0x5b
 3543 0c6a CA000000 		.4byte	0xca
 3544 0c6e 05       		.uleb128 0x5
 3545 0c6f 03       		.byte	0x3
 3546 0c70 00000000 		.4byte	Ctrl_Mode
 3547 0c74 1F       		.uleb128 0x1f
 3548 0c75 FB0C0000 		.4byte	.LASF167
 3549 0c79 01       		.byte	0x1
 3550 0c7a 72       		.byte	0x72
 3551 0c7b CA000000 		.4byte	0xca
 3552 0c7f 05       		.uleb128 0x5
 3553 0c80 03       		.byte	0x3
 3554 0c81 00000000 		.4byte	flag_LightsEnabled
 3555 0c85 1F       		.uleb128 0x1f
 3556 0c86 19050000 		.4byte	.LASF168
 3557 0c8a 01       		.byte	0x1
 3558 0c8b 75       		.byte	0x75
 3559 0c8c CA000000 		.4byte	0xca
 3560 0c90 05       		.uleb128 0x5
 3561 0c91 03       		.byte	0x3
 3562 0c92 00000000 		.4byte	flag_NavLightPulse
 3563 0c96 1F       		.uleb128 0x1f
 3564 0c97 E9090000 		.4byte	.LASF169
 3565 0c9b 01       		.byte	0x1
 3566 0c9c 76       		.byte	0x76
 3567 0c9d E0000000 		.4byte	0xe0
 3568 0ca1 05       		.uleb128 0x5
 3569 0ca2 03       		.byte	0x3
 3570 0ca3 00000000 		.4byte	NavLightBright
 3571 0ca7 1F       		.uleb128 0x1f
 3572 0ca8 E5040000 		.4byte	.LASF170
 3573 0cac 01       		.byte	0x1
 3574 0cad 77       		.byte	0x77
 3575 0cae E0000000 		.4byte	0xe0
 3576 0cb2 05       		.uleb128 0x5
 3577 0cb3 03       		.byte	0x3
ARM GAS  C:\Users\Sven\AppData\Local\Temp\cc5mu159.s 			page 82


 3578 0cb4 00000000 		.4byte	NavLightDim
 3579 0cb8 1F       		.uleb128 0x1f
 3580 0cb9 37030000 		.4byte	.LASF171
 3581 0cbd 01       		.byte	0x1
 3582 0cbe 78       		.byte	0x78
 3583 0cbf E0000000 		.4byte	0xe0
 3584 0cc3 05       		.uleb128 0x5
 3585 0cc4 03       		.byte	0x3
 3586 0cc5 00000000 		.4byte	NavLightStep
 3587 0cc9 1F       		.uleb128 0x1f
 3588 0cca 210F0000 		.4byte	.LASF172
 3589 0cce 01       		.byte	0x1
 3590 0ccf 79       		.byte	0x79
 3591 0cd0 E0000000 		.4byte	0xe0
 3592 0cd4 05       		.uleb128 0x5
 3593 0cd5 03       		.byte	0x3
 3594 0cd6 00000000 		.4byte	NavLightCompare
 3595 0cda 1F       		.uleb128 0x1f
 3596 0cdb B20A0000 		.4byte	.LASF173
 3597 0cdf 01       		.byte	0x1
 3598 0ce0 7B       		.byte	0x7b
 3599 0ce1 CA000000 		.4byte	0xca
 3600 0ce5 05       		.uleb128 0x5
 3601 0ce6 03       		.byte	0x3
 3602 0ce7 00000000 		.4byte	cnt_StrobeLight
 3603 0ceb 1F       		.uleb128 0x1f
 3604 0cec EC080000 		.4byte	.LASF174
 3605 0cf0 01       		.byte	0x1
 3606 0cf1 83       		.byte	0x83
 3607 0cf2 D5000000 		.4byte	0xd5
 3608 0cf6 05       		.uleb128 0x5
 3609 0cf7 03       		.byte	0x3
 3610 0cf8 00000000 		.4byte	turn_rate_p
 3611 0cfc 1F       		.uleb128 0x1f
 3612 0cfd F8080000 		.4byte	.LASF175
 3613 0d01 01       		.byte	0x1
 3614 0d02 84       		.byte	0x84
 3615 0d03 D5000000 		.4byte	0xd5
 3616 0d07 05       		.uleb128 0x5
 3617 0d08 03       		.byte	0x3
 3618 0d09 00000000 		.4byte	turn_rate_q
 3619 0d0d 1F       		.uleb128 0x1f
 3620 0d0e 04090000 		.4byte	.LASF176
 3621 0d12 01       		.byte	0x1
 3622 0d13 85       		.byte	0x85
 3623 0d14 D5000000 		.4byte	0xd5
 3624 0d18 05       		.uleb128 0x5
 3625 0d19 03       		.byte	0x3
 3626 0d1a 00000000 		.4byte	turn_rate_r
 3627 0d1e 1F       		.uleb128 0x1f
 3628 0d1f 2E0B0000 		.4byte	.LASF177
 3629 0d23 01       		.byte	0x1
 3630 0d24 87       		.byte	0x87
 3631 0d25 D5000000 		.4byte	0xd5
 3632 0d29 05       		.uleb128 0x5
 3633 0d2a 03       		.byte	0x3
 3634 0d2b 00000000 		.4byte	acc_x_g
ARM GAS  C:\Users\Sven\AppData\Local\Temp\cc5mu159.s 			page 83


 3635 0d2f 1F       		.uleb128 0x1f
 3636 0d30 05020000 		.4byte	.LASF178
 3637 0d34 01       		.byte	0x1
 3638 0d35 88       		.byte	0x88
 3639 0d36 D5000000 		.4byte	0xd5
 3640 0d3a 05       		.uleb128 0x5
 3641 0d3b 03       		.byte	0x3
 3642 0d3c 00000000 		.4byte	acc_y_g
 3643 0d40 1F       		.uleb128 0x1f
 3644 0d41 3E090000 		.4byte	.LASF179
 3645 0d45 01       		.byte	0x1
 3646 0d46 89       		.byte	0x89
 3647 0d47 D5000000 		.4byte	0xd5
 3648 0d4b 05       		.uleb128 0x5
 3649 0d4c 03       		.byte	0x3
 3650 0d4d 00000000 		.4byte	acc_z_g
 3651 0d51 1F       		.uleb128 0x1f
 3652 0d52 F30C0000 		.4byte	.LASF180
 3653 0d56 01       		.byte	0x1
 3654 0d57 8B       		.byte	0x8b
 3655 0d58 D5000000 		.4byte	0xd5
 3656 0d5c 05       		.uleb128 0x5
 3657 0d5d 03       		.byte	0x3
 3658 0d5e 00000000 		.4byte	mag_x_g
 3659 0d62 1F       		.uleb128 0x1f
 3660 0d63 9C030000 		.4byte	.LASF181
 3661 0d67 01       		.byte	0x1
 3662 0d68 8C       		.byte	0x8c
 3663 0d69 D5000000 		.4byte	0xd5
 3664 0d6d 05       		.uleb128 0x5
 3665 0d6e 03       		.byte	0x3
 3666 0d6f 00000000 		.4byte	mag_y_g
 3667 0d73 1F       		.uleb128 0x1f
 3668 0d74 F8090000 		.4byte	.LASF182
 3669 0d78 01       		.byte	0x1
 3670 0d79 8D       		.byte	0x8d
 3671 0d7a D5000000 		.4byte	0xd5
 3672 0d7e 05       		.uleb128 0x5
 3673 0d7f 03       		.byte	0x3
 3674 0d80 00000000 		.4byte	mag_z_g
 3675 0d84 1F       		.uleb128 0x1f
 3676 0d85 0A060000 		.4byte	.LASF183
 3677 0d89 01       		.byte	0x1
 3678 0d8a 90       		.byte	0x90
 3679 0d8b 2D010000 		.4byte	0x12d
 3680 0d8f 05       		.uleb128 0x5
 3681 0d90 03       		.byte	0x3
 3682 0d91 00000000 		.4byte	Theta
 3683 0d95 1F       		.uleb128 0x1f
 3684 0d96 BB050000 		.4byte	.LASF184
 3685 0d9a 01       		.byte	0x1
 3686 0d9b 90       		.byte	0x90
 3687 0d9c 2D010000 		.4byte	0x12d
 3688 0da0 05       		.uleb128 0x5
 3689 0da1 03       		.byte	0x3
 3690 0da2 00000000 		.4byte	Theta_Mav
 3691 0da6 1F       		.uleb128 0x1f
ARM GAS  C:\Users\Sven\AppData\Local\Temp\cc5mu159.s 			page 84


 3692 0da7 84060000 		.4byte	.LASF185
 3693 0dab 01       		.byte	0x1
 3694 0dac 90       		.byte	0x90
 3695 0dad 2D010000 		.4byte	0x12d
 3696 0db1 05       		.uleb128 0x5
 3697 0db2 03       		.byte	0x3
 3698 0db3 00000000 		.4byte	Theta_acc
 3699 0db7 21       		.uleb128 0x21
 3700 0db8 50686900 		.ascii	"Phi\000"
 3701 0dbc 01       		.byte	0x1
 3702 0dbd 91       		.byte	0x91
 3703 0dbe 2D010000 		.4byte	0x12d
 3704 0dc2 05       		.uleb128 0x5
 3705 0dc3 03       		.byte	0x3
 3706 0dc4 00000000 		.4byte	Phi
 3707 0dc8 1F       		.uleb128 0x1f
 3708 0dc9 94030000 		.4byte	.LASF186
 3709 0dcd 01       		.byte	0x1
 3710 0dce 91       		.byte	0x91
 3711 0dcf 2D010000 		.4byte	0x12d
 3712 0dd3 05       		.uleb128 0x5
 3713 0dd4 03       		.byte	0x3
 3714 0dd5 00000000 		.4byte	Phi_Mav
 3715 0dd9 1F       		.uleb128 0x1f
 3716 0dda 98040000 		.4byte	.LASF187
 3717 0dde 01       		.byte	0x1
 3718 0ddf 91       		.byte	0x91
 3719 0de0 2D010000 		.4byte	0x12d
 3720 0de4 05       		.uleb128 0x5
 3721 0de5 03       		.byte	0x3
 3722 0de6 00000000 		.4byte	Phi_acc
 3723 0dea 21       		.uleb128 0x21
 3724 0deb 50736900 		.ascii	"Psi\000"
 3725 0def 01       		.byte	0x1
 3726 0df0 92       		.byte	0x92
 3727 0df1 2D010000 		.4byte	0x12d
 3728 0df5 05       		.uleb128 0x5
 3729 0df6 03       		.byte	0x3
 3730 0df7 00000000 		.4byte	Psi
 3731 0dfb 1F       		.uleb128 0x1f
 3732 0dfc CF0F0000 		.4byte	.LASF188
 3733 0e00 01       		.byte	0x1
 3734 0e01 92       		.byte	0x92
 3735 0e02 2D010000 		.4byte	0x12d
 3736 0e06 05       		.uleb128 0x5
 3737 0e07 03       		.byte	0x3
 3738 0e08 00000000 		.4byte	Psi_acc
 3739 0e0c 1F       		.uleb128 0x1f
 3740 0e0d F90A0000 		.4byte	.LASF189
 3741 0e11 01       		.byte	0x1
 3742 0e12 95       		.byte	0x95
 3743 0e13 EB000000 		.4byte	0xeb
 3744 0e17 05       		.uleb128 0x5
 3745 0e18 03       		.byte	0x3
 3746 0e19 00000000 		.4byte	Mag_Heading
 3747 0e1d 1F       		.uleb128 0x1f
 3748 0e1e 8C040000 		.4byte	.LASF190
ARM GAS  C:\Users\Sven\AppData\Local\Temp\cc5mu159.s 			page 85


 3749 0e22 01       		.byte	0x1
 3750 0e23 96       		.byte	0x96
 3751 0e24 2D010000 		.4byte	0x12d
 3752 0e28 05       		.uleb128 0x5
 3753 0e29 03       		.byte	0x3
 3754 0e2a 00000000 		.4byte	Mag_x
 3755 0e2e 1F       		.uleb128 0x1f
 3756 0e2f 92040000 		.4byte	.LASF191
 3757 0e33 01       		.byte	0x1
 3758 0e34 96       		.byte	0x96
 3759 0e35 2D010000 		.4byte	0x12d
 3760 0e39 05       		.uleb128 0x5
 3761 0e3a 03       		.byte	0x3
 3762 0e3b 00000000 		.4byte	Mag_y
 3763 0e3f 1F       		.uleb128 0x1f
 3764 0e40 E50A0000 		.4byte	.LASF192
 3765 0e44 01       		.byte	0x1
 3766 0e45 99       		.byte	0x99
 3767 0e46 EB000000 		.4byte	0xeb
 3768 0e4a 05       		.uleb128 0x5
 3769 0e4b 03       		.byte	0x3
 3770 0e4c 00000000 		.4byte	Bar_press
 3771 0e50 1F       		.uleb128 0x1f
 3772 0e51 C8000000 		.4byte	.LASF193
 3773 0e55 01       		.byte	0x1
 3774 0e56 9F       		.byte	0x9f
 3775 0e57 E0000000 		.4byte	0xe0
 3776 0e5b 05       		.uleb128 0x5
 3777 0e5c 03       		.byte	0x3
 3778 0e5d 00000000 		.4byte	speed_offset
 3779 0e61 1F       		.uleb128 0x1f
 3780 0e62 4D020000 		.4byte	.LASF144
 3781 0e66 01       		.byte	0x1
 3782 0e67 A0       		.byte	0xa0
 3783 0e68 D5000000 		.4byte	0xd5
 3784 0e6c 05       		.uleb128 0x5
 3785 0e6d 03       		.byte	0x3
 3786 0e6e 00000000 		.4byte	speed
 3787 0e72 1F       		.uleb128 0x1f
 3788 0e73 C3010000 		.4byte	.LASF194
 3789 0e77 01       		.byte	0x1
 3790 0e78 A1       		.byte	0xa1
 3791 0e79 CA000000 		.4byte	0xca
 3792 0e7d 05       		.uleb128 0x5
 3793 0e7e 03       		.byte	0x3
 3794 0e7f 00000000 		.4byte	cal_cnt
 3795 0e83 1F       		.uleb128 0x1f
 3796 0e84 21060000 		.4byte	.LASF195
 3797 0e88 01       		.byte	0x1
 3798 0e89 A2       		.byte	0xa2
 3799 0e8a CA000000 		.4byte	0xca
 3800 0e8e 05       		.uleb128 0x5
 3801 0e8f 03       		.byte	0x3
 3802 0e90 00000000 		.4byte	speed_cal_compl
 3803 0e94 21       		.uleb128 0x21
 3804 0e95 616C7400 		.ascii	"alt\000"
 3805 0e99 01       		.byte	0x1
ARM GAS  C:\Users\Sven\AppData\Local\Temp\cc5mu159.s 			page 86


 3806 0e9a A9       		.byte	0xa9
 3807 0e9b EB000000 		.4byte	0xeb
 3808 0e9f 05       		.uleb128 0x5
 3809 0ea0 03       		.byte	0x3
 3810 0ea1 00000000 		.4byte	alt
 3811 0ea5 1F       		.uleb128 0x1f
 3812 0ea6 B2050000 		.4byte	.LASF196
 3813 0eaa 01       		.byte	0x1
 3814 0eab AC       		.byte	0xac
 3815 0eac CA000000 		.4byte	0xca
 3816 0eb0 05       		.uleb128 0x5
 3817 0eb1 03       		.byte	0x3
 3818 0eb2 00000000 		.4byte	cnt_baro
 3819 0eb6 1F       		.uleb128 0x1f
 3820 0eb7 C20A0000 		.4byte	.LASF197
 3821 0ebb 01       		.byte	0x1
 3822 0ebc AD       		.byte	0xad
 3823 0ebd EB000000 		.4byte	0xeb
 3824 0ec1 05       		.uleb128 0x5
 3825 0ec2 03       		.byte	0x3
 3826 0ec3 00000000 		.4byte	temp
 3827 0ec7 1F       		.uleb128 0x1f
 3828 0ec8 69050000 		.4byte	.LASF198
 3829 0ecc 01       		.byte	0x1
 3830 0ecd AE       		.byte	0xae
 3831 0ece EB000000 		.4byte	0xeb
 3832 0ed2 05       		.uleb128 0x5
 3833 0ed3 03       		.byte	0x3
 3834 0ed4 00000000 		.4byte	press
 3835 0ed8 21       		.uleb128 0x21
 3836 0ed9 51464500 		.ascii	"QFE\000"
 3837 0edd 01       		.byte	0x1
 3838 0ede AF       		.byte	0xaf
 3839 0edf EB000000 		.4byte	0xeb
 3840 0ee3 05       		.uleb128 0x5
 3841 0ee4 03       		.byte	0x3
 3842 0ee5 00000000 		.4byte	QFE
 3843 0ee9 1F       		.uleb128 0x1f
 3844 0eea D40C0000 		.4byte	.LASF199
 3845 0eee 01       		.byte	0x1
 3846 0eef B4       		.byte	0xb4
 3847 0ef0 2D010000 		.4byte	0x12d
 3848 0ef4 05       		.uleb128 0x5
 3849 0ef5 03       		.byte	0x3
 3850 0ef6 00000000 		.4byte	Q_angle
 3851 0efa 1F       		.uleb128 0x1f
 3852 0efb 9F060000 		.4byte	.LASF200
 3853 0eff 01       		.byte	0x1
 3854 0f00 B5       		.byte	0xb5
 3855 0f01 2D010000 		.4byte	0x12d
 3856 0f05 05       		.uleb128 0x5
 3857 0f06 03       		.byte	0x3
 3858 0f07 00000000 		.4byte	Q_gyro
 3859 0f0b 1F       		.uleb128 0x1f
 3860 0f0c F1070000 		.4byte	.LASF201
 3861 0f10 01       		.byte	0x1
 3862 0f11 B6       		.byte	0xb6
ARM GAS  C:\Users\Sven\AppData\Local\Temp\cc5mu159.s 			page 87


 3863 0f12 2D010000 		.4byte	0x12d
 3864 0f16 05       		.uleb128 0x5
 3865 0f17 03       		.byte	0x3
 3866 0f18 00000000 		.4byte	R_angle
 3867 0f1c 1F       		.uleb128 0x1f
 3868 0f1d 0E070000 		.4byte	.LASF202
 3869 0f21 01       		.byte	0x1
 3870 0f22 B8       		.byte	0xb8
 3871 0f23 2D010000 		.4byte	0x12d
 3872 0f27 05       		.uleb128 0x5
 3873 0f28 03       		.byte	0x3
 3874 0f29 00000000 		.4byte	q_bias
 3875 0f2d 0B       		.uleb128 0xb
 3876 0f2e 2D010000 		.4byte	0x12d
 3877 0f32 430F0000 		.4byte	0xf43
 3878 0f36 0C       		.uleb128 0xc
 3879 0f37 46010000 		.4byte	0x146
 3880 0f3b 01       		.byte	0x1
 3881 0f3c 0C       		.uleb128 0xc
 3882 0f3d 46010000 		.4byte	0x146
 3883 0f41 01       		.byte	0x1
 3884 0f42 00       		.byte	0
 3885 0f43 1F       		.uleb128 0x1f
 3886 0f44 2F080000 		.4byte	.LASF203
 3887 0f48 01       		.byte	0x1
 3888 0f49 BA       		.byte	0xba
 3889 0f4a 2D0F0000 		.4byte	0xf2d
 3890 0f4e 05       		.uleb128 0x5
 3891 0f4f 03       		.byte	0x3
 3892 0f50 00000000 		.4byte	P_Theta
 3893 0f54 1F       		.uleb128 0x1f
 3894 0f55 D6020000 		.4byte	.LASF204
 3895 0f59 01       		.byte	0x1
 3896 0f5a BB       		.byte	0xbb
 3897 0f5b 2D010000 		.4byte	0x12d
 3898 0f5f 05       		.uleb128 0x5
 3899 0f60 03       		.byte	0x3
 3900 0f61 00000000 		.4byte	Theta_temp
 3901 0f65 1F       		.uleb128 0x1f
 3902 0f66 CB0B0000 		.4byte	.LASF205
 3903 0f6a 01       		.byte	0x1
 3904 0f6b BB       		.byte	0xbb
 3905 0f6c 2D010000 		.4byte	0x12d
 3906 0f70 05       		.uleb128 0x5
 3907 0f71 03       		.byte	0x3
 3908 0f72 00000000 		.4byte	S_Theta
 3909 0f76 1F       		.uleb128 0x1f
 3910 0f77 2A0C0000 		.4byte	.LASF206
 3911 0f7b 01       		.byte	0x1
 3912 0f7c BB       		.byte	0xbb
 3913 0f7d 2D010000 		.4byte	0x12d
 3914 0f81 05       		.uleb128 0x5
 3915 0f82 03       		.byte	0x3
 3916 0f83 00000000 		.4byte	K_0_Theta
 3917 0f87 1F       		.uleb128 0x1f
 3918 0f88 F1040000 		.4byte	.LASF207
 3919 0f8c 01       		.byte	0x1
ARM GAS  C:\Users\Sven\AppData\Local\Temp\cc5mu159.s 			page 88


 3920 0f8d BB       		.byte	0xbb
 3921 0f8e 2D010000 		.4byte	0x12d
 3922 0f92 05       		.uleb128 0x5
 3923 0f93 03       		.byte	0x3
 3924 0f94 00000000 		.4byte	K_1_Theta
 3925 0f98 1F       		.uleb128 0x1f
 3926 0f99 C70A0000 		.4byte	.LASF208
 3927 0f9d 01       		.byte	0x1
 3928 0f9e BD       		.byte	0xbd
 3929 0f9f 2D010000 		.4byte	0x12d
 3930 0fa3 05       		.uleb128 0x5
 3931 0fa4 03       		.byte	0x3
 3932 0fa5 00000000 		.4byte	p_bias
 3933 0fa9 1F       		.uleb128 0x1f
 3934 0faa 97070000 		.4byte	.LASF209
 3935 0fae 01       		.byte	0x1
 3936 0faf BF       		.byte	0xbf
 3937 0fb0 2D0F0000 		.4byte	0xf2d
 3938 0fb4 05       		.uleb128 0x5
 3939 0fb5 03       		.byte	0x3
 3940 0fb6 00000000 		.4byte	P_Phi
 3941 0fba 1F       		.uleb128 0x1f
 3942 0fbb 51040000 		.4byte	.LASF210
 3943 0fbf 01       		.byte	0x1
 3944 0fc0 C0       		.byte	0xc0
 3945 0fc1 2D010000 		.4byte	0x12d
 3946 0fc5 05       		.uleb128 0x5
 3947 0fc6 03       		.byte	0x3
 3948 0fc7 00000000 		.4byte	Phi_temp
 3949 0fcb 1F       		.uleb128 0x1f
 3950 0fcc F9070000 		.4byte	.LASF211
 3951 0fd0 01       		.byte	0x1
 3952 0fd1 C0       		.byte	0xc0
 3953 0fd2 2D010000 		.4byte	0x12d
 3954 0fd6 05       		.uleb128 0x5
 3955 0fd7 03       		.byte	0x3
 3956 0fd8 00000000 		.4byte	S_Phi
 3957 0fdc 1F       		.uleb128 0x1f
 3958 0fdd 26090000 		.4byte	.LASF212
 3959 0fe1 01       		.byte	0x1
 3960 0fe2 C0       		.byte	0xc0
 3961 0fe3 2D010000 		.4byte	0x12d
 3962 0fe7 05       		.uleb128 0x5
 3963 0fe8 03       		.byte	0x3
 3964 0fe9 00000000 		.4byte	K_0_Phi
 3965 0fed 1F       		.uleb128 0x1f
 3966 0fee 33040000 		.4byte	.LASF213
 3967 0ff2 01       		.byte	0x1
 3968 0ff3 C0       		.byte	0xc0
 3969 0ff4 2D010000 		.4byte	0x12d
 3970 0ff8 05       		.uleb128 0x5
 3971 0ff9 03       		.byte	0x3
 3972 0ffa 00000000 		.4byte	K_1_Phi
 3973 0ffe 1F       		.uleb128 0x1f
 3974 0fff D7090000 		.4byte	.LASF214
 3975 1003 01       		.byte	0x1
 3976 1004 C5       		.byte	0xc5
ARM GAS  C:\Users\Sven\AppData\Local\Temp\cc5mu159.s 			page 89


 3977 1005 CA000000 		.4byte	0xca
 3978 1009 05       		.uleb128 0x5
 3979 100a 03       		.byte	0x3
 3980 100b 00000000 		.4byte	K_d_p
 3981 100f 1F       		.uleb128 0x1f
 3982 1010 DD090000 		.4byte	.LASF215
 3983 1014 01       		.byte	0x1
 3984 1015 C6       		.byte	0xc6
 3985 1016 CA000000 		.4byte	0xca
 3986 101a 05       		.uleb128 0x5
 3987 101b 03       		.byte	0x3
 3988 101c 00000000 		.4byte	K_d_q
 3989 1020 1F       		.uleb128 0x1f
 3990 1021 E3090000 		.4byte	.LASF216
 3991 1025 01       		.byte	0x1
 3992 1026 C7       		.byte	0xc7
 3993 1027 CA000000 		.4byte	0xca
 3994 102b 05       		.uleb128 0x5
 3995 102c 03       		.byte	0x3
 3996 102d 00000000 		.4byte	K_d_r
 3997 1031 1F       		.uleb128 0x1f
 3998 1032 75090000 		.4byte	.LASF217
 3999 1036 01       		.byte	0x1
 4000 1037 CC       		.byte	0xcc
 4001 1038 CA000000 		.4byte	0xca
 4002 103c 05       		.uleb128 0x5
 4003 103d 03       		.byte	0x3
 4004 103e 00000000 		.4byte	tune_cnt
 4005 1042 1F       		.uleb128 0x1f
 4006 1043 9D070000 		.4byte	.LASF218
 4007 1047 01       		.byte	0x1
 4008 1048 D1       		.byte	0xd1
 4009 1049 BF000000 		.4byte	0xbf
 4010 104d 05       		.uleb128 0x5
 4011 104e 03       		.byte	0x3
 4012 104f 00000000 		.4byte	Theta_Target
 4013 1053 1F       		.uleb128 0x1f
 4014 1054 880F0000 		.4byte	.LASF219
 4015 1058 01       		.byte	0x1
 4016 1059 D2       		.byte	0xd2
 4017 105a BF000000 		.4byte	0xbf
 4018 105e 05       		.uleb128 0x5
 4019 105f 03       		.byte	0x3
 4020 1060 00000000 		.4byte	Theta_Error
 4021 1064 1F       		.uleb128 0x1f
 4022 1065 300D0000 		.4byte	.LASF220
 4023 1069 01       		.byte	0x1
 4024 106a D3       		.byte	0xd3
 4025 106b EB000000 		.4byte	0xeb
 4026 106f 05       		.uleb128 0x5
 4027 1070 03       		.byte	0x3
 4028 1071 00000000 		.4byte	Theta_Error_sum
 4029 1075 1F       		.uleb128 0x1f
 4030 1076 130B0000 		.4byte	.LASF221
 4031 107a 01       		.byte	0x1
 4032 107b D4       		.byte	0xd4
 4033 107c BF000000 		.4byte	0xbf
ARM GAS  C:\Users\Sven\AppData\Local\Temp\cc5mu159.s 			page 90


 4034 1080 05       		.uleb128 0x5
 4035 1081 03       		.byte	0x3
 4036 1082 00000000 		.4byte	Theta_Error_prev
 4037 1086 1F       		.uleb128 0x1f
 4038 1087 D4080000 		.4byte	.LASF222
 4039 108b 01       		.byte	0x1
 4040 108c D6       		.byte	0xd6
 4041 108d BF000000 		.4byte	0xbf
 4042 1091 05       		.uleb128 0x5
 4043 1092 03       		.byte	0x3
 4044 1093 00000000 		.4byte	Phi_Target
 4045 1097 1F       		.uleb128 0x1f
 4046 1098 74020000 		.4byte	.LASF223
 4047 109c 01       		.byte	0x1
 4048 109d D7       		.byte	0xd7
 4049 109e BF000000 		.4byte	0xbf
 4050 10a2 05       		.uleb128 0x5
 4051 10a3 03       		.byte	0x3
 4052 10a4 00000000 		.4byte	Phi_Error
 4053 10a8 1F       		.uleb128 0x1f
 4054 10a9 F6020000 		.4byte	.LASF224
 4055 10ad 01       		.byte	0x1
 4056 10ae D8       		.byte	0xd8
 4057 10af EB000000 		.4byte	0xeb
 4058 10b3 05       		.uleb128 0x5
 4059 10b4 03       		.byte	0x3
 4060 10b5 00000000 		.4byte	Phi_Error_sum
 4061 10b9 1F       		.uleb128 0x1f
 4062 10ba 81070000 		.4byte	.LASF225
 4063 10be 01       		.byte	0x1
 4064 10bf D9       		.byte	0xd9
 4065 10c0 BF000000 		.4byte	0xbf
 4066 10c4 05       		.uleb128 0x5
 4067 10c5 03       		.byte	0x3
 4068 10c6 00000000 		.4byte	Phi_Error_prev
 4069 10ca 1F       		.uleb128 0x1f
 4070 10cb BD0E0000 		.4byte	.LASF226
 4071 10cf 01       		.byte	0x1
 4072 10d0 DE       		.byte	0xde
 4073 10d1 CA000000 		.4byte	0xca
 4074 10d5 05       		.uleb128 0x5
 4075 10d6 03       		.byte	0x3
 4076 10d7 00000000 		.4byte	Rx_char
 4077 10db 1F       		.uleb128 0x1f
 4078 10dc 6B090000 		.4byte	.LASF227
 4079 10e0 01       		.byte	0x1
 4080 10e1 DF       		.byte	0xdf
 4081 10e2 F5030000 		.4byte	0x3f5
 4082 10e6 05       		.uleb128 0x5
 4083 10e7 03       		.byte	0x3
 4084 10e8 00000000 		.4byte	Rx_String
 4085 10ec 1F       		.uleb128 0x1f
 4086 10ed 000E0000 		.4byte	.LASF228
 4087 10f1 01       		.byte	0x1
 4088 10f2 E0       		.byte	0xe0
 4089 10f3 CA000000 		.4byte	0xca
 4090 10f7 05       		.uleb128 0x5
ARM GAS  C:\Users\Sven\AppData\Local\Temp\cc5mu159.s 			page 91


 4091 10f8 03       		.byte	0x3
 4092 10f9 00000000 		.4byte	Rx_index
 4093 10fd 1F       		.uleb128 0x1f
 4094 10fe 520D0000 		.4byte	.LASF229
 4095 1102 01       		.byte	0x1
 4096 1103 E1       		.byte	0xe1
 4097 1104 CA000000 		.4byte	0xca
 4098 1108 05       		.uleb128 0x5
 4099 1109 03       		.byte	0x3
 4100 110a 00000000 		.4byte	Rx_flag
 4101 110e 1F       		.uleb128 0x1f
 4102 110f D6040000 		.4byte	.LASF230
 4103 1113 01       		.byte	0x1
 4104 1114 E7       		.byte	0xe7
 4105 1115 8A010000 		.4byte	0x18a
 4106 1119 05       		.uleb128 0x5
 4107 111a 03       		.byte	0x3
 4108 111b 00000000 		.4byte	mavlink_system
 4109 111f 1F       		.uleb128 0x1f
 4110 1120 2B030000 		.4byte	.LASF231
 4111 1124 01       		.byte	0x1
 4112 1125 E9       		.byte	0xe9
 4113 1126 CA000000 		.4byte	0xca
 4114 112a 05       		.uleb128 0x5
 4115 112b 03       		.byte	0x3
 4116 112c 00000000 		.4byte	system_type
 4117 1130 1F       		.uleb128 0x1f
 4118 1131 34020000 		.4byte	.LASF232
 4119 1135 01       		.byte	0x1
 4120 1136 EA       		.byte	0xea
 4121 1137 CA000000 		.4byte	0xca
 4122 113b 05       		.uleb128 0x5
 4123 113c 03       		.byte	0x3
 4124 113d 00000000 		.4byte	autopilot_type
 4125 1141 1F       		.uleb128 0x1f
 4126 1142 CF050000 		.4byte	.LASF233
 4127 1146 01       		.byte	0x1
 4128 1147 EC       		.byte	0xec
 4129 1148 CA000000 		.4byte	0xca
 4130 114c 05       		.uleb128 0x5
 4131 114d 03       		.byte	0x3
 4132 114e 00000000 		.4byte	system_mode
 4133 1152 1F       		.uleb128 0x1f
 4134 1153 DC0C0000 		.4byte	.LASF234
 4135 1157 01       		.byte	0x1
 4136 1158 ED       		.byte	0xed
 4137 1159 F6000000 		.4byte	0xf6
 4138 115d 05       		.uleb128 0x5
 4139 115e 03       		.byte	0x3
 4140 115f 00000000 		.4byte	custom_mode
 4141 1163 1F       		.uleb128 0x1f
 4142 1164 4D010000 		.4byte	.LASF235
 4143 1168 01       		.byte	0x1
 4144 1169 EE       		.byte	0xee
 4145 116a CA000000 		.4byte	0xca
 4146 116e 05       		.uleb128 0x5
 4147 116f 03       		.byte	0x3
ARM GAS  C:\Users\Sven\AppData\Local\Temp\cc5mu159.s 			page 92


 4148 1170 00000000 		.4byte	system_state
 4149 1174 21       		.uleb128 0x21
 4150 1175 6D736700 		.ascii	"msg\000"
 4151 1179 01       		.byte	0x1
 4152 117a F1       		.byte	0xf1
 4153 117b 13020000 		.4byte	0x213
 4154 117f 05       		.uleb128 0x5
 4155 1180 03       		.byte	0x3
 4156 1181 00000000 		.4byte	msg
 4157 1185 0B       		.uleb128 0xb
 4158 1186 CA000000 		.4byte	0xca
 4159 118a 96110000 		.4byte	0x1196
 4160 118e 22       		.uleb128 0x22
 4161 118f 46010000 		.4byte	0x146
 4162 1193 0601     		.2byte	0x106
 4163 1195 00       		.byte	0
 4164 1196 21       		.uleb128 0x21
 4165 1197 62756600 		.ascii	"buf\000"
 4166 119b 01       		.byte	0x1
 4167 119c F2       		.byte	0xf2
 4168 119d 85110000 		.4byte	0x1185
 4169 11a1 05       		.uleb128 0x5
 4170 11a2 03       		.byte	0x3
 4171 11a3 00000000 		.4byte	buf
 4172 11a7 1F       		.uleb128 0x1f
 4173 11a8 8E050000 		.4byte	.LASF236
 4174 11ac 01       		.byte	0x1
 4175 11ad F4       		.byte	0xf4
 4176 11ae CA000000 		.4byte	0xca
 4177 11b2 05       		.uleb128 0x5
 4178 11b3 03       		.byte	0x3
 4179 11b4 00000000 		.4byte	cnt_ML_HEARTBEAT_send
 4180 11b8 1F       		.uleb128 0x1f
 4181 11b9 5A010000 		.4byte	.LASF237
 4182 11bd 01       		.byte	0x1
 4183 11be F5       		.byte	0xf5
 4184 11bf CA000000 		.4byte	0xca
 4185 11c3 05       		.uleb128 0x5
 4186 11c4 03       		.byte	0x3
 4187 11c5 00000000 		.4byte	cnt_ML_ATTITUDE_send
 4188 11c9 23       		.uleb128 0x23
 4189 11ca 7E090000 		.4byte	.LASF240
 4190 11ce 08       		.byte	0x8
 4191 11cf D9       		.byte	0xd9
 4192 11d0 B1000000 		.4byte	0xb1
 4193 11d4 E4110000 		.4byte	0x11e4
 4194 11d8 24       		.uleb128 0x24
 4195 11d9 4D010000 		.4byte	0x14d
 4196 11dd 24       		.uleb128 0x24
 4197 11de 53010000 		.4byte	0x153
 4198 11e2 25       		.uleb128 0x25
 4199 11e3 00       		.byte	0
 4200 11e4 26       		.uleb128 0x26
 4201 11e5 AE010000 		.4byte	.LASF238
 4202 11e9 07       		.byte	0x7
 4203 11ea 6801     		.2byte	0x168
 4204 11ec F6110000 		.4byte	0x11f6
ARM GAS  C:\Users\Sven\AppData\Local\Temp\cc5mu159.s 			page 93


 4205 11f0 24       		.uleb128 0x24
 4206 11f1 F6110000 		.4byte	0x11f6
 4207 11f5 00       		.byte	0
 4208 11f6 05       		.uleb128 0x5
 4209 11f7 04       		.byte	0x4
 4210 11f8 FC110000 		.4byte	0x11fc
 4211 11fc 06       		.uleb128 0x6
 4212 11fd 34010000 		.4byte	0x134
 4213 1201 26       		.uleb128 0x26
 4214 1202 0D020000 		.4byte	.LASF239
 4215 1206 07       		.byte	0x7
 4216 1207 7D01     		.2byte	0x17d
 4217 1209 13120000 		.4byte	0x1213
 4218 120d 24       		.uleb128 0x24
 4219 120e 17010000 		.4byte	0x117
 4220 1212 00       		.byte	0
 4221 1213 27       		.uleb128 0x27
 4222 1214 BA0B0000 		.4byte	.LASF242
 4223 1218 09       		.byte	0x9
 4224 1219 9C       		.byte	0x9c
 4225 121a 23       		.uleb128 0x23
 4226 121b 710C0000 		.4byte	.LASF241
 4227 121f 09       		.byte	0x9
 4228 1220 9F       		.byte	0x9f
 4229 1221 22010000 		.4byte	0x122
 4230 1225 2F120000 		.4byte	0x122f
 4231 1229 24       		.uleb128 0x24
 4232 122a 17010000 		.4byte	0x117
 4233 122e 00       		.byte	0
 4234 122f 27       		.uleb128 0x27
 4235 1230 8E0D0000 		.4byte	.LASF243
 4236 1234 09       		.byte	0x9
 4237 1235 9D       		.byte	0x9d
 4238 1236 26       		.uleb128 0x26
 4239 1237 920B0000 		.4byte	.LASF244
 4240 123b 0A       		.byte	0xa
 4241 123c 5401     		.2byte	0x154
 4242 123e 48120000 		.4byte	0x1248
 4243 1242 24       		.uleb128 0x24
 4244 1243 17010000 		.4byte	0x117
 4245 1247 00       		.byte	0
 4246 1248 28       		.uleb128 0x28
 4247 1249 C30D0000 		.4byte	.LASF245
 4248 124d 0B       		.byte	0xb
 4249 124e 1D       		.byte	0x1d
 4250 124f 59120000 		.4byte	0x1259
 4251 1253 24       		.uleb128 0x24
 4252 1254 0C010000 		.4byte	0x10c
 4253 1258 00       		.byte	0
 4254 1259 28       		.uleb128 0x28
 4255 125a 5A0D0000 		.4byte	.LASF246
 4256 125e 0C       		.byte	0xc
 4257 125f 1D       		.byte	0x1d
 4258 1260 6A120000 		.4byte	0x126a
 4259 1264 24       		.uleb128 0x24
 4260 1265 0C010000 		.4byte	0x10c
 4261 1269 00       		.byte	0
ARM GAS  C:\Users\Sven\AppData\Local\Temp\cc5mu159.s 			page 94


 4262 126a 27       		.uleb128 0x27
 4263 126b 85000000 		.4byte	.LASF247
 4264 126f 0D       		.byte	0xd
 4265 1270 A9       		.byte	0xa9
 4266 1271 27       		.uleb128 0x27
 4267 1272 580E0000 		.4byte	.LASF248
 4268 1276 0E       		.byte	0xe
 4269 1277 24       		.byte	0x24
 4270 1278 29       		.uleb128 0x29
 4271 1279 990F0000 		.4byte	.LASF250
 4272 127d 0E       		.byte	0xe
 4273 127e 25       		.byte	0x25
 4274 127f EB000000 		.4byte	0xeb
 4275 1283 27       		.uleb128 0x27
 4276 1284 340C0000 		.4byte	.LASF249
 4277 1288 0E       		.byte	0xe
 4278 1289 27       		.byte	0x27
 4279 128a 29       		.uleb128 0x29
 4280 128b ED000000 		.4byte	.LASF251
 4281 128f 0E       		.byte	0xe
 4282 1290 28       		.byte	0x28
 4283 1291 EB000000 		.4byte	0xeb
 4284 1295 23       		.uleb128 0x23
 4285 1296 810C0000 		.4byte	.LASF252
 4286 129a 0F       		.byte	0xf
 4287 129b 7E       		.byte	0x7e
 4288 129c 25000000 		.4byte	0x25
 4289 12a0 AF120000 		.4byte	0x12af
 4290 12a4 24       		.uleb128 0x24
 4291 12a5 25000000 		.4byte	0x25
 4292 12a9 24       		.uleb128 0x24
 4293 12aa 25000000 		.4byte	0x25
 4294 12ae 00       		.byte	0
 4295 12af 23       		.uleb128 0x23
 4296 12b0 B80F0000 		.4byte	.LASF253
 4297 12b4 10       		.byte	0x10
 4298 12b5 1C       		.byte	0x1c
 4299 12b6 B1000000 		.4byte	0xb1
 4300 12ba C9120000 		.4byte	0x12c9
 4301 12be 24       		.uleb128 0x24
 4302 12bf 53010000 		.4byte	0x153
 4303 12c3 24       		.uleb128 0x24
 4304 12c4 53010000 		.4byte	0x153
 4305 12c8 00       		.byte	0
 4306 12c9 28       		.uleb128 0x28
 4307 12ca 26000000 		.4byte	.LASF254
 4308 12ce 11       		.byte	0x11
 4309 12cf 7B       		.byte	0x7b
 4310 12d0 DA120000 		.4byte	0x12da
 4311 12d4 24       		.uleb128 0x24
 4312 12d5 17010000 		.4byte	0x117
 4313 12d9 00       		.byte	0
 4314 12da 27       		.uleb128 0x27
 4315 12db 65040000 		.4byte	.LASF255
 4316 12df 12       		.byte	0x12
 4317 12e0 58       		.byte	0x58
 4318 12e1 28       		.uleb128 0x28
ARM GAS  C:\Users\Sven\AppData\Local\Temp\cc5mu159.s 			page 95


 4319 12e2 57070000 		.4byte	.LASF256
 4320 12e6 11       		.byte	0x11
 4321 12e7 4C       		.byte	0x4c
 4322 12e8 F2120000 		.4byte	0x12f2
 4323 12ec 24       		.uleb128 0x24
 4324 12ed 17010000 		.4byte	0x117
 4325 12f1 00       		.byte	0
 4326 12f2 27       		.uleb128 0x27
 4327 12f3 720B0000 		.4byte	.LASF257
 4328 12f7 13       		.byte	0x13
 4329 12f8 65       		.byte	0x65
 4330 12f9 27       		.uleb128 0x27
 4331 12fa E80C0000 		.4byte	.LASF258
 4332 12fe 14       		.byte	0x14
 4333 12ff 65       		.byte	0x65
 4334 1300 27       		.uleb128 0x27
 4335 1301 A0040000 		.4byte	.LASF259
 4336 1305 09       		.byte	0x9
 4337 1306 98       		.byte	0x98
 4338 1307 28       		.uleb128 0x28
 4339 1308 400D0000 		.4byte	.LASF260
 4340 130c 11       		.byte	0x11
 4341 130d 3C       		.byte	0x3c
 4342 130e 1D130000 		.4byte	0x131d
 4343 1312 24       		.uleb128 0x24
 4344 1313 17010000 		.4byte	0x117
 4345 1317 24       		.uleb128 0x24
 4346 1318 17010000 		.4byte	0x117
 4347 131c 00       		.byte	0
 4348 131d 28       		.uleb128 0x28
 4349 131e 4F0B0000 		.4byte	.LASF261
 4350 1322 11       		.byte	0x11
 4351 1323 45       		.byte	0x45
 4352 1324 33130000 		.4byte	0x1333
 4353 1328 24       		.uleb128 0x24
 4354 1329 17010000 		.4byte	0x117
 4355 132d 24       		.uleb128 0x24
 4356 132e 17010000 		.4byte	0x117
 4357 1332 00       		.byte	0
 4358 1333 2A       		.uleb128 0x2a
 4359 1334 2D010000 		.4byte	.LASF262
 4360 1338 15       		.byte	0x15
 4361 1339 3101     		.2byte	0x131
 4362 133b 2A       		.uleb128 0x2a
 4363 133c BB080000 		.4byte	.LASF263
 4364 1340 0A       		.byte	0xa
 4365 1341 3101     		.2byte	0x131
 4366 1343 2A       		.uleb128 0x2a
 4367 1344 F20B0000 		.4byte	.LASF264
 4368 1348 16       		.byte	0x16
 4369 1349 3101     		.2byte	0x131
 4370 134b 2A       		.uleb128 0x2a
 4371 134c CB060000 		.4byte	.LASF265
 4372 1350 17       		.byte	0x17
 4373 1351 3101     		.2byte	0x131
 4374 1353 27       		.uleb128 0x27
 4375 1354 07010000 		.4byte	.LASF266
ARM GAS  C:\Users\Sven\AppData\Local\Temp\cc5mu159.s 			page 96


 4376 1358 18       		.byte	0x18
 4377 1359 17       		.byte	0x17
 4378 135a 27       		.uleb128 0x27
 4379 135b 2E090000 		.4byte	.LASF267
 4380 135f 19       		.byte	0x19
 4381 1360 17       		.byte	0x17
 4382 1361 27       		.uleb128 0x27
 4383 1362 790F0000 		.4byte	.LASF268
 4384 1366 1A       		.byte	0x1a
 4385 1367 17       		.byte	0x17
 4386 1368 27       		.uleb128 0x27
 4387 1369 990C0000 		.4byte	.LASF269
 4388 136d 1B       		.byte	0x1b
 4389 136e 17       		.byte	0x17
 4390 136f 27       		.uleb128 0x27
 4391 1370 0F0A0000 		.4byte	.LASF270
 4392 1374 1C       		.byte	0x1c
 4393 1375 17       		.byte	0x17
 4394 1376 27       		.uleb128 0x27
 4395 1377 F30D0000 		.4byte	.LASF271
 4396 137b 0D       		.byte	0xd
 4397 137c A6       		.byte	0xa6
 4398 137d 27       		.uleb128 0x27
 4399 137e 340E0000 		.4byte	.LASF272
 4400 1382 0E       		.byte	0xe
 4401 1383 22       		.byte	0x22
 4402 1384 28       		.uleb128 0x28
 4403 1385 000A0000 		.4byte	.LASF273
 4404 1389 11       		.byte	0x11
 4405 138a 41       		.byte	0x41
 4406 138b 95130000 		.4byte	0x1395
 4407 138f 24       		.uleb128 0x24
 4408 1390 17010000 		.4byte	0x117
 4409 1394 00       		.byte	0
 4410 1395 2B       		.uleb128 0x2b
 4411 1396 6D0A0000 		.4byte	.LASF274
 4412 139a 07       		.byte	0x7
 4413 139b 5B01     		.2byte	0x15b
 4414 139d 17010000 		.4byte	0x117
 4415 13a1 00       		.byte	0
 4416              		.section	.debug_abbrev,"",%progbits
 4417              	.Ldebug_abbrev0:
 4418 0000 01       		.uleb128 0x1
 4419 0001 11       		.uleb128 0x11
 4420 0002 01       		.byte	0x1
 4421 0003 25       		.uleb128 0x25
 4422 0004 0E       		.uleb128 0xe
 4423 0005 13       		.uleb128 0x13
 4424 0006 0B       		.uleb128 0xb
 4425 0007 03       		.uleb128 0x3
 4426 0008 0E       		.uleb128 0xe
 4427 0009 1B       		.uleb128 0x1b
 4428 000a 0E       		.uleb128 0xe
 4429 000b 55       		.uleb128 0x55
 4430 000c 17       		.uleb128 0x17
 4431 000d 11       		.uleb128 0x11
 4432 000e 01       		.uleb128 0x1
ARM GAS  C:\Users\Sven\AppData\Local\Temp\cc5mu159.s 			page 97


 4433 000f 10       		.uleb128 0x10
 4434 0010 17       		.uleb128 0x17
 4435 0011 00       		.byte	0
 4436 0012 00       		.byte	0
 4437 0013 02       		.uleb128 0x2
 4438 0014 24       		.uleb128 0x24
 4439 0015 00       		.byte	0
 4440 0016 0B       		.uleb128 0xb
 4441 0017 0B       		.uleb128 0xb
 4442 0018 3E       		.uleb128 0x3e
 4443 0019 0B       		.uleb128 0xb
 4444 001a 03       		.uleb128 0x3
 4445 001b 0E       		.uleb128 0xe
 4446 001c 00       		.byte	0
 4447 001d 00       		.byte	0
 4448 001e 03       		.uleb128 0x3
 4449 001f 16       		.uleb128 0x16
 4450 0020 00       		.byte	0
 4451 0021 03       		.uleb128 0x3
 4452 0022 0E       		.uleb128 0xe
 4453 0023 3A       		.uleb128 0x3a
 4454 0024 0B       		.uleb128 0xb
 4455 0025 3B       		.uleb128 0x3b
 4456 0026 0B       		.uleb128 0xb
 4457 0027 49       		.uleb128 0x49
 4458 0028 13       		.uleb128 0x13
 4459 0029 00       		.byte	0
 4460 002a 00       		.byte	0
 4461 002b 04       		.uleb128 0x4
 4462 002c 24       		.uleb128 0x24
 4463 002d 00       		.byte	0
 4464 002e 0B       		.uleb128 0xb
 4465 002f 0B       		.uleb128 0xb
 4466 0030 3E       		.uleb128 0x3e
 4467 0031 0B       		.uleb128 0xb
 4468 0032 03       		.uleb128 0x3
 4469 0033 08       		.uleb128 0x8
 4470 0034 00       		.byte	0
 4471 0035 00       		.byte	0
 4472 0036 05       		.uleb128 0x5
 4473 0037 0F       		.uleb128 0xf
 4474 0038 00       		.byte	0
 4475 0039 0B       		.uleb128 0xb
 4476 003a 0B       		.uleb128 0xb
 4477 003b 49       		.uleb128 0x49
 4478 003c 13       		.uleb128 0x13
 4479 003d 00       		.byte	0
 4480 003e 00       		.byte	0
 4481 003f 06       		.uleb128 0x6
 4482 0040 26       		.uleb128 0x26
 4483 0041 00       		.byte	0
 4484 0042 49       		.uleb128 0x49
 4485 0043 13       		.uleb128 0x13
 4486 0044 00       		.byte	0
 4487 0045 00       		.byte	0
 4488 0046 07       		.uleb128 0x7
 4489 0047 13       		.uleb128 0x13
ARM GAS  C:\Users\Sven\AppData\Local\Temp\cc5mu159.s 			page 98


 4490 0048 01       		.byte	0x1
 4491 0049 03       		.uleb128 0x3
 4492 004a 0E       		.uleb128 0xe
 4493 004b 0B       		.uleb128 0xb
 4494 004c 0B       		.uleb128 0xb
 4495 004d 3A       		.uleb128 0x3a
 4496 004e 0B       		.uleb128 0xb
 4497 004f 3B       		.uleb128 0x3b
 4498 0050 0B       		.uleb128 0xb
 4499 0051 01       		.uleb128 0x1
 4500 0052 13       		.uleb128 0x13
 4501 0053 00       		.byte	0
 4502 0054 00       		.byte	0
 4503 0055 08       		.uleb128 0x8
 4504 0056 0D       		.uleb128 0xd
 4505 0057 00       		.byte	0
 4506 0058 03       		.uleb128 0x3
 4507 0059 0E       		.uleb128 0xe
 4508 005a 3A       		.uleb128 0x3a
 4509 005b 0B       		.uleb128 0xb
 4510 005c 3B       		.uleb128 0x3b
 4511 005d 0B       		.uleb128 0xb
 4512 005e 49       		.uleb128 0x49
 4513 005f 13       		.uleb128 0x13
 4514 0060 38       		.uleb128 0x38
 4515 0061 0B       		.uleb128 0xb
 4516 0062 00       		.byte	0
 4517 0063 00       		.byte	0
 4518 0064 09       		.uleb128 0x9
 4519 0065 13       		.uleb128 0x13
 4520 0066 01       		.byte	0x1
 4521 0067 03       		.uleb128 0x3
 4522 0068 0E       		.uleb128 0xe
 4523 0069 0B       		.uleb128 0xb
 4524 006a 05       		.uleb128 0x5
 4525 006b 3A       		.uleb128 0x3a
 4526 006c 0B       		.uleb128 0xb
 4527 006d 3B       		.uleb128 0x3b
 4528 006e 0B       		.uleb128 0xb
 4529 006f 01       		.uleb128 0x1
 4530 0070 13       		.uleb128 0x13
 4531 0071 00       		.byte	0
 4532 0072 00       		.byte	0
 4533 0073 0A       		.uleb128 0xa
 4534 0074 0D       		.uleb128 0xd
 4535 0075 00       		.byte	0
 4536 0076 03       		.uleb128 0x3
 4537 0077 08       		.uleb128 0x8
 4538 0078 3A       		.uleb128 0x3a
 4539 0079 0B       		.uleb128 0xb
 4540 007a 3B       		.uleb128 0x3b
 4541 007b 0B       		.uleb128 0xb
 4542 007c 49       		.uleb128 0x49
 4543 007d 13       		.uleb128 0x13
 4544 007e 38       		.uleb128 0x38
 4545 007f 0B       		.uleb128 0xb
 4546 0080 00       		.byte	0
ARM GAS  C:\Users\Sven\AppData\Local\Temp\cc5mu159.s 			page 99


 4547 0081 00       		.byte	0
 4548 0082 0B       		.uleb128 0xb
 4549 0083 01       		.uleb128 0x1
 4550 0084 01       		.byte	0x1
 4551 0085 49       		.uleb128 0x49
 4552 0086 13       		.uleb128 0x13
 4553 0087 01       		.uleb128 0x1
 4554 0088 13       		.uleb128 0x13
 4555 0089 00       		.byte	0
 4556 008a 00       		.byte	0
 4557 008b 0C       		.uleb128 0xc
 4558 008c 21       		.uleb128 0x21
 4559 008d 00       		.byte	0
 4560 008e 49       		.uleb128 0x49
 4561 008f 13       		.uleb128 0x13
 4562 0090 2F       		.uleb128 0x2f
 4563 0091 0B       		.uleb128 0xb
 4564 0092 00       		.byte	0
 4565 0093 00       		.byte	0
 4566 0094 0D       		.uleb128 0xd
 4567 0095 04       		.uleb128 0x4
 4568 0096 01       		.byte	0x1
 4569 0097 03       		.uleb128 0x3
 4570 0098 0E       		.uleb128 0xe
 4571 0099 0B       		.uleb128 0xb
 4572 009a 0B       		.uleb128 0xb
 4573 009b 3A       		.uleb128 0x3a
 4574 009c 0B       		.uleb128 0xb
 4575 009d 3B       		.uleb128 0x3b
 4576 009e 0B       		.uleb128 0xb
 4577 009f 01       		.uleb128 0x1
 4578 00a0 13       		.uleb128 0x13
 4579 00a1 00       		.byte	0
 4580 00a2 00       		.byte	0
 4581 00a3 0E       		.uleb128 0xe
 4582 00a4 28       		.uleb128 0x28
 4583 00a5 00       		.byte	0
 4584 00a6 03       		.uleb128 0x3
 4585 00a7 0E       		.uleb128 0xe
 4586 00a8 1C       		.uleb128 0x1c
 4587 00a9 0D       		.uleb128 0xd
 4588 00aa 00       		.byte	0
 4589 00ab 00       		.byte	0
 4590 00ac 0F       		.uleb128 0xf
 4591 00ad 2E       		.uleb128 0x2e
 4592 00ae 01       		.byte	0x1
 4593 00af 3F       		.uleb128 0x3f
 4594 00b0 19       		.uleb128 0x19
 4595 00b1 03       		.uleb128 0x3
 4596 00b2 0E       		.uleb128 0xe
 4597 00b3 3A       		.uleb128 0x3a
 4598 00b4 0B       		.uleb128 0xb
 4599 00b5 3B       		.uleb128 0x3b
 4600 00b6 0B       		.uleb128 0xb
 4601 00b7 27       		.uleb128 0x27
 4602 00b8 19       		.uleb128 0x19
 4603 00b9 11       		.uleb128 0x11
ARM GAS  C:\Users\Sven\AppData\Local\Temp\cc5mu159.s 			page 100


 4604 00ba 01       		.uleb128 0x1
 4605 00bb 12       		.uleb128 0x12
 4606 00bc 06       		.uleb128 0x6
 4607 00bd 40       		.uleb128 0x40
 4608 00be 18       		.uleb128 0x18
 4609 00bf 9742     		.uleb128 0x2117
 4610 00c1 19       		.uleb128 0x19
 4611 00c2 01       		.uleb128 0x1
 4612 00c3 13       		.uleb128 0x13
 4613 00c4 00       		.byte	0
 4614 00c5 00       		.byte	0
 4615 00c6 10       		.uleb128 0x10
 4616 00c7 05       		.uleb128 0x5
 4617 00c8 00       		.byte	0
 4618 00c9 03       		.uleb128 0x3
 4619 00ca 08       		.uleb128 0x8
 4620 00cb 3A       		.uleb128 0x3a
 4621 00cc 0B       		.uleb128 0xb
 4622 00cd 3B       		.uleb128 0x3b
 4623 00ce 0B       		.uleb128 0xb
 4624 00cf 49       		.uleb128 0x49
 4625 00d0 13       		.uleb128 0x13
 4626 00d1 02       		.uleb128 0x2
 4627 00d2 17       		.uleb128 0x17
 4628 00d3 00       		.byte	0
 4629 00d4 00       		.byte	0
 4630 00d5 11       		.uleb128 0x11
 4631 00d6 34       		.uleb128 0x34
 4632 00d7 00       		.byte	0
 4633 00d8 03       		.uleb128 0x3
 4634 00d9 08       		.uleb128 0x8
 4635 00da 3A       		.uleb128 0x3a
 4636 00db 0B       		.uleb128 0xb
 4637 00dc 3B       		.uleb128 0x3b
 4638 00dd 0B       		.uleb128 0xb
 4639 00de 49       		.uleb128 0x49
 4640 00df 13       		.uleb128 0x13
 4641 00e0 02       		.uleb128 0x2
 4642 00e1 18       		.uleb128 0x18
 4643 00e2 00       		.byte	0
 4644 00e3 00       		.byte	0
 4645 00e4 12       		.uleb128 0x12
 4646 00e5 898201   		.uleb128 0x4109
 4647 00e8 01       		.byte	0x1
 4648 00e9 11       		.uleb128 0x11
 4649 00ea 01       		.uleb128 0x1
 4650 00eb 31       		.uleb128 0x31
 4651 00ec 13       		.uleb128 0x13
 4652 00ed 01       		.uleb128 0x1
 4653 00ee 13       		.uleb128 0x13
 4654 00ef 00       		.byte	0
 4655 00f0 00       		.byte	0
 4656 00f1 13       		.uleb128 0x13
 4657 00f2 8A8201   		.uleb128 0x410a
 4658 00f5 00       		.byte	0
 4659 00f6 02       		.uleb128 0x2
 4660 00f7 18       		.uleb128 0x18
ARM GAS  C:\Users\Sven\AppData\Local\Temp\cc5mu159.s 			page 101


 4661 00f8 9142     		.uleb128 0x2111
 4662 00fa 18       		.uleb128 0x18
 4663 00fb 00       		.byte	0
 4664 00fc 00       		.byte	0
 4665 00fd 14       		.uleb128 0x14
 4666 00fe 898201   		.uleb128 0x4109
 4667 0101 01       		.byte	0x1
 4668 0102 11       		.uleb128 0x11
 4669 0103 01       		.uleb128 0x1
 4670 0104 31       		.uleb128 0x31
 4671 0105 13       		.uleb128 0x13
 4672 0106 00       		.byte	0
 4673 0107 00       		.byte	0
 4674 0108 15       		.uleb128 0x15
 4675 0109 2E       		.uleb128 0x2e
 4676 010a 01       		.byte	0x1
 4677 010b 3F       		.uleb128 0x3f
 4678 010c 19       		.uleb128 0x19
 4679 010d 03       		.uleb128 0x3
 4680 010e 0E       		.uleb128 0xe
 4681 010f 3A       		.uleb128 0x3a
 4682 0110 0B       		.uleb128 0xb
 4683 0111 3B       		.uleb128 0x3b
 4684 0112 05       		.uleb128 0x5
 4685 0113 27       		.uleb128 0x27
 4686 0114 19       		.uleb128 0x19
 4687 0115 11       		.uleb128 0x11
 4688 0116 01       		.uleb128 0x1
 4689 0117 12       		.uleb128 0x12
 4690 0118 06       		.uleb128 0x6
 4691 0119 40       		.uleb128 0x40
 4692 011a 18       		.uleb128 0x18
 4693 011b 9742     		.uleb128 0x2117
 4694 011d 19       		.uleb128 0x19
 4695 011e 01       		.uleb128 0x1
 4696 011f 13       		.uleb128 0x13
 4697 0120 00       		.byte	0
 4698 0121 00       		.byte	0
 4699 0122 16       		.uleb128 0x16
 4700 0123 05       		.uleb128 0x5
 4701 0124 00       		.byte	0
 4702 0125 03       		.uleb128 0x3
 4703 0126 08       		.uleb128 0x8
 4704 0127 3A       		.uleb128 0x3a
 4705 0128 0B       		.uleb128 0xb
 4706 0129 3B       		.uleb128 0x3b
 4707 012a 05       		.uleb128 0x5
 4708 012b 49       		.uleb128 0x49
 4709 012c 13       		.uleb128 0x13
 4710 012d 02       		.uleb128 0x2
 4711 012e 17       		.uleb128 0x17
 4712 012f 00       		.byte	0
 4713 0130 00       		.byte	0
 4714 0131 17       		.uleb128 0x17
 4715 0132 34       		.uleb128 0x34
 4716 0133 00       		.byte	0
 4717 0134 03       		.uleb128 0x3
ARM GAS  C:\Users\Sven\AppData\Local\Temp\cc5mu159.s 			page 102


 4718 0135 08       		.uleb128 0x8
 4719 0136 3A       		.uleb128 0x3a
 4720 0137 0B       		.uleb128 0xb
 4721 0138 3B       		.uleb128 0x3b
 4722 0139 05       		.uleb128 0x5
 4723 013a 49       		.uleb128 0x49
 4724 013b 13       		.uleb128 0x13
 4725 013c 02       		.uleb128 0x2
 4726 013d 17       		.uleb128 0x17
 4727 013e 00       		.byte	0
 4728 013f 00       		.byte	0
 4729 0140 18       		.uleb128 0x18
 4730 0141 898201   		.uleb128 0x4109
 4731 0144 00       		.byte	0
 4732 0145 11       		.uleb128 0x11
 4733 0146 01       		.uleb128 0x1
 4734 0147 31       		.uleb128 0x31
 4735 0148 13       		.uleb128 0x13
 4736 0149 00       		.byte	0
 4737 014a 00       		.byte	0
 4738 014b 19       		.uleb128 0x19
 4739 014c 2E       		.uleb128 0x2e
 4740 014d 01       		.byte	0x1
 4741 014e 3F       		.uleb128 0x3f
 4742 014f 19       		.uleb128 0x19
 4743 0150 03       		.uleb128 0x3
 4744 0151 0E       		.uleb128 0xe
 4745 0152 3A       		.uleb128 0x3a
 4746 0153 0B       		.uleb128 0xb
 4747 0154 3B       		.uleb128 0x3b
 4748 0155 05       		.uleb128 0x5
 4749 0156 27       		.uleb128 0x27
 4750 0157 19       		.uleb128 0x19
 4751 0158 49       		.uleb128 0x49
 4752 0159 13       		.uleb128 0x13
 4753 015a 11       		.uleb128 0x11
 4754 015b 01       		.uleb128 0x1
 4755 015c 12       		.uleb128 0x12
 4756 015d 06       		.uleb128 0x6
 4757 015e 40       		.uleb128 0x40
 4758 015f 18       		.uleb128 0x18
 4759 0160 9742     		.uleb128 0x2117
 4760 0162 19       		.uleb128 0x19
 4761 0163 01       		.uleb128 0x1
 4762 0164 13       		.uleb128 0x13
 4763 0165 00       		.byte	0
 4764 0166 00       		.byte	0
 4765 0167 1A       		.uleb128 0x1a
 4766 0168 34       		.uleb128 0x34
 4767 0169 00       		.byte	0
 4768 016a 03       		.uleb128 0x3
 4769 016b 0E       		.uleb128 0xe
 4770 016c 3A       		.uleb128 0x3a
 4771 016d 0B       		.uleb128 0xb
 4772 016e 3B       		.uleb128 0x3b
 4773 016f 05       		.uleb128 0x5
 4774 0170 49       		.uleb128 0x49
ARM GAS  C:\Users\Sven\AppData\Local\Temp\cc5mu159.s 			page 103


 4775 0171 13       		.uleb128 0x13
 4776 0172 02       		.uleb128 0x2
 4777 0173 17       		.uleb128 0x17
 4778 0174 00       		.byte	0
 4779 0175 00       		.byte	0
 4780 0176 1B       		.uleb128 0x1b
 4781 0177 2E       		.uleb128 0x2e
 4782 0178 01       		.byte	0x1
 4783 0179 3F       		.uleb128 0x3f
 4784 017a 19       		.uleb128 0x19
 4785 017b 03       		.uleb128 0x3
 4786 017c 0E       		.uleb128 0xe
 4787 017d 3A       		.uleb128 0x3a
 4788 017e 0B       		.uleb128 0xb
 4789 017f 3B       		.uleb128 0x3b
 4790 0180 05       		.uleb128 0x5
 4791 0181 27       		.uleb128 0x27
 4792 0182 19       		.uleb128 0x19
 4793 0183 11       		.uleb128 0x11
 4794 0184 01       		.uleb128 0x1
 4795 0185 12       		.uleb128 0x12
 4796 0186 06       		.uleb128 0x6
 4797 0187 40       		.uleb128 0x40
 4798 0188 18       		.uleb128 0x18
 4799 0189 9642     		.uleb128 0x2116
 4800 018b 19       		.uleb128 0x19
 4801 018c 01       		.uleb128 0x1
 4802 018d 13       		.uleb128 0x13
 4803 018e 00       		.byte	0
 4804 018f 00       		.byte	0
 4805 0190 1C       		.uleb128 0x1c
 4806 0191 2E       		.uleb128 0x2e
 4807 0192 01       		.byte	0x1
 4808 0193 3F       		.uleb128 0x3f
 4809 0194 19       		.uleb128 0x19
 4810 0195 03       		.uleb128 0x3
 4811 0196 0E       		.uleb128 0xe
 4812 0197 3A       		.uleb128 0x3a
 4813 0198 0B       		.uleb128 0xb
 4814 0199 3B       		.uleb128 0x3b
 4815 019a 05       		.uleb128 0x5
 4816 019b 49       		.uleb128 0x49
 4817 019c 13       		.uleb128 0x13
 4818 019d 11       		.uleb128 0x11
 4819 019e 01       		.uleb128 0x1
 4820 019f 12       		.uleb128 0x12
 4821 01a0 06       		.uleb128 0x6
 4822 01a1 40       		.uleb128 0x40
 4823 01a2 18       		.uleb128 0x18
 4824 01a3 9642     		.uleb128 0x2116
 4825 01a5 19       		.uleb128 0x19
 4826 01a6 01       		.uleb128 0x1
 4827 01a7 13       		.uleb128 0x13
 4828 01a8 00       		.byte	0
 4829 01a9 00       		.byte	0
 4830 01aa 1D       		.uleb128 0x1d
 4831 01ab 0B       		.uleb128 0xb
ARM GAS  C:\Users\Sven\AppData\Local\Temp\cc5mu159.s 			page 104


 4832 01ac 01       		.byte	0x1
 4833 01ad 11       		.uleb128 0x11
 4834 01ae 01       		.uleb128 0x1
 4835 01af 12       		.uleb128 0x12
 4836 01b0 06       		.uleb128 0x6
 4837 01b1 01       		.uleb128 0x1
 4838 01b2 13       		.uleb128 0x13
 4839 01b3 00       		.byte	0
 4840 01b4 00       		.byte	0
 4841 01b5 1E       		.uleb128 0x1e
 4842 01b6 0B       		.uleb128 0xb
 4843 01b7 01       		.byte	0x1
 4844 01b8 11       		.uleb128 0x11
 4845 01b9 01       		.uleb128 0x1
 4846 01ba 12       		.uleb128 0x12
 4847 01bb 06       		.uleb128 0x6
 4848 01bc 00       		.byte	0
 4849 01bd 00       		.byte	0
 4850 01be 1F       		.uleb128 0x1f
 4851 01bf 34       		.uleb128 0x34
 4852 01c0 00       		.byte	0
 4853 01c1 03       		.uleb128 0x3
 4854 01c2 0E       		.uleb128 0xe
 4855 01c3 3A       		.uleb128 0x3a
 4856 01c4 0B       		.uleb128 0xb
 4857 01c5 3B       		.uleb128 0x3b
 4858 01c6 0B       		.uleb128 0xb
 4859 01c7 49       		.uleb128 0x49
 4860 01c8 13       		.uleb128 0x13
 4861 01c9 3F       		.uleb128 0x3f
 4862 01ca 19       		.uleb128 0x19
 4863 01cb 02       		.uleb128 0x2
 4864 01cc 18       		.uleb128 0x18
 4865 01cd 00       		.byte	0
 4866 01ce 00       		.byte	0
 4867 01cf 20       		.uleb128 0x20
 4868 01d0 35       		.uleb128 0x35
 4869 01d1 00       		.byte	0
 4870 01d2 49       		.uleb128 0x49
 4871 01d3 13       		.uleb128 0x13
 4872 01d4 00       		.byte	0
 4873 01d5 00       		.byte	0
 4874 01d6 21       		.uleb128 0x21
 4875 01d7 34       		.uleb128 0x34
 4876 01d8 00       		.byte	0
 4877 01d9 03       		.uleb128 0x3
 4878 01da 08       		.uleb128 0x8
 4879 01db 3A       		.uleb128 0x3a
 4880 01dc 0B       		.uleb128 0xb
 4881 01dd 3B       		.uleb128 0x3b
 4882 01de 0B       		.uleb128 0xb
 4883 01df 49       		.uleb128 0x49
 4884 01e0 13       		.uleb128 0x13
 4885 01e1 3F       		.uleb128 0x3f
 4886 01e2 19       		.uleb128 0x19
 4887 01e3 02       		.uleb128 0x2
 4888 01e4 18       		.uleb128 0x18
ARM GAS  C:\Users\Sven\AppData\Local\Temp\cc5mu159.s 			page 105


 4889 01e5 00       		.byte	0
 4890 01e6 00       		.byte	0
 4891 01e7 22       		.uleb128 0x22
 4892 01e8 21       		.uleb128 0x21
 4893 01e9 00       		.byte	0
 4894 01ea 49       		.uleb128 0x49
 4895 01eb 13       		.uleb128 0x13
 4896 01ec 2F       		.uleb128 0x2f
 4897 01ed 05       		.uleb128 0x5
 4898 01ee 00       		.byte	0
 4899 01ef 00       		.byte	0
 4900 01f0 23       		.uleb128 0x23
 4901 01f1 2E       		.uleb128 0x2e
 4902 01f2 01       		.byte	0x1
 4903 01f3 3F       		.uleb128 0x3f
 4904 01f4 19       		.uleb128 0x19
 4905 01f5 03       		.uleb128 0x3
 4906 01f6 0E       		.uleb128 0xe
 4907 01f7 3A       		.uleb128 0x3a
 4908 01f8 0B       		.uleb128 0xb
 4909 01f9 3B       		.uleb128 0x3b
 4910 01fa 0B       		.uleb128 0xb
 4911 01fb 27       		.uleb128 0x27
 4912 01fc 19       		.uleb128 0x19
 4913 01fd 49       		.uleb128 0x49
 4914 01fe 13       		.uleb128 0x13
 4915 01ff 3C       		.uleb128 0x3c
 4916 0200 19       		.uleb128 0x19
 4917 0201 01       		.uleb128 0x1
 4918 0202 13       		.uleb128 0x13
 4919 0203 00       		.byte	0
 4920 0204 00       		.byte	0
 4921 0205 24       		.uleb128 0x24
 4922 0206 05       		.uleb128 0x5
 4923 0207 00       		.byte	0
 4924 0208 49       		.uleb128 0x49
 4925 0209 13       		.uleb128 0x13
 4926 020a 00       		.byte	0
 4927 020b 00       		.byte	0
 4928 020c 25       		.uleb128 0x25
 4929 020d 18       		.uleb128 0x18
 4930 020e 00       		.byte	0
 4931 020f 00       		.byte	0
 4932 0210 00       		.byte	0
 4933 0211 26       		.uleb128 0x26
 4934 0212 2E       		.uleb128 0x2e
 4935 0213 01       		.byte	0x1
 4936 0214 3F       		.uleb128 0x3f
 4937 0215 19       		.uleb128 0x19
 4938 0216 03       		.uleb128 0x3
 4939 0217 0E       		.uleb128 0xe
 4940 0218 3A       		.uleb128 0x3a
 4941 0219 0B       		.uleb128 0xb
 4942 021a 3B       		.uleb128 0x3b
 4943 021b 05       		.uleb128 0x5
 4944 021c 27       		.uleb128 0x27
 4945 021d 19       		.uleb128 0x19
ARM GAS  C:\Users\Sven\AppData\Local\Temp\cc5mu159.s 			page 106


 4946 021e 3C       		.uleb128 0x3c
 4947 021f 19       		.uleb128 0x19
 4948 0220 01       		.uleb128 0x1
 4949 0221 13       		.uleb128 0x13
 4950 0222 00       		.byte	0
 4951 0223 00       		.byte	0
 4952 0224 27       		.uleb128 0x27
 4953 0225 2E       		.uleb128 0x2e
 4954 0226 00       		.byte	0
 4955 0227 3F       		.uleb128 0x3f
 4956 0228 19       		.uleb128 0x19
 4957 0229 03       		.uleb128 0x3
 4958 022a 0E       		.uleb128 0xe
 4959 022b 3A       		.uleb128 0x3a
 4960 022c 0B       		.uleb128 0xb
 4961 022d 3B       		.uleb128 0x3b
 4962 022e 0B       		.uleb128 0xb
 4963 022f 27       		.uleb128 0x27
 4964 0230 19       		.uleb128 0x19
 4965 0231 3C       		.uleb128 0x3c
 4966 0232 19       		.uleb128 0x19
 4967 0233 00       		.byte	0
 4968 0234 00       		.byte	0
 4969 0235 28       		.uleb128 0x28
 4970 0236 2E       		.uleb128 0x2e
 4971 0237 01       		.byte	0x1
 4972 0238 3F       		.uleb128 0x3f
 4973 0239 19       		.uleb128 0x19
 4974 023a 03       		.uleb128 0x3
 4975 023b 0E       		.uleb128 0xe
 4976 023c 3A       		.uleb128 0x3a
 4977 023d 0B       		.uleb128 0xb
 4978 023e 3B       		.uleb128 0x3b
 4979 023f 0B       		.uleb128 0xb
 4980 0240 27       		.uleb128 0x27
 4981 0241 19       		.uleb128 0x19
 4982 0242 3C       		.uleb128 0x3c
 4983 0243 19       		.uleb128 0x19
 4984 0244 01       		.uleb128 0x1
 4985 0245 13       		.uleb128 0x13
 4986 0246 00       		.byte	0
 4987 0247 00       		.byte	0
 4988 0248 29       		.uleb128 0x29
 4989 0249 2E       		.uleb128 0x2e
 4990 024a 00       		.byte	0
 4991 024b 3F       		.uleb128 0x3f
 4992 024c 19       		.uleb128 0x19
 4993 024d 03       		.uleb128 0x3
 4994 024e 0E       		.uleb128 0xe
 4995 024f 3A       		.uleb128 0x3a
 4996 0250 0B       		.uleb128 0xb
 4997 0251 3B       		.uleb128 0x3b
 4998 0252 0B       		.uleb128 0xb
 4999 0253 27       		.uleb128 0x27
 5000 0254 19       		.uleb128 0x19
 5001 0255 49       		.uleb128 0x49
 5002 0256 13       		.uleb128 0x13
ARM GAS  C:\Users\Sven\AppData\Local\Temp\cc5mu159.s 			page 107


 5003 0257 3C       		.uleb128 0x3c
 5004 0258 19       		.uleb128 0x19
 5005 0259 00       		.byte	0
 5006 025a 00       		.byte	0
 5007 025b 2A       		.uleb128 0x2a
 5008 025c 2E       		.uleb128 0x2e
 5009 025d 00       		.byte	0
 5010 025e 3F       		.uleb128 0x3f
 5011 025f 19       		.uleb128 0x19
 5012 0260 03       		.uleb128 0x3
 5013 0261 0E       		.uleb128 0xe
 5014 0262 3A       		.uleb128 0x3a
 5015 0263 0B       		.uleb128 0xb
 5016 0264 3B       		.uleb128 0x3b
 5017 0265 05       		.uleb128 0x5
 5018 0266 27       		.uleb128 0x27
 5019 0267 19       		.uleb128 0x19
 5020 0268 3C       		.uleb128 0x3c
 5021 0269 19       		.uleb128 0x19
 5022 026a 00       		.byte	0
 5023 026b 00       		.byte	0
 5024 026c 2B       		.uleb128 0x2b
 5025 026d 2E       		.uleb128 0x2e
 5026 026e 00       		.byte	0
 5027 026f 3F       		.uleb128 0x3f
 5028 0270 19       		.uleb128 0x19
 5029 0271 03       		.uleb128 0x3
 5030 0272 0E       		.uleb128 0xe
 5031 0273 3A       		.uleb128 0x3a
 5032 0274 0B       		.uleb128 0xb
 5033 0275 3B       		.uleb128 0x3b
 5034 0276 05       		.uleb128 0x5
 5035 0277 27       		.uleb128 0x27
 5036 0278 19       		.uleb128 0x19
 5037 0279 49       		.uleb128 0x49
 5038 027a 13       		.uleb128 0x13
 5039 027b 3C       		.uleb128 0x3c
 5040 027c 19       		.uleb128 0x19
 5041 027d 00       		.byte	0
 5042 027e 00       		.byte	0
 5043 027f 00       		.byte	0
 5044              		.section	.debug_loc,"",%progbits
 5045              	.Ldebug_loc0:
 5046              	.LLST0:
 5047 0000 00000000 		.4byte	.LVL0
 5048 0004 0A000000 		.4byte	.LVL1
 5049 0008 0100     		.2byte	0x1
 5050 000a 50       		.byte	0x50
 5051 000b 0A000000 		.4byte	.LVL1
 5052 000f 0D000000 		.4byte	.LVL2-1
 5053 0013 0100     		.2byte	0x1
 5054 0015 52       		.byte	0x52
 5055 0016 0D000000 		.4byte	.LVL2-1
 5056 001a 1C000000 		.4byte	.LFE1489
 5057 001e 0400     		.2byte	0x4
 5058 0020 F3       		.byte	0xf3
 5059 0021 01       		.uleb128 0x1
ARM GAS  C:\Users\Sven\AppData\Local\Temp\cc5mu159.s 			page 108


 5060 0022 50       		.byte	0x50
 5061 0023 9F       		.byte	0x9f
 5062 0024 00000000 		.4byte	0
 5063 0028 00000000 		.4byte	0
 5064              	.LLST1:
 5065 002c 00000000 		.4byte	.LVL4
 5066 0030 06000000 		.4byte	.LVL5
 5067 0034 0100     		.2byte	0x1
 5068 0036 50       		.byte	0x50
 5069 0037 06000000 		.4byte	.LVL5
 5070 003b 1E000000 		.4byte	.LVL12
 5071 003f 0100     		.2byte	0x1
 5072 0041 56       		.byte	0x56
 5073 0042 1E000000 		.4byte	.LVL12
 5074 0046 20000000 		.4byte	.LFE1490
 5075 004a 0400     		.2byte	0x4
 5076 004c F3       		.byte	0xf3
 5077 004d 01       		.uleb128 0x1
 5078 004e 50       		.byte	0x50
 5079 004f 9F       		.byte	0x9f
 5080 0050 00000000 		.4byte	0
 5081 0054 00000000 		.4byte	0
 5082              	.LLST2:
 5083 0058 00000000 		.4byte	.LVL4
 5084 005c 0B000000 		.4byte	.LVL6-1
 5085 0060 0100     		.2byte	0x1
 5086 0062 51       		.byte	0x51
 5087 0063 0B000000 		.4byte	.LVL6-1
 5088 0067 20000000 		.4byte	.LFE1490
 5089 006b 0400     		.2byte	0x4
 5090 006d F3       		.byte	0xf3
 5091 006e 01       		.uleb128 0x1
 5092 006f 51       		.byte	0x51
 5093 0070 9F       		.byte	0x9f
 5094 0071 00000000 		.4byte	0
 5095 0075 00000000 		.4byte	0
 5096              	.LLST3:
 5097 0079 00000000 		.4byte	.LVL4
 5098 007d 0E000000 		.4byte	.LVL7
 5099 0081 0200     		.2byte	0x2
 5100 0083 30       		.byte	0x30
 5101 0084 9F       		.byte	0x9f
 5102 0085 0E000000 		.4byte	.LVL7
 5103 0089 14000000 		.4byte	.LVL8
 5104 008d 0100     		.2byte	0x1
 5105 008f 54       		.byte	0x54
 5106 0090 14000000 		.4byte	.LVL8
 5107 0094 16000000 		.4byte	.LVL9
 5108 0098 0300     		.2byte	0x3
 5109 009a 74       		.byte	0x74
 5110 009b 7F       		.sleb128 -1
 5111 009c 9F       		.byte	0x9f
 5112 009d 16000000 		.4byte	.LVL9
 5113 00a1 1E000000 		.4byte	.LVL11
 5114 00a5 0100     		.2byte	0x1
 5115 00a7 54       		.byte	0x54
 5116 00a8 00000000 		.4byte	0
ARM GAS  C:\Users\Sven\AppData\Local\Temp\cc5mu159.s 			page 109


 5117 00ac 00000000 		.4byte	0
 5118              	.LLST4:
 5119 00b0 0E000000 		.4byte	.LVL15
 5120 00b4 11000000 		.4byte	.LVL16-1
 5121 00b8 0100     		.2byte	0x1
 5122 00ba 50       		.byte	0x50
 5123 00bb 11000000 		.4byte	.LVL16-1
 5124 00bf 14000000 		.4byte	.LVL17
 5125 00c3 0100     		.2byte	0x1
 5126 00c5 54       		.byte	0x54
 5127 00c6 14000000 		.4byte	.LVL17
 5128 00ca 16000000 		.4byte	.LFE1491
 5129 00ce 0100     		.2byte	0x1
 5130 00d0 50       		.byte	0x50
 5131 00d1 00000000 		.4byte	0
 5132 00d5 00000000 		.4byte	0
 5133              	.LLST5:
 5134 00d9 60030000 		.4byte	.LVL109
 5135 00dd 88070000 		.4byte	.LVL184
 5136 00e1 0200     		.2byte	0x2
 5137 00e3 30       		.byte	0x30
 5138 00e4 9F       		.byte	0x9f
 5139 00e5 00000000 		.4byte	0
 5140 00e9 00000000 		.4byte	0
 5141              	.LLST6:
 5142 00ed 6A030000 		.4byte	.LVL110
 5143 00f1 2B050000 		.4byte	.LVL127-1
 5144 00f5 0500     		.2byte	0x5
 5145 00f7 03       		.byte	0x3
 5146 00f8 00000000 		.4byte	Ctrl_Mode
 5147 00fc 00000000 		.4byte	0
 5148 0100 00000000 		.4byte	0
 5149              	.LLST7:
 5150 0104 6A030000 		.4byte	.LVL110
 5151 0108 FE030000 		.4byte	.LVL111
 5152 010c 0200     		.2byte	0x2
 5153 010e 30       		.byte	0x30
 5154 010f 9F       		.byte	0x9f
 5155 0110 FE030000 		.4byte	.LVL111
 5156 0114 22040000 		.4byte	.LVL113
 5157 0118 0A00     		.2byte	0xa
 5158 011a 71       		.byte	0x71
 5159 011b 00       		.sleb128 0
 5160 011c 48       		.byte	0x48
 5161 011d 24       		.byte	0x24
 5162 011e 70       		.byte	0x70
 5163 011f 00       		.sleb128 0
 5164 0120 48       		.byte	0x48
 5165 0121 24       		.byte	0x24
 5166 0122 2E       		.byte	0x2e
 5167 0123 9F       		.byte	0x9f
 5168 0124 22040000 		.4byte	.LVL113
 5169 0128 26040000 		.4byte	.LVL114
 5170 012c 0F00     		.2byte	0xf
 5171 012e 03       		.byte	0x3
 5172 012f 00000000 		.4byte	Ctrl_Mode
 5173 0133 94       		.byte	0x94
ARM GAS  C:\Users\Sven\AppData\Local\Temp\cc5mu159.s 			page 110


 5174 0134 01       		.byte	0x1
 5175 0135 48       		.byte	0x48
 5176 0136 24       		.byte	0x24
 5177 0137 70       		.byte	0x70
 5178 0138 00       		.sleb128 0
 5179 0139 48       		.byte	0x48
 5180 013a 24       		.byte	0x24
 5181 013b 2E       		.byte	0x2e
 5182 013c 9F       		.byte	0x9f
 5183 013d 26040000 		.4byte	.LVL114
 5184 0141 54040000 		.4byte	.LVL116
 5185 0145 0200     		.2byte	0x2
 5186 0147 30       		.byte	0x30
 5187 0148 9F       		.byte	0x9f
 5188 0149 54040000 		.4byte	.LVL116
 5189 014d 56040000 		.4byte	.LVL117
 5190 0151 0A00     		.2byte	0xa
 5191 0153 71       		.byte	0x71
 5192 0154 00       		.sleb128 0
 5193 0155 48       		.byte	0x48
 5194 0156 24       		.byte	0x24
 5195 0157 70       		.byte	0x70
 5196 0158 00       		.sleb128 0
 5197 0159 48       		.byte	0x48
 5198 015a 24       		.byte	0x24
 5199 015b 2E       		.byte	0x2e
 5200 015c 9F       		.byte	0x9f
 5201 015d 56040000 		.4byte	.LVL117
 5202 0161 64040000 		.4byte	.LVL118
 5203 0165 0F00     		.2byte	0xf
 5204 0167 71       		.byte	0x71
 5205 0168 00       		.sleb128 0
 5206 0169 48       		.byte	0x48
 5207 016a 24       		.byte	0x24
 5208 016b 03       		.byte	0x3
 5209 016c 00000000 		.4byte	Ctrl_Mode
 5210 0170 94       		.byte	0x94
 5211 0171 01       		.byte	0x1
 5212 0172 48       		.byte	0x48
 5213 0173 24       		.byte	0x24
 5214 0174 2E       		.byte	0x2e
 5215 0175 9F       		.byte	0x9f
 5216 0176 64040000 		.4byte	.LVL118
 5217 017a AA040000 		.4byte	.LVL120
 5218 017e 0200     		.2byte	0x2
 5219 0180 30       		.byte	0x30
 5220 0181 9F       		.byte	0x9f
 5221 0182 AA040000 		.4byte	.LVL120
 5222 0186 B6040000 		.4byte	.LVL122
 5223 018a 0A00     		.2byte	0xa
 5224 018c 71       		.byte	0x71
 5225 018d 00       		.sleb128 0
 5226 018e 48       		.byte	0x48
 5227 018f 24       		.byte	0x24
 5228 0190 70       		.byte	0x70
 5229 0191 00       		.sleb128 0
 5230 0192 48       		.byte	0x48
ARM GAS  C:\Users\Sven\AppData\Local\Temp\cc5mu159.s 			page 111


 5231 0193 24       		.byte	0x24
 5232 0194 2E       		.byte	0x2e
 5233 0195 9F       		.byte	0x9f
 5234 0196 B6040000 		.4byte	.LVL122
 5235 019a B8040000 		.4byte	.LVL123
 5236 019e 0F00     		.2byte	0xf
 5237 01a0 71       		.byte	0x71
 5238 01a1 00       		.sleb128 0
 5239 01a2 48       		.byte	0x48
 5240 01a3 24       		.byte	0x24
 5241 01a4 03       		.byte	0x3
 5242 01a5 00000000 		.4byte	Ctrl_Mode
 5243 01a9 94       		.byte	0x94
 5244 01aa 01       		.byte	0x1
 5245 01ab 48       		.byte	0x48
 5246 01ac 24       		.byte	0x24
 5247 01ad 2E       		.byte	0x2e
 5248 01ae 9F       		.byte	0x9f
 5249 01af B8040000 		.4byte	.LVL123
 5250 01b3 06050000 		.4byte	.LVL124
 5251 01b7 0200     		.2byte	0x2
 5252 01b9 30       		.byte	0x30
 5253 01ba 9F       		.byte	0x9f
 5254 01bb 06050000 		.4byte	.LVL124
 5255 01bf 0C050000 		.4byte	.LVL125
 5256 01c3 0A00     		.2byte	0xa
 5257 01c5 71       		.byte	0x71
 5258 01c6 00       		.sleb128 0
 5259 01c7 48       		.byte	0x48
 5260 01c8 24       		.byte	0x24
 5261 01c9 70       		.byte	0x70
 5262 01ca 00       		.sleb128 0
 5263 01cb 48       		.byte	0x48
 5264 01cc 24       		.byte	0x24
 5265 01cd 2E       		.byte	0x2e
 5266 01ce 9F       		.byte	0x9f
 5267 01cf 0C050000 		.4byte	.LVL125
 5268 01d3 2B050000 		.4byte	.LVL127-1
 5269 01d7 0F00     		.2byte	0xf
 5270 01d9 71       		.byte	0x71
 5271 01da 00       		.sleb128 0
 5272 01db 48       		.byte	0x48
 5273 01dc 24       		.byte	0x24
 5274 01dd 03       		.byte	0x3
 5275 01de 00000000 		.4byte	Ctrl_Mode
 5276 01e2 94       		.byte	0x94
 5277 01e3 01       		.byte	0x1
 5278 01e4 48       		.byte	0x48
 5279 01e5 24       		.byte	0x24
 5280 01e6 2E       		.byte	0x2e
 5281 01e7 9F       		.byte	0x9f
 5282 01e8 00000000 		.4byte	0
 5283 01ec 00000000 		.4byte	0
 5284              	.LLST8:
 5285 01f0 FE030000 		.4byte	.LVL111
 5286 01f4 10040000 		.4byte	.LVL112
 5287 01f8 0200     		.2byte	0x2
ARM GAS  C:\Users\Sven\AppData\Local\Temp\cc5mu159.s 			page 112


 5288 01fa 30       		.byte	0x30
 5289 01fb 9F       		.byte	0x9f
 5290 01fc 10040000 		.4byte	.LVL112
 5291 0200 32040000 		.4byte	.LVL115
 5292 0204 0100     		.2byte	0x1
 5293 0206 52       		.byte	0x52
 5294 0207 54040000 		.4byte	.LVL116
 5295 020b 6C040000 		.4byte	.LVL119
 5296 020f 0100     		.2byte	0x1
 5297 0211 52       		.byte	0x52
 5298 0212 AA040000 		.4byte	.LVL120
 5299 0216 AC040000 		.4byte	.LVL121
 5300 021a 0100     		.2byte	0x1
 5301 021c 52       		.byte	0x52
 5302 021d 06050000 		.4byte	.LVL124
 5303 0221 0E050000 		.4byte	.LVL126
 5304 0225 0100     		.2byte	0x1
 5305 0227 52       		.byte	0x52
 5306 0228 00000000 		.4byte	0
 5307 022c 00000000 		.4byte	0
 5308              	.LLST9:
 5309 0230 4C050000 		.4byte	.LVL129
 5310 0234 EA050000 		.4byte	.LVL140
 5311 0238 0200     		.2byte	0x2
 5312 023a 35       		.byte	0x35
 5313 023b 9F       		.byte	0x9f
 5314 023c 00000000 		.4byte	0
 5315 0240 00000000 		.4byte	0
 5316              	.LLST11:
 5317 0244 4C050000 		.4byte	.LVL129
 5318 0248 EA050000 		.4byte	.LVL140
 5319 024c 0200     		.2byte	0x2
 5320 024e 31       		.byte	0x31
 5321 024f 9F       		.byte	0x9f
 5322 0250 00000000 		.4byte	0
 5323 0254 00000000 		.4byte	0
 5324              	.LLST12:
 5325 0258 EA050000 		.4byte	.LVL140
 5326 025c A2060000 		.4byte	.LVL151
 5327 0260 0200     		.2byte	0x2
 5328 0262 35       		.byte	0x35
 5329 0263 9F       		.byte	0x9f
 5330 0264 00000000 		.4byte	0
 5331 0268 00000000 		.4byte	0
 5332              	.LLST14:
 5333 026c EA050000 		.4byte	.LVL140
 5334 0270 A2060000 		.4byte	.LVL151
 5335 0274 0200     		.2byte	0x2
 5336 0276 31       		.byte	0x31
 5337 0277 9F       		.byte	0x9f
 5338 0278 00000000 		.4byte	0
 5339 027c 00000000 		.4byte	0
 5340              		.section	.debug_aranges,"",%progbits
 5341 0000 3C000000 		.4byte	0x3c
 5342 0004 0200     		.2byte	0x2
 5343 0006 00000000 		.4byte	.Ldebug_info0
 5344 000a 04       		.byte	0x4
ARM GAS  C:\Users\Sven\AppData\Local\Temp\cc5mu159.s 			page 113


 5345 000b 00       		.byte	0
 5346 000c 0000     		.2byte	0
 5347 000e 0000     		.2byte	0
 5348 0010 00000000 		.4byte	.LFB1489
 5349 0014 1C000000 		.4byte	.LFE1489-.LFB1489
 5350 0018 00000000 		.4byte	.LFB1490
 5351 001c 20000000 		.4byte	.LFE1490-.LFB1490
 5352 0020 00000000 		.4byte	.LFB1491
 5353 0024 16000000 		.4byte	.LFE1491-.LFB1491
 5354 0028 00000000 		.4byte	.LFB1492
 5355 002c 44000000 		.4byte	.LFE1492-.LFB1492
 5356 0030 00000000 		.4byte	.LFB1493
 5357 0034 E8070000 		.4byte	.LFE1493-.LFB1493
 5358 0038 00000000 		.4byte	0
 5359 003c 00000000 		.4byte	0
 5360              		.section	.debug_ranges,"",%progbits
 5361              	.Ldebug_ranges0:
 5362 0000 00000000 		.4byte	.LFB1489
 5363 0004 1C000000 		.4byte	.LFE1489
 5364 0008 00000000 		.4byte	.LFB1490
 5365 000c 20000000 		.4byte	.LFE1490
 5366 0010 00000000 		.4byte	.LFB1491
 5367 0014 16000000 		.4byte	.LFE1491
 5368 0018 00000000 		.4byte	.LFB1492
 5369 001c 44000000 		.4byte	.LFE1492
 5370 0020 00000000 		.4byte	.LFB1493
 5371 0024 E8070000 		.4byte	.LFE1493
 5372 0028 00000000 		.4byte	0
 5373 002c 00000000 		.4byte	0
 5374              		.section	.debug_line,"",%progbits
 5375              	.Ldebug_line0:
 5376 0000 A9040000 		.section	.debug_str,"MS",%progbits,1
 5376      0200AB02 
 5376      00000201 
 5376      FB0E0D00 
 5376      01010101 
 5377              	.LASF137:
 5378 0000 6374726C 		.ascii	"ctrl_mode\000"
 5378      5F6D6F64 
 5378      6500
 5379              	.LASF44:
 5380 000a 4D41565F 		.ascii	"MAV_AUTOPILOT_SLUGS\000"
 5380      4155544F 
 5380      50494C4F 
 5380      545F534C 
 5380      55475300 
 5381              	.LASF141:
 5382 001e 6175746F 		.ascii	"autonom\000"
 5382      6E6F6D00 
 5383              	.LASF254:
 5384 0026 43794465 		.ascii	"CyDelay\000"
 5384      6C617900 
 5385              	.LASF278:
 5386 002e 4144435F 		.ascii	"ADC_read_speed\000"
 5386      72656164 
 5386      5F737065 
 5386      656400
ARM GAS  C:\Users\Sven\AppData\Local\Temp\cc5mu159.s 			page 114


 5387              	.LASF147:
 5388 003d 64656275 		.ascii	"debug\000"
 5388      6700
 5389              	.LASF71:
 5390 0043 4D41565F 		.ascii	"MAV_TYPE_FREE_BALLOON\000"
 5390      54595045 
 5390      5F465245 
 5390      455F4241 
 5390      4C4C4F4F 
 5391              	.LASF164:
 5392 0059 6374726C 		.ascii	"ctrl_out_PID\000"
 5392      5F6F7574 
 5392      5F504944 
 5392      00
 5393              	.LASF138:
 5394 0066 6D616E75 		.ascii	"manual\000"
 5394      616C00
 5395              	.LASF33:
 5396 006d 636F6D70 		.ascii	"compid\000"
 5396      696400
 5397              	.LASF109:
 5398 0074 4D41565F 		.ascii	"MAV_STATE_ACTIVE\000"
 5398      53544154 
 5398      455F4143 
 5398      54495645 
 5398      00
 5399              	.LASF247:
 5400 0085 4D505536 		.ascii	"MPU6050_data_read\000"
 5400      3035305F 
 5400      64617461 
 5400      5F726561 
 5400      6400
 5401              	.LASF94:
 5402 0097 4D41565F 		.ascii	"MAV_MODE_TEST_DISARMED\000"
 5402      4D4F4445 
 5402      5F544553 
 5402      545F4449 
 5402      5341524D 
 5403              	.LASF158:
 5404 00ae 626C696E 		.ascii	"blink_cnt\000"
 5404      6B5F636E 
 5404      7400
 5405              	.LASF89:
 5406 00b8 4D41565F 		.ascii	"MAV_TYPE_GIMBAL\000"
 5406      54595045 
 5406      5F47494D 
 5406      42414C00 
 5407              	.LASF193:
 5408 00c8 73706565 		.ascii	"speed_offset\000"
 5408      645F6F66 
 5408      66736574 
 5408      00
 5409              	.LASF132:
 5410 00d5 6F75745F 		.ascii	"out_ge1\000"
 5410      67653100 
 5411              	.LASF133:
 5412 00dd 6F75745F 		.ascii	"out_ge2\000"
ARM GAS  C:\Users\Sven\AppData\Local\Temp\cc5mu159.s 			page 115


 5412      67653200 
 5413              	.LASF134:
 5414 00e5 6F75745F 		.ascii	"out_ge3\000"
 5414      67653300 
 5415              	.LASF251:
 5416 00ed 424D5031 		.ascii	"BMP180_baro_read_pressure\000"
 5416      38305F62 
 5416      61726F5F 
 5416      72656164 
 5416      5F707265 
 5417              	.LASF266:
 5418 0107 50504D49 		.ascii	"PPMISR_Start\000"
 5418      53525F53 
 5418      74617274 
 5418      00
 5419              	.LASF100:
 5420 0114 4D41565F 		.ascii	"MAV_MODE_STABILIZE_ARMED\000"
 5420      4D4F4445 
 5420      5F535441 
 5420      42494C49 
 5420      5A455F41 
 5421              	.LASF262:
 5422 012d 5461736B 		.ascii	"TaskTimer_Start\000"
 5422      54696D65 
 5422      725F5374 
 5422      61727400 
 5423              	.LASF9:
 5424 013d 5F5F696E 		.ascii	"__int32_t\000"
 5424      7433325F 
 5424      7400
 5425              	.LASF26:
 5426 0147 696E7431 		.ascii	"int16\000"
 5426      3600
 5427              	.LASF235:
 5428 014d 73797374 		.ascii	"system_state\000"
 5428      656D5F73 
 5428      74617465 
 5428      00
 5429              	.LASF237:
 5430 015a 636E745F 		.ascii	"cnt_ML_ATTITUDE_send\000"
 5430      4D4C5F41 
 5430      54544954 
 5430      5544455F 
 5430      73656E64 
 5431              	.LASF83:
 5432 016f 4D41565F 		.ascii	"MAV_TYPE_VTOL_QUADROTOR\000"
 5432      54595045 
 5432      5F56544F 
 5432      4C5F5155 
 5432      4144524F 
 5433              	.LASF161:
 5434 0187 6374726C 		.ascii	"ctrl_in\000"
 5434      5F696E00 
 5435              	.LASF162:
 5436 018f 6374726C 		.ascii	"ctrl_out\000"
 5436      5F6F7574 
 5436      00
ARM GAS  C:\Users\Sven\AppData\Local\Temp\cc5mu159.s 			page 116


 5437              	.LASF107:
 5438 0198 4D41565F 		.ascii	"MAV_STATE_CALIBRATING\000"
 5438      53544154 
 5438      455F4341 
 5438      4C494252 
 5438      4154494E 
 5439              	.LASF238:
 5440 01ae 55415254 		.ascii	"UART_1_UartPutString\000"
 5440      5F315F55 
 5440      61727450 
 5440      75745374 
 5440      72696E67 
 5441              	.LASF194:
 5442 01c3 63616C5F 		.ascii	"cal_cnt\000"
 5442      636E7400 
 5443              	.LASF130:
 5444 01cb 6F75745F 		.ascii	"out_fl1\000"
 5444      666C3100 
 5445              	.LASF131:
 5446 01d3 6F75745F 		.ascii	"out_fl2\000"
 5446      666C3200 
 5447              	.LASF121:
 5448 01db 696E5F6D 		.ascii	"in_mod\000"
 5448      6F6400
 5449              	.LASF52:
 5450 01e2 4D41565F 		.ascii	"MAV_AUTOPILOT_UDB\000"
 5450      4155544F 
 5450      50494C4F 
 5450      545F5544 
 5450      4200
 5451              	.LASF105:
 5452 01f4 4D41565F 		.ascii	"MAV_STATE_UNINIT\000"
 5452      53544154 
 5452      455F554E 
 5452      494E4954 
 5452      00
 5453              	.LASF178:
 5454 0205 6163635F 		.ascii	"acc_y_g\000"
 5454      795F6700 
 5455              	.LASF239:
 5456 020d 55415254 		.ascii	"UART_1_SpiUartWriteTxData\000"
 5456      5F315F53 
 5456      70695561 
 5456      72745772 
 5456      69746554 
 5457              	.LASF39:
 5458 0227 6D736769 		.ascii	"msgid\000"
 5458      6400
 5459              	.LASF115:
 5460 022d 696E5F6D 		.ascii	"in_mot\000"
 5460      6F7400
 5461              	.LASF232:
 5462 0234 6175746F 		.ascii	"autopilot_type\000"
 5462      70696C6F 
 5462      745F7479 
 5462      706500
 5463              	.LASF104:
ARM GAS  C:\Users\Sven\AppData\Local\Temp\cc5mu159.s 			page 117


 5464 0243 4D41565F 		.ascii	"MAV_STATE\000"
 5464      53544154 
 5464      4500
 5465              	.LASF144:
 5466 024d 73706565 		.ascii	"speed\000"
 5466      6400
 5467              	.LASF65:
 5468 0253 4D41565F 		.ascii	"MAV_TYPE_QUADROTOR\000"
 5468      54595045 
 5468      5F515541 
 5468      44524F54 
 5468      4F5200
 5469              	.LASF32:
 5470 0266 73797369 		.ascii	"sysid\000"
 5470      6400
 5471              	.LASF124:
 5472 026c 6F75745F 		.ascii	"out_mot\000"
 5472      6D6F7400 
 5473              	.LASF223:
 5474 0274 5068695F 		.ascii	"Phi_Error\000"
 5474      4572726F 
 5474      7200
 5475              	.LASF1:
 5476 027e 7369676E 		.ascii	"signed char\000"
 5476      65642063 
 5476      68617200 
 5477              	.LASF151:
 5478 028a 4B705F54 		.ascii	"Kp_Theta\000"
 5478      68657461 
 5478      00
 5479              	.LASF22:
 5480 0293 75696E74 		.ascii	"uint32_t\000"
 5480      33325F74 
 5480      00
 5481              	.LASF17:
 5482 029c 696E7438 		.ascii	"int8_t\000"
 5482      5F7400
 5483              	.LASF82:
 5484 02a3 4D41565F 		.ascii	"MAV_TYPE_VTOL_DUOROTOR\000"
 5484      54595045 
 5484      5F56544F 
 5484      4C5F4455 
 5484      4F524F54 
 5485              	.LASF95:
 5486 02ba 4D41565F 		.ascii	"MAV_MODE_STABILIZE_DISARMED\000"
 5486      4D4F4445 
 5486      5F535441 
 5486      42494C49 
 5486      5A455F44 
 5487              	.LASF204:
 5488 02d6 54686574 		.ascii	"Theta_temp\000"
 5488      615F7465 
 5488      6D7000
 5489              	.LASF59:
 5490 02e1 4D41565F 		.ascii	"MAV_AUTOPILOT_ASLUAV\000"
 5490      4155544F 
 5490      50494C4F 
ARM GAS  C:\Users\Sven\AppData\Local\Temp\cc5mu159.s 			page 118


 5490      545F4153 
 5490      4C554156 
 5491              	.LASF224:
 5492 02f6 5068695F 		.ascii	"Phi_Error_sum\000"
 5492      4572726F 
 5492      725F7375 
 5492      6D00
 5493              	.LASF27:
 5494 0304 666C6F61 		.ascii	"float\000"
 5494      7400
 5495              	.LASF37:
 5496 030a 63686563 		.ascii	"checksum\000"
 5496      6B73756D 
 5496      00
 5497              	.LASF88:
 5498 0313 4D41565F 		.ascii	"MAV_TYPE_VTOL_RESERVED5\000"
 5498      54595045 
 5498      5F56544F 
 5498      4C5F5245 
 5498      53455256 
 5499              	.LASF231:
 5500 032b 73797374 		.ascii	"system_type\000"
 5500      656D5F74 
 5500      79706500 
 5501              	.LASF171:
 5502 0337 4E61764C 		.ascii	"NavLightStep\000"
 5502      69676874 
 5502      53746570 
 5502      00
 5503              	.LASF19:
 5504 0344 696E7431 		.ascii	"int16_t\000"
 5504      365F7400 
 5505              	.LASF60:
 5506 034c 4D41565F 		.ascii	"MAV_AUTOPILOT_ENUM_END\000"
 5506      4155544F 
 5506      50494C4F 
 5506      545F454E 
 5506      554D5F45 
 5507              	.LASF70:
 5508 0363 4D41565F 		.ascii	"MAV_TYPE_AIRSHIP\000"
 5508      54595045 
 5508      5F414952 
 5508      53484950 
 5508      00
 5509              	.LASF152:
 5510 0374 4B695F54 		.ascii	"Ki_Theta\000"
 5510      68657461 
 5510      00
 5511              	.LASF15:
 5512 037d 6C6F6E67 		.ascii	"long long unsigned int\000"
 5512      206C6F6E 
 5512      6720756E 
 5512      7369676E 
 5512      65642069 
 5513              	.LASF186:
 5514 0394 5068695F 		.ascii	"Phi_Mav\000"
 5514      4D617600 
ARM GAS  C:\Users\Sven\AppData\Local\Temp\cc5mu159.s 			page 119


 5515              	.LASF181:
 5516 039c 6D61675F 		.ascii	"mag_y_g\000"
 5516      795F6700 
 5517              	.LASF275:
 5518 03a4 474E5520 		.ascii	"GNU C 4.8.4 20140526 (release) [ARM/embedded-4_8-br"
 5518      4320342E 
 5518      382E3420 
 5518      32303134 
 5518      30353236 
 5519 03d7 616E6368 		.ascii	"anch revision 211358] -mcpu=cortex-m0 -mthumb -g -O"
 5519      20726576 
 5519      6973696F 
 5519      6E203231 
 5519      31333538 
 5520 040a 73202D66 		.ascii	"s -ffunction-sections -finline-functions\000"
 5520      66756E63 
 5520      74696F6E 
 5520      2D736563 
 5520      74696F6E 
 5521              	.LASF213:
 5522 0433 4B5F315F 		.ascii	"K_1_Phi\000"
 5522      50686900 
 5523              	.LASF73:
 5524 043b 4D41565F 		.ascii	"MAV_TYPE_GROUND_ROVER\000"
 5524      54595045 
 5524      5F47524F 
 5524      554E445F 
 5524      524F5645 
 5525              	.LASF210:
 5526 0451 5068695F 		.ascii	"Phi_temp\000"
 5526      74656D70 
 5526      00
 5527              	.LASF7:
 5528 045a 5F5F7569 		.ascii	"__uint16_t\000"
 5528      6E743136 
 5528      5F7400
 5529              	.LASF255:
 5530 0465 426F6F74 		.ascii	"Bootloadable_1_Load\000"
 5530      6C6F6164 
 5530      61626C65 
 5530      5F315F4C 
 5530      6F616400 
 5531              	.LASF77:
 5532 0479 4D41565F 		.ascii	"MAV_TYPE_OCTOROTOR\000"
 5532      54595045 
 5532      5F4F4354 
 5532      4F524F54 
 5532      4F5200
 5533              	.LASF190:
 5534 048c 4D61675F 		.ascii	"Mag_x\000"
 5534      7800
 5535              	.LASF191:
 5536 0492 4D61675F 		.ascii	"Mag_y\000"
 5536      7900
 5537              	.LASF187:
 5538 0498 5068695F 		.ascii	"Phi_acc\000"
 5538      61636300 
ARM GAS  C:\Users\Sven\AppData\Local\Temp\cc5mu159.s 			page 120


 5539              	.LASF259:
 5540 04a0 4144435F 		.ascii	"ADC_Start\000"
 5540      53746172 
 5540      7400
 5541              	.LASF79:
 5542 04aa 4D41565F 		.ascii	"MAV_TYPE_FLAPPING_WING\000"
 5542      54595045 
 5542      5F464C41 
 5542      5050494E 
 5542      475F5749 
 5543              	.LASF139:
 5544 04c1 64616D70 		.ascii	"damped\000"
 5544      656400
 5545              	.LASF155:
 5546 04c8 4B695F50 		.ascii	"Ki_Phi\000"
 5546      686900
 5547              	.LASF0:
 5548 04cf 646F7562 		.ascii	"double\000"
 5548      6C6500
 5549              	.LASF230:
 5550 04d6 6D61766C 		.ascii	"mavlink_system\000"
 5550      696E6B5F 
 5550      73797374 
 5550      656D00
 5551              	.LASF170:
 5552 04e5 4E61764C 		.ascii	"NavLightDim\000"
 5552      69676874 
 5552      44696D00 
 5553              	.LASF207:
 5554 04f1 4B5F315F 		.ascii	"K_1_Theta\000"
 5554      54686574 
 5554      6100
 5555              	.LASF92:
 5556 04fb 4D41565F 		.ascii	"MAV_MODE_PREFLIGHT\000"
 5556      4D4F4445 
 5556      5F505245 
 5556      464C4947 
 5556      485400
 5557              	.LASF14:
 5558 050e 5F5F7569 		.ascii	"__uint64_t\000"
 5558      6E743634 
 5558      5F7400
 5559              	.LASF168:
 5560 0519 666C6167 		.ascii	"flag_NavLightPulse\000"
 5560      5F4E6176 
 5560      4C696768 
 5560      7450756C 
 5560      736500
 5561              	.LASF98:
 5562 052c 4D41565F 		.ascii	"MAV_MODE_MANUAL_ARMED\000"
 5562      4D4F4445 
 5562      5F4D414E 
 5562      55414C5F 
 5562      41524D45 
 5563              	.LASF123:
 5564 0542 655F6F75 		.ascii	"e_out\000"
 5564      7400
ARM GAS  C:\Users\Sven\AppData\Local\Temp\cc5mu159.s 			page 121


 5565              	.LASF113:
 5566 0548 4D41565F 		.ascii	"MAV_STATE_ENUM_END\000"
 5566      53544154 
 5566      455F454E 
 5566      554D5F45 
 5566      4E4400
 5567              	.LASF13:
 5568 055b 6C6F6E67 		.ascii	"long long int\000"
 5568      206C6F6E 
 5568      6720696E 
 5568      7400
 5569              	.LASF198:
 5570 0569 70726573 		.ascii	"press\000"
 5570      7300
 5571              	.LASF55:
 5572 056f 4D41565F 		.ascii	"MAV_AUTOPILOT_SMACCMPILOT\000"
 5572      4155544F 
 5572      50494C4F 
 5572      545F534D 
 5572      4143434D 
 5573              	.LASF29:
 5574 0589 63686172 		.ascii	"char\000"
 5574      00
 5575              	.LASF236:
 5576 058e 636E745F 		.ascii	"cnt_ML_HEARTBEAT_send\000"
 5576      4D4C5F48 
 5576      45415254 
 5576      42454154 
 5576      5F73656E 
 5577              	.LASF80:
 5578 05a4 4D41565F 		.ascii	"MAV_TYPE_KITE\000"
 5578      54595045 
 5578      5F4B4954 
 5578      4500
 5579              	.LASF196:
 5580 05b2 636E745F 		.ascii	"cnt_baro\000"
 5580      6261726F 
 5580      00
 5581              	.LASF184:
 5582 05bb 54686574 		.ascii	"Theta_Mav\000"
 5582      615F4D61 
 5582      7600
 5583              	.LASF166:
 5584 05c5 4374726C 		.ascii	"Ctrl_Mode\000"
 5584      5F4D6F64 
 5584      6500
 5585              	.LASF233:
 5586 05cf 73797374 		.ascii	"system_mode\000"
 5586      656D5F6D 
 5586      6F646500 
 5587              	.LASF106:
 5588 05db 4D41565F 		.ascii	"MAV_STATE_BOOT\000"
 5588      53544154 
 5588      455F424F 
 5588      4F5400
 5589              	.LASF78:
 5590 05ea 4D41565F 		.ascii	"MAV_TYPE_TRICOPTER\000"
ARM GAS  C:\Users\Sven\AppData\Local\Temp\cc5mu159.s 			page 122


 5590      54595045 
 5590      5F545249 
 5590      434F5054 
 5590      455200
 5591              	.LASF16:
 5592 05fd 756E7369 		.ascii	"unsigned int\000"
 5592      676E6564 
 5592      20696E74 
 5592      00
 5593              	.LASF183:
 5594 060a 54686574 		.ascii	"Theta\000"
 5594      6100
 5595              	.LASF63:
 5596 0610 4D41565F 		.ascii	"MAV_TYPE_GENERIC\000"
 5596      54595045 
 5596      5F47454E 
 5596      45524943 
 5596      00
 5597              	.LASF195:
 5598 0621 73706565 		.ascii	"speed_cal_compl\000"
 5598      645F6361 
 5598      6C5F636F 
 5598      6D706C00 
 5599              	.LASF18:
 5600 0631 75696E74 		.ascii	"uint8_t\000"
 5600      385F7400 
 5601              	.LASF45:
 5602 0639 4D41565F 		.ascii	"MAV_AUTOPILOT_ARDUPILOTMEGA\000"
 5602      4155544F 
 5602      50494C4F 
 5602      545F4152 
 5602      44555049 
 5603              	.LASF163:
 5604 0655 6374726C 		.ascii	"ctrl_in_trim\000"
 5604      5F696E5F 
 5604      7472696D 
 5604      00
 5605              	.LASF54:
 5606 0662 4D41565F 		.ascii	"MAV_AUTOPILOT_PX4\000"
 5606      4155544F 
 5606      50494C4F 
 5606      545F5058 
 5606      3400
 5607              	.LASF28:
 5608 0674 63686172 		.ascii	"char8\000"
 5608      3800
 5609              	.LASF157:
 5610 067a 7461736B 		.ascii	"task_flag\000"
 5610      5F666C61 
 5610      6700
 5611              	.LASF185:
 5612 0684 54686574 		.ascii	"Theta_acc\000"
 5612      615F6163 
 5612      6300
 5613              	.LASF53:
 5614 068e 4D41565F 		.ascii	"MAV_AUTOPILOT_FP\000"
 5614      4155544F 
ARM GAS  C:\Users\Sven\AppData\Local\Temp\cc5mu159.s 			page 123


 5614      50494C4F 
 5614      545F4650 
 5614      00
 5615              	.LASF200:
 5616 069f 515F6779 		.ascii	"Q_gyro\000"
 5616      726F00
 5617              	.LASF47:
 5618 06a6 4D41565F 		.ascii	"MAV_AUTOPILOT_GENERIC_WAYPOINTS_ONLY\000"
 5618      4155544F 
 5618      50494C4F 
 5618      545F4745 
 5618      4E455249 
 5619              	.LASF265:
 5620 06cb 53657276 		.ascii	"ServoTimer_Start\000"
 5620      6F54696D 
 5620      65725F53 
 5620      74617274 
 5620      00
 5621              	.LASF119:
 5622 06dc 696E5F67 		.ascii	"in_gear\000"
 5622      65617200 
 5623              	.LASF67:
 5624 06e4 4D41565F 		.ascii	"MAV_TYPE_HELICOPTER\000"
 5624      54595045 
 5624      5F48454C 
 5624      49434F50 
 5624      54455200 
 5625              	.LASF43:
 5626 06f8 4D41565F 		.ascii	"MAV_AUTOPILOT_PIXHAWK\000"
 5626      4155544F 
 5626      50494C4F 
 5626      545F5049 
 5626      58484157 
 5627              	.LASF202:
 5628 070e 715F6269 		.ascii	"q_bias\000"
 5628      617300
 5629              	.LASF35:
 5630 0715 5F5F6D61 		.ascii	"__mavlink_system\000"
 5630      766C696E 
 5630      6B5F7379 
 5630      7374656D 
 5630      00
 5631              	.LASF114:
 5632 0726 655F696E 		.ascii	"e_in\000"
 5632      00
 5633              	.LASF118:
 5634 072b 696E5F72 		.ascii	"in_rud\000"
 5634      756400
 5635              	.LASF41:
 5636 0732 6D61766C 		.ascii	"mavlink_message_t\000"
 5636      696E6B5F 
 5636      6D657373 
 5636      6167655F 
 5636      7400
 5637              	.LASF153:
 5638 0744 4B645F54 		.ascii	"Kd_Theta\000"
 5638      68657461 
ARM GAS  C:\Users\Sven\AppData\Local\Temp\cc5mu159.s 			page 124


 5638      00
 5639              	.LASF5:
 5640 074d 5F5F696E 		.ascii	"__int16_t\000"
 5640      7431365F 
 5640      7400
 5641              	.LASF256:
 5642 0757 43795379 		.ascii	"CySysWdtResetCounters\000"
 5642      73576474 
 5642      52657365 
 5642      74436F75 
 5642      6E746572 
 5643              	.LASF64:
 5644 076d 4D41565F 		.ascii	"MAV_TYPE_FIXED_WING\000"
 5644      54595045 
 5644      5F464958 
 5644      45445F57 
 5644      494E4700 
 5645              	.LASF225:
 5646 0781 5068695F 		.ascii	"Phi_Error_prev\000"
 5646      4572726F 
 5646      725F7072 
 5646      657600
 5647              	.LASF122:
 5648 0790 696E5F73 		.ascii	"in_sp2\000"
 5648      703200
 5649              	.LASF209:
 5650 0797 505F5068 		.ascii	"P_Phi\000"
 5650      6900
 5651              	.LASF218:
 5652 079d 54686574 		.ascii	"Theta_Target\000"
 5652      615F5461 
 5652      72676574 
 5652      00
 5653              	.LASF42:
 5654 07aa 4D41565F 		.ascii	"MAV_AUTOPILOT_GENERIC\000"
 5654      4155544F 
 5654      50494C4F 
 5654      545F4745 
 5654      4E455249 
 5655              	.LASF149:
 5656 07c0 73746174 		.ascii	"state_change\000"
 5656      655F6368 
 5656      616E6765 
 5656      00
 5657              	.LASF135:
 5658 07cd 6F75745F 		.ascii	"out_sp1\000"
 5658      73703100 
 5659              	.LASF136:
 5660 07d5 6F75745F 		.ascii	"out_sp2\000"
 5660      73703200 
 5661              	.LASF58:
 5662 07dd 4D41565F 		.ascii	"MAV_AUTOPILOT_AEROB\000"
 5662      4155544F 
 5662      50494C4F 
 5662      545F4145 
 5662      524F4200 
 5663              	.LASF201:
ARM GAS  C:\Users\Sven\AppData\Local\Temp\cc5mu159.s 			page 125


 5664 07f1 525F616E 		.ascii	"R_angle\000"
 5664      676C6500 
 5665              	.LASF211:
 5666 07f9 535F5068 		.ascii	"S_Phi\000"
 5666      6900
 5667              	.LASF31:
 5668 07ff 6C6F6E67 		.ascii	"long double\000"
 5668      20646F75 
 5668      626C6500 
 5669              	.LASF50:
 5670 080b 4D41565F 		.ascii	"MAV_AUTOPILOT_INVALID\000"
 5670      4155544F 
 5670      50494C4F 
 5670      545F494E 
 5670      56414C49 
 5671              	.LASF25:
 5672 0821 75696E74 		.ascii	"uint32\000"
 5672      333200
 5673              	.LASF156:
 5674 0828 4B645F50 		.ascii	"Kd_Phi\000"
 5674      686900
 5675              	.LASF203:
 5676 082f 505F5468 		.ascii	"P_Theta\000"
 5676      65746100 
 5677              	.LASF102:
 5678 0837 4D41565F 		.ascii	"MAV_MODE_AUTO_ARMED\000"
 5678      4D4F4445 
 5678      5F415554 
 5678      4F5F4152 
 5678      4D454400 
 5679              	.LASF277:
 5680 084b 453A5C44 		.ascii	"E:\\Dokumente\\GitHub\\T-50_Project\\Software\\T-50"
 5680      6F6B756D 
 5680      656E7465 
 5680      5C476974 
 5680      4875625C 
 5681 0879 5F50726F 		.ascii	"_Project\\T-50_Project.cydsn\000"
 5681      6A656374 
 5681      5C542D35 
 5681      305F5072 
 5681      6F6A6563 
 5682              	.LASF111:
 5683 0895 4D41565F 		.ascii	"MAV_STATE_EMERGENCY\000"
 5683      53544154 
 5683      455F454D 
 5683      45524745 
 5683      4E435900 
 5684              	.LASF90:
 5685 08a9 4D41565F 		.ascii	"MAV_TYPE_ENUM_END\000"
 5685      54595045 
 5685      5F454E55 
 5685      4D5F454E 
 5685      4400
 5686              	.LASF263:
 5687 08bb 4E61764C 		.ascii	"NavLightPWM_Start\000"
 5687      69676874 
 5687      50574D5F 
ARM GAS  C:\Users\Sven\AppData\Local\Temp\cc5mu159.s 			page 126


 5687      53746172 
 5687      7400
 5688              	.LASF154:
 5689 08cd 4B705F50 		.ascii	"Kp_Phi\000"
 5689      686900
 5690              	.LASF222:
 5691 08d4 5068695F 		.ascii	"Phi_Target\000"
 5691      54617267 
 5691      657400
 5692              	.LASF69:
 5693 08df 4D41565F 		.ascii	"MAV_TYPE_GCS\000"
 5693      54595045 
 5693      5F474353 
 5693      00
 5694              	.LASF174:
 5695 08ec 7475726E 		.ascii	"turn_rate_p\000"
 5695      5F726174 
 5695      655F7000 
 5696              	.LASF175:
 5697 08f8 7475726E 		.ascii	"turn_rate_q\000"
 5697      5F726174 
 5697      655F7100 
 5698              	.LASF176:
 5699 0904 7475726E 		.ascii	"turn_rate_r\000"
 5699      5F726174 
 5699      655F7200 
 5700              	.LASF74:
 5701 0910 4D41565F 		.ascii	"MAV_TYPE_SURFACE_BOAT\000"
 5701      54595045 
 5701      5F535552 
 5701      46414345 
 5701      5F424F41 
 5702              	.LASF212:
 5703 0926 4B5F305F 		.ascii	"K_0_Phi\000"
 5703      50686900 
 5704              	.LASF267:
 5705 092e 50504D52 		.ascii	"PPMRstISR_Start\000"
 5705      73744953 
 5705      525F5374 
 5705      61727400 
 5706              	.LASF179:
 5707 093e 6163635F 		.ascii	"acc_z_g\000"
 5707      7A5F6700 
 5708              	.LASF34:
 5709 0946 6D61766C 		.ascii	"mavlink_system_t\000"
 5709      696E6B5F 
 5709      73797374 
 5709      656D5F74 
 5709      00
 5710              	.LASF145:
 5711 0957 4144435F 		.ascii	"ADC_calibrate_speed\000"
 5711      63616C69 
 5711      62726174 
 5711      655F7370 
 5711      65656400 
 5712              	.LASF227:
 5713 096b 52785F53 		.ascii	"Rx_String\000"
ARM GAS  C:\Users\Sven\AppData\Local\Temp\cc5mu159.s 			page 127


 5713      7472696E 
 5713      6700
 5714              	.LASF217:
 5715 0975 74756E65 		.ascii	"tune_cnt\000"
 5715      5F636E74 
 5715      00
 5716              	.LASF240:
 5717 097e 73707269 		.ascii	"sprintf\000"
 5717      6E746600 
 5718              	.LASF20:
 5719 0986 75696E74 		.ascii	"uint16_t\000"
 5719      31365F74 
 5719      00
 5720              	.LASF85:
 5721 098f 4D41565F 		.ascii	"MAV_TYPE_VTOL_RESERVED2\000"
 5721      54595045 
 5721      5F56544F 
 5721      4C5F5245 
 5721      53455256 
 5722              	.LASF86:
 5723 09a7 4D41565F 		.ascii	"MAV_TYPE_VTOL_RESERVED3\000"
 5723      54595045 
 5723      5F56544F 
 5723      4C5F5245 
 5723      53455256 
 5724              	.LASF87:
 5725 09bf 4D41565F 		.ascii	"MAV_TYPE_VTOL_RESERVED4\000"
 5725      54595045 
 5725      5F56544F 
 5725      4C5F5245 
 5725      53455256 
 5726              	.LASF214:
 5727 09d7 4B5F645F 		.ascii	"K_d_p\000"
 5727      7000
 5728              	.LASF215:
 5729 09dd 4B5F645F 		.ascii	"K_d_q\000"
 5729      7100
 5730              	.LASF216:
 5731 09e3 4B5F645F 		.ascii	"K_d_r\000"
 5731      7200
 5732              	.LASF169:
 5733 09e9 4E61764C 		.ascii	"NavLightBright\000"
 5733      69676874 
 5733      42726967 
 5733      687400
 5734              	.LASF182:
 5735 09f8 6D61675F 		.ascii	"mag_z_g\000"
 5735      7A5F6700 
 5736              	.LASF273:
 5737 0a00 43795379 		.ascii	"CySysWdtEnable\000"
 5737      73576474 
 5737      456E6162 
 5737      6C6500
 5738              	.LASF270:
 5739 0a0f 426F6F74 		.ascii	"BootISR_Start\000"
 5739      4953525F 
 5739      53746172 
ARM GAS  C:\Users\Sven\AppData\Local\Temp\cc5mu159.s 			page 128


 5739      7400
 5740              	.LASF66:
 5741 0a1d 4D41565F 		.ascii	"MAV_TYPE_COAXIAL\000"
 5741      54595045 
 5741      5F434F41 
 5741      5849414C 
 5741      00
 5742              	.LASF6:
 5743 0a2e 73686F72 		.ascii	"short int\000"
 5743      7420696E 
 5743      7400
 5744              	.LASF49:
 5745 0a38 4D41565F 		.ascii	"MAV_AUTOPILOT_GENERIC_MISSION_FULL\000"
 5745      4155544F 
 5745      50494C4F 
 5745      545F4745 
 5745      4E455249 
 5746              	.LASF10:
 5747 0a5b 6C6F6E67 		.ascii	"long int\000"
 5747      20696E74 
 5747      00
 5748              	.LASF62:
 5749 0a64 4D41565F 		.ascii	"MAV_TYPE\000"
 5749      54595045 
 5749      00
 5750              	.LASF274:
 5751 0a6d 55415254 		.ascii	"UART_1_UartGetChar\000"
 5751      5F315F55 
 5751      61727447 
 5751      65744368 
 5751      617200
 5752              	.LASF81:
 5753 0a80 4D41565F 		.ascii	"MAV_TYPE_ONBOARD_CONTROLLER\000"
 5753      54595045 
 5753      5F4F4E42 
 5753      4F415244 
 5753      5F434F4E 
 5754              	.LASF101:
 5755 0a9c 4D41565F 		.ascii	"MAV_MODE_GUIDED_ARMED\000"
 5755      4D4F4445 
 5755      5F475549 
 5755      4445445F 
 5755      41524D45 
 5756              	.LASF173:
 5757 0ab2 636E745F 		.ascii	"cnt_StrobeLight\000"
 5757      5374726F 
 5757      62654C69 
 5757      67687400 
 5758              	.LASF197:
 5759 0ac2 74656D70 		.ascii	"temp\000"
 5759      00
 5760              	.LASF208:
 5761 0ac7 705F6269 		.ascii	"p_bias\000"
 5761      617300
 5762              	.LASF23:
 5763 0ace 75696E74 		.ascii	"uint64_t\000"
 5763      36345F74 
ARM GAS  C:\Users\Sven\AppData\Local\Temp\cc5mu159.s 			page 129


 5763      00
 5764              	.LASF148:
 5765 0ad7 50726576 		.ascii	"PrevCtrl_Mode\000"
 5765      4374726C 
 5765      5F4D6F64 
 5765      6500
 5766              	.LASF192:
 5767 0ae5 4261725F 		.ascii	"Bar_press\000"
 5767      70726573 
 5767      7300
 5768              	.LASF40:
 5769 0aef 7061796C 		.ascii	"payload64\000"
 5769      6F616436 
 5769      3400
 5770              	.LASF189:
 5771 0af9 4D61675F 		.ascii	"Mag_Heading\000"
 5771      48656164 
 5771      696E6700 
 5772              	.LASF61:
 5773 0b05 4D41565F 		.ascii	"MAV_AUTOPILOT\000"
 5773      4155544F 
 5773      50494C4F 
 5773      5400
 5774              	.LASF221:
 5775 0b13 54686574 		.ascii	"Theta_Error_prev\000"
 5775      615F4572 
 5775      726F725F 
 5775      70726576 
 5775      00
 5776              	.LASF3:
 5777 0b24 5F5F7569 		.ascii	"__uint8_t\000"
 5777      6E74385F 
 5777      7400
 5778              	.LASF177:
 5779 0b2e 6163635F 		.ascii	"acc_x_g\000"
 5779      785F6700 
 5780              	.LASF120:
 5781 0b36 696E5F63 		.ascii	"in_can\000"
 5781      616E00
 5782              	.LASF36:
 5783 0b3d 5F5F6D61 		.ascii	"__mavlink_message\000"
 5783      766C696E 
 5783      6B5F6D65 
 5783      73736167 
 5783      6500
 5784              	.LASF261:
 5785 0b4f 43795379 		.ascii	"CySysWdtWriteMatch\000"
 5785      73576474 
 5785      57726974 
 5785      654D6174 
 5785      636800
 5786              	.LASF72:
 5787 0b62 4D41565F 		.ascii	"MAV_TYPE_ROCKET\000"
 5787      54595045 
 5787      5F524F43 
 5787      4B455400 
 5788              	.LASF257:
ARM GAS  C:\Users\Sven\AppData\Local\Temp\cc5mu159.s 			page 130


 5789 0b72 55415254 		.ascii	"UART_1_Start\000"
 5789      5F315F53 
 5789      74617274 
 5789      00
 5790              	.LASF76:
 5791 0b7f 4D41565F 		.ascii	"MAV_TYPE_HEXAROTOR\000"
 5791      54595045 
 5791      5F484558 
 5791      41524F54 
 5791      4F5200
 5792              	.LASF244:
 5793 0b92 4E61764C 		.ascii	"NavLightPWM_WriteCompare\000"
 5793      69676874 
 5793      50574D5F 
 5793      57726974 
 5793      65436F6D 
 5794              	.LASF38:
 5795 0bab 6D616769 		.ascii	"magic\000"
 5795      6300
 5796              	.LASF2:
 5797 0bb1 5F5F696E 		.ascii	"__int8_t\000"
 5797      74385F74 
 5797      00
 5798              	.LASF242:
 5799 0bba 4144435F 		.ascii	"ADC_StartConvert\000"
 5799      53746172 
 5799      74436F6E 
 5799      76657274 
 5799      00
 5800              	.LASF205:
 5801 0bcb 535F5468 		.ascii	"S_Theta\000"
 5801      65746100 
 5802              	.LASF46:
 5803 0bd3 4D41565F 		.ascii	"MAV_AUTOPILOT_OPENPILOT\000"
 5803      4155544F 
 5803      50494C4F 
 5803      545F4F50 
 5803      454E5049 
 5804              	.LASF117:
 5805 0beb 696E5F65 		.ascii	"in_ele\000"
 5805      6C6500
 5806              	.LASF264:
 5807 0bf2 50504D43 		.ascii	"PPMCounter_Start\000"
 5807      6F756E74 
 5807      65725F53 
 5807      74617274 
 5807      00
 5808              	.LASF160:
 5809 0c03 50504D5F 		.ascii	"PPM_channel\000"
 5809      6368616E 
 5809      6E656C00 
 5810              	.LASF30:
 5811 0c0f 73697A65 		.ascii	"sizetype\000"
 5811      74797065 
 5811      00
 5812              	.LASF12:
 5813 0c18 6C6F6E67 		.ascii	"long unsigned int\000"
ARM GAS  C:\Users\Sven\AppData\Local\Temp\cc5mu159.s 			page 131


 5813      20756E73 
 5813      69676E65 
 5813      6420696E 
 5813      7400
 5814              	.LASF206:
 5815 0c2a 4B5F305F 		.ascii	"K_0_Theta\000"
 5815      54686574 
 5815      6100
 5816              	.LASF249:
 5817 0c34 424D5031 		.ascii	"BMP180_baro_trigger_pressure\000"
 5817      38305F62 
 5817      61726F5F 
 5817      74726967 
 5817      6765725F 
 5818              	.LASF21:
 5819 0c51 696E7433 		.ascii	"int32_t\000"
 5819      325F7400 
 5820              	.LASF84:
 5821 0c59 4D41565F 		.ascii	"MAV_TYPE_VTOL_RESERVED1\000"
 5821      54595045 
 5821      5F56544F 
 5821      4C5F5245 
 5821      53455256 
 5822              	.LASF241:
 5823 0c71 4144435F 		.ascii	"ADC_GetResult16\000"
 5823      47657452 
 5823      6573756C 
 5823      74313600 
 5824              	.LASF252:
 5825 0c81 6174616E 		.ascii	"atan2\000"
 5825      3200
 5826              	.LASF103:
 5827 0c87 4D41565F 		.ascii	"MAV_MODE_ENUM_END\000"
 5827      4D4F4445 
 5827      5F454E55 
 5827      4D5F454E 
 5827      4400
 5828              	.LASF269:
 5829 0c99 5461736B 		.ascii	"TaskISR_Start\000"
 5829      4953525F 
 5829      53746172 
 5829      7400
 5830              	.LASF150:
 5831 0ca7 666C6170 		.ascii	"flap_offset\000"
 5831      5F6F6666 
 5831      73657400 
 5832              	.LASF4:
 5833 0cb3 756E7369 		.ascii	"unsigned char\000"
 5833      676E6564 
 5833      20636861 
 5833      7200
 5834              	.LASF11:
 5835 0cc1 5F5F7569 		.ascii	"__uint32_t\000"
 5835      6E743332 
 5835      5F7400
 5836              	.LASF129:
 5837 0ccc 6F75745F 		.ascii	"out_rud\000"
ARM GAS  C:\Users\Sven\AppData\Local\Temp\cc5mu159.s 			page 132


 5837      72756400 
 5838              	.LASF199:
 5839 0cd4 515F616E 		.ascii	"Q_angle\000"
 5839      676C6500 
 5840              	.LASF234:
 5841 0cdc 63757374 		.ascii	"custom_mode\000"
 5841      6F6D5F6D 
 5841      6F646500 
 5842              	.LASF258:
 5843 0ce8 4932434D 		.ascii	"I2CM_Start\000"
 5843      5F537461 
 5843      727400
 5844              	.LASF180:
 5845 0cf3 6D61675F 		.ascii	"mag_x_g\000"
 5845      785F6700 
 5846              	.LASF167:
 5847 0cfb 666C6167 		.ascii	"flag_LightsEnabled\000"
 5847      5F4C6967 
 5847      68747345 
 5847      6E61626C 
 5847      656400
 5848              	.LASF165:
 5849 0d0e 6374726C 		.ascii	"ctrl_out_DAMP\000"
 5849      5F6F7574 
 5849      5F44414D 
 5849      5000
 5850              	.LASF99:
 5851 0d1c 4D41565F 		.ascii	"MAV_MODE_TEST_ARMED\000"
 5851      4D4F4445 
 5851      5F544553 
 5851      545F4152 
 5851      4D454400 
 5852              	.LASF220:
 5853 0d30 54686574 		.ascii	"Theta_Error_sum\000"
 5853      615F4572 
 5853      726F725F 
 5853      73756D00 
 5854              	.LASF260:
 5855 0d40 43795379 		.ascii	"CySysWdtWriteMode\000"
 5855      73576474 
 5855      57726974 
 5855      654D6F64 
 5855      6500
 5856              	.LASF229:
 5857 0d52 52785F66 		.ascii	"Rx_flag\000"
 5857      6C616700 
 5858              	.LASF246:
 5859 0d5a 4C64675F 		.ascii	"Ldg_Write\000"
 5859      57726974 
 5859      6500
 5860              	.LASF112:
 5861 0d64 4D41565F 		.ascii	"MAV_STATE_POWEROFF\000"
 5861      53544154 
 5861      455F504F 
 5861      5745524F 
 5861      464600
 5862              	.LASF56:
ARM GAS  C:\Users\Sven\AppData\Local\Temp\cc5mu159.s 			page 133


 5863 0d77 4D41565F 		.ascii	"MAV_AUTOPILOT_AUTOQUAD\000"
 5863      4155544F 
 5863      50494C4F 
 5863      545F4155 
 5863      544F5155 
 5864              	.LASF243:
 5865 0d8e 4144435F 		.ascii	"ADC_StopConvert\000"
 5865      53746F70 
 5865      436F6E76 
 5865      65727400 
 5866              	.LASF110:
 5867 0d9e 4D41565F 		.ascii	"MAV_STATE_CRITICAL\000"
 5867      53544154 
 5867      455F4352 
 5867      49544943 
 5867      414C00
 5868              	.LASF142:
 5869 0db1 55415254 		.ascii	"UART_1_UartPutNum\000"
 5869      5F315F55 
 5869      61727450 
 5869      75744E75 
 5869      6D00
 5870              	.LASF245:
 5871 0dc3 5374726F 		.ascii	"Strobes_Write\000"
 5871      6265735F 
 5871      57726974 
 5871      6500
 5872              	.LASF68:
 5873 0dd1 4D41565F 		.ascii	"MAV_TYPE_ANTENNA_TRACKER\000"
 5873      54595045 
 5873      5F414E54 
 5873      454E4E41 
 5873      5F545241 
 5874              	.LASF91:
 5875 0dea 4D41565F 		.ascii	"MAV_MODE\000"
 5875      4D4F4445 
 5875      00
 5876              	.LASF271:
 5877 0df3 4D505536 		.ascii	"MPU6050_Init\000"
 5877      3035305F 
 5877      496E6974 
 5877      00
 5878              	.LASF228:
 5879 0e00 52785F69 		.ascii	"Rx_index\000"
 5879      6E646578 
 5879      00
 5880              	.LASF125:
 5881 0e09 6F75745F 		.ascii	"out_ail1\000"
 5881      61696C31 
 5881      00
 5882              	.LASF126:
 5883 0e12 6F75745F 		.ascii	"out_ail2\000"
 5883      61696C32 
 5883      00
 5884              	.LASF93:
 5885 0e1b 4D41565F 		.ascii	"MAV_MODE_MANUAL_DISARMED\000"
 5885      4D4F4445 
ARM GAS  C:\Users\Sven\AppData\Local\Temp\cc5mu159.s 			page 134


 5885      5F4D414E 
 5885      55414C5F 
 5885      44495341 
 5886              	.LASF272:
 5887 0e34 424D5031 		.ascii	"BMP180_baro_init\000"
 5887      38305F62 
 5887      61726F5F 
 5887      696E6974 
 5887      00
 5888              	.LASF8:
 5889 0e45 73686F72 		.ascii	"short unsigned int\000"
 5889      7420756E 
 5889      7369676E 
 5889      65642069 
 5889      6E7400
 5890              	.LASF248:
 5891 0e58 424D5031 		.ascii	"BMP180_baro_trigger_temp\000"
 5891      38305F62 
 5891      61726F5F 
 5891      74726967 
 5891      6765725F 
 5892              	.LASF146:
 5893 0e71 6D61696E 		.ascii	"main\000"
 5893      00
 5894              	.LASF96:
 5895 0e76 4D41565F 		.ascii	"MAV_MODE_GUIDED_DISARMED\000"
 5895      4D4F4445 
 5895      5F475549 
 5895      4445445F 
 5895      44495341 
 5896              	.LASF97:
 5897 0e8f 4D41565F 		.ascii	"MAV_MODE_AUTO_DISARMED\000"
 5897      4D4F4445 
 5897      5F415554 
 5897      4F5F4449 
 5897      5341524D 
 5898              	.LASF143:
 5899 0ea6 55415254 		.ascii	"UART_1_UartSendMavlink\000"
 5899      5F315F55 
 5899      61727453 
 5899      656E644D 
 5899      61766C69 
 5900              	.LASF226:
 5901 0ebd 52785F63 		.ascii	"Rx_char\000"
 5901      68617200 
 5902              	.LASF24:
 5903 0ec5 75696E74 		.ascii	"uint8\000"
 5903      3800
 5904              	.LASF127:
 5905 0ecb 6F75745F 		.ascii	"out_ele1\000"
 5905      656C6531 
 5905      00
 5906              	.LASF48:
 5907 0ed4 4D41565F 		.ascii	"MAV_AUTOPILOT_GENERIC_WAYPOINTS_AND_SIMPLE_NAVIGATI"
 5907      4155544F 
 5907      50494C4F 
 5907      545F4745 
ARM GAS  C:\Users\Sven\AppData\Local\Temp\cc5mu159.s 			page 135


 5907      4E455249 
 5908 0f07 4F4E5F4F 		.ascii	"ON_ONLY\000"
 5908      4E4C5900 
 5909              	.LASF108:
 5910 0f0f 4D41565F 		.ascii	"MAV_STATE_STANDBY\000"
 5910      53544154 
 5910      455F5354 
 5910      414E4442 
 5910      5900
 5911              	.LASF172:
 5912 0f21 4E61764C 		.ascii	"NavLightCompare\000"
 5912      69676874 
 5912      436F6D70 
 5912      61726500 
 5913              	.LASF159:
 5914 0f31 73616D70 		.ascii	"sample_time\000"
 5914      6C655F74 
 5914      696D6500 
 5915              	.LASF57:
 5916 0f3d 4D41565F 		.ascii	"MAV_AUTOPILOT_ARMAZILA\000"
 5916      4155544F 
 5916      50494C4F 
 5916      545F4152 
 5916      4D415A49 
 5917              	.LASF75:
 5918 0f54 4D41565F 		.ascii	"MAV_TYPE_SUBMARINE\000"
 5918      54595045 
 5918      5F535542 
 5918      4D415249 
 5918      4E4500
 5919              	.LASF51:
 5920 0f67 4D41565F 		.ascii	"MAV_AUTOPILOT_PPZ\000"
 5920      4155544F 
 5920      50494C4F 
 5920      545F5050 
 5920      5A00
 5921              	.LASF268:
 5922 0f79 53657276 		.ascii	"ServoISR_Start\000"
 5922      6F495352 
 5922      5F537461 
 5922      727400
 5923              	.LASF219:
 5924 0f88 54686574 		.ascii	"Theta_Error\000"
 5924      615F4572 
 5924      726F7200 
 5925              	.LASF140:
 5926 0f94 74756E65 		.ascii	"tune\000"
 5926      00
 5927              	.LASF250:
 5928 0f99 424D5031 		.ascii	"BMP180_baro_read_temp\000"
 5928      38305F62 
 5928      61726F5F 
 5928      72656164 
 5928      5F74656D 
 5929              	.LASF128:
 5930 0faf 6F75745F 		.ascii	"out_ele2\000"
 5930      656C6532 
ARM GAS  C:\Users\Sven\AppData\Local\Temp\cc5mu159.s 			page 136


 5930      00
 5931              	.LASF253:
 5932 0fb8 73747263 		.ascii	"strcmp\000"
 5932      6D7000
 5933              	.LASF276:
 5934 0fbf 2E5C6D61 		.ascii	".\\main.c\000"
 5934      696E2E63 
 5934      00
 5935              	.LASF116:
 5936 0fc8 696E5F61 		.ascii	"in_ail\000"
 5936      696C00
 5937              	.LASF188:
 5938 0fcf 5073695F 		.ascii	"Psi_acc\000"
 5938      61636300 
 5939              		.ident	"GCC: (GNU Tools for ARM Embedded Processors) 4.8.4 20140526 (release) [ARM/embedded-4_8-br
