ARM GAS  C:\Users\SNFU\AppData\Local\Temp\ccQvimZ5.s 			page 1


   1              		.cpu cortex-m0
   2              		.fpu softvfp
   3              		.eabi_attribute 20, 1
   4              		.eabi_attribute 21, 1
   5              		.eabi_attribute 23, 3
   6              		.eabi_attribute 24, 1
   7              		.eabi_attribute 25, 1
   8              		.eabi_attribute 26, 1
   9              		.eabi_attribute 30, 4
  10              		.eabi_attribute 34, 0
  11              		.eabi_attribute 18, 4
  12              		.code	16
  13              		.file	"PPMISR.c"
  14              		.text
  15              	.Ltext0:
  16              		.cfi_sections	.debug_frame
  17              		.section	.text.PPMISR_Interrupt,"ax",%progbits
  18              		.align	1
  19              		.global	PPMISR_Interrupt
  20              		.code	16
  21              		.thumb_func
  22              		.type	PPMISR_Interrupt, %function
  23              	PPMISR_Interrupt:
  24              	.LFB36:
  25              		.file 1 ".\\Generated_Source\\PSoC4\\PPMISR.c"
   1:.\Generated_Source\PSoC4/PPMISR.c **** /*******************************************************************************
   2:.\Generated_Source\PSoC4/PPMISR.c **** * File Name: PPMISR.c  
   3:.\Generated_Source\PSoC4/PPMISR.c **** * Version 1.70
   4:.\Generated_Source\PSoC4/PPMISR.c **** *
   5:.\Generated_Source\PSoC4/PPMISR.c **** *  Description:
   6:.\Generated_Source\PSoC4/PPMISR.c **** *   API for controlling the state of an interrupt.
   7:.\Generated_Source\PSoC4/PPMISR.c **** *
   8:.\Generated_Source\PSoC4/PPMISR.c **** *
   9:.\Generated_Source\PSoC4/PPMISR.c **** *  Note:
  10:.\Generated_Source\PSoC4/PPMISR.c **** *
  11:.\Generated_Source\PSoC4/PPMISR.c **** ********************************************************************************
  12:.\Generated_Source\PSoC4/PPMISR.c **** * Copyright 2008-2012, Cypress Semiconductor Corporation.  All rights reserved.
  13:.\Generated_Source\PSoC4/PPMISR.c **** * You may use this file only in accordance with the license, terms, conditions, 
  14:.\Generated_Source\PSoC4/PPMISR.c **** * disclaimers, and limitations in the end user license agreement accompanying 
  15:.\Generated_Source\PSoC4/PPMISR.c **** * the software package with which this file was provided.
  16:.\Generated_Source\PSoC4/PPMISR.c **** *******************************************************************************/
  17:.\Generated_Source\PSoC4/PPMISR.c **** 
  18:.\Generated_Source\PSoC4/PPMISR.c **** 
  19:.\Generated_Source\PSoC4/PPMISR.c **** #include <cydevice_trm.h>
  20:.\Generated_Source\PSoC4/PPMISR.c **** #include <CyLib.h>
  21:.\Generated_Source\PSoC4/PPMISR.c **** #include <PPMISR.h>
  22:.\Generated_Source\PSoC4/PPMISR.c **** 
  23:.\Generated_Source\PSoC4/PPMISR.c **** #if !defined(PPMISR__REMOVED) /* Check for removal by optimization */
  24:.\Generated_Source\PSoC4/PPMISR.c **** 
  25:.\Generated_Source\PSoC4/PPMISR.c **** /*******************************************************************************
  26:.\Generated_Source\PSoC4/PPMISR.c **** *  Place your includes, defines and code here 
  27:.\Generated_Source\PSoC4/PPMISR.c **** ********************************************************************************/
  28:.\Generated_Source\PSoC4/PPMISR.c **** /* `#START PPMISR_intc` */
  29:.\Generated_Source\PSoC4/PPMISR.c **** #include <project.h>
  30:.\Generated_Source\PSoC4/PPMISR.c ****     
  31:.\Generated_Source\PSoC4/PPMISR.c **** extern uint8_t PPM_channel;         // input channel variable
  32:.\Generated_Source\PSoC4/PPMISR.c **** extern uint16_t ctrl_in[];          // input control vector
ARM GAS  C:\Users\SNFU\AppData\Local\Temp\ccQvimZ5.s 			page 2


  33:.\Generated_Source\PSoC4/PPMISR.c **** extern uint8_t overflow;            // overflow from the PPMRstISR   
  34:.\Generated_Source\PSoC4/PPMISR.c **** extern uint8_t receiver_connected;  // Flag for receiver connection
  35:.\Generated_Source\PSoC4/PPMISR.c **** /* `#END` */
  36:.\Generated_Source\PSoC4/PPMISR.c **** 
  37:.\Generated_Source\PSoC4/PPMISR.c **** extern cyisraddress CyRamVectors[CYINT_IRQ_BASE + CY_NUM_INTERRUPTS];
  38:.\Generated_Source\PSoC4/PPMISR.c **** 
  39:.\Generated_Source\PSoC4/PPMISR.c **** /* Declared in startup, used to set unused interrupts to. */
  40:.\Generated_Source\PSoC4/PPMISR.c **** CY_ISR_PROTO(IntDefaultHandler);
  41:.\Generated_Source\PSoC4/PPMISR.c **** 
  42:.\Generated_Source\PSoC4/PPMISR.c **** 
  43:.\Generated_Source\PSoC4/PPMISR.c **** /*******************************************************************************
  44:.\Generated_Source\PSoC4/PPMISR.c **** * Function Name: PPMISR_Start
  45:.\Generated_Source\PSoC4/PPMISR.c **** ********************************************************************************
  46:.\Generated_Source\PSoC4/PPMISR.c **** *
  47:.\Generated_Source\PSoC4/PPMISR.c **** * Summary:
  48:.\Generated_Source\PSoC4/PPMISR.c **** *  Set up the interrupt and enable it.
  49:.\Generated_Source\PSoC4/PPMISR.c **** *
  50:.\Generated_Source\PSoC4/PPMISR.c **** * Parameters:  
  51:.\Generated_Source\PSoC4/PPMISR.c **** *   None
  52:.\Generated_Source\PSoC4/PPMISR.c **** *
  53:.\Generated_Source\PSoC4/PPMISR.c **** * Return:
  54:.\Generated_Source\PSoC4/PPMISR.c **** *   None
  55:.\Generated_Source\PSoC4/PPMISR.c **** *
  56:.\Generated_Source\PSoC4/PPMISR.c **** *******************************************************************************/
  57:.\Generated_Source\PSoC4/PPMISR.c **** void PPMISR_Start(void)
  58:.\Generated_Source\PSoC4/PPMISR.c **** {
  59:.\Generated_Source\PSoC4/PPMISR.c ****     /* For all we know the interrupt is active. */
  60:.\Generated_Source\PSoC4/PPMISR.c ****     PPMISR_Disable();
  61:.\Generated_Source\PSoC4/PPMISR.c **** 
  62:.\Generated_Source\PSoC4/PPMISR.c ****     /* Set the ISR to point to the PPMISR Interrupt. */
  63:.\Generated_Source\PSoC4/PPMISR.c ****     PPMISR_SetVector(&PPMISR_Interrupt);
  64:.\Generated_Source\PSoC4/PPMISR.c **** 
  65:.\Generated_Source\PSoC4/PPMISR.c ****     /* Set the priority. */
  66:.\Generated_Source\PSoC4/PPMISR.c ****     PPMISR_SetPriority((uint8)PPMISR_INTC_PRIOR_NUMBER);
  67:.\Generated_Source\PSoC4/PPMISR.c **** 
  68:.\Generated_Source\PSoC4/PPMISR.c ****     /* Enable it. */
  69:.\Generated_Source\PSoC4/PPMISR.c ****     PPMISR_Enable();
  70:.\Generated_Source\PSoC4/PPMISR.c **** }
  71:.\Generated_Source\PSoC4/PPMISR.c **** 
  72:.\Generated_Source\PSoC4/PPMISR.c **** 
  73:.\Generated_Source\PSoC4/PPMISR.c **** /*******************************************************************************
  74:.\Generated_Source\PSoC4/PPMISR.c **** * Function Name: PPMISR_StartEx
  75:.\Generated_Source\PSoC4/PPMISR.c **** ********************************************************************************
  76:.\Generated_Source\PSoC4/PPMISR.c **** *
  77:.\Generated_Source\PSoC4/PPMISR.c **** * Summary:
  78:.\Generated_Source\PSoC4/PPMISR.c **** *  Set up the interrupt and enable it.
  79:.\Generated_Source\PSoC4/PPMISR.c **** *
  80:.\Generated_Source\PSoC4/PPMISR.c **** * Parameters:  
  81:.\Generated_Source\PSoC4/PPMISR.c **** *   address: Address of the ISR to set in the interrupt vector table.
  82:.\Generated_Source\PSoC4/PPMISR.c **** *
  83:.\Generated_Source\PSoC4/PPMISR.c **** * Return:
  84:.\Generated_Source\PSoC4/PPMISR.c **** *   None
  85:.\Generated_Source\PSoC4/PPMISR.c **** *
  86:.\Generated_Source\PSoC4/PPMISR.c **** *******************************************************************************/
  87:.\Generated_Source\PSoC4/PPMISR.c **** void PPMISR_StartEx(cyisraddress address)
  88:.\Generated_Source\PSoC4/PPMISR.c **** {
  89:.\Generated_Source\PSoC4/PPMISR.c ****     /* For all we know the interrupt is active. */
ARM GAS  C:\Users\SNFU\AppData\Local\Temp\ccQvimZ5.s 			page 3


  90:.\Generated_Source\PSoC4/PPMISR.c ****     PPMISR_Disable();
  91:.\Generated_Source\PSoC4/PPMISR.c **** 
  92:.\Generated_Source\PSoC4/PPMISR.c ****     /* Set the ISR to point to the PPMISR Interrupt. */
  93:.\Generated_Source\PSoC4/PPMISR.c ****     PPMISR_SetVector(address);
  94:.\Generated_Source\PSoC4/PPMISR.c **** 
  95:.\Generated_Source\PSoC4/PPMISR.c ****     /* Set the priority. */
  96:.\Generated_Source\PSoC4/PPMISR.c ****     PPMISR_SetPriority((uint8)PPMISR_INTC_PRIOR_NUMBER);
  97:.\Generated_Source\PSoC4/PPMISR.c **** 
  98:.\Generated_Source\PSoC4/PPMISR.c ****     /* Enable it. */
  99:.\Generated_Source\PSoC4/PPMISR.c ****     PPMISR_Enable();
 100:.\Generated_Source\PSoC4/PPMISR.c **** }
 101:.\Generated_Source\PSoC4/PPMISR.c **** 
 102:.\Generated_Source\PSoC4/PPMISR.c **** 
 103:.\Generated_Source\PSoC4/PPMISR.c **** /*******************************************************************************
 104:.\Generated_Source\PSoC4/PPMISR.c **** * Function Name: PPMISR_Stop
 105:.\Generated_Source\PSoC4/PPMISR.c **** ********************************************************************************
 106:.\Generated_Source\PSoC4/PPMISR.c **** *
 107:.\Generated_Source\PSoC4/PPMISR.c **** * Summary:
 108:.\Generated_Source\PSoC4/PPMISR.c **** *   Disables and removes the interrupt.
 109:.\Generated_Source\PSoC4/PPMISR.c **** *
 110:.\Generated_Source\PSoC4/PPMISR.c **** * Parameters:  
 111:.\Generated_Source\PSoC4/PPMISR.c **** *
 112:.\Generated_Source\PSoC4/PPMISR.c **** * Return:
 113:.\Generated_Source\PSoC4/PPMISR.c **** *   None
 114:.\Generated_Source\PSoC4/PPMISR.c **** *
 115:.\Generated_Source\PSoC4/PPMISR.c **** *******************************************************************************/
 116:.\Generated_Source\PSoC4/PPMISR.c **** void PPMISR_Stop(void)
 117:.\Generated_Source\PSoC4/PPMISR.c **** {
 118:.\Generated_Source\PSoC4/PPMISR.c ****     /* Disable this interrupt. */
 119:.\Generated_Source\PSoC4/PPMISR.c ****     PPMISR_Disable();
 120:.\Generated_Source\PSoC4/PPMISR.c **** 
 121:.\Generated_Source\PSoC4/PPMISR.c ****     /* Set the ISR to point to the passive one. */
 122:.\Generated_Source\PSoC4/PPMISR.c ****     PPMISR_SetVector(&IntDefaultHandler);
 123:.\Generated_Source\PSoC4/PPMISR.c **** }
 124:.\Generated_Source\PSoC4/PPMISR.c **** 
 125:.\Generated_Source\PSoC4/PPMISR.c **** 
 126:.\Generated_Source\PSoC4/PPMISR.c **** /*******************************************************************************
 127:.\Generated_Source\PSoC4/PPMISR.c **** * Function Name: PPMISR_Interrupt
 128:.\Generated_Source\PSoC4/PPMISR.c **** ********************************************************************************
 129:.\Generated_Source\PSoC4/PPMISR.c **** *
 130:.\Generated_Source\PSoC4/PPMISR.c **** * Summary:
 131:.\Generated_Source\PSoC4/PPMISR.c **** *   The default Interrupt Service Routine for PPMISR.
 132:.\Generated_Source\PSoC4/PPMISR.c **** *
 133:.\Generated_Source\PSoC4/PPMISR.c **** *   Add custom code between the coments to keep the next version of this file
 134:.\Generated_Source\PSoC4/PPMISR.c **** *   from over writting your code.
 135:.\Generated_Source\PSoC4/PPMISR.c **** *
 136:.\Generated_Source\PSoC4/PPMISR.c **** * Parameters:  
 137:.\Generated_Source\PSoC4/PPMISR.c **** *   None
 138:.\Generated_Source\PSoC4/PPMISR.c **** *
 139:.\Generated_Source\PSoC4/PPMISR.c **** * Return:
 140:.\Generated_Source\PSoC4/PPMISR.c **** *   None
 141:.\Generated_Source\PSoC4/PPMISR.c **** *
 142:.\Generated_Source\PSoC4/PPMISR.c **** *******************************************************************************/
 143:.\Generated_Source\PSoC4/PPMISR.c **** CY_ISR(PPMISR_Interrupt)
 144:.\Generated_Source\PSoC4/PPMISR.c **** {
  26              		.loc 1 144 0
  27              		.cfi_startproc
ARM GAS  C:\Users\SNFU\AppData\Local\Temp\ccQvimZ5.s 			page 4


  28 0000 38B5     		push	{r3, r4, r5, lr}
  29              		.cfi_def_cfa_offset 16
  30              		.cfi_offset 3, -16
  31              		.cfi_offset 4, -12
  32              		.cfi_offset 5, -8
  33              		.cfi_offset 14, -4
 145:.\Generated_Source\PSoC4/PPMISR.c ****     /*  Place your Interrupt code here. */
 146:.\Generated_Source\PSoC4/PPMISR.c ****     /* `#START PPMISR_Interrupt` */
 147:.\Generated_Source\PSoC4/PPMISR.c ****     PPMCounter_ClearInterrupt(PPMCounter_INTR_MASK_CC_MATCH); // clears the interrupt
  34              		.loc 1 147 0
  35 0002 0220     		mov	r0, #2
  36 0004 FFF7FEFF 		bl	PPMCounter_ClearInterrupt
  37              	.LVL0:
 148:.\Generated_Source\PSoC4/PPMISR.c ****     
 149:.\Generated_Source\PSoC4/PPMISR.c ****     receiver_connected = 1;  // In case an interrupt is detected, the receiver is connected
  38              		.loc 1 149 0
  39 0008 0B4B     		ldr	r3, .L6
  40 000a 0122     		mov	r2, #1
  41 000c 1A70     		strb	r2, [r3]
 150:.\Generated_Source\PSoC4/PPMISR.c ****     
 151:.\Generated_Source\PSoC4/PPMISR.c ****     if(overflow == 1) 
  42              		.loc 1 151 0
  43 000e 0B4A     		ldr	r2, .L6+4
  44 0010 0B4C     		ldr	r4, .L6+8
  45 0012 1378     		ldrb	r3, [r2]
  46 0014 012B     		cmp	r3, #1
  47 0016 02D1     		bne	.L2
 152:.\Generated_Source\PSoC4/PPMISR.c ****     {
 153:.\Generated_Source\PSoC4/PPMISR.c ****         overflow = 0;
  48              		.loc 1 153 0
  49 0018 0023     		mov	r3, #0
  50 001a 1370     		strb	r3, [r2]
  51 001c 07E0     		b	.L4
  52              	.L2:
 154:.\Generated_Source\PSoC4/PPMISR.c ****         PPM_channel = 0;
 155:.\Generated_Source\PSoC4/PPMISR.c ****     }
 156:.\Generated_Source\PSoC4/PPMISR.c ****     else
 157:.\Generated_Source\PSoC4/PPMISR.c ****     {
 158:.\Generated_Source\PSoC4/PPMISR.c ****         ctrl_in[PPM_channel] =  PPMCounter_ReadCounter();       // Reading the current counter valu
  53              		.loc 1 158 0
  54 001e 2578     		ldrb	r5, [r4]
  55 0020 FFF7FEFF 		bl	PPMCounter_ReadCounter
  56              	.LVL1:
  57 0024 074B     		ldr	r3, .L6+12
  58 0026 6D00     		lsl	r5, r5, #1
  59 0028 E852     		strh	r0, [r5, r3]
 159:.\Generated_Source\PSoC4/PPMISR.c ****         PPM_channel++;
  60              		.loc 1 159 0
  61 002a 2378     		ldrb	r3, [r4]
  62 002c 0133     		add	r3, r3, #1
  63              	.L4:
 160:.\Generated_Source\PSoC4/PPMISR.c ****     }
 161:.\Generated_Source\PSoC4/PPMISR.c ****     PPMCounter_WriteCounter(0);     // Resetting the counter
  64              		.loc 1 161 0
  65 002e 0020     		mov	r0, #0
 159:.\Generated_Source\PSoC4/PPMISR.c ****         PPM_channel++;
  66              		.loc 1 159 0
ARM GAS  C:\Users\SNFU\AppData\Local\Temp\ccQvimZ5.s 			page 5


  67 0030 2370     		strb	r3, [r4]
 162:.\Generated_Source\PSoC4/PPMISR.c ****     /* `#END` */
 163:.\Generated_Source\PSoC4/PPMISR.c **** }
  68              		.loc 1 163 0
  69              		@ sp needed
 161:.\Generated_Source\PSoC4/PPMISR.c ****     PPMCounter_WriteCounter(0);     // Resetting the counter
  70              		.loc 1 161 0
  71 0032 FFF7FEFF 		bl	PPMCounter_WriteCounter
  72              	.LVL2:
  73              		.loc 1 163 0
  74 0036 38BD     		pop	{r3, r4, r5, pc}
  75              	.L7:
  76              		.align	2
  77              	.L6:
  78 0038 00000000 		.word	receiver_connected
  79 003c 00000000 		.word	overflow
  80 0040 00000000 		.word	PPM_channel
  81 0044 00000000 		.word	ctrl_in
  82              		.cfi_endproc
  83              	.LFE36:
  84              		.size	PPMISR_Interrupt, .-PPMISR_Interrupt
  85              		.section	.text.PPMISR_Stop,"ax",%progbits
  86              		.align	1
  87              		.global	PPMISR_Stop
  88              		.code	16
  89              		.thumb_func
  90              		.type	PPMISR_Stop, %function
  91              	PPMISR_Stop:
  92              	.LFB35:
 117:.\Generated_Source\PSoC4/PPMISR.c **** {
  93              		.loc 1 117 0
  94              		.cfi_startproc
  95              	.LBB18:
  96              	.LBB19:
 164:.\Generated_Source\PSoC4/PPMISR.c **** 
 165:.\Generated_Source\PSoC4/PPMISR.c **** 
 166:.\Generated_Source\PSoC4/PPMISR.c **** /*******************************************************************************
 167:.\Generated_Source\PSoC4/PPMISR.c **** * Function Name: PPMISR_SetVector
 168:.\Generated_Source\PSoC4/PPMISR.c **** ********************************************************************************
 169:.\Generated_Source\PSoC4/PPMISR.c **** *
 170:.\Generated_Source\PSoC4/PPMISR.c **** * Summary:
 171:.\Generated_Source\PSoC4/PPMISR.c **** *   Change the ISR vector for the Interrupt. Note calling PPMISR_Start
 172:.\Generated_Source\PSoC4/PPMISR.c **** *   will override any effect this method would have had. To set the vector 
 173:.\Generated_Source\PSoC4/PPMISR.c **** *   before the component has been started use PPMISR_StartEx instead.
 174:.\Generated_Source\PSoC4/PPMISR.c **** *
 175:.\Generated_Source\PSoC4/PPMISR.c **** * Parameters:
 176:.\Generated_Source\PSoC4/PPMISR.c **** *   address: Address of the ISR to set in the interrupt vector table.
 177:.\Generated_Source\PSoC4/PPMISR.c **** *
 178:.\Generated_Source\PSoC4/PPMISR.c **** * Return:
 179:.\Generated_Source\PSoC4/PPMISR.c **** *   None
 180:.\Generated_Source\PSoC4/PPMISR.c **** *
 181:.\Generated_Source\PSoC4/PPMISR.c **** *******************************************************************************/
 182:.\Generated_Source\PSoC4/PPMISR.c **** void PPMISR_SetVector(cyisraddress address)
 183:.\Generated_Source\PSoC4/PPMISR.c **** {
 184:.\Generated_Source\PSoC4/PPMISR.c ****     CyRamVectors[CYINT_IRQ_BASE + PPMISR__INTC_NUMBER] = address;
 185:.\Generated_Source\PSoC4/PPMISR.c **** }
 186:.\Generated_Source\PSoC4/PPMISR.c **** 
ARM GAS  C:\Users\SNFU\AppData\Local\Temp\ccQvimZ5.s 			page 6


 187:.\Generated_Source\PSoC4/PPMISR.c **** 
 188:.\Generated_Source\PSoC4/PPMISR.c **** /*******************************************************************************
 189:.\Generated_Source\PSoC4/PPMISR.c **** * Function Name: PPMISR_GetVector
 190:.\Generated_Source\PSoC4/PPMISR.c **** ********************************************************************************
 191:.\Generated_Source\PSoC4/PPMISR.c **** *
 192:.\Generated_Source\PSoC4/PPMISR.c **** * Summary:
 193:.\Generated_Source\PSoC4/PPMISR.c **** *   Gets the "address" of the current ISR vector for the Interrupt.
 194:.\Generated_Source\PSoC4/PPMISR.c **** *
 195:.\Generated_Source\PSoC4/PPMISR.c **** * Parameters:
 196:.\Generated_Source\PSoC4/PPMISR.c **** *   None
 197:.\Generated_Source\PSoC4/PPMISR.c **** *
 198:.\Generated_Source\PSoC4/PPMISR.c **** * Return:
 199:.\Generated_Source\PSoC4/PPMISR.c **** *   Address of the ISR in the interrupt vector table.
 200:.\Generated_Source\PSoC4/PPMISR.c **** *
 201:.\Generated_Source\PSoC4/PPMISR.c **** *******************************************************************************/
 202:.\Generated_Source\PSoC4/PPMISR.c **** cyisraddress PPMISR_GetVector(void)
 203:.\Generated_Source\PSoC4/PPMISR.c **** {
 204:.\Generated_Source\PSoC4/PPMISR.c ****     return CyRamVectors[CYINT_IRQ_BASE + PPMISR__INTC_NUMBER];
 205:.\Generated_Source\PSoC4/PPMISR.c **** }
 206:.\Generated_Source\PSoC4/PPMISR.c **** 
 207:.\Generated_Source\PSoC4/PPMISR.c **** 
 208:.\Generated_Source\PSoC4/PPMISR.c **** /*******************************************************************************
 209:.\Generated_Source\PSoC4/PPMISR.c **** * Function Name: PPMISR_SetPriority
 210:.\Generated_Source\PSoC4/PPMISR.c **** ********************************************************************************
 211:.\Generated_Source\PSoC4/PPMISR.c **** *
 212:.\Generated_Source\PSoC4/PPMISR.c **** * Summary:
 213:.\Generated_Source\PSoC4/PPMISR.c **** *   Sets the Priority of the Interrupt. Note calling PPMISR_Start
 214:.\Generated_Source\PSoC4/PPMISR.c **** *   or PPMISR_StartEx will override any effect this method would 
 215:.\Generated_Source\PSoC4/PPMISR.c **** *   have had. This method should only be called after PPMISR_Start or 
 216:.\Generated_Source\PSoC4/PPMISR.c **** *   PPMISR_StartEx has been called. To set the initial
 217:.\Generated_Source\PSoC4/PPMISR.c **** *   priority for the component use the cydwr file in the tool.
 218:.\Generated_Source\PSoC4/PPMISR.c **** *
 219:.\Generated_Source\PSoC4/PPMISR.c **** * Parameters:
 220:.\Generated_Source\PSoC4/PPMISR.c **** *   priority: Priority of the interrupt. 0 - 3, 0 being the highest.
 221:.\Generated_Source\PSoC4/PPMISR.c **** *
 222:.\Generated_Source\PSoC4/PPMISR.c **** * Return:
 223:.\Generated_Source\PSoC4/PPMISR.c **** *   None
 224:.\Generated_Source\PSoC4/PPMISR.c **** *
 225:.\Generated_Source\PSoC4/PPMISR.c **** *******************************************************************************/
 226:.\Generated_Source\PSoC4/PPMISR.c **** void PPMISR_SetPriority(uint8 priority)
 227:.\Generated_Source\PSoC4/PPMISR.c **** {
 228:.\Generated_Source\PSoC4/PPMISR.c **** 	uint8 interruptState;
 229:.\Generated_Source\PSoC4/PPMISR.c ****     uint32 priorityOffset = ((PPMISR__INTC_NUMBER % 4u) * 8u) + 6u;
 230:.\Generated_Source\PSoC4/PPMISR.c ****     
 231:.\Generated_Source\PSoC4/PPMISR.c **** 	interruptState = CyEnterCriticalSection();
 232:.\Generated_Source\PSoC4/PPMISR.c ****     *PPMISR_INTC_PRIOR = (*PPMISR_INTC_PRIOR & (uint32)(~PPMISR__INTC_PRIOR_MASK)) |
 233:.\Generated_Source\PSoC4/PPMISR.c ****                                     ((uint32)priority << priorityOffset);
 234:.\Generated_Source\PSoC4/PPMISR.c **** 	CyExitCriticalSection(interruptState);
 235:.\Generated_Source\PSoC4/PPMISR.c **** }
 236:.\Generated_Source\PSoC4/PPMISR.c **** 
 237:.\Generated_Source\PSoC4/PPMISR.c **** 
 238:.\Generated_Source\PSoC4/PPMISR.c **** /*******************************************************************************
 239:.\Generated_Source\PSoC4/PPMISR.c **** * Function Name: PPMISR_GetPriority
 240:.\Generated_Source\PSoC4/PPMISR.c **** ********************************************************************************
 241:.\Generated_Source\PSoC4/PPMISR.c **** *
 242:.\Generated_Source\PSoC4/PPMISR.c **** * Summary:
 243:.\Generated_Source\PSoC4/PPMISR.c **** *   Gets the Priority of the Interrupt.
ARM GAS  C:\Users\SNFU\AppData\Local\Temp\ccQvimZ5.s 			page 7


 244:.\Generated_Source\PSoC4/PPMISR.c **** *
 245:.\Generated_Source\PSoC4/PPMISR.c **** * Parameters:
 246:.\Generated_Source\PSoC4/PPMISR.c **** *   None
 247:.\Generated_Source\PSoC4/PPMISR.c **** *
 248:.\Generated_Source\PSoC4/PPMISR.c **** * Return:
 249:.\Generated_Source\PSoC4/PPMISR.c **** *   Priority of the interrupt. 0 - 3, 0 being the highest.
 250:.\Generated_Source\PSoC4/PPMISR.c **** *
 251:.\Generated_Source\PSoC4/PPMISR.c **** *******************************************************************************/
 252:.\Generated_Source\PSoC4/PPMISR.c **** uint8 PPMISR_GetPriority(void)
 253:.\Generated_Source\PSoC4/PPMISR.c **** {
 254:.\Generated_Source\PSoC4/PPMISR.c ****     uint32 priority;
 255:.\Generated_Source\PSoC4/PPMISR.c **** 	uint32 priorityOffset = ((PPMISR__INTC_NUMBER % 4u) * 8u) + 6u;
 256:.\Generated_Source\PSoC4/PPMISR.c **** 
 257:.\Generated_Source\PSoC4/PPMISR.c ****     priority = (*PPMISR_INTC_PRIOR & PPMISR__INTC_PRIOR_MASK) >> priorityOffset;
 258:.\Generated_Source\PSoC4/PPMISR.c **** 
 259:.\Generated_Source\PSoC4/PPMISR.c ****     return (uint8)priority;
 260:.\Generated_Source\PSoC4/PPMISR.c **** }
 261:.\Generated_Source\PSoC4/PPMISR.c **** 
 262:.\Generated_Source\PSoC4/PPMISR.c **** 
 263:.\Generated_Source\PSoC4/PPMISR.c **** /*******************************************************************************
 264:.\Generated_Source\PSoC4/PPMISR.c **** * Function Name: PPMISR_Enable
 265:.\Generated_Source\PSoC4/PPMISR.c **** ********************************************************************************
 266:.\Generated_Source\PSoC4/PPMISR.c **** *
 267:.\Generated_Source\PSoC4/PPMISR.c **** * Summary:
 268:.\Generated_Source\PSoC4/PPMISR.c **** *   Enables the interrupt.
 269:.\Generated_Source\PSoC4/PPMISR.c **** *
 270:.\Generated_Source\PSoC4/PPMISR.c **** * Parameters:
 271:.\Generated_Source\PSoC4/PPMISR.c **** *   None
 272:.\Generated_Source\PSoC4/PPMISR.c **** *
 273:.\Generated_Source\PSoC4/PPMISR.c **** * Return:
 274:.\Generated_Source\PSoC4/PPMISR.c **** *   None
 275:.\Generated_Source\PSoC4/PPMISR.c **** *
 276:.\Generated_Source\PSoC4/PPMISR.c **** *******************************************************************************/
 277:.\Generated_Source\PSoC4/PPMISR.c **** void PPMISR_Enable(void)
 278:.\Generated_Source\PSoC4/PPMISR.c **** {
 279:.\Generated_Source\PSoC4/PPMISR.c ****     /* Enable the general interrupt. */
 280:.\Generated_Source\PSoC4/PPMISR.c ****     *PPMISR_INTC_SET_EN = PPMISR__INTC_MASK;
 281:.\Generated_Source\PSoC4/PPMISR.c **** }
 282:.\Generated_Source\PSoC4/PPMISR.c **** 
 283:.\Generated_Source\PSoC4/PPMISR.c **** 
 284:.\Generated_Source\PSoC4/PPMISR.c **** /*******************************************************************************
 285:.\Generated_Source\PSoC4/PPMISR.c **** * Function Name: PPMISR_GetState
 286:.\Generated_Source\PSoC4/PPMISR.c **** ********************************************************************************
 287:.\Generated_Source\PSoC4/PPMISR.c **** *
 288:.\Generated_Source\PSoC4/PPMISR.c **** * Summary:
 289:.\Generated_Source\PSoC4/PPMISR.c **** *   Gets the state (enabled, disabled) of the Interrupt.
 290:.\Generated_Source\PSoC4/PPMISR.c **** *
 291:.\Generated_Source\PSoC4/PPMISR.c **** * Parameters:
 292:.\Generated_Source\PSoC4/PPMISR.c **** *   None
 293:.\Generated_Source\PSoC4/PPMISR.c **** *
 294:.\Generated_Source\PSoC4/PPMISR.c **** * Return:
 295:.\Generated_Source\PSoC4/PPMISR.c **** *   1 if enabled, 0 if disabled.
 296:.\Generated_Source\PSoC4/PPMISR.c **** *
 297:.\Generated_Source\PSoC4/PPMISR.c **** *******************************************************************************/
 298:.\Generated_Source\PSoC4/PPMISR.c **** uint8 PPMISR_GetState(void)
 299:.\Generated_Source\PSoC4/PPMISR.c **** {
 300:.\Generated_Source\PSoC4/PPMISR.c ****     /* Get the state of the general interrupt. */
ARM GAS  C:\Users\SNFU\AppData\Local\Temp\ccQvimZ5.s 			page 8


 301:.\Generated_Source\PSoC4/PPMISR.c ****     return ((*PPMISR_INTC_SET_EN & (uint32)PPMISR__INTC_MASK) != 0u) ? 1u:0u;
 302:.\Generated_Source\PSoC4/PPMISR.c **** }
 303:.\Generated_Source\PSoC4/PPMISR.c **** 
 304:.\Generated_Source\PSoC4/PPMISR.c **** 
 305:.\Generated_Source\PSoC4/PPMISR.c **** /*******************************************************************************
 306:.\Generated_Source\PSoC4/PPMISR.c **** * Function Name: PPMISR_Disable
 307:.\Generated_Source\PSoC4/PPMISR.c **** ********************************************************************************
 308:.\Generated_Source\PSoC4/PPMISR.c **** *
 309:.\Generated_Source\PSoC4/PPMISR.c **** * Summary:
 310:.\Generated_Source\PSoC4/PPMISR.c **** *   Disables the Interrupt.
 311:.\Generated_Source\PSoC4/PPMISR.c **** *
 312:.\Generated_Source\PSoC4/PPMISR.c **** * Parameters:
 313:.\Generated_Source\PSoC4/PPMISR.c **** *   None
 314:.\Generated_Source\PSoC4/PPMISR.c **** *
 315:.\Generated_Source\PSoC4/PPMISR.c **** * Return:
 316:.\Generated_Source\PSoC4/PPMISR.c **** *   None
 317:.\Generated_Source\PSoC4/PPMISR.c **** *
 318:.\Generated_Source\PSoC4/PPMISR.c **** *******************************************************************************/
 319:.\Generated_Source\PSoC4/PPMISR.c **** void PPMISR_Disable(void)
 320:.\Generated_Source\PSoC4/PPMISR.c **** {
 321:.\Generated_Source\PSoC4/PPMISR.c ****     /* Disable the general interrupt. */
 322:.\Generated_Source\PSoC4/PPMISR.c ****     *PPMISR_INTC_CLR_EN = PPMISR__INTC_MASK;
  97              		.loc 1 322 0
  98 0000 044B     		ldr	r3, .L9
  99 0002 8022     		mov	r2, #128
 100 0004 1203     		lsl	r2, r2, #12
 101 0006 1A60     		str	r2, [r3]
 102              	.LVL3:
 103              	.LBE19:
 104              	.LBE18:
 105              	.LBB20:
 106              	.LBB21:
 184:.\Generated_Source\PSoC4/PPMISR.c ****     CyRamVectors[CYINT_IRQ_BASE + PPMISR__INTC_NUMBER] = address;
 107              		.loc 1 184 0
 108 0008 034B     		ldr	r3, .L9+4
 109 000a 044A     		ldr	r2, .L9+8
 110 000c 8C33     		add	r3, r3, #140
 111 000e 1A60     		str	r2, [r3]
 112              	.LBE21:
 113              	.LBE20:
 123:.\Generated_Source\PSoC4/PPMISR.c **** }
 114              		.loc 1 123 0
 115              		@ sp needed
 116 0010 7047     		bx	lr
 117              	.L10:
 118 0012 C046     		.align	2
 119              	.L9:
 120 0014 80E100E0 		.word	-536813184
 121 0018 00000000 		.word	CyRamVectors
 122 001c 00000000 		.word	IntDefaultHandler
 123              		.cfi_endproc
 124              	.LFE35:
 125              		.size	PPMISR_Stop, .-PPMISR_Stop
 126              		.section	.text.PPMISR_SetVector,"ax",%progbits
 127              		.align	1
 128              		.global	PPMISR_SetVector
 129              		.code	16
ARM GAS  C:\Users\SNFU\AppData\Local\Temp\ccQvimZ5.s 			page 9


 130              		.thumb_func
 131              		.type	PPMISR_SetVector, %function
 132              	PPMISR_SetVector:
 133              	.LFB37:
 183:.\Generated_Source\PSoC4/PPMISR.c **** {
 134              		.loc 1 183 0
 135              		.cfi_startproc
 136              	.LVL4:
 184:.\Generated_Source\PSoC4/PPMISR.c ****     CyRamVectors[CYINT_IRQ_BASE + PPMISR__INTC_NUMBER] = address;
 137              		.loc 1 184 0
 138 0000 014B     		ldr	r3, .L12
 185:.\Generated_Source\PSoC4/PPMISR.c **** }
 139              		.loc 1 185 0
 140              		@ sp needed
 184:.\Generated_Source\PSoC4/PPMISR.c ****     CyRamVectors[CYINT_IRQ_BASE + PPMISR__INTC_NUMBER] = address;
 141              		.loc 1 184 0
 142 0002 8C33     		add	r3, r3, #140
 143 0004 1860     		str	r0, [r3]
 185:.\Generated_Source\PSoC4/PPMISR.c **** }
 144              		.loc 1 185 0
 145 0006 7047     		bx	lr
 146              	.L13:
 147              		.align	2
 148              	.L12:
 149 0008 00000000 		.word	CyRamVectors
 150              		.cfi_endproc
 151              	.LFE37:
 152              		.size	PPMISR_SetVector, .-PPMISR_SetVector
 153              		.section	.text.PPMISR_GetVector,"ax",%progbits
 154              		.align	1
 155              		.global	PPMISR_GetVector
 156              		.code	16
 157              		.thumb_func
 158              		.type	PPMISR_GetVector, %function
 159              	PPMISR_GetVector:
 160              	.LFB38:
 203:.\Generated_Source\PSoC4/PPMISR.c **** {
 161              		.loc 1 203 0
 162              		.cfi_startproc
 204:.\Generated_Source\PSoC4/PPMISR.c ****     return CyRamVectors[CYINT_IRQ_BASE + PPMISR__INTC_NUMBER];
 163              		.loc 1 204 0
 164 0000 014B     		ldr	r3, .L15
 205:.\Generated_Source\PSoC4/PPMISR.c **** }
 165              		.loc 1 205 0
 166              		@ sp needed
 204:.\Generated_Source\PSoC4/PPMISR.c ****     return CyRamVectors[CYINT_IRQ_BASE + PPMISR__INTC_NUMBER];
 167              		.loc 1 204 0
 168 0002 8C33     		add	r3, r3, #140
 169 0004 1868     		ldr	r0, [r3]
 205:.\Generated_Source\PSoC4/PPMISR.c **** }
 170              		.loc 1 205 0
 171 0006 7047     		bx	lr
 172              	.L16:
 173              		.align	2
 174              	.L15:
 175 0008 00000000 		.word	CyRamVectors
 176              		.cfi_endproc
ARM GAS  C:\Users\SNFU\AppData\Local\Temp\ccQvimZ5.s 			page 10


 177              	.LFE38:
 178              		.size	PPMISR_GetVector, .-PPMISR_GetVector
 179              		.section	.text.PPMISR_SetPriority,"ax",%progbits
 180              		.align	1
 181              		.global	PPMISR_SetPriority
 182              		.code	16
 183              		.thumb_func
 184              		.type	PPMISR_SetPriority, %function
 185              	PPMISR_SetPriority:
 186              	.LFB39:
 227:.\Generated_Source\PSoC4/PPMISR.c **** {
 187              		.loc 1 227 0
 188              		.cfi_startproc
 189              	.LVL5:
 190 0000 10B5     		push	{r4, lr}
 191              		.cfi_def_cfa_offset 8
 192              		.cfi_offset 4, -8
 193              		.cfi_offset 14, -4
 227:.\Generated_Source\PSoC4/PPMISR.c **** {
 194              		.loc 1 227 0
 195 0002 041C     		mov	r4, r0
 231:.\Generated_Source\PSoC4/PPMISR.c **** 	interruptState = CyEnterCriticalSection();
 196              		.loc 1 231 0
 197 0004 FFF7FEFF 		bl	CyEnterCriticalSection
 198              	.LVL6:
 232:.\Generated_Source\PSoC4/PPMISR.c ****     *PPMISR_INTC_PRIOR = (*PPMISR_INTC_PRIOR & (uint32)(~PPMISR__INTC_PRIOR_MASK)) |
 199              		.loc 1 232 0
 200 0008 044B     		ldr	r3, .L18
 233:.\Generated_Source\PSoC4/PPMISR.c ****                                     ((uint32)priority << priorityOffset);
 201              		.loc 1 233 0
 202 000a A407     		lsl	r4, r4, #30
 232:.\Generated_Source\PSoC4/PPMISR.c ****     *PPMISR_INTC_PRIOR = (*PPMISR_INTC_PRIOR & (uint32)(~PPMISR__INTC_PRIOR_MASK)) |
 203              		.loc 1 232 0
 204 000c 1A68     		ldr	r2, [r3]
 235:.\Generated_Source\PSoC4/PPMISR.c **** }
 205              		.loc 1 235 0
 206              		@ sp needed
 232:.\Generated_Source\PSoC4/PPMISR.c ****     *PPMISR_INTC_PRIOR = (*PPMISR_INTC_PRIOR & (uint32)(~PPMISR__INTC_PRIOR_MASK)) |
 207              		.loc 1 232 0
 208 000e 9200     		lsl	r2, r2, #2
 209 0010 9208     		lsr	r2, r2, #2
 210 0012 1443     		orr	r4, r2
 211 0014 1C60     		str	r4, [r3]
 234:.\Generated_Source\PSoC4/PPMISR.c **** 	CyExitCriticalSection(interruptState);
 212              		.loc 1 234 0
 213 0016 FFF7FEFF 		bl	CyExitCriticalSection
 214              	.LVL7:
 235:.\Generated_Source\PSoC4/PPMISR.c **** }
 215              		.loc 1 235 0
 216 001a 10BD     		pop	{r4, pc}
 217              	.L19:
 218              		.align	2
 219              	.L18:
 220 001c 10E400E0 		.word	-536812528
 221              		.cfi_endproc
 222              	.LFE39:
 223              		.size	PPMISR_SetPriority, .-PPMISR_SetPriority
ARM GAS  C:\Users\SNFU\AppData\Local\Temp\ccQvimZ5.s 			page 11


 224              		.section	.text.PPMISR_Start,"ax",%progbits
 225              		.align	1
 226              		.global	PPMISR_Start
 227              		.code	16
 228              		.thumb_func
 229              		.type	PPMISR_Start, %function
 230              	PPMISR_Start:
 231              	.LFB33:
  58:.\Generated_Source\PSoC4/PPMISR.c **** {
 232              		.loc 1 58 0
 233              		.cfi_startproc
 234 0000 10B5     		push	{r4, lr}
 235              		.cfi_def_cfa_offset 8
 236              		.cfi_offset 4, -8
 237              		.cfi_offset 14, -4
 238              	.LBB22:
 239              	.LBB23:
 240              		.loc 1 322 0
 241 0002 074B     		ldr	r3, .L21
 242 0004 8024     		mov	r4, #128
 243 0006 2403     		lsl	r4, r4, #12
 244 0008 1C60     		str	r4, [r3]
 245              	.LVL8:
 246              	.LBE23:
 247              	.LBE22:
 248              	.LBB24:
 249              	.LBB25:
 184:.\Generated_Source\PSoC4/PPMISR.c ****     CyRamVectors[CYINT_IRQ_BASE + PPMISR__INTC_NUMBER] = address;
 250              		.loc 1 184 0
 251 000a 064B     		ldr	r3, .L21+4
 252 000c 064A     		ldr	r2, .L21+8
 253 000e 8C33     		add	r3, r3, #140
 254              	.LBE25:
 255              	.LBE24:
  66:.\Generated_Source\PSoC4/PPMISR.c ****     PPMISR_SetPriority((uint8)PPMISR_INTC_PRIOR_NUMBER);
 256              		.loc 1 66 0
 257 0010 0320     		mov	r0, #3
 258              	.LBB27:
 259              	.LBB26:
 184:.\Generated_Source\PSoC4/PPMISR.c ****     CyRamVectors[CYINT_IRQ_BASE + PPMISR__INTC_NUMBER] = address;
 260              		.loc 1 184 0
 261 0012 1A60     		str	r2, [r3]
 262              	.LBE26:
 263              	.LBE27:
  66:.\Generated_Source\PSoC4/PPMISR.c ****     PPMISR_SetPriority((uint8)PPMISR_INTC_PRIOR_NUMBER);
 264              		.loc 1 66 0
 265 0014 FFF7FEFF 		bl	PPMISR_SetPriority
 266              	.LVL9:
 267              	.LBB28:
 268              	.LBB29:
 280:.\Generated_Source\PSoC4/PPMISR.c ****     *PPMISR_INTC_SET_EN = PPMISR__INTC_MASK;
 269              		.loc 1 280 0
 270 0018 044B     		ldr	r3, .L21+12
 271              	.LBE29:
 272              	.LBE28:
  70:.\Generated_Source\PSoC4/PPMISR.c **** }
 273              		.loc 1 70 0
ARM GAS  C:\Users\SNFU\AppData\Local\Temp\ccQvimZ5.s 			page 12


 274              		@ sp needed
 275              	.LBB31:
 276              	.LBB30:
 280:.\Generated_Source\PSoC4/PPMISR.c ****     *PPMISR_INTC_SET_EN = PPMISR__INTC_MASK;
 277              		.loc 1 280 0
 278 001a 1C60     		str	r4, [r3]
 279              	.LBE30:
 280              	.LBE31:
  70:.\Generated_Source\PSoC4/PPMISR.c **** }
 281              		.loc 1 70 0
 282 001c 10BD     		pop	{r4, pc}
 283              	.L22:
 284 001e C046     		.align	2
 285              	.L21:
 286 0020 80E100E0 		.word	-536813184
 287 0024 00000000 		.word	CyRamVectors
 288 0028 00000000 		.word	PPMISR_Interrupt
 289 002c 00E100E0 		.word	-536813312
 290              		.cfi_endproc
 291              	.LFE33:
 292              		.size	PPMISR_Start, .-PPMISR_Start
 293              		.section	.text.PPMISR_StartEx,"ax",%progbits
 294              		.align	1
 295              		.global	PPMISR_StartEx
 296              		.code	16
 297              		.thumb_func
 298              		.type	PPMISR_StartEx, %function
 299              	PPMISR_StartEx:
 300              	.LFB34:
  88:.\Generated_Source\PSoC4/PPMISR.c **** {
 301              		.loc 1 88 0
 302              		.cfi_startproc
 303              	.LVL10:
 304 0000 10B5     		push	{r4, lr}
 305              		.cfi_def_cfa_offset 8
 306              		.cfi_offset 4, -8
 307              		.cfi_offset 14, -4
 308              	.LBB32:
 309              	.LBB33:
 310              		.loc 1 322 0
 311 0002 064B     		ldr	r3, .L24
 312 0004 8024     		mov	r4, #128
 313 0006 2403     		lsl	r4, r4, #12
 314 0008 1C60     		str	r4, [r3]
 315              	.LVL11:
 316              	.LBE33:
 317              	.LBE32:
 318              	.LBB34:
 319              	.LBB35:
 184:.\Generated_Source\PSoC4/PPMISR.c ****     CyRamVectors[CYINT_IRQ_BASE + PPMISR__INTC_NUMBER] = address;
 320              		.loc 1 184 0
 321 000a 054B     		ldr	r3, .L24+4
 322              	.LBE35:
 323              	.LBE34:
 100:.\Generated_Source\PSoC4/PPMISR.c **** }
 324              		.loc 1 100 0
 325              		@ sp needed
ARM GAS  C:\Users\SNFU\AppData\Local\Temp\ccQvimZ5.s 			page 13


 326              	.LBB37:
 327              	.LBB36:
 184:.\Generated_Source\PSoC4/PPMISR.c ****     CyRamVectors[CYINT_IRQ_BASE + PPMISR__INTC_NUMBER] = address;
 328              		.loc 1 184 0
 329 000c 8C33     		add	r3, r3, #140
 330 000e 1860     		str	r0, [r3]
 331              	.LBE36:
 332              	.LBE37:
  96:.\Generated_Source\PSoC4/PPMISR.c ****     PPMISR_SetPriority((uint8)PPMISR_INTC_PRIOR_NUMBER);
 333              		.loc 1 96 0
 334 0010 0320     		mov	r0, #3
 335              	.LVL12:
 336 0012 FFF7FEFF 		bl	PPMISR_SetPriority
 337              	.LVL13:
 338              	.LBB38:
 339              	.LBB39:
 280:.\Generated_Source\PSoC4/PPMISR.c ****     *PPMISR_INTC_SET_EN = PPMISR__INTC_MASK;
 340              		.loc 1 280 0
 341 0016 034B     		ldr	r3, .L24+8
 342 0018 1C60     		str	r4, [r3]
 343              	.LBE39:
 344              	.LBE38:
 100:.\Generated_Source\PSoC4/PPMISR.c **** }
 345              		.loc 1 100 0
 346 001a 10BD     		pop	{r4, pc}
 347              	.L25:
 348              		.align	2
 349              	.L24:
 350 001c 80E100E0 		.word	-536813184
 351 0020 00000000 		.word	CyRamVectors
 352 0024 00E100E0 		.word	-536813312
 353              		.cfi_endproc
 354              	.LFE34:
 355              		.size	PPMISR_StartEx, .-PPMISR_StartEx
 356              		.section	.text.PPMISR_GetPriority,"ax",%progbits
 357              		.align	1
 358              		.global	PPMISR_GetPriority
 359              		.code	16
 360              		.thumb_func
 361              		.type	PPMISR_GetPriority, %function
 362              	PPMISR_GetPriority:
 363              	.LFB40:
 253:.\Generated_Source\PSoC4/PPMISR.c **** {
 364              		.loc 1 253 0
 365              		.cfi_startproc
 366              	.LVL14:
 257:.\Generated_Source\PSoC4/PPMISR.c ****     priority = (*PPMISR_INTC_PRIOR & PPMISR__INTC_PRIOR_MASK) >> priorityOffset;
 367              		.loc 1 257 0
 368 0000 014B     		ldr	r3, .L27
 260:.\Generated_Source\PSoC4/PPMISR.c **** }
 369              		.loc 1 260 0
 370              		@ sp needed
 257:.\Generated_Source\PSoC4/PPMISR.c ****     priority = (*PPMISR_INTC_PRIOR & PPMISR__INTC_PRIOR_MASK) >> priorityOffset;
 371              		.loc 1 257 0
 372 0002 1868     		ldr	r0, [r3]
 373              	.LVL15:
 259:.\Generated_Source\PSoC4/PPMISR.c ****     return (uint8)priority;
ARM GAS  C:\Users\SNFU\AppData\Local\Temp\ccQvimZ5.s 			page 14


 374              		.loc 1 259 0
 375 0004 800F     		lsr	r0, r0, #30
 376              	.LVL16:
 260:.\Generated_Source\PSoC4/PPMISR.c **** }
 377              		.loc 1 260 0
 378 0006 7047     		bx	lr
 379              	.L28:
 380              		.align	2
 381              	.L27:
 382 0008 10E400E0 		.word	-536812528
 383              		.cfi_endproc
 384              	.LFE40:
 385              		.size	PPMISR_GetPriority, .-PPMISR_GetPriority
 386              		.section	.text.PPMISR_Enable,"ax",%progbits
 387              		.align	1
 388              		.global	PPMISR_Enable
 389              		.code	16
 390              		.thumb_func
 391              		.type	PPMISR_Enable, %function
 392              	PPMISR_Enable:
 393              	.LFB41:
 278:.\Generated_Source\PSoC4/PPMISR.c **** {
 394              		.loc 1 278 0
 395              		.cfi_startproc
 280:.\Generated_Source\PSoC4/PPMISR.c ****     *PPMISR_INTC_SET_EN = PPMISR__INTC_MASK;
 396              		.loc 1 280 0
 397 0000 024B     		ldr	r3, .L30
 398 0002 8022     		mov	r2, #128
 399 0004 1203     		lsl	r2, r2, #12
 400 0006 1A60     		str	r2, [r3]
 281:.\Generated_Source\PSoC4/PPMISR.c **** }
 401              		.loc 1 281 0
 402              		@ sp needed
 403 0008 7047     		bx	lr
 404              	.L31:
 405 000a C046     		.align	2
 406              	.L30:
 407 000c 00E100E0 		.word	-536813312
 408              		.cfi_endproc
 409              	.LFE41:
 410              		.size	PPMISR_Enable, .-PPMISR_Enable
 411              		.section	.text.PPMISR_GetState,"ax",%progbits
 412              		.align	1
 413              		.global	PPMISR_GetState
 414              		.code	16
 415              		.thumb_func
 416              		.type	PPMISR_GetState, %function
 417              	PPMISR_GetState:
 418              	.LFB42:
 299:.\Generated_Source\PSoC4/PPMISR.c **** {
 419              		.loc 1 299 0
 420              		.cfi_startproc
 301:.\Generated_Source\PSoC4/PPMISR.c ****     return ((*PPMISR_INTC_SET_EN & (uint32)PPMISR__INTC_MASK) != 0u) ? 1u:0u;
 421              		.loc 1 301 0
 422 0000 024B     		ldr	r3, .L33
 302:.\Generated_Source\PSoC4/PPMISR.c **** }
 423              		.loc 1 302 0
ARM GAS  C:\Users\SNFU\AppData\Local\Temp\ccQvimZ5.s 			page 15


 424              		@ sp needed
 301:.\Generated_Source\PSoC4/PPMISR.c ****     return ((*PPMISR_INTC_SET_EN & (uint32)PPMISR__INTC_MASK) != 0u) ? 1u:0u;
 425              		.loc 1 301 0
 426 0002 1868     		ldr	r0, [r3]
 427 0004 0003     		lsl	r0, r0, #12
 428 0006 C00F     		lsr	r0, r0, #31
 302:.\Generated_Source\PSoC4/PPMISR.c **** }
 429              		.loc 1 302 0
 430 0008 7047     		bx	lr
 431              	.L34:
 432 000a C046     		.align	2
 433              	.L33:
 434 000c 00E100E0 		.word	-536813312
 435              		.cfi_endproc
 436              	.LFE42:
 437              		.size	PPMISR_GetState, .-PPMISR_GetState
 438              		.section	.text.PPMISR_Disable,"ax",%progbits
 439              		.align	1
 440              		.global	PPMISR_Disable
 441              		.code	16
 442              		.thumb_func
 443              		.type	PPMISR_Disable, %function
 444              	PPMISR_Disable:
 445              	.LFB43:
 320:.\Generated_Source\PSoC4/PPMISR.c **** {
 446              		.loc 1 320 0
 447              		.cfi_startproc
 448              		.loc 1 322 0
 449 0000 024B     		ldr	r3, .L36
 450 0002 8022     		mov	r2, #128
 451 0004 1203     		lsl	r2, r2, #12
 452 0006 1A60     		str	r2, [r3]
 323:.\Generated_Source\PSoC4/PPMISR.c **** }
 453              		.loc 1 323 0
 454              		@ sp needed
 455 0008 7047     		bx	lr
 456              	.L37:
 457 000a C046     		.align	2
 458              	.L36:
 459 000c 80E100E0 		.word	-536813184
 460              		.cfi_endproc
 461              	.LFE43:
 462              		.size	PPMISR_Disable, .-PPMISR_Disable
 463              		.section	.text.PPMISR_SetPending,"ax",%progbits
 464              		.align	1
 465              		.global	PPMISR_SetPending
 466              		.code	16
 467              		.thumb_func
 468              		.type	PPMISR_SetPending, %function
 469              	PPMISR_SetPending:
 470              	.LFB44:
 324:.\Generated_Source\PSoC4/PPMISR.c **** 
 325:.\Generated_Source\PSoC4/PPMISR.c **** 
 326:.\Generated_Source\PSoC4/PPMISR.c **** /*******************************************************************************
 327:.\Generated_Source\PSoC4/PPMISR.c **** * Function Name: PPMISR_SetPending
 328:.\Generated_Source\PSoC4/PPMISR.c **** ********************************************************************************
 329:.\Generated_Source\PSoC4/PPMISR.c **** *
ARM GAS  C:\Users\SNFU\AppData\Local\Temp\ccQvimZ5.s 			page 16


 330:.\Generated_Source\PSoC4/PPMISR.c **** * Summary:
 331:.\Generated_Source\PSoC4/PPMISR.c **** *   Causes the Interrupt to enter the pending state, a software method of
 332:.\Generated_Source\PSoC4/PPMISR.c **** *   generating the interrupt.
 333:.\Generated_Source\PSoC4/PPMISR.c **** *
 334:.\Generated_Source\PSoC4/PPMISR.c **** * Parameters:
 335:.\Generated_Source\PSoC4/PPMISR.c **** *   None
 336:.\Generated_Source\PSoC4/PPMISR.c **** *
 337:.\Generated_Source\PSoC4/PPMISR.c **** * Return:
 338:.\Generated_Source\PSoC4/PPMISR.c **** *   None
 339:.\Generated_Source\PSoC4/PPMISR.c **** *
 340:.\Generated_Source\PSoC4/PPMISR.c **** *******************************************************************************/
 341:.\Generated_Source\PSoC4/PPMISR.c **** void PPMISR_SetPending(void)
 342:.\Generated_Source\PSoC4/PPMISR.c **** {
 471              		.loc 1 342 0
 472              		.cfi_startproc
 343:.\Generated_Source\PSoC4/PPMISR.c ****     *PPMISR_INTC_SET_PD = PPMISR__INTC_MASK;
 473              		.loc 1 343 0
 474 0000 024B     		ldr	r3, .L39
 475 0002 8022     		mov	r2, #128
 476 0004 1203     		lsl	r2, r2, #12
 477 0006 1A60     		str	r2, [r3]
 344:.\Generated_Source\PSoC4/PPMISR.c **** }
 478              		.loc 1 344 0
 479              		@ sp needed
 480 0008 7047     		bx	lr
 481              	.L40:
 482 000a C046     		.align	2
 483              	.L39:
 484 000c 00E200E0 		.word	-536813056
 485              		.cfi_endproc
 486              	.LFE44:
 487              		.size	PPMISR_SetPending, .-PPMISR_SetPending
 488              		.section	.text.PPMISR_ClearPending,"ax",%progbits
 489              		.align	1
 490              		.global	PPMISR_ClearPending
 491              		.code	16
 492              		.thumb_func
 493              		.type	PPMISR_ClearPending, %function
 494              	PPMISR_ClearPending:
 495              	.LFB45:
 345:.\Generated_Source\PSoC4/PPMISR.c **** 
 346:.\Generated_Source\PSoC4/PPMISR.c **** 
 347:.\Generated_Source\PSoC4/PPMISR.c **** /*******************************************************************************
 348:.\Generated_Source\PSoC4/PPMISR.c **** * Function Name: PPMISR_ClearPending
 349:.\Generated_Source\PSoC4/PPMISR.c **** ********************************************************************************
 350:.\Generated_Source\PSoC4/PPMISR.c **** *
 351:.\Generated_Source\PSoC4/PPMISR.c **** * Summary:
 352:.\Generated_Source\PSoC4/PPMISR.c **** *   Clears a pending interrupt.
 353:.\Generated_Source\PSoC4/PPMISR.c **** *
 354:.\Generated_Source\PSoC4/PPMISR.c **** * Parameters:
 355:.\Generated_Source\PSoC4/PPMISR.c **** *   None
 356:.\Generated_Source\PSoC4/PPMISR.c **** *
 357:.\Generated_Source\PSoC4/PPMISR.c **** * Return:
 358:.\Generated_Source\PSoC4/PPMISR.c **** *   None
 359:.\Generated_Source\PSoC4/PPMISR.c **** *
 360:.\Generated_Source\PSoC4/PPMISR.c **** *******************************************************************************/
 361:.\Generated_Source\PSoC4/PPMISR.c **** void PPMISR_ClearPending(void)
ARM GAS  C:\Users\SNFU\AppData\Local\Temp\ccQvimZ5.s 			page 17


 362:.\Generated_Source\PSoC4/PPMISR.c **** {
 496              		.loc 1 362 0
 497              		.cfi_startproc
 363:.\Generated_Source\PSoC4/PPMISR.c ****     *PPMISR_INTC_CLR_PD = PPMISR__INTC_MASK;
 498              		.loc 1 363 0
 499 0000 024B     		ldr	r3, .L42
 500 0002 8022     		mov	r2, #128
 501 0004 1203     		lsl	r2, r2, #12
 502 0006 1A60     		str	r2, [r3]
 364:.\Generated_Source\PSoC4/PPMISR.c **** }
 503              		.loc 1 364 0
 504              		@ sp needed
 505 0008 7047     		bx	lr
 506              	.L43:
 507 000a C046     		.align	2
 508              	.L42:
 509 000c 80E200E0 		.word	-536812928
 510              		.cfi_endproc
 511              	.LFE45:
 512              		.size	PPMISR_ClearPending, .-PPMISR_ClearPending
 513              		.text
 514              	.Letext0:
 515              		.file 2 "c:\\program files\\cypress\\psoc creator\\3.1\\psoc creator\\import\\gnu_cs\\arm\\4.8.4\\
 516              		.file 3 "c:\\program files\\cypress\\psoc creator\\3.1\\psoc creator\\import\\gnu_cs\\arm\\4.8.4\\
 517              		.file 4 ".\\Generated_Source\\PSoC4/cytypes.h"
 518              		.file 5 ".\\Generated_Source\\PSoC4/PPMCounter.h"
 519              		.file 6 ".\\Generated_Source\\PSoC4/CyLib.h"