ARM GAS  C:\Users\SNFU\AppData\Local\Temp\ccVt1q1b.s 			page 1


   1              		.cpu cortex-m0
   2              		.fpu softvfp
   3              		.eabi_attribute 20, 1
   4              		.eabi_attribute 21, 1
   5              		.eabi_attribute 23, 3
   6              		.eabi_attribute 24, 1
   7              		.eabi_attribute 25, 1
   8              		.eabi_attribute 26, 1
   9              		.eabi_attribute 30, 4
  10              		.eabi_attribute 34, 0
  11              		.eabi_attribute 18, 4
  12              		.code	16
  13              		.file	"PPMRstISR.c"
  14              		.text
  15              	.Ltext0:
  16              		.cfi_sections	.debug_frame
  17              		.section	.text.PPMRstISR_Interrupt,"ax",%progbits
  18              		.align	1
  19              		.global	PPMRstISR_Interrupt
  20              		.code	16
  21              		.thumb_func
  22              		.type	PPMRstISR_Interrupt, %function
  23              	PPMRstISR_Interrupt:
  24              	.LFB36:
  25              		.file 1 ".\\Generated_Source\\PSoC4\\PPMRstISR.c"
   1:.\Generated_Source\PSoC4/PPMRstISR.c **** /*******************************************************************************
   2:.\Generated_Source\PSoC4/PPMRstISR.c **** * File Name: PPMRstISR.c  
   3:.\Generated_Source\PSoC4/PPMRstISR.c **** * Version 1.70
   4:.\Generated_Source\PSoC4/PPMRstISR.c **** *
   5:.\Generated_Source\PSoC4/PPMRstISR.c **** *  Description:
   6:.\Generated_Source\PSoC4/PPMRstISR.c **** *   API for controlling the state of an interrupt.
   7:.\Generated_Source\PSoC4/PPMRstISR.c **** *
   8:.\Generated_Source\PSoC4/PPMRstISR.c **** *
   9:.\Generated_Source\PSoC4/PPMRstISR.c **** *  Note:
  10:.\Generated_Source\PSoC4/PPMRstISR.c **** *
  11:.\Generated_Source\PSoC4/PPMRstISR.c **** ********************************************************************************
  12:.\Generated_Source\PSoC4/PPMRstISR.c **** * Copyright 2008-2012, Cypress Semiconductor Corporation.  All rights reserved.
  13:.\Generated_Source\PSoC4/PPMRstISR.c **** * You may use this file only in accordance with the license, terms, conditions, 
  14:.\Generated_Source\PSoC4/PPMRstISR.c **** * disclaimers, and limitations in the end user license agreement accompanying 
  15:.\Generated_Source\PSoC4/PPMRstISR.c **** * the software package with which this file was provided.
  16:.\Generated_Source\PSoC4/PPMRstISR.c **** *******************************************************************************/
  17:.\Generated_Source\PSoC4/PPMRstISR.c **** 
  18:.\Generated_Source\PSoC4/PPMRstISR.c **** 
  19:.\Generated_Source\PSoC4/PPMRstISR.c **** #include <cydevice_trm.h>
  20:.\Generated_Source\PSoC4/PPMRstISR.c **** #include <CyLib.h>
  21:.\Generated_Source\PSoC4/PPMRstISR.c **** #include <PPMRstISR.h>
  22:.\Generated_Source\PSoC4/PPMRstISR.c **** 
  23:.\Generated_Source\PSoC4/PPMRstISR.c **** #if !defined(PPMRstISR__REMOVED) /* Check for removal by optimization */
  24:.\Generated_Source\PSoC4/PPMRstISR.c **** 
  25:.\Generated_Source\PSoC4/PPMRstISR.c **** /*******************************************************************************
  26:.\Generated_Source\PSoC4/PPMRstISR.c **** *  Place your includes, defines and code here 
  27:.\Generated_Source\PSoC4/PPMRstISR.c **** ********************************************************************************/
  28:.\Generated_Source\PSoC4/PPMRstISR.c **** /* `#START PPMRstISR_intc` */
  29:.\Generated_Source\PSoC4/PPMRstISR.c **** #include <project.h>
  30:.\Generated_Source\PSoC4/PPMRstISR.c **** extern uint8_t PPM_channel;     // input channel variable
  31:.\Generated_Source\PSoC4/PPMRstISR.c **** extern uint16_t ctrl_in[];      // input control vector
  32:.\Generated_Source\PSoC4/PPMRstISR.c **** 
ARM GAS  C:\Users\SNFU\AppData\Local\Temp\ccVt1q1b.s 			page 2


  33:.\Generated_Source\PSoC4/PPMRstISR.c **** uint8_t overflow = 0;
  34:.\Generated_Source\PSoC4/PPMRstISR.c **** /* `#END` */
  35:.\Generated_Source\PSoC4/PPMRstISR.c **** 
  36:.\Generated_Source\PSoC4/PPMRstISR.c **** extern cyisraddress CyRamVectors[CYINT_IRQ_BASE + CY_NUM_INTERRUPTS];
  37:.\Generated_Source\PSoC4/PPMRstISR.c **** 
  38:.\Generated_Source\PSoC4/PPMRstISR.c **** /* Declared in startup, used to set unused interrupts to. */
  39:.\Generated_Source\PSoC4/PPMRstISR.c **** CY_ISR_PROTO(IntDefaultHandler);
  40:.\Generated_Source\PSoC4/PPMRstISR.c **** 
  41:.\Generated_Source\PSoC4/PPMRstISR.c **** 
  42:.\Generated_Source\PSoC4/PPMRstISR.c **** /*******************************************************************************
  43:.\Generated_Source\PSoC4/PPMRstISR.c **** * Function Name: PPMRstISR_Start
  44:.\Generated_Source\PSoC4/PPMRstISR.c **** ********************************************************************************
  45:.\Generated_Source\PSoC4/PPMRstISR.c **** *
  46:.\Generated_Source\PSoC4/PPMRstISR.c **** * Summary:
  47:.\Generated_Source\PSoC4/PPMRstISR.c **** *  Set up the interrupt and enable it.
  48:.\Generated_Source\PSoC4/PPMRstISR.c **** *
  49:.\Generated_Source\PSoC4/PPMRstISR.c **** * Parameters:  
  50:.\Generated_Source\PSoC4/PPMRstISR.c **** *   None
  51:.\Generated_Source\PSoC4/PPMRstISR.c **** *
  52:.\Generated_Source\PSoC4/PPMRstISR.c **** * Return:
  53:.\Generated_Source\PSoC4/PPMRstISR.c **** *   None
  54:.\Generated_Source\PSoC4/PPMRstISR.c **** *
  55:.\Generated_Source\PSoC4/PPMRstISR.c **** *******************************************************************************/
  56:.\Generated_Source\PSoC4/PPMRstISR.c **** void PPMRstISR_Start(void)
  57:.\Generated_Source\PSoC4/PPMRstISR.c **** {
  58:.\Generated_Source\PSoC4/PPMRstISR.c ****     /* For all we know the interrupt is active. */
  59:.\Generated_Source\PSoC4/PPMRstISR.c ****     PPMRstISR_Disable();
  60:.\Generated_Source\PSoC4/PPMRstISR.c **** 
  61:.\Generated_Source\PSoC4/PPMRstISR.c ****     /* Set the ISR to point to the PPMRstISR Interrupt. */
  62:.\Generated_Source\PSoC4/PPMRstISR.c ****     PPMRstISR_SetVector(&PPMRstISR_Interrupt);
  63:.\Generated_Source\PSoC4/PPMRstISR.c **** 
  64:.\Generated_Source\PSoC4/PPMRstISR.c ****     /* Set the priority. */
  65:.\Generated_Source\PSoC4/PPMRstISR.c ****     PPMRstISR_SetPriority((uint8)PPMRstISR_INTC_PRIOR_NUMBER);
  66:.\Generated_Source\PSoC4/PPMRstISR.c **** 
  67:.\Generated_Source\PSoC4/PPMRstISR.c ****     /* Enable it. */
  68:.\Generated_Source\PSoC4/PPMRstISR.c ****     PPMRstISR_Enable();
  69:.\Generated_Source\PSoC4/PPMRstISR.c **** }
  70:.\Generated_Source\PSoC4/PPMRstISR.c **** 
  71:.\Generated_Source\PSoC4/PPMRstISR.c **** 
  72:.\Generated_Source\PSoC4/PPMRstISR.c **** /*******************************************************************************
  73:.\Generated_Source\PSoC4/PPMRstISR.c **** * Function Name: PPMRstISR_StartEx
  74:.\Generated_Source\PSoC4/PPMRstISR.c **** ********************************************************************************
  75:.\Generated_Source\PSoC4/PPMRstISR.c **** *
  76:.\Generated_Source\PSoC4/PPMRstISR.c **** * Summary:
  77:.\Generated_Source\PSoC4/PPMRstISR.c **** *  Set up the interrupt and enable it.
  78:.\Generated_Source\PSoC4/PPMRstISR.c **** *
  79:.\Generated_Source\PSoC4/PPMRstISR.c **** * Parameters:  
  80:.\Generated_Source\PSoC4/PPMRstISR.c **** *   address: Address of the ISR to set in the interrupt vector table.
  81:.\Generated_Source\PSoC4/PPMRstISR.c **** *
  82:.\Generated_Source\PSoC4/PPMRstISR.c **** * Return:
  83:.\Generated_Source\PSoC4/PPMRstISR.c **** *   None
  84:.\Generated_Source\PSoC4/PPMRstISR.c **** *
  85:.\Generated_Source\PSoC4/PPMRstISR.c **** *******************************************************************************/
  86:.\Generated_Source\PSoC4/PPMRstISR.c **** void PPMRstISR_StartEx(cyisraddress address)
  87:.\Generated_Source\PSoC4/PPMRstISR.c **** {
  88:.\Generated_Source\PSoC4/PPMRstISR.c ****     /* For all we know the interrupt is active. */
  89:.\Generated_Source\PSoC4/PPMRstISR.c ****     PPMRstISR_Disable();
ARM GAS  C:\Users\SNFU\AppData\Local\Temp\ccVt1q1b.s 			page 3


  90:.\Generated_Source\PSoC4/PPMRstISR.c **** 
  91:.\Generated_Source\PSoC4/PPMRstISR.c ****     /* Set the ISR to point to the PPMRstISR Interrupt. */
  92:.\Generated_Source\PSoC4/PPMRstISR.c ****     PPMRstISR_SetVector(address);
  93:.\Generated_Source\PSoC4/PPMRstISR.c **** 
  94:.\Generated_Source\PSoC4/PPMRstISR.c ****     /* Set the priority. */
  95:.\Generated_Source\PSoC4/PPMRstISR.c ****     PPMRstISR_SetPriority((uint8)PPMRstISR_INTC_PRIOR_NUMBER);
  96:.\Generated_Source\PSoC4/PPMRstISR.c **** 
  97:.\Generated_Source\PSoC4/PPMRstISR.c ****     /* Enable it. */
  98:.\Generated_Source\PSoC4/PPMRstISR.c ****     PPMRstISR_Enable();
  99:.\Generated_Source\PSoC4/PPMRstISR.c **** }
 100:.\Generated_Source\PSoC4/PPMRstISR.c **** 
 101:.\Generated_Source\PSoC4/PPMRstISR.c **** 
 102:.\Generated_Source\PSoC4/PPMRstISR.c **** /*******************************************************************************
 103:.\Generated_Source\PSoC4/PPMRstISR.c **** * Function Name: PPMRstISR_Stop
 104:.\Generated_Source\PSoC4/PPMRstISR.c **** ********************************************************************************
 105:.\Generated_Source\PSoC4/PPMRstISR.c **** *
 106:.\Generated_Source\PSoC4/PPMRstISR.c **** * Summary:
 107:.\Generated_Source\PSoC4/PPMRstISR.c **** *   Disables and removes the interrupt.
 108:.\Generated_Source\PSoC4/PPMRstISR.c **** *
 109:.\Generated_Source\PSoC4/PPMRstISR.c **** * Parameters:  
 110:.\Generated_Source\PSoC4/PPMRstISR.c **** *
 111:.\Generated_Source\PSoC4/PPMRstISR.c **** * Return:
 112:.\Generated_Source\PSoC4/PPMRstISR.c **** *   None
 113:.\Generated_Source\PSoC4/PPMRstISR.c **** *
 114:.\Generated_Source\PSoC4/PPMRstISR.c **** *******************************************************************************/
 115:.\Generated_Source\PSoC4/PPMRstISR.c **** void PPMRstISR_Stop(void)
 116:.\Generated_Source\PSoC4/PPMRstISR.c **** {
 117:.\Generated_Source\PSoC4/PPMRstISR.c ****     /* Disable this interrupt. */
 118:.\Generated_Source\PSoC4/PPMRstISR.c ****     PPMRstISR_Disable();
 119:.\Generated_Source\PSoC4/PPMRstISR.c **** 
 120:.\Generated_Source\PSoC4/PPMRstISR.c ****     /* Set the ISR to point to the passive one. */
 121:.\Generated_Source\PSoC4/PPMRstISR.c ****     PPMRstISR_SetVector(&IntDefaultHandler);
 122:.\Generated_Source\PSoC4/PPMRstISR.c **** }
 123:.\Generated_Source\PSoC4/PPMRstISR.c **** 
 124:.\Generated_Source\PSoC4/PPMRstISR.c **** 
 125:.\Generated_Source\PSoC4/PPMRstISR.c **** /*******************************************************************************
 126:.\Generated_Source\PSoC4/PPMRstISR.c **** * Function Name: PPMRstISR_Interrupt
 127:.\Generated_Source\PSoC4/PPMRstISR.c **** ********************************************************************************
 128:.\Generated_Source\PSoC4/PPMRstISR.c **** *
 129:.\Generated_Source\PSoC4/PPMRstISR.c **** * Summary:
 130:.\Generated_Source\PSoC4/PPMRstISR.c **** *   The default Interrupt Service Routine for PPMRstISR.
 131:.\Generated_Source\PSoC4/PPMRstISR.c **** *
 132:.\Generated_Source\PSoC4/PPMRstISR.c **** *   Add custom code between the coments to keep the next version of this file
 133:.\Generated_Source\PSoC4/PPMRstISR.c **** *   from over writting your code.
 134:.\Generated_Source\PSoC4/PPMRstISR.c **** *
 135:.\Generated_Source\PSoC4/PPMRstISR.c **** * Parameters:  
 136:.\Generated_Source\PSoC4/PPMRstISR.c **** *   None
 137:.\Generated_Source\PSoC4/PPMRstISR.c **** *
 138:.\Generated_Source\PSoC4/PPMRstISR.c **** * Return:
 139:.\Generated_Source\PSoC4/PPMRstISR.c **** *   None
 140:.\Generated_Source\PSoC4/PPMRstISR.c **** *
 141:.\Generated_Source\PSoC4/PPMRstISR.c **** *******************************************************************************/
 142:.\Generated_Source\PSoC4/PPMRstISR.c **** CY_ISR(PPMRstISR_Interrupt)
 143:.\Generated_Source\PSoC4/PPMRstISR.c **** {
  26              		.loc 1 143 0
  27              		.cfi_startproc
  28 0000 08B5     		push	{r3, lr}
ARM GAS  C:\Users\SNFU\AppData\Local\Temp\ccVt1q1b.s 			page 4


  29              		.cfi_def_cfa_offset 8
  30              		.cfi_offset 3, -8
  31              		.cfi_offset 14, -4
 144:.\Generated_Source\PSoC4/PPMRstISR.c ****     /*  Place your Interrupt code here. */
 145:.\Generated_Source\PSoC4/PPMRstISR.c ****     /* `#START PPMRstISR_Interrupt` */
 146:.\Generated_Source\PSoC4/PPMRstISR.c ****     PPMCounter_ClearInterrupt(PPMCounter_INTR_MASK_CC_MATCH); // clears interrupt
  32              		.loc 1 146 0
  33 0002 0220     		mov	r0, #2
  34 0004 FFF7FEFF 		bl	PPMCounter_ClearInterrupt
  35              	.LVL0:
 147:.\Generated_Source\PSoC4/PPMRstISR.c ****     overflow = 1;
  36              		.loc 1 147 0
  37 0008 034B     		ldr	r3, .L2
  38 000a 0122     		mov	r2, #1
  39 000c 1A70     		strb	r2, [r3]
 148:.\Generated_Source\PSoC4/PPMRstISR.c ****     PPM_channel = 0;
  40              		.loc 1 148 0
  41 000e 034B     		ldr	r3, .L2+4
  42 0010 0022     		mov	r2, #0
  43 0012 1A70     		strb	r2, [r3]
 149:.\Generated_Source\PSoC4/PPMRstISR.c ****     /* `#END` */
 150:.\Generated_Source\PSoC4/PPMRstISR.c **** }
  44              		.loc 1 150 0
  45              		@ sp needed
  46 0014 08BD     		pop	{r3, pc}
  47              	.L3:
  48 0016 C046     		.align	2
  49              	.L2:
  50 0018 00000000 		.word	.LANCHOR0
  51 001c 00000000 		.word	PPM_channel
  52              		.cfi_endproc
  53              	.LFE36:
  54              		.size	PPMRstISR_Interrupt, .-PPMRstISR_Interrupt
  55              		.section	.text.PPMRstISR_Stop,"ax",%progbits
  56              		.align	1
  57              		.global	PPMRstISR_Stop
  58              		.code	16
  59              		.thumb_func
  60              		.type	PPMRstISR_Stop, %function
  61              	PPMRstISR_Stop:
  62              	.LFB35:
 116:.\Generated_Source\PSoC4/PPMRstISR.c **** {
  63              		.loc 1 116 0
  64              		.cfi_startproc
  65              	.LBB18:
  66              	.LBB19:
 151:.\Generated_Source\PSoC4/PPMRstISR.c **** 
 152:.\Generated_Source\PSoC4/PPMRstISR.c **** 
 153:.\Generated_Source\PSoC4/PPMRstISR.c **** /*******************************************************************************
 154:.\Generated_Source\PSoC4/PPMRstISR.c **** * Function Name: PPMRstISR_SetVector
 155:.\Generated_Source\PSoC4/PPMRstISR.c **** ********************************************************************************
 156:.\Generated_Source\PSoC4/PPMRstISR.c **** *
 157:.\Generated_Source\PSoC4/PPMRstISR.c **** * Summary:
 158:.\Generated_Source\PSoC4/PPMRstISR.c **** *   Change the ISR vector for the Interrupt. Note calling PPMRstISR_Start
 159:.\Generated_Source\PSoC4/PPMRstISR.c **** *   will override any effect this method would have had. To set the vector 
 160:.\Generated_Source\PSoC4/PPMRstISR.c **** *   before the component has been started use PPMRstISR_StartEx instead.
 161:.\Generated_Source\PSoC4/PPMRstISR.c **** *
ARM GAS  C:\Users\SNFU\AppData\Local\Temp\ccVt1q1b.s 			page 5


 162:.\Generated_Source\PSoC4/PPMRstISR.c **** * Parameters:
 163:.\Generated_Source\PSoC4/PPMRstISR.c **** *   address: Address of the ISR to set in the interrupt vector table.
 164:.\Generated_Source\PSoC4/PPMRstISR.c **** *
 165:.\Generated_Source\PSoC4/PPMRstISR.c **** * Return:
 166:.\Generated_Source\PSoC4/PPMRstISR.c **** *   None
 167:.\Generated_Source\PSoC4/PPMRstISR.c **** *
 168:.\Generated_Source\PSoC4/PPMRstISR.c **** *******************************************************************************/
 169:.\Generated_Source\PSoC4/PPMRstISR.c **** void PPMRstISR_SetVector(cyisraddress address)
 170:.\Generated_Source\PSoC4/PPMRstISR.c **** {
 171:.\Generated_Source\PSoC4/PPMRstISR.c ****     CyRamVectors[CYINT_IRQ_BASE + PPMRstISR__INTC_NUMBER] = address;
 172:.\Generated_Source\PSoC4/PPMRstISR.c **** }
 173:.\Generated_Source\PSoC4/PPMRstISR.c **** 
 174:.\Generated_Source\PSoC4/PPMRstISR.c **** 
 175:.\Generated_Source\PSoC4/PPMRstISR.c **** /*******************************************************************************
 176:.\Generated_Source\PSoC4/PPMRstISR.c **** * Function Name: PPMRstISR_GetVector
 177:.\Generated_Source\PSoC4/PPMRstISR.c **** ********************************************************************************
 178:.\Generated_Source\PSoC4/PPMRstISR.c **** *
 179:.\Generated_Source\PSoC4/PPMRstISR.c **** * Summary:
 180:.\Generated_Source\PSoC4/PPMRstISR.c **** *   Gets the "address" of the current ISR vector for the Interrupt.
 181:.\Generated_Source\PSoC4/PPMRstISR.c **** *
 182:.\Generated_Source\PSoC4/PPMRstISR.c **** * Parameters:
 183:.\Generated_Source\PSoC4/PPMRstISR.c **** *   None
 184:.\Generated_Source\PSoC4/PPMRstISR.c **** *
 185:.\Generated_Source\PSoC4/PPMRstISR.c **** * Return:
 186:.\Generated_Source\PSoC4/PPMRstISR.c **** *   Address of the ISR in the interrupt vector table.
 187:.\Generated_Source\PSoC4/PPMRstISR.c **** *
 188:.\Generated_Source\PSoC4/PPMRstISR.c **** *******************************************************************************/
 189:.\Generated_Source\PSoC4/PPMRstISR.c **** cyisraddress PPMRstISR_GetVector(void)
 190:.\Generated_Source\PSoC4/PPMRstISR.c **** {
 191:.\Generated_Source\PSoC4/PPMRstISR.c ****     return CyRamVectors[CYINT_IRQ_BASE + PPMRstISR__INTC_NUMBER];
 192:.\Generated_Source\PSoC4/PPMRstISR.c **** }
 193:.\Generated_Source\PSoC4/PPMRstISR.c **** 
 194:.\Generated_Source\PSoC4/PPMRstISR.c **** 
 195:.\Generated_Source\PSoC4/PPMRstISR.c **** /*******************************************************************************
 196:.\Generated_Source\PSoC4/PPMRstISR.c **** * Function Name: PPMRstISR_SetPriority
 197:.\Generated_Source\PSoC4/PPMRstISR.c **** ********************************************************************************
 198:.\Generated_Source\PSoC4/PPMRstISR.c **** *
 199:.\Generated_Source\PSoC4/PPMRstISR.c **** * Summary:
 200:.\Generated_Source\PSoC4/PPMRstISR.c **** *   Sets the Priority of the Interrupt. Note calling PPMRstISR_Start
 201:.\Generated_Source\PSoC4/PPMRstISR.c **** *   or PPMRstISR_StartEx will override any effect this method would 
 202:.\Generated_Source\PSoC4/PPMRstISR.c **** *   have had. This method should only be called after PPMRstISR_Start or 
 203:.\Generated_Source\PSoC4/PPMRstISR.c **** *   PPMRstISR_StartEx has been called. To set the initial
 204:.\Generated_Source\PSoC4/PPMRstISR.c **** *   priority for the component use the cydwr file in the tool.
 205:.\Generated_Source\PSoC4/PPMRstISR.c **** *
 206:.\Generated_Source\PSoC4/PPMRstISR.c **** * Parameters:
 207:.\Generated_Source\PSoC4/PPMRstISR.c **** *   priority: Priority of the interrupt. 0 - 3, 0 being the highest.
 208:.\Generated_Source\PSoC4/PPMRstISR.c **** *
 209:.\Generated_Source\PSoC4/PPMRstISR.c **** * Return:
 210:.\Generated_Source\PSoC4/PPMRstISR.c **** *   None
 211:.\Generated_Source\PSoC4/PPMRstISR.c **** *
 212:.\Generated_Source\PSoC4/PPMRstISR.c **** *******************************************************************************/
 213:.\Generated_Source\PSoC4/PPMRstISR.c **** void PPMRstISR_SetPriority(uint8 priority)
 214:.\Generated_Source\PSoC4/PPMRstISR.c **** {
 215:.\Generated_Source\PSoC4/PPMRstISR.c **** 	uint8 interruptState;
 216:.\Generated_Source\PSoC4/PPMRstISR.c ****     uint32 priorityOffset = ((PPMRstISR__INTC_NUMBER % 4u) * 8u) + 6u;
 217:.\Generated_Source\PSoC4/PPMRstISR.c ****     
 218:.\Generated_Source\PSoC4/PPMRstISR.c **** 	interruptState = CyEnterCriticalSection();
ARM GAS  C:\Users\SNFU\AppData\Local\Temp\ccVt1q1b.s 			page 6


 219:.\Generated_Source\PSoC4/PPMRstISR.c ****     *PPMRstISR_INTC_PRIOR = (*PPMRstISR_INTC_PRIOR & (uint32)(~PPMRstISR__INTC_PRIOR_MASK)) |
 220:.\Generated_Source\PSoC4/PPMRstISR.c ****                                     ((uint32)priority << priorityOffset);
 221:.\Generated_Source\PSoC4/PPMRstISR.c **** 	CyExitCriticalSection(interruptState);
 222:.\Generated_Source\PSoC4/PPMRstISR.c **** }
 223:.\Generated_Source\PSoC4/PPMRstISR.c **** 
 224:.\Generated_Source\PSoC4/PPMRstISR.c **** 
 225:.\Generated_Source\PSoC4/PPMRstISR.c **** /*******************************************************************************
 226:.\Generated_Source\PSoC4/PPMRstISR.c **** * Function Name: PPMRstISR_GetPriority
 227:.\Generated_Source\PSoC4/PPMRstISR.c **** ********************************************************************************
 228:.\Generated_Source\PSoC4/PPMRstISR.c **** *
 229:.\Generated_Source\PSoC4/PPMRstISR.c **** * Summary:
 230:.\Generated_Source\PSoC4/PPMRstISR.c **** *   Gets the Priority of the Interrupt.
 231:.\Generated_Source\PSoC4/PPMRstISR.c **** *
 232:.\Generated_Source\PSoC4/PPMRstISR.c **** * Parameters:
 233:.\Generated_Source\PSoC4/PPMRstISR.c **** *   None
 234:.\Generated_Source\PSoC4/PPMRstISR.c **** *
 235:.\Generated_Source\PSoC4/PPMRstISR.c **** * Return:
 236:.\Generated_Source\PSoC4/PPMRstISR.c **** *   Priority of the interrupt. 0 - 3, 0 being the highest.
 237:.\Generated_Source\PSoC4/PPMRstISR.c **** *
 238:.\Generated_Source\PSoC4/PPMRstISR.c **** *******************************************************************************/
 239:.\Generated_Source\PSoC4/PPMRstISR.c **** uint8 PPMRstISR_GetPriority(void)
 240:.\Generated_Source\PSoC4/PPMRstISR.c **** {
 241:.\Generated_Source\PSoC4/PPMRstISR.c ****     uint32 priority;
 242:.\Generated_Source\PSoC4/PPMRstISR.c **** 	uint32 priorityOffset = ((PPMRstISR__INTC_NUMBER % 4u) * 8u) + 6u;
 243:.\Generated_Source\PSoC4/PPMRstISR.c **** 
 244:.\Generated_Source\PSoC4/PPMRstISR.c ****     priority = (*PPMRstISR_INTC_PRIOR & PPMRstISR__INTC_PRIOR_MASK) >> priorityOffset;
 245:.\Generated_Source\PSoC4/PPMRstISR.c **** 
 246:.\Generated_Source\PSoC4/PPMRstISR.c ****     return (uint8)priority;
 247:.\Generated_Source\PSoC4/PPMRstISR.c **** }
 248:.\Generated_Source\PSoC4/PPMRstISR.c **** 
 249:.\Generated_Source\PSoC4/PPMRstISR.c **** 
 250:.\Generated_Source\PSoC4/PPMRstISR.c **** /*******************************************************************************
 251:.\Generated_Source\PSoC4/PPMRstISR.c **** * Function Name: PPMRstISR_Enable
 252:.\Generated_Source\PSoC4/PPMRstISR.c **** ********************************************************************************
 253:.\Generated_Source\PSoC4/PPMRstISR.c **** *
 254:.\Generated_Source\PSoC4/PPMRstISR.c **** * Summary:
 255:.\Generated_Source\PSoC4/PPMRstISR.c **** *   Enables the interrupt.
 256:.\Generated_Source\PSoC4/PPMRstISR.c **** *
 257:.\Generated_Source\PSoC4/PPMRstISR.c **** * Parameters:
 258:.\Generated_Source\PSoC4/PPMRstISR.c **** *   None
 259:.\Generated_Source\PSoC4/PPMRstISR.c **** *
 260:.\Generated_Source\PSoC4/PPMRstISR.c **** * Return:
 261:.\Generated_Source\PSoC4/PPMRstISR.c **** *   None
 262:.\Generated_Source\PSoC4/PPMRstISR.c **** *
 263:.\Generated_Source\PSoC4/PPMRstISR.c **** *******************************************************************************/
 264:.\Generated_Source\PSoC4/PPMRstISR.c **** void PPMRstISR_Enable(void)
 265:.\Generated_Source\PSoC4/PPMRstISR.c **** {
 266:.\Generated_Source\PSoC4/PPMRstISR.c ****     /* Enable the general interrupt. */
 267:.\Generated_Source\PSoC4/PPMRstISR.c ****     *PPMRstISR_INTC_SET_EN = PPMRstISR__INTC_MASK;
 268:.\Generated_Source\PSoC4/PPMRstISR.c **** }
 269:.\Generated_Source\PSoC4/PPMRstISR.c **** 
 270:.\Generated_Source\PSoC4/PPMRstISR.c **** 
 271:.\Generated_Source\PSoC4/PPMRstISR.c **** /*******************************************************************************
 272:.\Generated_Source\PSoC4/PPMRstISR.c **** * Function Name: PPMRstISR_GetState
 273:.\Generated_Source\PSoC4/PPMRstISR.c **** ********************************************************************************
 274:.\Generated_Source\PSoC4/PPMRstISR.c **** *
 275:.\Generated_Source\PSoC4/PPMRstISR.c **** * Summary:
ARM GAS  C:\Users\SNFU\AppData\Local\Temp\ccVt1q1b.s 			page 7


 276:.\Generated_Source\PSoC4/PPMRstISR.c **** *   Gets the state (enabled, disabled) of the Interrupt.
 277:.\Generated_Source\PSoC4/PPMRstISR.c **** *
 278:.\Generated_Source\PSoC4/PPMRstISR.c **** * Parameters:
 279:.\Generated_Source\PSoC4/PPMRstISR.c **** *   None
 280:.\Generated_Source\PSoC4/PPMRstISR.c **** *
 281:.\Generated_Source\PSoC4/PPMRstISR.c **** * Return:
 282:.\Generated_Source\PSoC4/PPMRstISR.c **** *   1 if enabled, 0 if disabled.
 283:.\Generated_Source\PSoC4/PPMRstISR.c **** *
 284:.\Generated_Source\PSoC4/PPMRstISR.c **** *******************************************************************************/
 285:.\Generated_Source\PSoC4/PPMRstISR.c **** uint8 PPMRstISR_GetState(void)
 286:.\Generated_Source\PSoC4/PPMRstISR.c **** {
 287:.\Generated_Source\PSoC4/PPMRstISR.c ****     /* Get the state of the general interrupt. */
 288:.\Generated_Source\PSoC4/PPMRstISR.c ****     return ((*PPMRstISR_INTC_SET_EN & (uint32)PPMRstISR__INTC_MASK) != 0u) ? 1u:0u;
 289:.\Generated_Source\PSoC4/PPMRstISR.c **** }
 290:.\Generated_Source\PSoC4/PPMRstISR.c **** 
 291:.\Generated_Source\PSoC4/PPMRstISR.c **** 
 292:.\Generated_Source\PSoC4/PPMRstISR.c **** /*******************************************************************************
 293:.\Generated_Source\PSoC4/PPMRstISR.c **** * Function Name: PPMRstISR_Disable
 294:.\Generated_Source\PSoC4/PPMRstISR.c **** ********************************************************************************
 295:.\Generated_Source\PSoC4/PPMRstISR.c **** *
 296:.\Generated_Source\PSoC4/PPMRstISR.c **** * Summary:
 297:.\Generated_Source\PSoC4/PPMRstISR.c **** *   Disables the Interrupt.
 298:.\Generated_Source\PSoC4/PPMRstISR.c **** *
 299:.\Generated_Source\PSoC4/PPMRstISR.c **** * Parameters:
 300:.\Generated_Source\PSoC4/PPMRstISR.c **** *   None
 301:.\Generated_Source\PSoC4/PPMRstISR.c **** *
 302:.\Generated_Source\PSoC4/PPMRstISR.c **** * Return:
 303:.\Generated_Source\PSoC4/PPMRstISR.c **** *   None
 304:.\Generated_Source\PSoC4/PPMRstISR.c **** *
 305:.\Generated_Source\PSoC4/PPMRstISR.c **** *******************************************************************************/
 306:.\Generated_Source\PSoC4/PPMRstISR.c **** void PPMRstISR_Disable(void)
 307:.\Generated_Source\PSoC4/PPMRstISR.c **** {
 308:.\Generated_Source\PSoC4/PPMRstISR.c ****     /* Disable the general interrupt. */
 309:.\Generated_Source\PSoC4/PPMRstISR.c ****     *PPMRstISR_INTC_CLR_EN = PPMRstISR__INTC_MASK;
  67              		.loc 1 309 0
  68 0000 034B     		ldr	r3, .L5
  69 0002 0222     		mov	r2, #2
  70 0004 1A60     		str	r2, [r3]
  71              	.LVL1:
  72              	.LBE19:
  73              	.LBE18:
  74              	.LBB20:
  75              	.LBB21:
 171:.\Generated_Source\PSoC4/PPMRstISR.c ****     CyRamVectors[CYINT_IRQ_BASE + PPMRstISR__INTC_NUMBER] = address;
  76              		.loc 1 171 0
  77 0006 034A     		ldr	r2, .L5+4
  78 0008 034B     		ldr	r3, .L5+8
  79              	.LBE21:
  80              	.LBE20:
 122:.\Generated_Source\PSoC4/PPMRstISR.c **** }
  81              		.loc 1 122 0
  82              		@ sp needed
  83              	.LBB23:
  84              	.LBB22:
 171:.\Generated_Source\PSoC4/PPMRstISR.c ****     CyRamVectors[CYINT_IRQ_BASE + PPMRstISR__INTC_NUMBER] = address;
  85              		.loc 1 171 0
  86 000a 5A64     		str	r2, [r3, #68]
ARM GAS  C:\Users\SNFU\AppData\Local\Temp\ccVt1q1b.s 			page 8


  87              	.LBE22:
  88              	.LBE23:
 122:.\Generated_Source\PSoC4/PPMRstISR.c **** }
  89              		.loc 1 122 0
  90 000c 7047     		bx	lr
  91              	.L6:
  92 000e C046     		.align	2
  93              	.L5:
  94 0010 80E100E0 		.word	-536813184
  95 0014 00000000 		.word	IntDefaultHandler
  96 0018 00000000 		.word	CyRamVectors
  97              		.cfi_endproc
  98              	.LFE35:
  99              		.size	PPMRstISR_Stop, .-PPMRstISR_Stop
 100              		.section	.text.PPMRstISR_SetVector,"ax",%progbits
 101              		.align	1
 102              		.global	PPMRstISR_SetVector
 103              		.code	16
 104              		.thumb_func
 105              		.type	PPMRstISR_SetVector, %function
 106              	PPMRstISR_SetVector:
 107              	.LFB37:
 170:.\Generated_Source\PSoC4/PPMRstISR.c **** {
 108              		.loc 1 170 0
 109              		.cfi_startproc
 110              	.LVL2:
 171:.\Generated_Source\PSoC4/PPMRstISR.c ****     CyRamVectors[CYINT_IRQ_BASE + PPMRstISR__INTC_NUMBER] = address;
 111              		.loc 1 171 0
 112 0000 014B     		ldr	r3, .L8
 172:.\Generated_Source\PSoC4/PPMRstISR.c **** }
 113              		.loc 1 172 0
 114              		@ sp needed
 171:.\Generated_Source\PSoC4/PPMRstISR.c ****     CyRamVectors[CYINT_IRQ_BASE + PPMRstISR__INTC_NUMBER] = address;
 115              		.loc 1 171 0
 116 0002 5864     		str	r0, [r3, #68]
 172:.\Generated_Source\PSoC4/PPMRstISR.c **** }
 117              		.loc 1 172 0
 118 0004 7047     		bx	lr
 119              	.L9:
 120 0006 C046     		.align	2
 121              	.L8:
 122 0008 00000000 		.word	CyRamVectors
 123              		.cfi_endproc
 124              	.LFE37:
 125              		.size	PPMRstISR_SetVector, .-PPMRstISR_SetVector
 126              		.section	.text.PPMRstISR_GetVector,"ax",%progbits
 127              		.align	1
 128              		.global	PPMRstISR_GetVector
 129              		.code	16
 130              		.thumb_func
 131              		.type	PPMRstISR_GetVector, %function
 132              	PPMRstISR_GetVector:
 133              	.LFB38:
 190:.\Generated_Source\PSoC4/PPMRstISR.c **** {
 134              		.loc 1 190 0
 135              		.cfi_startproc
 191:.\Generated_Source\PSoC4/PPMRstISR.c ****     return CyRamVectors[CYINT_IRQ_BASE + PPMRstISR__INTC_NUMBER];
ARM GAS  C:\Users\SNFU\AppData\Local\Temp\ccVt1q1b.s 			page 9


 136              		.loc 1 191 0
 137 0000 014B     		ldr	r3, .L11
 192:.\Generated_Source\PSoC4/PPMRstISR.c **** }
 138              		.loc 1 192 0
 139              		@ sp needed
 191:.\Generated_Source\PSoC4/PPMRstISR.c ****     return CyRamVectors[CYINT_IRQ_BASE + PPMRstISR__INTC_NUMBER];
 140              		.loc 1 191 0
 141 0002 586C     		ldr	r0, [r3, #68]
 192:.\Generated_Source\PSoC4/PPMRstISR.c **** }
 142              		.loc 1 192 0
 143 0004 7047     		bx	lr
 144              	.L12:
 145 0006 C046     		.align	2
 146              	.L11:
 147 0008 00000000 		.word	CyRamVectors
 148              		.cfi_endproc
 149              	.LFE38:
 150              		.size	PPMRstISR_GetVector, .-PPMRstISR_GetVector
 151              		.section	.text.PPMRstISR_SetPriority,"ax",%progbits
 152              		.align	1
 153              		.global	PPMRstISR_SetPriority
 154              		.code	16
 155              		.thumb_func
 156              		.type	PPMRstISR_SetPriority, %function
 157              	PPMRstISR_SetPriority:
 158              	.LFB39:
 214:.\Generated_Source\PSoC4/PPMRstISR.c **** {
 159              		.loc 1 214 0
 160              		.cfi_startproc
 161              	.LVL3:
 162 0000 38B5     		push	{r3, r4, r5, lr}
 163              		.cfi_def_cfa_offset 16
 164              		.cfi_offset 3, -16
 165              		.cfi_offset 4, -12
 166              		.cfi_offset 5, -8
 167              		.cfi_offset 14, -4
 214:.\Generated_Source\PSoC4/PPMRstISR.c **** {
 168              		.loc 1 214 0
 169 0002 041C     		mov	r4, r0
 218:.\Generated_Source\PSoC4/PPMRstISR.c **** 	interruptState = CyEnterCriticalSection();
 170              		.loc 1 218 0
 171 0004 FFF7FEFF 		bl	CyEnterCriticalSection
 172              	.LVL4:
 219:.\Generated_Source\PSoC4/PPMRstISR.c ****     *PPMRstISR_INTC_PRIOR = (*PPMRstISR_INTC_PRIOR & (uint32)(~PPMRstISR__INTC_PRIOR_MASK)) |
 173              		.loc 1 219 0
 174 0008 054B     		ldr	r3, .L14
 175 000a 0649     		ldr	r1, .L14+4
 176 000c 1D68     		ldr	r5, [r3]
 220:.\Generated_Source\PSoC4/PPMRstISR.c ****                                     ((uint32)priority << priorityOffset);
 177              		.loc 1 220 0
 178 000e A203     		lsl	r2, r4, #14
 219:.\Generated_Source\PSoC4/PPMRstISR.c ****     *PPMRstISR_INTC_PRIOR = (*PPMRstISR_INTC_PRIOR & (uint32)(~PPMRstISR__INTC_PRIOR_MASK)) |
 179              		.loc 1 219 0
 180 0010 2C1C     		mov	r4, r5
 181 0012 0C40     		and	r4, r1
 182 0014 1443     		orr	r4, r2
 183 0016 1C60     		str	r4, [r3]
ARM GAS  C:\Users\SNFU\AppData\Local\Temp\ccVt1q1b.s 			page 10


 221:.\Generated_Source\PSoC4/PPMRstISR.c **** 	CyExitCriticalSection(interruptState);
 184              		.loc 1 221 0
 185 0018 FFF7FEFF 		bl	CyExitCriticalSection
 186              	.LVL5:
 222:.\Generated_Source\PSoC4/PPMRstISR.c **** }
 187              		.loc 1 222 0
 188              		@ sp needed
 189 001c 38BD     		pop	{r3, r4, r5, pc}
 190              	.L15:
 191 001e C046     		.align	2
 192              	.L14:
 193 0020 00E400E0 		.word	-536812544
 194 0024 FF3FFFFF 		.word	-49153
 195              		.cfi_endproc
 196              	.LFE39:
 197              		.size	PPMRstISR_SetPriority, .-PPMRstISR_SetPriority
 198              		.section	.text.PPMRstISR_Start,"ax",%progbits
 199              		.align	1
 200              		.global	PPMRstISR_Start
 201              		.code	16
 202              		.thumb_func
 203              		.type	PPMRstISR_Start, %function
 204              	PPMRstISR_Start:
 205              	.LFB33:
  57:.\Generated_Source\PSoC4/PPMRstISR.c **** {
 206              		.loc 1 57 0
 207              		.cfi_startproc
 208              	.LBB24:
 209              	.LBB25:
 210              		.loc 1 309 0
 211 0000 064B     		ldr	r3, .L17
 212              	.LBE25:
 213              	.LBE24:
  57:.\Generated_Source\PSoC4/PPMRstISR.c **** {
 214              		.loc 1 57 0
 215 0002 10B5     		push	{r4, lr}
 216              		.cfi_def_cfa_offset 8
 217              		.cfi_offset 4, -8
 218              		.cfi_offset 14, -4
 219              	.LBB27:
 220              	.LBB26:
 221              		.loc 1 309 0
 222 0004 0224     		mov	r4, #2
 223 0006 1C60     		str	r4, [r3]
 224              	.LVL6:
 225              	.LBE26:
 226              	.LBE27:
 227              	.LBB28:
 228              	.LBB29:
 171:.\Generated_Source\PSoC4/PPMRstISR.c ****     CyRamVectors[CYINT_IRQ_BASE + PPMRstISR__INTC_NUMBER] = address;
 229              		.loc 1 171 0
 230 0008 054A     		ldr	r2, .L17+4
 231 000a 064B     		ldr	r3, .L17+8
 232              	.LBE29:
 233              	.LBE28:
  65:.\Generated_Source\PSoC4/PPMRstISR.c ****     PPMRstISR_SetPriority((uint8)PPMRstISR_INTC_PRIOR_NUMBER);
 234              		.loc 1 65 0
ARM GAS  C:\Users\SNFU\AppData\Local\Temp\ccVt1q1b.s 			page 11


 235 000c 0320     		mov	r0, #3
 236              	.LBB31:
 237              	.LBB30:
 171:.\Generated_Source\PSoC4/PPMRstISR.c ****     CyRamVectors[CYINT_IRQ_BASE + PPMRstISR__INTC_NUMBER] = address;
 238              		.loc 1 171 0
 239 000e 5A64     		str	r2, [r3, #68]
 240              	.LBE30:
 241              	.LBE31:
  65:.\Generated_Source\PSoC4/PPMRstISR.c ****     PPMRstISR_SetPriority((uint8)PPMRstISR_INTC_PRIOR_NUMBER);
 242              		.loc 1 65 0
 243 0010 FFF7FEFF 		bl	PPMRstISR_SetPriority
 244              	.LVL7:
 245              	.LBB32:
 246              	.LBB33:
 267:.\Generated_Source\PSoC4/PPMRstISR.c ****     *PPMRstISR_INTC_SET_EN = PPMRstISR__INTC_MASK;
 247              		.loc 1 267 0
 248 0014 044B     		ldr	r3, .L17+12
 249              	.LBE33:
 250              	.LBE32:
  69:.\Generated_Source\PSoC4/PPMRstISR.c **** }
 251              		.loc 1 69 0
 252              		@ sp needed
 253              	.LBB35:
 254              	.LBB34:
 267:.\Generated_Source\PSoC4/PPMRstISR.c ****     *PPMRstISR_INTC_SET_EN = PPMRstISR__INTC_MASK;
 255              		.loc 1 267 0
 256 0016 1C60     		str	r4, [r3]
 257              	.LBE34:
 258              	.LBE35:
  69:.\Generated_Source\PSoC4/PPMRstISR.c **** }
 259              		.loc 1 69 0
 260 0018 10BD     		pop	{r4, pc}
 261              	.L18:
 262 001a C046     		.align	2
 263              	.L17:
 264 001c 80E100E0 		.word	-536813184
 265 0020 00000000 		.word	PPMRstISR_Interrupt
 266 0024 00000000 		.word	CyRamVectors
 267 0028 00E100E0 		.word	-536813312
 268              		.cfi_endproc
 269              	.LFE33:
 270              		.size	PPMRstISR_Start, .-PPMRstISR_Start
 271              		.section	.text.PPMRstISR_StartEx,"ax",%progbits
 272              		.align	1
 273              		.global	PPMRstISR_StartEx
 274              		.code	16
 275              		.thumb_func
 276              		.type	PPMRstISR_StartEx, %function
 277              	PPMRstISR_StartEx:
 278              	.LFB34:
  87:.\Generated_Source\PSoC4/PPMRstISR.c **** {
 279              		.loc 1 87 0
 280              		.cfi_startproc
 281              	.LVL8:
 282              	.LBB36:
 283              	.LBB37:
 284              		.loc 1 309 0
ARM GAS  C:\Users\SNFU\AppData\Local\Temp\ccVt1q1b.s 			page 12


 285 0000 054B     		ldr	r3, .L20
 286              	.LBE37:
 287              	.LBE36:
  87:.\Generated_Source\PSoC4/PPMRstISR.c **** {
 288              		.loc 1 87 0
 289 0002 10B5     		push	{r4, lr}
 290              		.cfi_def_cfa_offset 8
 291              		.cfi_offset 4, -8
 292              		.cfi_offset 14, -4
 293              	.LBB39:
 294              	.LBB38:
 295              		.loc 1 309 0
 296 0004 0224     		mov	r4, #2
 297 0006 1C60     		str	r4, [r3]
 298              	.LVL9:
 299              	.LBE38:
 300              	.LBE39:
 301              	.LBB40:
 302              	.LBB41:
 171:.\Generated_Source\PSoC4/PPMRstISR.c ****     CyRamVectors[CYINT_IRQ_BASE + PPMRstISR__INTC_NUMBER] = address;
 303              		.loc 1 171 0
 304 0008 044B     		ldr	r3, .L20+4
 305              	.LBE41:
 306              	.LBE40:
  99:.\Generated_Source\PSoC4/PPMRstISR.c **** }
 307              		.loc 1 99 0
 308              		@ sp needed
 309              	.LBB43:
 310              	.LBB42:
 171:.\Generated_Source\PSoC4/PPMRstISR.c ****     CyRamVectors[CYINT_IRQ_BASE + PPMRstISR__INTC_NUMBER] = address;
 311              		.loc 1 171 0
 312 000a 5864     		str	r0, [r3, #68]
 313              	.LBE42:
 314              	.LBE43:
  95:.\Generated_Source\PSoC4/PPMRstISR.c ****     PPMRstISR_SetPriority((uint8)PPMRstISR_INTC_PRIOR_NUMBER);
 315              		.loc 1 95 0
 316 000c 0320     		mov	r0, #3
 317              	.LVL10:
 318 000e FFF7FEFF 		bl	PPMRstISR_SetPriority
 319              	.LVL11:
 320              	.LBB44:
 321              	.LBB45:
 267:.\Generated_Source\PSoC4/PPMRstISR.c ****     *PPMRstISR_INTC_SET_EN = PPMRstISR__INTC_MASK;
 322              		.loc 1 267 0
 323 0012 034B     		ldr	r3, .L20+8
 324 0014 1C60     		str	r4, [r3]
 325              	.LBE45:
 326              	.LBE44:
  99:.\Generated_Source\PSoC4/PPMRstISR.c **** }
 327              		.loc 1 99 0
 328 0016 10BD     		pop	{r4, pc}
 329              	.L21:
 330              		.align	2
 331              	.L20:
 332 0018 80E100E0 		.word	-536813184
 333 001c 00000000 		.word	CyRamVectors
 334 0020 00E100E0 		.word	-536813312
ARM GAS  C:\Users\SNFU\AppData\Local\Temp\ccVt1q1b.s 			page 13


 335              		.cfi_endproc
 336              	.LFE34:
 337              		.size	PPMRstISR_StartEx, .-PPMRstISR_StartEx
 338              		.section	.text.PPMRstISR_GetPriority,"ax",%progbits
 339              		.align	1
 340              		.global	PPMRstISR_GetPriority
 341              		.code	16
 342              		.thumb_func
 343              		.type	PPMRstISR_GetPriority, %function
 344              	PPMRstISR_GetPriority:
 345              	.LFB40:
 240:.\Generated_Source\PSoC4/PPMRstISR.c **** {
 346              		.loc 1 240 0
 347              		.cfi_startproc
 348              	.LVL12:
 244:.\Generated_Source\PSoC4/PPMRstISR.c ****     priority = (*PPMRstISR_INTC_PRIOR & PPMRstISR__INTC_PRIOR_MASK) >> priorityOffset;
 349              		.loc 1 244 0
 350 0000 024B     		ldr	r3, .L23
 247:.\Generated_Source\PSoC4/PPMRstISR.c **** }
 351              		.loc 1 247 0
 352              		@ sp needed
 244:.\Generated_Source\PSoC4/PPMRstISR.c ****     priority = (*PPMRstISR_INTC_PRIOR & PPMRstISR__INTC_PRIOR_MASK) >> priorityOffset;
 353              		.loc 1 244 0
 354 0002 1868     		ldr	r0, [r3]
 355              	.LVL13:
 356 0004 0004     		lsl	r0, r0, #16
 357              	.LVL14:
 246:.\Generated_Source\PSoC4/PPMRstISR.c ****     return (uint8)priority;
 358              		.loc 1 246 0
 359 0006 800F     		lsr	r0, r0, #30
 247:.\Generated_Source\PSoC4/PPMRstISR.c **** }
 360              		.loc 1 247 0
 361 0008 7047     		bx	lr
 362              	.L24:
 363 000a C046     		.align	2
 364              	.L23:
 365 000c 00E400E0 		.word	-536812544
 366              		.cfi_endproc
 367              	.LFE40:
 368              		.size	PPMRstISR_GetPriority, .-PPMRstISR_GetPriority
 369              		.section	.text.PPMRstISR_Enable,"ax",%progbits
 370              		.align	1
 371              		.global	PPMRstISR_Enable
 372              		.code	16
 373              		.thumb_func
 374              		.type	PPMRstISR_Enable, %function
 375              	PPMRstISR_Enable:
 376              	.LFB41:
 265:.\Generated_Source\PSoC4/PPMRstISR.c **** {
 377              		.loc 1 265 0
 378              		.cfi_startproc
 267:.\Generated_Source\PSoC4/PPMRstISR.c ****     *PPMRstISR_INTC_SET_EN = PPMRstISR__INTC_MASK;
 379              		.loc 1 267 0
 380 0000 014B     		ldr	r3, .L26
 381 0002 0222     		mov	r2, #2
 382 0004 1A60     		str	r2, [r3]
 268:.\Generated_Source\PSoC4/PPMRstISR.c **** }
ARM GAS  C:\Users\SNFU\AppData\Local\Temp\ccVt1q1b.s 			page 14


 383              		.loc 1 268 0
 384              		@ sp needed
 385 0006 7047     		bx	lr
 386              	.L27:
 387              		.align	2
 388              	.L26:
 389 0008 00E100E0 		.word	-536813312
 390              		.cfi_endproc
 391              	.LFE41:
 392              		.size	PPMRstISR_Enable, .-PPMRstISR_Enable
 393              		.section	.text.PPMRstISR_GetState,"ax",%progbits
 394              		.align	1
 395              		.global	PPMRstISR_GetState
 396              		.code	16
 397              		.thumb_func
 398              		.type	PPMRstISR_GetState, %function
 399              	PPMRstISR_GetState:
 400              	.LFB42:
 286:.\Generated_Source\PSoC4/PPMRstISR.c **** {
 401              		.loc 1 286 0
 402              		.cfi_startproc
 288:.\Generated_Source\PSoC4/PPMRstISR.c ****     return ((*PPMRstISR_INTC_SET_EN & (uint32)PPMRstISR__INTC_MASK) != 0u) ? 1u:0u;
 403              		.loc 1 288 0
 404 0000 024B     		ldr	r3, .L29
 289:.\Generated_Source\PSoC4/PPMRstISR.c **** }
 405              		.loc 1 289 0
 406              		@ sp needed
 288:.\Generated_Source\PSoC4/PPMRstISR.c ****     return ((*PPMRstISR_INTC_SET_EN & (uint32)PPMRstISR__INTC_MASK) != 0u) ? 1u:0u;
 407              		.loc 1 288 0
 408 0002 1868     		ldr	r0, [r3]
 409 0004 8007     		lsl	r0, r0, #30
 410 0006 C00F     		lsr	r0, r0, #31
 289:.\Generated_Source\PSoC4/PPMRstISR.c **** }
 411              		.loc 1 289 0
 412 0008 7047     		bx	lr
 413              	.L30:
 414 000a C046     		.align	2
 415              	.L29:
 416 000c 00E100E0 		.word	-536813312
 417              		.cfi_endproc
 418              	.LFE42:
 419              		.size	PPMRstISR_GetState, .-PPMRstISR_GetState
 420              		.section	.text.PPMRstISR_Disable,"ax",%progbits
 421              		.align	1
 422              		.global	PPMRstISR_Disable
 423              		.code	16
 424              		.thumb_func
 425              		.type	PPMRstISR_Disable, %function
 426              	PPMRstISR_Disable:
 427              	.LFB43:
 307:.\Generated_Source\PSoC4/PPMRstISR.c **** {
 428              		.loc 1 307 0
 429              		.cfi_startproc
 430              		.loc 1 309 0
 431 0000 014B     		ldr	r3, .L32
 432 0002 0222     		mov	r2, #2
 433 0004 1A60     		str	r2, [r3]
ARM GAS  C:\Users\SNFU\AppData\Local\Temp\ccVt1q1b.s 			page 15


 310:.\Generated_Source\PSoC4/PPMRstISR.c **** }
 434              		.loc 1 310 0
 435              		@ sp needed
 436 0006 7047     		bx	lr
 437              	.L33:
 438              		.align	2
 439              	.L32:
 440 0008 80E100E0 		.word	-536813184
 441              		.cfi_endproc
 442              	.LFE43:
 443              		.size	PPMRstISR_Disable, .-PPMRstISR_Disable
 444              		.section	.text.PPMRstISR_SetPending,"ax",%progbits
 445              		.align	1
 446              		.global	PPMRstISR_SetPending
 447              		.code	16
 448              		.thumb_func
 449              		.type	PPMRstISR_SetPending, %function
 450              	PPMRstISR_SetPending:
 451              	.LFB44:
 311:.\Generated_Source\PSoC4/PPMRstISR.c **** 
 312:.\Generated_Source\PSoC4/PPMRstISR.c **** 
 313:.\Generated_Source\PSoC4/PPMRstISR.c **** /*******************************************************************************
 314:.\Generated_Source\PSoC4/PPMRstISR.c **** * Function Name: PPMRstISR_SetPending
 315:.\Generated_Source\PSoC4/PPMRstISR.c **** ********************************************************************************
 316:.\Generated_Source\PSoC4/PPMRstISR.c **** *
 317:.\Generated_Source\PSoC4/PPMRstISR.c **** * Summary:
 318:.\Generated_Source\PSoC4/PPMRstISR.c **** *   Causes the Interrupt to enter the pending state, a software method of
 319:.\Generated_Source\PSoC4/PPMRstISR.c **** *   generating the interrupt.
 320:.\Generated_Source\PSoC4/PPMRstISR.c **** *
 321:.\Generated_Source\PSoC4/PPMRstISR.c **** * Parameters:
 322:.\Generated_Source\PSoC4/PPMRstISR.c **** *   None
 323:.\Generated_Source\PSoC4/PPMRstISR.c **** *
 324:.\Generated_Source\PSoC4/PPMRstISR.c **** * Return:
 325:.\Generated_Source\PSoC4/PPMRstISR.c **** *   None
 326:.\Generated_Source\PSoC4/PPMRstISR.c **** *
 327:.\Generated_Source\PSoC4/PPMRstISR.c **** *******************************************************************************/
 328:.\Generated_Source\PSoC4/PPMRstISR.c **** void PPMRstISR_SetPending(void)
 329:.\Generated_Source\PSoC4/PPMRstISR.c **** {
 452              		.loc 1 329 0
 453              		.cfi_startproc
 330:.\Generated_Source\PSoC4/PPMRstISR.c ****     *PPMRstISR_INTC_SET_PD = PPMRstISR__INTC_MASK;
 454              		.loc 1 330 0
 455 0000 014B     		ldr	r3, .L35
 456 0002 0222     		mov	r2, #2
 457 0004 1A60     		str	r2, [r3]
 331:.\Generated_Source\PSoC4/PPMRstISR.c **** }
 458              		.loc 1 331 0
 459              		@ sp needed
 460 0006 7047     		bx	lr
 461              	.L36:
 462              		.align	2
 463              	.L35:
 464 0008 00E200E0 		.word	-536813056
 465              		.cfi_endproc
 466              	.LFE44:
 467              		.size	PPMRstISR_SetPending, .-PPMRstISR_SetPending
 468              		.section	.text.PPMRstISR_ClearPending,"ax",%progbits
ARM GAS  C:\Users\SNFU\AppData\Local\Temp\ccVt1q1b.s 			page 16


 469              		.align	1
 470              		.global	PPMRstISR_ClearPending
 471              		.code	16
 472              		.thumb_func
 473              		.type	PPMRstISR_ClearPending, %function
 474              	PPMRstISR_ClearPending:
 475              	.LFB45:
 332:.\Generated_Source\PSoC4/PPMRstISR.c **** 
 333:.\Generated_Source\PSoC4/PPMRstISR.c **** 
 334:.\Generated_Source\PSoC4/PPMRstISR.c **** /*******************************************************************************
 335:.\Generated_Source\PSoC4/PPMRstISR.c **** * Function Name: PPMRstISR_ClearPending
 336:.\Generated_Source\PSoC4/PPMRstISR.c **** ********************************************************************************
 337:.\Generated_Source\PSoC4/PPMRstISR.c **** *
 338:.\Generated_Source\PSoC4/PPMRstISR.c **** * Summary:
 339:.\Generated_Source\PSoC4/PPMRstISR.c **** *   Clears a pending interrupt.
 340:.\Generated_Source\PSoC4/PPMRstISR.c **** *
 341:.\Generated_Source\PSoC4/PPMRstISR.c **** * Parameters:
 342:.\Generated_Source\PSoC4/PPMRstISR.c **** *   None
 343:.\Generated_Source\PSoC4/PPMRstISR.c **** *
 344:.\Generated_Source\PSoC4/PPMRstISR.c **** * Return:
 345:.\Generated_Source\PSoC4/PPMRstISR.c **** *   None
 346:.\Generated_Source\PSoC4/PPMRstISR.c **** *
 347:.\Generated_Source\PSoC4/PPMRstISR.c **** *******************************************************************************/
 348:.\Generated_Source\PSoC4/PPMRstISR.c **** void PPMRstISR_ClearPending(void)
 349:.\Generated_Source\PSoC4/PPMRstISR.c **** {
 476              		.loc 1 349 0
 477              		.cfi_startproc
 350:.\Generated_Source\PSoC4/PPMRstISR.c ****     *PPMRstISR_INTC_CLR_PD = PPMRstISR__INTC_MASK;
 478              		.loc 1 350 0
 479 0000 014B     		ldr	r3, .L38
 480 0002 0222     		mov	r2, #2
 481 0004 1A60     		str	r2, [r3]
 351:.\Generated_Source\PSoC4/PPMRstISR.c **** }
 482              		.loc 1 351 0
 483              		@ sp needed
 484 0006 7047     		bx	lr
 485              	.L39:
 486              		.align	2
 487              	.L38:
 488 0008 80E200E0 		.word	-536812928
 489              		.cfi_endproc
 490              	.LFE45:
 491              		.size	PPMRstISR_ClearPending, .-PPMRstISR_ClearPending
 492              		.global	overflow
 493              		.bss
 494              		.set	.LANCHOR0,. + 0
 495              		.type	overflow, %object
 496              		.size	overflow, 1
 497              	overflow:
 498 0000 00       		.space	1
 499              		.text
 500              	.Letext0:
 501              		.file 2 "c:\\program files\\cypress\\psoc creator\\3.1\\psoc creator\\import\\gnu_cs\\arm\\4.8.4\\
 502              		.file 3 "c:\\program files\\cypress\\psoc creator\\3.1\\psoc creator\\import\\gnu_cs\\arm\\4.8.4\\
 503              		.file 4 ".\\Generated_Source\\PSoC4/cytypes.h"
 504              		.file 5 ".\\Generated_Source\\PSoC4/PPMCounter.h"
 505              		.file 6 ".\\Generated_Source\\PSoC4/CyLib.h"
ARM GAS  C:\Users\SNFU\AppData\Local\Temp\ccVt1q1b.s 			page 17

