ARM GAS  C:\Users\SNFU\AppData\Local\Temp\cccutw99.s 			page 1


   1              		.cpu cortex-m0
   2              		.fpu softvfp
   3              		.eabi_attribute 20, 1
   4              		.eabi_attribute 21, 1
   5              		.eabi_attribute 23, 3
   6              		.eabi_attribute 24, 1
   7              		.eabi_attribute 25, 1
   8              		.eabi_attribute 26, 1
   9              		.eabi_attribute 30, 4
  10              		.eabi_attribute 34, 0
  11              		.eabi_attribute 18, 4
  12              		.code	16
  13              		.file	"ServoISR.c"
  14              		.text
  15              	.Ltext0:
  16              		.cfi_sections	.debug_frame
  17              		.section	.text.ServoISR_Interrupt,"ax",%progbits
  18              		.align	1
  19              		.global	ServoISR_Interrupt
  20              		.code	16
  21              		.thumb_func
  22              		.type	ServoISR_Interrupt, %function
  23              	ServoISR_Interrupt:
  24              	.LFB36:
  25              		.file 1 ".\\Generated_Source\\PSoC4\\ServoISR.c"
   1:.\Generated_Source\PSoC4/ServoISR.c **** /*******************************************************************************
   2:.\Generated_Source\PSoC4/ServoISR.c **** * File Name: ServoISR.c  
   3:.\Generated_Source\PSoC4/ServoISR.c **** * Version 1.70
   4:.\Generated_Source\PSoC4/ServoISR.c **** *
   5:.\Generated_Source\PSoC4/ServoISR.c **** *  Description:
   6:.\Generated_Source\PSoC4/ServoISR.c **** *   API for controlling the state of an interrupt.
   7:.\Generated_Source\PSoC4/ServoISR.c **** *
   8:.\Generated_Source\PSoC4/ServoISR.c **** *
   9:.\Generated_Source\PSoC4/ServoISR.c **** *  Note:
  10:.\Generated_Source\PSoC4/ServoISR.c **** *
  11:.\Generated_Source\PSoC4/ServoISR.c **** ********************************************************************************
  12:.\Generated_Source\PSoC4/ServoISR.c **** * Copyright 2008-2012, Cypress Semiconductor Corporation.  All rights reserved.
  13:.\Generated_Source\PSoC4/ServoISR.c **** * You may use this file only in accordance with the license, terms, conditions, 
  14:.\Generated_Source\PSoC4/ServoISR.c **** * disclaimers, and limitations in the end user license agreement accompanying 
  15:.\Generated_Source\PSoC4/ServoISR.c **** * the software package with which this file was provided.
  16:.\Generated_Source\PSoC4/ServoISR.c **** *******************************************************************************/
  17:.\Generated_Source\PSoC4/ServoISR.c **** 
  18:.\Generated_Source\PSoC4/ServoISR.c **** 
  19:.\Generated_Source\PSoC4/ServoISR.c **** #include <cydevice_trm.h>
  20:.\Generated_Source\PSoC4/ServoISR.c **** #include <CyLib.h>
  21:.\Generated_Source\PSoC4/ServoISR.c **** #include <ServoISR.h>
  22:.\Generated_Source\PSoC4/ServoISR.c **** 
  23:.\Generated_Source\PSoC4/ServoISR.c **** #if !defined(ServoISR__REMOVED) /* Check for removal by optimization */
  24:.\Generated_Source\PSoC4/ServoISR.c **** 
  25:.\Generated_Source\PSoC4/ServoISR.c **** /*******************************************************************************
  26:.\Generated_Source\PSoC4/ServoISR.c **** *  Place your includes, defines and code here 
  27:.\Generated_Source\PSoC4/ServoISR.c **** ********************************************************************************/
  28:.\Generated_Source\PSoC4/ServoISR.c **** /* `#START ServoISR_intc` */
  29:.\Generated_Source\PSoC4/ServoISR.c **** #include <project.h>
  30:.\Generated_Source\PSoC4/ServoISR.c **** extern uint16_t ctrl_in[];
  31:.\Generated_Source\PSoC4/ServoISR.c **** extern uint16_t ctrl_out[];
  32:.\Generated_Source\PSoC4/ServoISR.c **** uint8_t PWM_channel = 0;    // the PWM output channel
ARM GAS  C:\Users\SNFU\AppData\Local\Temp\cccutw99.s 			page 2


  33:.\Generated_Source\PSoC4/ServoISR.c **** 
  34:.\Generated_Source\PSoC4/ServoISR.c **** /* `#END` */
  35:.\Generated_Source\PSoC4/ServoISR.c **** 
  36:.\Generated_Source\PSoC4/ServoISR.c **** extern cyisraddress CyRamVectors[CYINT_IRQ_BASE + CY_NUM_INTERRUPTS];
  37:.\Generated_Source\PSoC4/ServoISR.c **** 
  38:.\Generated_Source\PSoC4/ServoISR.c **** /* Declared in startup, used to set unused interrupts to. */
  39:.\Generated_Source\PSoC4/ServoISR.c **** CY_ISR_PROTO(IntDefaultHandler);
  40:.\Generated_Source\PSoC4/ServoISR.c **** 
  41:.\Generated_Source\PSoC4/ServoISR.c **** 
  42:.\Generated_Source\PSoC4/ServoISR.c **** /*******************************************************************************
  43:.\Generated_Source\PSoC4/ServoISR.c **** * Function Name: ServoISR_Start
  44:.\Generated_Source\PSoC4/ServoISR.c **** ********************************************************************************
  45:.\Generated_Source\PSoC4/ServoISR.c **** *
  46:.\Generated_Source\PSoC4/ServoISR.c **** * Summary:
  47:.\Generated_Source\PSoC4/ServoISR.c **** *  Set up the interrupt and enable it.
  48:.\Generated_Source\PSoC4/ServoISR.c **** *
  49:.\Generated_Source\PSoC4/ServoISR.c **** * Parameters:  
  50:.\Generated_Source\PSoC4/ServoISR.c **** *   None
  51:.\Generated_Source\PSoC4/ServoISR.c **** *
  52:.\Generated_Source\PSoC4/ServoISR.c **** * Return:
  53:.\Generated_Source\PSoC4/ServoISR.c **** *   None
  54:.\Generated_Source\PSoC4/ServoISR.c **** *
  55:.\Generated_Source\PSoC4/ServoISR.c **** *******************************************************************************/
  56:.\Generated_Source\PSoC4/ServoISR.c **** void ServoISR_Start(void)
  57:.\Generated_Source\PSoC4/ServoISR.c **** {
  58:.\Generated_Source\PSoC4/ServoISR.c ****     /* For all we know the interrupt is active. */
  59:.\Generated_Source\PSoC4/ServoISR.c ****     ServoISR_Disable();
  60:.\Generated_Source\PSoC4/ServoISR.c **** 
  61:.\Generated_Source\PSoC4/ServoISR.c ****     /* Set the ISR to point to the ServoISR Interrupt. */
  62:.\Generated_Source\PSoC4/ServoISR.c ****     ServoISR_SetVector(&ServoISR_Interrupt);
  63:.\Generated_Source\PSoC4/ServoISR.c **** 
  64:.\Generated_Source\PSoC4/ServoISR.c ****     /* Set the priority. */
  65:.\Generated_Source\PSoC4/ServoISR.c ****     ServoISR_SetPriority((uint8)ServoISR_INTC_PRIOR_NUMBER);
  66:.\Generated_Source\PSoC4/ServoISR.c **** 
  67:.\Generated_Source\PSoC4/ServoISR.c ****     /* Enable it. */
  68:.\Generated_Source\PSoC4/ServoISR.c ****     ServoISR_Enable();
  69:.\Generated_Source\PSoC4/ServoISR.c **** }
  70:.\Generated_Source\PSoC4/ServoISR.c **** 
  71:.\Generated_Source\PSoC4/ServoISR.c **** 
  72:.\Generated_Source\PSoC4/ServoISR.c **** /*******************************************************************************
  73:.\Generated_Source\PSoC4/ServoISR.c **** * Function Name: ServoISR_StartEx
  74:.\Generated_Source\PSoC4/ServoISR.c **** ********************************************************************************
  75:.\Generated_Source\PSoC4/ServoISR.c **** *
  76:.\Generated_Source\PSoC4/ServoISR.c **** * Summary:
  77:.\Generated_Source\PSoC4/ServoISR.c **** *  Set up the interrupt and enable it.
  78:.\Generated_Source\PSoC4/ServoISR.c **** *
  79:.\Generated_Source\PSoC4/ServoISR.c **** * Parameters:  
  80:.\Generated_Source\PSoC4/ServoISR.c **** *   address: Address of the ISR to set in the interrupt vector table.
  81:.\Generated_Source\PSoC4/ServoISR.c **** *
  82:.\Generated_Source\PSoC4/ServoISR.c **** * Return:
  83:.\Generated_Source\PSoC4/ServoISR.c **** *   None
  84:.\Generated_Source\PSoC4/ServoISR.c **** *
  85:.\Generated_Source\PSoC4/ServoISR.c **** *******************************************************************************/
  86:.\Generated_Source\PSoC4/ServoISR.c **** void ServoISR_StartEx(cyisraddress address)
  87:.\Generated_Source\PSoC4/ServoISR.c **** {
  88:.\Generated_Source\PSoC4/ServoISR.c ****     /* For all we know the interrupt is active. */
  89:.\Generated_Source\PSoC4/ServoISR.c ****     ServoISR_Disable();
ARM GAS  C:\Users\SNFU\AppData\Local\Temp\cccutw99.s 			page 3


  90:.\Generated_Source\PSoC4/ServoISR.c **** 
  91:.\Generated_Source\PSoC4/ServoISR.c ****     /* Set the ISR to point to the ServoISR Interrupt. */
  92:.\Generated_Source\PSoC4/ServoISR.c ****     ServoISR_SetVector(address);
  93:.\Generated_Source\PSoC4/ServoISR.c **** 
  94:.\Generated_Source\PSoC4/ServoISR.c ****     /* Set the priority. */
  95:.\Generated_Source\PSoC4/ServoISR.c ****     ServoISR_SetPriority((uint8)ServoISR_INTC_PRIOR_NUMBER);
  96:.\Generated_Source\PSoC4/ServoISR.c **** 
  97:.\Generated_Source\PSoC4/ServoISR.c ****     /* Enable it. */
  98:.\Generated_Source\PSoC4/ServoISR.c ****     ServoISR_Enable();
  99:.\Generated_Source\PSoC4/ServoISR.c **** }
 100:.\Generated_Source\PSoC4/ServoISR.c **** 
 101:.\Generated_Source\PSoC4/ServoISR.c **** 
 102:.\Generated_Source\PSoC4/ServoISR.c **** /*******************************************************************************
 103:.\Generated_Source\PSoC4/ServoISR.c **** * Function Name: ServoISR_Stop
 104:.\Generated_Source\PSoC4/ServoISR.c **** ********************************************************************************
 105:.\Generated_Source\PSoC4/ServoISR.c **** *
 106:.\Generated_Source\PSoC4/ServoISR.c **** * Summary:
 107:.\Generated_Source\PSoC4/ServoISR.c **** *   Disables and removes the interrupt.
 108:.\Generated_Source\PSoC4/ServoISR.c **** *
 109:.\Generated_Source\PSoC4/ServoISR.c **** * Parameters:  
 110:.\Generated_Source\PSoC4/ServoISR.c **** *
 111:.\Generated_Source\PSoC4/ServoISR.c **** * Return:
 112:.\Generated_Source\PSoC4/ServoISR.c **** *   None
 113:.\Generated_Source\PSoC4/ServoISR.c **** *
 114:.\Generated_Source\PSoC4/ServoISR.c **** *******************************************************************************/
 115:.\Generated_Source\PSoC4/ServoISR.c **** void ServoISR_Stop(void)
 116:.\Generated_Source\PSoC4/ServoISR.c **** {
 117:.\Generated_Source\PSoC4/ServoISR.c ****     /* Disable this interrupt. */
 118:.\Generated_Source\PSoC4/ServoISR.c ****     ServoISR_Disable();
 119:.\Generated_Source\PSoC4/ServoISR.c **** 
 120:.\Generated_Source\PSoC4/ServoISR.c ****     /* Set the ISR to point to the passive one. */
 121:.\Generated_Source\PSoC4/ServoISR.c ****     ServoISR_SetVector(&IntDefaultHandler);
 122:.\Generated_Source\PSoC4/ServoISR.c **** }
 123:.\Generated_Source\PSoC4/ServoISR.c **** 
 124:.\Generated_Source\PSoC4/ServoISR.c **** 
 125:.\Generated_Source\PSoC4/ServoISR.c **** /*******************************************************************************
 126:.\Generated_Source\PSoC4/ServoISR.c **** * Function Name: ServoISR_Interrupt
 127:.\Generated_Source\PSoC4/ServoISR.c **** ********************************************************************************
 128:.\Generated_Source\PSoC4/ServoISR.c **** *
 129:.\Generated_Source\PSoC4/ServoISR.c **** * Summary:
 130:.\Generated_Source\PSoC4/ServoISR.c **** *   The default Interrupt Service Routine for ServoISR.
 131:.\Generated_Source\PSoC4/ServoISR.c **** *
 132:.\Generated_Source\PSoC4/ServoISR.c **** *   Add custom code between the coments to keep the next version of this file
 133:.\Generated_Source\PSoC4/ServoISR.c **** *   from over writting your code.
 134:.\Generated_Source\PSoC4/ServoISR.c **** *
 135:.\Generated_Source\PSoC4/ServoISR.c **** * Parameters:  
 136:.\Generated_Source\PSoC4/ServoISR.c **** *   None
 137:.\Generated_Source\PSoC4/ServoISR.c **** *
 138:.\Generated_Source\PSoC4/ServoISR.c **** * Return:
 139:.\Generated_Source\PSoC4/ServoISR.c **** *   None
 140:.\Generated_Source\PSoC4/ServoISR.c **** *
 141:.\Generated_Source\PSoC4/ServoISR.c **** *******************************************************************************/
 142:.\Generated_Source\PSoC4/ServoISR.c **** CY_ISR(ServoISR_Interrupt)
 143:.\Generated_Source\PSoC4/ServoISR.c **** {
  26              		.loc 1 143 0
  27              		.cfi_startproc
  28 0000 38B5     		push	{r3, r4, r5, lr}
ARM GAS  C:\Users\SNFU\AppData\Local\Temp\cccutw99.s 			page 4


  29              		.cfi_def_cfa_offset 16
  30              		.cfi_offset 3, -16
  31              		.cfi_offset 4, -12
  32              		.cfi_offset 5, -8
  33              		.cfi_offset 14, -4
 144:.\Generated_Source\PSoC4/ServoISR.c ****     /*  Place your Interrupt code here. */
 145:.\Generated_Source\PSoC4/ServoISR.c ****     /* `#START ServoISR_Interrupt` */
 146:.\Generated_Source\PSoC4/ServoISR.c ****     ServoTimer_ClearInterrupt(ServoTimer_INTR_MASK_TC);
  34              		.loc 1 146 0
  35 0002 0120     		mov	r0, #1
  36 0004 FFF7FEFF 		bl	ServoTimer_ClearInterrupt
  37              	.LVL0:
 147:.\Generated_Source\PSoC4/ServoISR.c ****     switch (PWM_channel)
  38              		.loc 1 147 0
  39 0008 3B4C     		ldr	r4, .L22
  40 000a 2078     		ldrb	r0, [r4]
  41 000c 0C28     		cmp	r0, #12
  42 000e 68D8     		bhi	.L2
  43 0010 3A4D     		ldr	r5, .L22+4
  44 0012 FFF7FEFF 		bl	__gnu_thumb1_case_uqi
  45              	.L4:
  46 0016 07       		.byte	(.L3-.L4)/2
  47 0017 0E       		.byte	(.L5-.L4)/2
  48 0018 15       		.byte	(.L6-.L4)/2
  49 0019 1C       		.byte	(.L7-.L4)/2
  50 001a 23       		.byte	(.L8-.L4)/2
  51 001b 2A       		.byte	(.L9-.L4)/2
  52 001c 31       		.byte	(.L10-.L4)/2
  53 001d 38       		.byte	(.L11-.L4)/2
  54 001e 3F       		.byte	(.L12-.L4)/2
  55 001f 46       		.byte	(.L13-.L4)/2
  56 0020 4D       		.byte	(.L14-.L4)/2
  57 0021 54       		.byte	(.L15-.L4)/2
  58 0022 5B       		.byte	(.L16-.L4)/2
  59 0023 00       		.p2align 1
  60              	.L3:
 148:.\Generated_Source\PSoC4/ServoISR.c ****     {
 149:.\Generated_Source\PSoC4/ServoISR.c ****         case 0:
 150:.\Generated_Source\PSoC4/ServoISR.c ****             // Set the Pin of output 12 to low
 151:.\Generated_Source\PSoC4/ServoISR.c ****             Out_Sp2_Pin_Write(0x00);
  61              		.loc 1 151 0
  62 0024 0020     		mov	r0, #0
  63 0026 FFF7FEFF 		bl	Out_Sp2_Pin_Write
  64              	.LVL1:
 152:.\Generated_Source\PSoC4/ServoISR.c ****             // Set the Pin of output 0 to high
 153:.\Generated_Source\PSoC4/ServoISR.c ****             Out_Mot_Pin_Write(0xFF);
  65              		.loc 1 153 0
  66 002a FF20     		mov	r0, #255
  67 002c FFF7FEFF 		bl	Out_Mot_Pin_Write
  68              	.LVL2:
  69 0030 52E0     		b	.L19
  70              	.L5:
 154:.\Generated_Source\PSoC4/ServoISR.c ****             
 155:.\Generated_Source\PSoC4/ServoISR.c ****             ServoTimer_WritePeriod(ctrl_out[PWM_channel]);    // mot
 156:.\Generated_Source\PSoC4/ServoISR.c ****         break;
 157:.\Generated_Source\PSoC4/ServoISR.c ****         
 158:.\Generated_Source\PSoC4/ServoISR.c ****         case 1:
ARM GAS  C:\Users\SNFU\AppData\Local\Temp\cccutw99.s 			page 5


 159:.\Generated_Source\PSoC4/ServoISR.c ****             // Set the Pin of output 0 to low
 160:.\Generated_Source\PSoC4/ServoISR.c ****             Out_Mot_Pin_Write(0x00);
  71              		.loc 1 160 0
  72 0032 0020     		mov	r0, #0
  73 0034 FFF7FEFF 		bl	Out_Mot_Pin_Write
  74              	.LVL3:
 161:.\Generated_Source\PSoC4/ServoISR.c ****             // Set the Pin of output 1 to high
 162:.\Generated_Source\PSoC4/ServoISR.c ****             Out_Ail1_Pin_Write(0xFF);                         // ail1
  75              		.loc 1 162 0
  76 0038 FF20     		mov	r0, #255
  77 003a FFF7FEFF 		bl	Out_Ail1_Pin_Write
  78              	.LVL4:
  79 003e 4BE0     		b	.L19
  80              	.L6:
 163:.\Generated_Source\PSoC4/ServoISR.c ****             ServoTimer_WritePeriod(ctrl_out[PWM_channel]);    
 164:.\Generated_Source\PSoC4/ServoISR.c ****         break;
 165:.\Generated_Source\PSoC4/ServoISR.c ****             
 166:.\Generated_Source\PSoC4/ServoISR.c ****         case 2:
 167:.\Generated_Source\PSoC4/ServoISR.c ****             // Set the Pin of output 1 to low
 168:.\Generated_Source\PSoC4/ServoISR.c ****             Out_Ail1_Pin_Write(0x00);
  81              		.loc 1 168 0
  82 0040 0020     		mov	r0, #0
  83 0042 FFF7FEFF 		bl	Out_Ail1_Pin_Write
  84              	.LVL5:
 169:.\Generated_Source\PSoC4/ServoISR.c ****             // Set the Pin of output 2 to high
 170:.\Generated_Source\PSoC4/ServoISR.c ****             Out_Ail2_Pin_Write(0xFF);                          // ail2
  85              		.loc 1 170 0
  86 0046 FF20     		mov	r0, #255
  87 0048 FFF7FEFF 		bl	Out_Ail2_Pin_Write
  88              	.LVL6:
  89 004c 44E0     		b	.L19
  90              	.L7:
 171:.\Generated_Source\PSoC4/ServoISR.c ****             ServoTimer_WritePeriod(ctrl_out[PWM_channel]);    
 172:.\Generated_Source\PSoC4/ServoISR.c ****         break;    
 173:.\Generated_Source\PSoC4/ServoISR.c ****        
 174:.\Generated_Source\PSoC4/ServoISR.c ****         case 3:
 175:.\Generated_Source\PSoC4/ServoISR.c ****             // Set the Pin of output 2 to low
 176:.\Generated_Source\PSoC4/ServoISR.c ****             Out_Ail2_Pin_Write(0x00);
  91              		.loc 1 176 0
  92 004e 0020     		mov	r0, #0
  93 0050 FFF7FEFF 		bl	Out_Ail2_Pin_Write
  94              	.LVL7:
 177:.\Generated_Source\PSoC4/ServoISR.c ****             // Set the Pin of output 3 to high
 178:.\Generated_Source\PSoC4/ServoISR.c ****             Out_Ele1_Pin_Write(0xFF);
  95              		.loc 1 178 0
  96 0054 FF20     		mov	r0, #255
  97 0056 FFF7FEFF 		bl	Out_Ele1_Pin_Write
  98              	.LVL8:
  99 005a 3DE0     		b	.L19
 100              	.L8:
 179:.\Generated_Source\PSoC4/ServoISR.c ****             // Set Timer Value to next output
 180:.\Generated_Source\PSoC4/ServoISR.c ****             ServoTimer_WritePeriod(ctrl_out[PWM_channel]);    
 181:.\Generated_Source\PSoC4/ServoISR.c ****         break; 
 182:.\Generated_Source\PSoC4/ServoISR.c ****         
 183:.\Generated_Source\PSoC4/ServoISR.c ****         case 4:
 184:.\Generated_Source\PSoC4/ServoISR.c ****             // Set the Pin of output 3 to low
 185:.\Generated_Source\PSoC4/ServoISR.c ****             Out_Ele1_Pin_Write(0x00);
ARM GAS  C:\Users\SNFU\AppData\Local\Temp\cccutw99.s 			page 6


 101              		.loc 1 185 0
 102 005c 0020     		mov	r0, #0
 103 005e FFF7FEFF 		bl	Out_Ele1_Pin_Write
 104              	.LVL9:
 186:.\Generated_Source\PSoC4/ServoISR.c ****             // Set the Pin of output 4 to high
 187:.\Generated_Source\PSoC4/ServoISR.c ****             Out_Ele2_Pin_Write(0xFF);
 105              		.loc 1 187 0
 106 0062 FF20     		mov	r0, #255
 107 0064 FFF7FEFF 		bl	Out_Ele2_Pin_Write
 108              	.LVL10:
 109 0068 36E0     		b	.L19
 110              	.L9:
 188:.\Generated_Source\PSoC4/ServoISR.c ****             ServoTimer_WritePeriod(ctrl_out[PWM_channel]);    
 189:.\Generated_Source\PSoC4/ServoISR.c ****         break; 
 190:.\Generated_Source\PSoC4/ServoISR.c ****         
 191:.\Generated_Source\PSoC4/ServoISR.c ****         case 5:
 192:.\Generated_Source\PSoC4/ServoISR.c ****             // Set the Pin of output 4 to low
 193:.\Generated_Source\PSoC4/ServoISR.c ****             Out_Ele2_Pin_Write(0x00);
 111              		.loc 1 193 0
 112 006a 0020     		mov	r0, #0
 113 006c FFF7FEFF 		bl	Out_Ele2_Pin_Write
 114              	.LVL11:
 194:.\Generated_Source\PSoC4/ServoISR.c ****             // Set the Pin of output 5 to high
 195:.\Generated_Source\PSoC4/ServoISR.c ****             Out_Rud_Pin_Write(0xFF);
 115              		.loc 1 195 0
 116 0070 FF20     		mov	r0, #255
 117 0072 FFF7FEFF 		bl	Out_Rud_Pin_Write
 118              	.LVL12:
 119 0076 2FE0     		b	.L19
 120              	.L10:
 196:.\Generated_Source\PSoC4/ServoISR.c ****             ServoTimer_WritePeriod(ctrl_out[PWM_channel]);    
 197:.\Generated_Source\PSoC4/ServoISR.c ****         break; 
 198:.\Generated_Source\PSoC4/ServoISR.c ****         
 199:.\Generated_Source\PSoC4/ServoISR.c ****         case 6:
 200:.\Generated_Source\PSoC4/ServoISR.c ****             // Set the Pin of output 5 to low
 201:.\Generated_Source\PSoC4/ServoISR.c ****             Out_Rud_Pin_Write(0x00);
 121              		.loc 1 201 0
 122 0078 0020     		mov	r0, #0
 123 007a FFF7FEFF 		bl	Out_Rud_Pin_Write
 124              	.LVL13:
 202:.\Generated_Source\PSoC4/ServoISR.c ****             // Set the Pin of output 6 to high
 203:.\Generated_Source\PSoC4/ServoISR.c ****             Out_Fl1_Pin_Write(0xFF);
 125              		.loc 1 203 0
 126 007e FF20     		mov	r0, #255
 127 0080 FFF7FEFF 		bl	Out_Fl1_Pin_Write
 128              	.LVL14:
 129 0084 28E0     		b	.L19
 130              	.L11:
 204:.\Generated_Source\PSoC4/ServoISR.c ****             ServoTimer_WritePeriod(ctrl_out[PWM_channel]); 
 205:.\Generated_Source\PSoC4/ServoISR.c ****         break; 
 206:.\Generated_Source\PSoC4/ServoISR.c ****         
 207:.\Generated_Source\PSoC4/ServoISR.c ****         case 7:
 208:.\Generated_Source\PSoC4/ServoISR.c ****             // Set the Pin of output 6 to low
 209:.\Generated_Source\PSoC4/ServoISR.c ****             Out_Fl1_Pin_Write(0x00);
 131              		.loc 1 209 0
 132 0086 0020     		mov	r0, #0
 133 0088 FFF7FEFF 		bl	Out_Fl1_Pin_Write
ARM GAS  C:\Users\SNFU\AppData\Local\Temp\cccutw99.s 			page 7


 134              	.LVL15:
 210:.\Generated_Source\PSoC4/ServoISR.c ****             // Set the Pin of output 7 to high
 211:.\Generated_Source\PSoC4/ServoISR.c ****             Out_Fl2_Pin_Write(0xFF);
 135              		.loc 1 211 0
 136 008c FF20     		mov	r0, #255
 137 008e FFF7FEFF 		bl	Out_Fl2_Pin_Write
 138              	.LVL16:
 139 0092 21E0     		b	.L19
 140              	.L12:
 212:.\Generated_Source\PSoC4/ServoISR.c ****             ServoTimer_WritePeriod(ctrl_out[PWM_channel]);
 213:.\Generated_Source\PSoC4/ServoISR.c ****         break; 
 214:.\Generated_Source\PSoC4/ServoISR.c ****         
 215:.\Generated_Source\PSoC4/ServoISR.c ****         case 8:
 216:.\Generated_Source\PSoC4/ServoISR.c ****             // Set the Pin of output 7 to low
 217:.\Generated_Source\PSoC4/ServoISR.c ****             Out_Fl2_Pin_Write(0x00);
 141              		.loc 1 217 0
 142 0094 0020     		mov	r0, #0
 143 0096 FFF7FEFF 		bl	Out_Fl2_Pin_Write
 144              	.LVL17:
 218:.\Generated_Source\PSoC4/ServoISR.c ****             // Set the Pin of output 8 to high
 219:.\Generated_Source\PSoC4/ServoISR.c ****             Out_Ge1_Pin_Write(0xFF);
 145              		.loc 1 219 0
 146 009a FF20     		mov	r0, #255
 147 009c FFF7FEFF 		bl	Out_Ge1_Pin_Write
 148              	.LVL18:
 149 00a0 1AE0     		b	.L19
 150              	.L13:
 220:.\Generated_Source\PSoC4/ServoISR.c ****             ServoTimer_WritePeriod(ctrl_out[PWM_channel]);
 221:.\Generated_Source\PSoC4/ServoISR.c ****         break; 
 222:.\Generated_Source\PSoC4/ServoISR.c ****         
 223:.\Generated_Source\PSoC4/ServoISR.c ****         case 9:
 224:.\Generated_Source\PSoC4/ServoISR.c ****             // Set the Pin of output 8 to low
 225:.\Generated_Source\PSoC4/ServoISR.c ****             Out_Ge1_Pin_Write(0x00);
 151              		.loc 1 225 0
 152 00a2 0020     		mov	r0, #0
 153 00a4 FFF7FEFF 		bl	Out_Ge1_Pin_Write
 154              	.LVL19:
 226:.\Generated_Source\PSoC4/ServoISR.c ****             // Set the Pin of output 9 to high
 227:.\Generated_Source\PSoC4/ServoISR.c ****             Out_Ge2_Pin_Write(0xFF);
 155              		.loc 1 227 0
 156 00a8 FF20     		mov	r0, #255
 157 00aa FFF7FEFF 		bl	Out_Ge2_Pin_Write
 158              	.LVL20:
 159 00ae 13E0     		b	.L19
 160              	.L14:
 228:.\Generated_Source\PSoC4/ServoISR.c ****             ServoTimer_WritePeriod(ctrl_out[PWM_channel]);
 229:.\Generated_Source\PSoC4/ServoISR.c ****         break; 
 230:.\Generated_Source\PSoC4/ServoISR.c ****         
 231:.\Generated_Source\PSoC4/ServoISR.c ****         case 10:
 232:.\Generated_Source\PSoC4/ServoISR.c ****             // Set the Pin of output 9 to low
 233:.\Generated_Source\PSoC4/ServoISR.c ****             Out_Ge2_Pin_Write(0x00);
 161              		.loc 1 233 0
 162 00b0 0020     		mov	r0, #0
 163 00b2 FFF7FEFF 		bl	Out_Ge2_Pin_Write
 164              	.LVL21:
 234:.\Generated_Source\PSoC4/ServoISR.c ****             // Set the Pin of output 10 to high
 235:.\Generated_Source\PSoC4/ServoISR.c ****             Out_Ge3_Pin_Write(0xFF);
ARM GAS  C:\Users\SNFU\AppData\Local\Temp\cccutw99.s 			page 8


 165              		.loc 1 235 0
 166 00b6 FF20     		mov	r0, #255
 167 00b8 FFF7FEFF 		bl	Out_Ge3_Pin_Write
 168              	.LVL22:
 169 00bc 0CE0     		b	.L19
 170              	.L15:
 236:.\Generated_Source\PSoC4/ServoISR.c ****             ServoTimer_WritePeriod(ctrl_out[PWM_channel]);
 237:.\Generated_Source\PSoC4/ServoISR.c ****         break; 
 238:.\Generated_Source\PSoC4/ServoISR.c ****         
 239:.\Generated_Source\PSoC4/ServoISR.c ****         case 11:
 240:.\Generated_Source\PSoC4/ServoISR.c ****             // Set the Pin of output 10 to low
 241:.\Generated_Source\PSoC4/ServoISR.c ****             Out_Ge3_Pin_Write(0x00);
 171              		.loc 1 241 0
 172 00be 0020     		mov	r0, #0
 173 00c0 FFF7FEFF 		bl	Out_Ge3_Pin_Write
 174              	.LVL23:
 242:.\Generated_Source\PSoC4/ServoISR.c ****             // Set the Pin of output 11 to high
 243:.\Generated_Source\PSoC4/ServoISR.c ****             Out_Sp1_Pin_Write(0xFF);
 175              		.loc 1 243 0
 176 00c4 FF20     		mov	r0, #255
 177 00c6 FFF7FEFF 		bl	Out_Sp1_Pin_Write
 178              	.LVL24:
 179 00ca 05E0     		b	.L19
 180              	.L16:
 244:.\Generated_Source\PSoC4/ServoISR.c ****             ServoTimer_WritePeriod(ctrl_out[PWM_channel]);
 245:.\Generated_Source\PSoC4/ServoISR.c ****         break; 
 246:.\Generated_Source\PSoC4/ServoISR.c ****         
 247:.\Generated_Source\PSoC4/ServoISR.c ****         case 12:
 248:.\Generated_Source\PSoC4/ServoISR.c ****             // Set the Pin of output 11 to low
 249:.\Generated_Source\PSoC4/ServoISR.c ****             Out_Sp1_Pin_Write(0x00);
 181              		.loc 1 249 0
 182 00cc 0020     		mov	r0, #0
 183 00ce FFF7FEFF 		bl	Out_Sp1_Pin_Write
 184              	.LVL25:
 250:.\Generated_Source\PSoC4/ServoISR.c ****             // Set the Pin of output 0 to high
 251:.\Generated_Source\PSoC4/ServoISR.c ****             Out_Sp2_Pin_Write(0xFF);
 185              		.loc 1 251 0
 186 00d2 FF20     		mov	r0, #255
 187 00d4 FFF7FEFF 		bl	Out_Sp2_Pin_Write
 188              	.LVL26:
 189              	.L19:
 252:.\Generated_Source\PSoC4/ServoISR.c ****             ServoTimer_WritePeriod(ctrl_out[PWM_channel]);
 190              		.loc 1 252 0
 191 00d8 2378     		ldrb	r3, [r4]
 192 00da 5B00     		lsl	r3, r3, #1
 193 00dc E85A     		ldrh	r0, [r5, r3]
 194 00de FFF7FEFF 		bl	ServoTimer_WritePeriod
 195              	.LVL27:
 196              	.L2:
 253:.\Generated_Source\PSoC4/ServoISR.c ****         break; 
 254:.\Generated_Source\PSoC4/ServoISR.c ****         
 255:.\Generated_Source\PSoC4/ServoISR.c ****     }
 256:.\Generated_Source\PSoC4/ServoISR.c ****     
 257:.\Generated_Source\PSoC4/ServoISR.c ****     ServoTimer_WriteCounter(0); // Reset the counter
 197              		.loc 1 257 0
 198 00e2 0020     		mov	r0, #0
 199 00e4 FFF7FEFF 		bl	ServoTimer_WriteCounter
ARM GAS  C:\Users\SNFU\AppData\Local\Temp\cccutw99.s 			page 9


 200              	.LVL28:
 258:.\Generated_Source\PSoC4/ServoISR.c ****     PWM_channel++;
 201              		.loc 1 258 0
 202 00e8 2378     		ldrb	r3, [r4]
 203 00ea 0133     		add	r3, r3, #1
 204 00ec DBB2     		uxtb	r3, r3
 259:.\Generated_Source\PSoC4/ServoISR.c ****     if(PWM_channel == 13) PWM_channel = 0;
 205              		.loc 1 259 0
 206 00ee 0D2B     		cmp	r3, #13
 207 00f0 00D1     		bne	.L20
 208              		.loc 1 259 0 is_stmt 0 discriminator 1
 209 00f2 0023     		mov	r3, #0
 210              	.L20:
 211 00f4 2370     		strb	r3, [r4]
 260:.\Generated_Source\PSoC4/ServoISR.c ****     /* `#END` */
 261:.\Generated_Source\PSoC4/ServoISR.c **** }
 212              		.loc 1 261 0 is_stmt 1 discriminator 1
 213              		@ sp needed
 214 00f6 38BD     		pop	{r3, r4, r5, pc}
 215              	.L23:
 216              		.align	2
 217              	.L22:
 218 00f8 00000000 		.word	.LANCHOR0
 219 00fc 00000000 		.word	ctrl_out
 220              		.cfi_endproc
 221              	.LFE36:
 222              		.size	ServoISR_Interrupt, .-ServoISR_Interrupt
 223              		.section	.text.ServoISR_Stop,"ax",%progbits
 224              		.align	1
 225              		.global	ServoISR_Stop
 226              		.code	16
 227              		.thumb_func
 228              		.type	ServoISR_Stop, %function
 229              	ServoISR_Stop:
 230              	.LFB35:
 116:.\Generated_Source\PSoC4/ServoISR.c **** {
 231              		.loc 1 116 0
 232              		.cfi_startproc
 233              	.LBB18:
 234              	.LBB19:
 262:.\Generated_Source\PSoC4/ServoISR.c **** 
 263:.\Generated_Source\PSoC4/ServoISR.c **** 
 264:.\Generated_Source\PSoC4/ServoISR.c **** /*******************************************************************************
 265:.\Generated_Source\PSoC4/ServoISR.c **** * Function Name: ServoISR_SetVector
 266:.\Generated_Source\PSoC4/ServoISR.c **** ********************************************************************************
 267:.\Generated_Source\PSoC4/ServoISR.c **** *
 268:.\Generated_Source\PSoC4/ServoISR.c **** * Summary:
 269:.\Generated_Source\PSoC4/ServoISR.c **** *   Change the ISR vector for the Interrupt. Note calling ServoISR_Start
 270:.\Generated_Source\PSoC4/ServoISR.c **** *   will override any effect this method would have had. To set the vector 
 271:.\Generated_Source\PSoC4/ServoISR.c **** *   before the component has been started use ServoISR_StartEx instead.
 272:.\Generated_Source\PSoC4/ServoISR.c **** *
 273:.\Generated_Source\PSoC4/ServoISR.c **** * Parameters:
 274:.\Generated_Source\PSoC4/ServoISR.c **** *   address: Address of the ISR to set in the interrupt vector table.
 275:.\Generated_Source\PSoC4/ServoISR.c **** *
 276:.\Generated_Source\PSoC4/ServoISR.c **** * Return:
 277:.\Generated_Source\PSoC4/ServoISR.c **** *   None
 278:.\Generated_Source\PSoC4/ServoISR.c **** *
ARM GAS  C:\Users\SNFU\AppData\Local\Temp\cccutw99.s 			page 10


 279:.\Generated_Source\PSoC4/ServoISR.c **** *******************************************************************************/
 280:.\Generated_Source\PSoC4/ServoISR.c **** void ServoISR_SetVector(cyisraddress address)
 281:.\Generated_Source\PSoC4/ServoISR.c **** {
 282:.\Generated_Source\PSoC4/ServoISR.c ****     CyRamVectors[CYINT_IRQ_BASE + ServoISR__INTC_NUMBER] = address;
 283:.\Generated_Source\PSoC4/ServoISR.c **** }
 284:.\Generated_Source\PSoC4/ServoISR.c **** 
 285:.\Generated_Source\PSoC4/ServoISR.c **** 
 286:.\Generated_Source\PSoC4/ServoISR.c **** /*******************************************************************************
 287:.\Generated_Source\PSoC4/ServoISR.c **** * Function Name: ServoISR_GetVector
 288:.\Generated_Source\PSoC4/ServoISR.c **** ********************************************************************************
 289:.\Generated_Source\PSoC4/ServoISR.c **** *
 290:.\Generated_Source\PSoC4/ServoISR.c **** * Summary:
 291:.\Generated_Source\PSoC4/ServoISR.c **** *   Gets the "address" of the current ISR vector for the Interrupt.
 292:.\Generated_Source\PSoC4/ServoISR.c **** *
 293:.\Generated_Source\PSoC4/ServoISR.c **** * Parameters:
 294:.\Generated_Source\PSoC4/ServoISR.c **** *   None
 295:.\Generated_Source\PSoC4/ServoISR.c **** *
 296:.\Generated_Source\PSoC4/ServoISR.c **** * Return:
 297:.\Generated_Source\PSoC4/ServoISR.c **** *   Address of the ISR in the interrupt vector table.
 298:.\Generated_Source\PSoC4/ServoISR.c **** *
 299:.\Generated_Source\PSoC4/ServoISR.c **** *******************************************************************************/
 300:.\Generated_Source\PSoC4/ServoISR.c **** cyisraddress ServoISR_GetVector(void)
 301:.\Generated_Source\PSoC4/ServoISR.c **** {
 302:.\Generated_Source\PSoC4/ServoISR.c ****     return CyRamVectors[CYINT_IRQ_BASE + ServoISR__INTC_NUMBER];
 303:.\Generated_Source\PSoC4/ServoISR.c **** }
 304:.\Generated_Source\PSoC4/ServoISR.c **** 
 305:.\Generated_Source\PSoC4/ServoISR.c **** 
 306:.\Generated_Source\PSoC4/ServoISR.c **** /*******************************************************************************
 307:.\Generated_Source\PSoC4/ServoISR.c **** * Function Name: ServoISR_SetPriority
 308:.\Generated_Source\PSoC4/ServoISR.c **** ********************************************************************************
 309:.\Generated_Source\PSoC4/ServoISR.c **** *
 310:.\Generated_Source\PSoC4/ServoISR.c **** * Summary:
 311:.\Generated_Source\PSoC4/ServoISR.c **** *   Sets the Priority of the Interrupt. Note calling ServoISR_Start
 312:.\Generated_Source\PSoC4/ServoISR.c **** *   or ServoISR_StartEx will override any effect this method would 
 313:.\Generated_Source\PSoC4/ServoISR.c **** *   have had. This method should only be called after ServoISR_Start or 
 314:.\Generated_Source\PSoC4/ServoISR.c **** *   ServoISR_StartEx has been called. To set the initial
 315:.\Generated_Source\PSoC4/ServoISR.c **** *   priority for the component use the cydwr file in the tool.
 316:.\Generated_Source\PSoC4/ServoISR.c **** *
 317:.\Generated_Source\PSoC4/ServoISR.c **** * Parameters:
 318:.\Generated_Source\PSoC4/ServoISR.c **** *   priority: Priority of the interrupt. 0 - 3, 0 being the highest.
 319:.\Generated_Source\PSoC4/ServoISR.c **** *
 320:.\Generated_Source\PSoC4/ServoISR.c **** * Return:
 321:.\Generated_Source\PSoC4/ServoISR.c **** *   None
 322:.\Generated_Source\PSoC4/ServoISR.c **** *
 323:.\Generated_Source\PSoC4/ServoISR.c **** *******************************************************************************/
 324:.\Generated_Source\PSoC4/ServoISR.c **** void ServoISR_SetPriority(uint8 priority)
 325:.\Generated_Source\PSoC4/ServoISR.c **** {
 326:.\Generated_Source\PSoC4/ServoISR.c **** 	uint8 interruptState;
 327:.\Generated_Source\PSoC4/ServoISR.c ****     uint32 priorityOffset = ((ServoISR__INTC_NUMBER % 4u) * 8u) + 6u;
 328:.\Generated_Source\PSoC4/ServoISR.c ****     
 329:.\Generated_Source\PSoC4/ServoISR.c **** 	interruptState = CyEnterCriticalSection();
 330:.\Generated_Source\PSoC4/ServoISR.c ****     *ServoISR_INTC_PRIOR = (*ServoISR_INTC_PRIOR & (uint32)(~ServoISR__INTC_PRIOR_MASK)) |
 331:.\Generated_Source\PSoC4/ServoISR.c ****                                     ((uint32)priority << priorityOffset);
 332:.\Generated_Source\PSoC4/ServoISR.c **** 	CyExitCriticalSection(interruptState);
 333:.\Generated_Source\PSoC4/ServoISR.c **** }
 334:.\Generated_Source\PSoC4/ServoISR.c **** 
 335:.\Generated_Source\PSoC4/ServoISR.c **** 
ARM GAS  C:\Users\SNFU\AppData\Local\Temp\cccutw99.s 			page 11


 336:.\Generated_Source\PSoC4/ServoISR.c **** /*******************************************************************************
 337:.\Generated_Source\PSoC4/ServoISR.c **** * Function Name: ServoISR_GetPriority
 338:.\Generated_Source\PSoC4/ServoISR.c **** ********************************************************************************
 339:.\Generated_Source\PSoC4/ServoISR.c **** *
 340:.\Generated_Source\PSoC4/ServoISR.c **** * Summary:
 341:.\Generated_Source\PSoC4/ServoISR.c **** *   Gets the Priority of the Interrupt.
 342:.\Generated_Source\PSoC4/ServoISR.c **** *
 343:.\Generated_Source\PSoC4/ServoISR.c **** * Parameters:
 344:.\Generated_Source\PSoC4/ServoISR.c **** *   None
 345:.\Generated_Source\PSoC4/ServoISR.c **** *
 346:.\Generated_Source\PSoC4/ServoISR.c **** * Return:
 347:.\Generated_Source\PSoC4/ServoISR.c **** *   Priority of the interrupt. 0 - 3, 0 being the highest.
 348:.\Generated_Source\PSoC4/ServoISR.c **** *
 349:.\Generated_Source\PSoC4/ServoISR.c **** *******************************************************************************/
 350:.\Generated_Source\PSoC4/ServoISR.c **** uint8 ServoISR_GetPriority(void)
 351:.\Generated_Source\PSoC4/ServoISR.c **** {
 352:.\Generated_Source\PSoC4/ServoISR.c ****     uint32 priority;
 353:.\Generated_Source\PSoC4/ServoISR.c **** 	uint32 priorityOffset = ((ServoISR__INTC_NUMBER % 4u) * 8u) + 6u;
 354:.\Generated_Source\PSoC4/ServoISR.c **** 
 355:.\Generated_Source\PSoC4/ServoISR.c ****     priority = (*ServoISR_INTC_PRIOR & ServoISR__INTC_PRIOR_MASK) >> priorityOffset;
 356:.\Generated_Source\PSoC4/ServoISR.c **** 
 357:.\Generated_Source\PSoC4/ServoISR.c ****     return (uint8)priority;
 358:.\Generated_Source\PSoC4/ServoISR.c **** }
 359:.\Generated_Source\PSoC4/ServoISR.c **** 
 360:.\Generated_Source\PSoC4/ServoISR.c **** 
 361:.\Generated_Source\PSoC4/ServoISR.c **** /*******************************************************************************
 362:.\Generated_Source\PSoC4/ServoISR.c **** * Function Name: ServoISR_Enable
 363:.\Generated_Source\PSoC4/ServoISR.c **** ********************************************************************************
 364:.\Generated_Source\PSoC4/ServoISR.c **** *
 365:.\Generated_Source\PSoC4/ServoISR.c **** * Summary:
 366:.\Generated_Source\PSoC4/ServoISR.c **** *   Enables the interrupt.
 367:.\Generated_Source\PSoC4/ServoISR.c **** *
 368:.\Generated_Source\PSoC4/ServoISR.c **** * Parameters:
 369:.\Generated_Source\PSoC4/ServoISR.c **** *   None
 370:.\Generated_Source\PSoC4/ServoISR.c **** *
 371:.\Generated_Source\PSoC4/ServoISR.c **** * Return:
 372:.\Generated_Source\PSoC4/ServoISR.c **** *   None
 373:.\Generated_Source\PSoC4/ServoISR.c **** *
 374:.\Generated_Source\PSoC4/ServoISR.c **** *******************************************************************************/
 375:.\Generated_Source\PSoC4/ServoISR.c **** void ServoISR_Enable(void)
 376:.\Generated_Source\PSoC4/ServoISR.c **** {
 377:.\Generated_Source\PSoC4/ServoISR.c ****     /* Enable the general interrupt. */
 378:.\Generated_Source\PSoC4/ServoISR.c ****     *ServoISR_INTC_SET_EN = ServoISR__INTC_MASK;
 379:.\Generated_Source\PSoC4/ServoISR.c **** }
 380:.\Generated_Source\PSoC4/ServoISR.c **** 
 381:.\Generated_Source\PSoC4/ServoISR.c **** 
 382:.\Generated_Source\PSoC4/ServoISR.c **** /*******************************************************************************
 383:.\Generated_Source\PSoC4/ServoISR.c **** * Function Name: ServoISR_GetState
 384:.\Generated_Source\PSoC4/ServoISR.c **** ********************************************************************************
 385:.\Generated_Source\PSoC4/ServoISR.c **** *
 386:.\Generated_Source\PSoC4/ServoISR.c **** * Summary:
 387:.\Generated_Source\PSoC4/ServoISR.c **** *   Gets the state (enabled, disabled) of the Interrupt.
 388:.\Generated_Source\PSoC4/ServoISR.c **** *
 389:.\Generated_Source\PSoC4/ServoISR.c **** * Parameters:
 390:.\Generated_Source\PSoC4/ServoISR.c **** *   None
 391:.\Generated_Source\PSoC4/ServoISR.c **** *
 392:.\Generated_Source\PSoC4/ServoISR.c **** * Return:
ARM GAS  C:\Users\SNFU\AppData\Local\Temp\cccutw99.s 			page 12


 393:.\Generated_Source\PSoC4/ServoISR.c **** *   1 if enabled, 0 if disabled.
 394:.\Generated_Source\PSoC4/ServoISR.c **** *
 395:.\Generated_Source\PSoC4/ServoISR.c **** *******************************************************************************/
 396:.\Generated_Source\PSoC4/ServoISR.c **** uint8 ServoISR_GetState(void)
 397:.\Generated_Source\PSoC4/ServoISR.c **** {
 398:.\Generated_Source\PSoC4/ServoISR.c ****     /* Get the state of the general interrupt. */
 399:.\Generated_Source\PSoC4/ServoISR.c ****     return ((*ServoISR_INTC_SET_EN & (uint32)ServoISR__INTC_MASK) != 0u) ? 1u:0u;
 400:.\Generated_Source\PSoC4/ServoISR.c **** }
 401:.\Generated_Source\PSoC4/ServoISR.c **** 
 402:.\Generated_Source\PSoC4/ServoISR.c **** 
 403:.\Generated_Source\PSoC4/ServoISR.c **** /*******************************************************************************
 404:.\Generated_Source\PSoC4/ServoISR.c **** * Function Name: ServoISR_Disable
 405:.\Generated_Source\PSoC4/ServoISR.c **** ********************************************************************************
 406:.\Generated_Source\PSoC4/ServoISR.c **** *
 407:.\Generated_Source\PSoC4/ServoISR.c **** * Summary:
 408:.\Generated_Source\PSoC4/ServoISR.c **** *   Disables the Interrupt.
 409:.\Generated_Source\PSoC4/ServoISR.c **** *
 410:.\Generated_Source\PSoC4/ServoISR.c **** * Parameters:
 411:.\Generated_Source\PSoC4/ServoISR.c **** *   None
 412:.\Generated_Source\PSoC4/ServoISR.c **** *
 413:.\Generated_Source\PSoC4/ServoISR.c **** * Return:
 414:.\Generated_Source\PSoC4/ServoISR.c **** *   None
 415:.\Generated_Source\PSoC4/ServoISR.c **** *
 416:.\Generated_Source\PSoC4/ServoISR.c **** *******************************************************************************/
 417:.\Generated_Source\PSoC4/ServoISR.c **** void ServoISR_Disable(void)
 418:.\Generated_Source\PSoC4/ServoISR.c **** {
 419:.\Generated_Source\PSoC4/ServoISR.c ****     /* Disable the general interrupt. */
 420:.\Generated_Source\PSoC4/ServoISR.c ****     *ServoISR_INTC_CLR_EN = ServoISR__INTC_MASK;
 235              		.loc 1 420 0
 236 0000 044B     		ldr	r3, .L25
 237 0002 8022     		mov	r2, #128
 238 0004 9202     		lsl	r2, r2, #10
 239 0006 1A60     		str	r2, [r3]
 240              	.LVL29:
 241              	.LBE19:
 242              	.LBE18:
 243              	.LBB20:
 244              	.LBB21:
 282:.\Generated_Source\PSoC4/ServoISR.c ****     CyRamVectors[CYINT_IRQ_BASE + ServoISR__INTC_NUMBER] = address;
 245              		.loc 1 282 0
 246 0008 034B     		ldr	r3, .L25+4
 247 000a 044A     		ldr	r2, .L25+8
 248 000c 0833     		add	r3, r3, #8
 249 000e DA67     		str	r2, [r3, #124]
 250              	.LBE21:
 251              	.LBE20:
 122:.\Generated_Source\PSoC4/ServoISR.c **** }
 252              		.loc 1 122 0
 253              		@ sp needed
 254 0010 7047     		bx	lr
 255              	.L26:
 256 0012 C046     		.align	2
 257              	.L25:
 258 0014 80E100E0 		.word	-536813184
 259 0018 00000000 		.word	CyRamVectors
 260 001c 00000000 		.word	IntDefaultHandler
 261              		.cfi_endproc
ARM GAS  C:\Users\SNFU\AppData\Local\Temp\cccutw99.s 			page 13


 262              	.LFE35:
 263              		.size	ServoISR_Stop, .-ServoISR_Stop
 264              		.section	.text.ServoISR_SetVector,"ax",%progbits
 265              		.align	1
 266              		.global	ServoISR_SetVector
 267              		.code	16
 268              		.thumb_func
 269              		.type	ServoISR_SetVector, %function
 270              	ServoISR_SetVector:
 271              	.LFB37:
 281:.\Generated_Source\PSoC4/ServoISR.c **** {
 272              		.loc 1 281 0
 273              		.cfi_startproc
 274              	.LVL30:
 282:.\Generated_Source\PSoC4/ServoISR.c ****     CyRamVectors[CYINT_IRQ_BASE + ServoISR__INTC_NUMBER] = address;
 275              		.loc 1 282 0
 276 0000 014B     		ldr	r3, .L28
 283:.\Generated_Source\PSoC4/ServoISR.c **** }
 277              		.loc 1 283 0
 278              		@ sp needed
 282:.\Generated_Source\PSoC4/ServoISR.c ****     CyRamVectors[CYINT_IRQ_BASE + ServoISR__INTC_NUMBER] = address;
 279              		.loc 1 282 0
 280 0002 0833     		add	r3, r3, #8
 281 0004 D867     		str	r0, [r3, #124]
 283:.\Generated_Source\PSoC4/ServoISR.c **** }
 282              		.loc 1 283 0
 283 0006 7047     		bx	lr
 284              	.L29:
 285              		.align	2
 286              	.L28:
 287 0008 00000000 		.word	CyRamVectors
 288              		.cfi_endproc
 289              	.LFE37:
 290              		.size	ServoISR_SetVector, .-ServoISR_SetVector
 291              		.section	.text.ServoISR_GetVector,"ax",%progbits
 292              		.align	1
 293              		.global	ServoISR_GetVector
 294              		.code	16
 295              		.thumb_func
 296              		.type	ServoISR_GetVector, %function
 297              	ServoISR_GetVector:
 298              	.LFB38:
 301:.\Generated_Source\PSoC4/ServoISR.c **** {
 299              		.loc 1 301 0
 300              		.cfi_startproc
 302:.\Generated_Source\PSoC4/ServoISR.c ****     return CyRamVectors[CYINT_IRQ_BASE + ServoISR__INTC_NUMBER];
 301              		.loc 1 302 0
 302 0000 014B     		ldr	r3, .L31
 303:.\Generated_Source\PSoC4/ServoISR.c **** }
 303              		.loc 1 303 0
 304              		@ sp needed
 302:.\Generated_Source\PSoC4/ServoISR.c ****     return CyRamVectors[CYINT_IRQ_BASE + ServoISR__INTC_NUMBER];
 305              		.loc 1 302 0
 306 0002 0833     		add	r3, r3, #8
 307 0004 D86F     		ldr	r0, [r3, #124]
 303:.\Generated_Source\PSoC4/ServoISR.c **** }
 308              		.loc 1 303 0
ARM GAS  C:\Users\SNFU\AppData\Local\Temp\cccutw99.s 			page 14


 309 0006 7047     		bx	lr
 310              	.L32:
 311              		.align	2
 312              	.L31:
 313 0008 00000000 		.word	CyRamVectors
 314              		.cfi_endproc
 315              	.LFE38:
 316              		.size	ServoISR_GetVector, .-ServoISR_GetVector
 317              		.section	.text.ServoISR_SetPriority,"ax",%progbits
 318              		.align	1
 319              		.global	ServoISR_SetPriority
 320              		.code	16
 321              		.thumb_func
 322              		.type	ServoISR_SetPriority, %function
 323              	ServoISR_SetPriority:
 324              	.LFB39:
 325:.\Generated_Source\PSoC4/ServoISR.c **** {
 325              		.loc 1 325 0
 326              		.cfi_startproc
 327              	.LVL31:
 328 0000 38B5     		push	{r3, r4, r5, lr}
 329              		.cfi_def_cfa_offset 16
 330              		.cfi_offset 3, -16
 331              		.cfi_offset 4, -12
 332              		.cfi_offset 5, -8
 333              		.cfi_offset 14, -4
 325:.\Generated_Source\PSoC4/ServoISR.c **** {
 334              		.loc 1 325 0
 335 0002 041C     		mov	r4, r0
 329:.\Generated_Source\PSoC4/ServoISR.c **** 	interruptState = CyEnterCriticalSection();
 336              		.loc 1 329 0
 337 0004 FFF7FEFF 		bl	CyEnterCriticalSection
 338              	.LVL32:
 330:.\Generated_Source\PSoC4/ServoISR.c ****     *ServoISR_INTC_PRIOR = (*ServoISR_INTC_PRIOR & (uint32)(~ServoISR__INTC_PRIOR_MASK)) |
 339              		.loc 1 330 0
 340 0008 054B     		ldr	r3, .L34
 341 000a 0649     		ldr	r1, .L34+4
 342 000c 1D68     		ldr	r5, [r3]
 331:.\Generated_Source\PSoC4/ServoISR.c ****                                     ((uint32)priority << priorityOffset);
 343              		.loc 1 331 0
 344 000e A203     		lsl	r2, r4, #14
 330:.\Generated_Source\PSoC4/ServoISR.c ****     *ServoISR_INTC_PRIOR = (*ServoISR_INTC_PRIOR & (uint32)(~ServoISR__INTC_PRIOR_MASK)) |
 345              		.loc 1 330 0
 346 0010 2C1C     		mov	r4, r5
 347 0012 0C40     		and	r4, r1
 348 0014 1443     		orr	r4, r2
 349 0016 1C60     		str	r4, [r3]
 332:.\Generated_Source\PSoC4/ServoISR.c **** 	CyExitCriticalSection(interruptState);
 350              		.loc 1 332 0
 351 0018 FFF7FEFF 		bl	CyExitCriticalSection
 352              	.LVL33:
 333:.\Generated_Source\PSoC4/ServoISR.c **** }
 353              		.loc 1 333 0
 354              		@ sp needed
 355 001c 38BD     		pop	{r3, r4, r5, pc}
 356              	.L35:
 357 001e C046     		.align	2
ARM GAS  C:\Users\SNFU\AppData\Local\Temp\cccutw99.s 			page 15


 358              	.L34:
 359 0020 10E400E0 		.word	-536812528
 360 0024 FF3FFFFF 		.word	-49153
 361              		.cfi_endproc
 362              	.LFE39:
 363              		.size	ServoISR_SetPriority, .-ServoISR_SetPriority
 364              		.section	.text.ServoISR_Start,"ax",%progbits
 365              		.align	1
 366              		.global	ServoISR_Start
 367              		.code	16
 368              		.thumb_func
 369              		.type	ServoISR_Start, %function
 370              	ServoISR_Start:
 371              	.LFB33:
  57:.\Generated_Source\PSoC4/ServoISR.c **** {
 372              		.loc 1 57 0
 373              		.cfi_startproc
 374 0000 10B5     		push	{r4, lr}
 375              		.cfi_def_cfa_offset 8
 376              		.cfi_offset 4, -8
 377              		.cfi_offset 14, -4
 378              	.LBB22:
 379              	.LBB23:
 380              		.loc 1 420 0
 381 0002 074B     		ldr	r3, .L37
 382 0004 8024     		mov	r4, #128
 383 0006 A402     		lsl	r4, r4, #10
 384 0008 1C60     		str	r4, [r3]
 385              	.LVL34:
 386              	.LBE23:
 387              	.LBE22:
 388              	.LBB24:
 389              	.LBB25:
 282:.\Generated_Source\PSoC4/ServoISR.c ****     CyRamVectors[CYINT_IRQ_BASE + ServoISR__INTC_NUMBER] = address;
 390              		.loc 1 282 0
 391 000a 064B     		ldr	r3, .L37+4
 392 000c 064A     		ldr	r2, .L37+8
 393 000e 0833     		add	r3, r3, #8
 394              	.LBE25:
 395              	.LBE24:
  65:.\Generated_Source\PSoC4/ServoISR.c ****     ServoISR_SetPriority((uint8)ServoISR_INTC_PRIOR_NUMBER);
 396              		.loc 1 65 0
 397 0010 0320     		mov	r0, #3
 398              	.LBB27:
 399              	.LBB26:
 282:.\Generated_Source\PSoC4/ServoISR.c ****     CyRamVectors[CYINT_IRQ_BASE + ServoISR__INTC_NUMBER] = address;
 400              		.loc 1 282 0
 401 0012 DA67     		str	r2, [r3, #124]
 402              	.LBE26:
 403              	.LBE27:
  65:.\Generated_Source\PSoC4/ServoISR.c ****     ServoISR_SetPriority((uint8)ServoISR_INTC_PRIOR_NUMBER);
 404              		.loc 1 65 0
 405 0014 FFF7FEFF 		bl	ServoISR_SetPriority
 406              	.LVL35:
 407              	.LBB28:
 408              	.LBB29:
 378:.\Generated_Source\PSoC4/ServoISR.c ****     *ServoISR_INTC_SET_EN = ServoISR__INTC_MASK;
ARM GAS  C:\Users\SNFU\AppData\Local\Temp\cccutw99.s 			page 16


 409              		.loc 1 378 0
 410 0018 044B     		ldr	r3, .L37+12
 411              	.LBE29:
 412              	.LBE28:
  69:.\Generated_Source\PSoC4/ServoISR.c **** }
 413              		.loc 1 69 0
 414              		@ sp needed
 415              	.LBB31:
 416              	.LBB30:
 378:.\Generated_Source\PSoC4/ServoISR.c ****     *ServoISR_INTC_SET_EN = ServoISR__INTC_MASK;
 417              		.loc 1 378 0
 418 001a 1C60     		str	r4, [r3]
 419              	.LBE30:
 420              	.LBE31:
  69:.\Generated_Source\PSoC4/ServoISR.c **** }
 421              		.loc 1 69 0
 422 001c 10BD     		pop	{r4, pc}
 423              	.L38:
 424 001e C046     		.align	2
 425              	.L37:
 426 0020 80E100E0 		.word	-536813184
 427 0024 00000000 		.word	CyRamVectors
 428 0028 00000000 		.word	ServoISR_Interrupt
 429 002c 00E100E0 		.word	-536813312
 430              		.cfi_endproc
 431              	.LFE33:
 432              		.size	ServoISR_Start, .-ServoISR_Start
 433              		.section	.text.ServoISR_StartEx,"ax",%progbits
 434              		.align	1
 435              		.global	ServoISR_StartEx
 436              		.code	16
 437              		.thumb_func
 438              		.type	ServoISR_StartEx, %function
 439              	ServoISR_StartEx:
 440              	.LFB34:
  87:.\Generated_Source\PSoC4/ServoISR.c **** {
 441              		.loc 1 87 0
 442              		.cfi_startproc
 443              	.LVL36:
 444 0000 10B5     		push	{r4, lr}
 445              		.cfi_def_cfa_offset 8
 446              		.cfi_offset 4, -8
 447              		.cfi_offset 14, -4
 448              	.LBB32:
 449              	.LBB33:
 450              		.loc 1 420 0
 451 0002 064B     		ldr	r3, .L40
 452 0004 8024     		mov	r4, #128
 453 0006 A402     		lsl	r4, r4, #10
 454 0008 1C60     		str	r4, [r3]
 455              	.LVL37:
 456              	.LBE33:
 457              	.LBE32:
 458              	.LBB34:
 459              	.LBB35:
 282:.\Generated_Source\PSoC4/ServoISR.c ****     CyRamVectors[CYINT_IRQ_BASE + ServoISR__INTC_NUMBER] = address;
 460              		.loc 1 282 0
ARM GAS  C:\Users\SNFU\AppData\Local\Temp\cccutw99.s 			page 17


 461 000a 054B     		ldr	r3, .L40+4
 462              	.LBE35:
 463              	.LBE34:
  99:.\Generated_Source\PSoC4/ServoISR.c **** }
 464              		.loc 1 99 0
 465              		@ sp needed
 466              	.LBB37:
 467              	.LBB36:
 282:.\Generated_Source\PSoC4/ServoISR.c ****     CyRamVectors[CYINT_IRQ_BASE + ServoISR__INTC_NUMBER] = address;
 468              		.loc 1 282 0
 469 000c 0833     		add	r3, r3, #8
 470 000e D867     		str	r0, [r3, #124]
 471              	.LBE36:
 472              	.LBE37:
  95:.\Generated_Source\PSoC4/ServoISR.c ****     ServoISR_SetPriority((uint8)ServoISR_INTC_PRIOR_NUMBER);
 473              		.loc 1 95 0
 474 0010 0320     		mov	r0, #3
 475              	.LVL38:
 476 0012 FFF7FEFF 		bl	ServoISR_SetPriority
 477              	.LVL39:
 478              	.LBB38:
 479              	.LBB39:
 378:.\Generated_Source\PSoC4/ServoISR.c ****     *ServoISR_INTC_SET_EN = ServoISR__INTC_MASK;
 480              		.loc 1 378 0
 481 0016 034B     		ldr	r3, .L40+8
 482 0018 1C60     		str	r4, [r3]
 483              	.LBE39:
 484              	.LBE38:
  99:.\Generated_Source\PSoC4/ServoISR.c **** }
 485              		.loc 1 99 0
 486 001a 10BD     		pop	{r4, pc}
 487              	.L41:
 488              		.align	2
 489              	.L40:
 490 001c 80E100E0 		.word	-536813184
 491 0020 00000000 		.word	CyRamVectors
 492 0024 00E100E0 		.word	-536813312
 493              		.cfi_endproc
 494              	.LFE34:
 495              		.size	ServoISR_StartEx, .-ServoISR_StartEx
 496              		.section	.text.ServoISR_GetPriority,"ax",%progbits
 497              		.align	1
 498              		.global	ServoISR_GetPriority
 499              		.code	16
 500              		.thumb_func
 501              		.type	ServoISR_GetPriority, %function
 502              	ServoISR_GetPriority:
 503              	.LFB40:
 351:.\Generated_Source\PSoC4/ServoISR.c **** {
 504              		.loc 1 351 0
 505              		.cfi_startproc
 506              	.LVL40:
 355:.\Generated_Source\PSoC4/ServoISR.c ****     priority = (*ServoISR_INTC_PRIOR & ServoISR__INTC_PRIOR_MASK) >> priorityOffset;
 507              		.loc 1 355 0
 508 0000 024B     		ldr	r3, .L43
 358:.\Generated_Source\PSoC4/ServoISR.c **** }
 509              		.loc 1 358 0
ARM GAS  C:\Users\SNFU\AppData\Local\Temp\cccutw99.s 			page 18


 510              		@ sp needed
 355:.\Generated_Source\PSoC4/ServoISR.c ****     priority = (*ServoISR_INTC_PRIOR & ServoISR__INTC_PRIOR_MASK) >> priorityOffset;
 511              		.loc 1 355 0
 512 0002 1868     		ldr	r0, [r3]
 513              	.LVL41:
 514 0004 0004     		lsl	r0, r0, #16
 515              	.LVL42:
 357:.\Generated_Source\PSoC4/ServoISR.c ****     return (uint8)priority;
 516              		.loc 1 357 0
 517 0006 800F     		lsr	r0, r0, #30
 358:.\Generated_Source\PSoC4/ServoISR.c **** }
 518              		.loc 1 358 0
 519 0008 7047     		bx	lr
 520              	.L44:
 521 000a C046     		.align	2
 522              	.L43:
 523 000c 10E400E0 		.word	-536812528
 524              		.cfi_endproc
 525              	.LFE40:
 526              		.size	ServoISR_GetPriority, .-ServoISR_GetPriority
 527              		.section	.text.ServoISR_Enable,"ax",%progbits
 528              		.align	1
 529              		.global	ServoISR_Enable
 530              		.code	16
 531              		.thumb_func
 532              		.type	ServoISR_Enable, %function
 533              	ServoISR_Enable:
 534              	.LFB41:
 376:.\Generated_Source\PSoC4/ServoISR.c **** {
 535              		.loc 1 376 0
 536              		.cfi_startproc
 378:.\Generated_Source\PSoC4/ServoISR.c ****     *ServoISR_INTC_SET_EN = ServoISR__INTC_MASK;
 537              		.loc 1 378 0
 538 0000 024B     		ldr	r3, .L46
 539 0002 8022     		mov	r2, #128
 540 0004 9202     		lsl	r2, r2, #10
 541 0006 1A60     		str	r2, [r3]
 379:.\Generated_Source\PSoC4/ServoISR.c **** }
 542              		.loc 1 379 0
 543              		@ sp needed
 544 0008 7047     		bx	lr
 545              	.L47:
 546 000a C046     		.align	2
 547              	.L46:
 548 000c 00E100E0 		.word	-536813312
 549              		.cfi_endproc
 550              	.LFE41:
 551              		.size	ServoISR_Enable, .-ServoISR_Enable
 552              		.section	.text.ServoISR_GetState,"ax",%progbits
 553              		.align	1
 554              		.global	ServoISR_GetState
 555              		.code	16
 556              		.thumb_func
 557              		.type	ServoISR_GetState, %function
 558              	ServoISR_GetState:
 559              	.LFB42:
 397:.\Generated_Source\PSoC4/ServoISR.c **** {
ARM GAS  C:\Users\SNFU\AppData\Local\Temp\cccutw99.s 			page 19


 560              		.loc 1 397 0
 561              		.cfi_startproc
 399:.\Generated_Source\PSoC4/ServoISR.c ****     return ((*ServoISR_INTC_SET_EN & (uint32)ServoISR__INTC_MASK) != 0u) ? 1u:0u;
 562              		.loc 1 399 0
 563 0000 024B     		ldr	r3, .L49
 400:.\Generated_Source\PSoC4/ServoISR.c **** }
 564              		.loc 1 400 0
 565              		@ sp needed
 399:.\Generated_Source\PSoC4/ServoISR.c ****     return ((*ServoISR_INTC_SET_EN & (uint32)ServoISR__INTC_MASK) != 0u) ? 1u:0u;
 566              		.loc 1 399 0
 567 0002 1868     		ldr	r0, [r3]
 568 0004 8003     		lsl	r0, r0, #14
 569 0006 C00F     		lsr	r0, r0, #31
 400:.\Generated_Source\PSoC4/ServoISR.c **** }
 570              		.loc 1 400 0
 571 0008 7047     		bx	lr
 572              	.L50:
 573 000a C046     		.align	2
 574              	.L49:
 575 000c 00E100E0 		.word	-536813312
 576              		.cfi_endproc
 577              	.LFE42:
 578              		.size	ServoISR_GetState, .-ServoISR_GetState
 579              		.section	.text.ServoISR_Disable,"ax",%progbits
 580              		.align	1
 581              		.global	ServoISR_Disable
 582              		.code	16
 583              		.thumb_func
 584              		.type	ServoISR_Disable, %function
 585              	ServoISR_Disable:
 586              	.LFB43:
 418:.\Generated_Source\PSoC4/ServoISR.c **** {
 587              		.loc 1 418 0
 588              		.cfi_startproc
 589              		.loc 1 420 0
 590 0000 024B     		ldr	r3, .L52
 591 0002 8022     		mov	r2, #128
 592 0004 9202     		lsl	r2, r2, #10
 593 0006 1A60     		str	r2, [r3]
 421:.\Generated_Source\PSoC4/ServoISR.c **** }
 594              		.loc 1 421 0
 595              		@ sp needed
 596 0008 7047     		bx	lr
 597              	.L53:
 598 000a C046     		.align	2
 599              	.L52:
 600 000c 80E100E0 		.word	-536813184
 601              		.cfi_endproc
 602              	.LFE43:
 603              		.size	ServoISR_Disable, .-ServoISR_Disable
 604              		.section	.text.ServoISR_SetPending,"ax",%progbits
 605              		.align	1
 606              		.global	ServoISR_SetPending
 607              		.code	16
 608              		.thumb_func
 609              		.type	ServoISR_SetPending, %function
 610              	ServoISR_SetPending:
ARM GAS  C:\Users\SNFU\AppData\Local\Temp\cccutw99.s 			page 20


 611              	.LFB44:
 422:.\Generated_Source\PSoC4/ServoISR.c **** 
 423:.\Generated_Source\PSoC4/ServoISR.c **** 
 424:.\Generated_Source\PSoC4/ServoISR.c **** /*******************************************************************************
 425:.\Generated_Source\PSoC4/ServoISR.c **** * Function Name: ServoISR_SetPending
 426:.\Generated_Source\PSoC4/ServoISR.c **** ********************************************************************************
 427:.\Generated_Source\PSoC4/ServoISR.c **** *
 428:.\Generated_Source\PSoC4/ServoISR.c **** * Summary:
 429:.\Generated_Source\PSoC4/ServoISR.c **** *   Causes the Interrupt to enter the pending state, a software method of
 430:.\Generated_Source\PSoC4/ServoISR.c **** *   generating the interrupt.
 431:.\Generated_Source\PSoC4/ServoISR.c **** *
 432:.\Generated_Source\PSoC4/ServoISR.c **** * Parameters:
 433:.\Generated_Source\PSoC4/ServoISR.c **** *   None
 434:.\Generated_Source\PSoC4/ServoISR.c **** *
 435:.\Generated_Source\PSoC4/ServoISR.c **** * Return:
 436:.\Generated_Source\PSoC4/ServoISR.c **** *   None
 437:.\Generated_Source\PSoC4/ServoISR.c **** *
 438:.\Generated_Source\PSoC4/ServoISR.c **** *******************************************************************************/
 439:.\Generated_Source\PSoC4/ServoISR.c **** void ServoISR_SetPending(void)
 440:.\Generated_Source\PSoC4/ServoISR.c **** {
 612              		.loc 1 440 0
 613              		.cfi_startproc
 441:.\Generated_Source\PSoC4/ServoISR.c ****     *ServoISR_INTC_SET_PD = ServoISR__INTC_MASK;
 614              		.loc 1 441 0
 615 0000 024B     		ldr	r3, .L55
 616 0002 8022     		mov	r2, #128
 617 0004 9202     		lsl	r2, r2, #10
 618 0006 1A60     		str	r2, [r3]
 442:.\Generated_Source\PSoC4/ServoISR.c **** }
 619              		.loc 1 442 0
 620              		@ sp needed
 621 0008 7047     		bx	lr
 622              	.L56:
 623 000a C046     		.align	2
 624              	.L55:
 625 000c 00E200E0 		.word	-536813056
 626              		.cfi_endproc
 627              	.LFE44:
 628              		.size	ServoISR_SetPending, .-ServoISR_SetPending
 629              		.section	.text.ServoISR_ClearPending,"ax",%progbits
 630              		.align	1
 631              		.global	ServoISR_ClearPending
 632              		.code	16
 633              		.thumb_func
 634              		.type	ServoISR_ClearPending, %function
 635              	ServoISR_ClearPending:
 636              	.LFB45:
 443:.\Generated_Source\PSoC4/ServoISR.c **** 
 444:.\Generated_Source\PSoC4/ServoISR.c **** 
 445:.\Generated_Source\PSoC4/ServoISR.c **** /*******************************************************************************
 446:.\Generated_Source\PSoC4/ServoISR.c **** * Function Name: ServoISR_ClearPending
 447:.\Generated_Source\PSoC4/ServoISR.c **** ********************************************************************************
 448:.\Generated_Source\PSoC4/ServoISR.c **** *
 449:.\Generated_Source\PSoC4/ServoISR.c **** * Summary:
 450:.\Generated_Source\PSoC4/ServoISR.c **** *   Clears a pending interrupt.
 451:.\Generated_Source\PSoC4/ServoISR.c **** *
 452:.\Generated_Source\PSoC4/ServoISR.c **** * Parameters:
ARM GAS  C:\Users\SNFU\AppData\Local\Temp\cccutw99.s 			page 21


 453:.\Generated_Source\PSoC4/ServoISR.c **** *   None
 454:.\Generated_Source\PSoC4/ServoISR.c **** *
 455:.\Generated_Source\PSoC4/ServoISR.c **** * Return:
 456:.\Generated_Source\PSoC4/ServoISR.c **** *   None
 457:.\Generated_Source\PSoC4/ServoISR.c **** *
 458:.\Generated_Source\PSoC4/ServoISR.c **** *******************************************************************************/
 459:.\Generated_Source\PSoC4/ServoISR.c **** void ServoISR_ClearPending(void)
 460:.\Generated_Source\PSoC4/ServoISR.c **** {
 637              		.loc 1 460 0
 638              		.cfi_startproc
 461:.\Generated_Source\PSoC4/ServoISR.c ****     *ServoISR_INTC_CLR_PD = ServoISR__INTC_MASK;
 639              		.loc 1 461 0
 640 0000 024B     		ldr	r3, .L58
 641 0002 8022     		mov	r2, #128
 642 0004 9202     		lsl	r2, r2, #10
 643 0006 1A60     		str	r2, [r3]
 462:.\Generated_Source\PSoC4/ServoISR.c **** }
 644              		.loc 1 462 0
 645              		@ sp needed
 646 0008 7047     		bx	lr
 647              	.L59:
 648 000a C046     		.align	2
 649              	.L58:
 650 000c 80E200E0 		.word	-536812928
 651              		.cfi_endproc
 652              	.LFE45:
 653              		.size	ServoISR_ClearPending, .-ServoISR_ClearPending
 654              		.global	PWM_channel
 655              		.bss
 656              		.set	.LANCHOR0,. + 0
 657              		.type	PWM_channel, %object
 658              		.size	PWM_channel, 1
 659              	PWM_channel:
 660 0000 00       		.space	1
 661              		.text
 662              	.Letext0:
 663              		.file 2 "c:\\program files\\cypress\\psoc creator\\3.1\\psoc creator\\import\\gnu_cs\\arm\\4.8.4\\
 664              		.file 3 "c:\\program files\\cypress\\psoc creator\\3.1\\psoc creator\\import\\gnu_cs\\arm\\4.8.4\\
 665              		.file 4 ".\\Generated_Source\\PSoC4/cytypes.h"
 666              		.file 5 ".\\Generated_Source\\PSoC4/ServoTimer.h"
 667              		.file 6 ".\\Generated_Source\\PSoC4/Out_Sp2_Pin.h"
 668              		.file 7 ".\\Generated_Source\\PSoC4/Out_Mot_Pin.h"
 669              		.file 8 ".\\Generated_Source\\PSoC4/Out_Ail1_Pin.h"
 670              		.file 9 ".\\Generated_Source\\PSoC4/Out_Ail2_Pin.h"
 671              		.file 10 ".\\Generated_Source\\PSoC4/Out_Ele1_Pin.h"
 672              		.file 11 ".\\Generated_Source\\PSoC4/Out_Ele2_Pin.h"
 673              		.file 12 ".\\Generated_Source\\PSoC4/Out_Rud_Pin.h"
 674              		.file 13 ".\\Generated_Source\\PSoC4/Out_Fl1_Pin.h"
 675              		.file 14 ".\\Generated_Source\\PSoC4/Out_Fl2_Pin.h"
 676              		.file 15 ".\\Generated_Source\\PSoC4/Out_Ge1_Pin.h"
 677              		.file 16 ".\\Generated_Source\\PSoC4/Out_Ge2_Pin.h"
 678              		.file 17 ".\\Generated_Source\\PSoC4/Out_Ge3_Pin.h"
 679              		.file 18 ".\\Generated_Source\\PSoC4/Out_Sp1_Pin.h"
 680              		.file 19 ".\\Generated_Source\\PSoC4/CyLib.h"