ARM GAS  C:\Users\SNFU\AppData\Local\Temp\ccmvDrs1.s 			page 1


   1              		.cpu cortex-m0
   2              		.fpu softvfp
   3              		.eabi_attribute 20, 1
   4              		.eabi_attribute 21, 1
   5              		.eabi_attribute 23, 3
   6              		.eabi_attribute 24, 1
   7              		.eabi_attribute 25, 1
   8              		.eabi_attribute 26, 1
   9              		.eabi_attribute 30, 4
  10              		.eabi_attribute 34, 0
  11              		.eabi_attribute 18, 4
  12              		.code	16
  13              		.file	"TaskISR.c"
  14              		.text
  15              	.Ltext0:
  16              		.cfi_sections	.debug_frame
  17              		.section	.text.TaskISR_Interrupt,"ax",%progbits
  18              		.align	1
  19              		.global	TaskISR_Interrupt
  20              		.code	16
  21              		.thumb_func
  22              		.type	TaskISR_Interrupt, %function
  23              	TaskISR_Interrupt:
  24              	.LFB36:
  25              		.file 1 ".\\Generated_Source\\PSoC4\\TaskISR.c"
   1:.\Generated_Source\PSoC4/TaskISR.c **** /*******************************************************************************
   2:.\Generated_Source\PSoC4/TaskISR.c **** * File Name: TaskISR.c  
   3:.\Generated_Source\PSoC4/TaskISR.c **** * Version 1.70
   4:.\Generated_Source\PSoC4/TaskISR.c **** *
   5:.\Generated_Source\PSoC4/TaskISR.c **** *  Description:
   6:.\Generated_Source\PSoC4/TaskISR.c **** *   API for controlling the state of an interrupt.
   7:.\Generated_Source\PSoC4/TaskISR.c **** *
   8:.\Generated_Source\PSoC4/TaskISR.c **** *
   9:.\Generated_Source\PSoC4/TaskISR.c **** *  Note:
  10:.\Generated_Source\PSoC4/TaskISR.c **** *
  11:.\Generated_Source\PSoC4/TaskISR.c **** ********************************************************************************
  12:.\Generated_Source\PSoC4/TaskISR.c **** * Copyright 2008-2012, Cypress Semiconductor Corporation.  All rights reserved.
  13:.\Generated_Source\PSoC4/TaskISR.c **** * You may use this file only in accordance with the license, terms, conditions, 
  14:.\Generated_Source\PSoC4/TaskISR.c **** * disclaimers, and limitations in the end user license agreement accompanying 
  15:.\Generated_Source\PSoC4/TaskISR.c **** * the software package with which this file was provided.
  16:.\Generated_Source\PSoC4/TaskISR.c **** *******************************************************************************/
  17:.\Generated_Source\PSoC4/TaskISR.c **** 
  18:.\Generated_Source\PSoC4/TaskISR.c **** 
  19:.\Generated_Source\PSoC4/TaskISR.c **** #include <cydevice_trm.h>
  20:.\Generated_Source\PSoC4/TaskISR.c **** #include <CyLib.h>
  21:.\Generated_Source\PSoC4/TaskISR.c **** #include <TaskISR.h>
  22:.\Generated_Source\PSoC4/TaskISR.c **** 
  23:.\Generated_Source\PSoC4/TaskISR.c **** #if !defined(TaskISR__REMOVED) /* Check for removal by optimization */
  24:.\Generated_Source\PSoC4/TaskISR.c **** 
  25:.\Generated_Source\PSoC4/TaskISR.c **** /*******************************************************************************
  26:.\Generated_Source\PSoC4/TaskISR.c **** *  Place your includes, defines and code here 
  27:.\Generated_Source\PSoC4/TaskISR.c **** ********************************************************************************/
  28:.\Generated_Source\PSoC4/TaskISR.c **** /* `#START TaskISR_intc` */
  29:.\Generated_Source\PSoC4/TaskISR.c **** 
  30:.\Generated_Source\PSoC4/TaskISR.c ****     #include <project.h>
  31:.\Generated_Source\PSoC4/TaskISR.c ****     extern uint8_t task_flag;
  32:.\Generated_Source\PSoC4/TaskISR.c **** /* `#END` */
ARM GAS  C:\Users\SNFU\AppData\Local\Temp\ccmvDrs1.s 			page 2


  33:.\Generated_Source\PSoC4/TaskISR.c **** 
  34:.\Generated_Source\PSoC4/TaskISR.c **** extern cyisraddress CyRamVectors[CYINT_IRQ_BASE + CY_NUM_INTERRUPTS];
  35:.\Generated_Source\PSoC4/TaskISR.c **** 
  36:.\Generated_Source\PSoC4/TaskISR.c **** /* Declared in startup, used to set unused interrupts to. */
  37:.\Generated_Source\PSoC4/TaskISR.c **** CY_ISR_PROTO(IntDefaultHandler);
  38:.\Generated_Source\PSoC4/TaskISR.c **** 
  39:.\Generated_Source\PSoC4/TaskISR.c **** 
  40:.\Generated_Source\PSoC4/TaskISR.c **** /*******************************************************************************
  41:.\Generated_Source\PSoC4/TaskISR.c **** * Function Name: TaskISR_Start
  42:.\Generated_Source\PSoC4/TaskISR.c **** ********************************************************************************
  43:.\Generated_Source\PSoC4/TaskISR.c **** *
  44:.\Generated_Source\PSoC4/TaskISR.c **** * Summary:
  45:.\Generated_Source\PSoC4/TaskISR.c **** *  Set up the interrupt and enable it.
  46:.\Generated_Source\PSoC4/TaskISR.c **** *
  47:.\Generated_Source\PSoC4/TaskISR.c **** * Parameters:  
  48:.\Generated_Source\PSoC4/TaskISR.c **** *   None
  49:.\Generated_Source\PSoC4/TaskISR.c **** *
  50:.\Generated_Source\PSoC4/TaskISR.c **** * Return:
  51:.\Generated_Source\PSoC4/TaskISR.c **** *   None
  52:.\Generated_Source\PSoC4/TaskISR.c **** *
  53:.\Generated_Source\PSoC4/TaskISR.c **** *******************************************************************************/
  54:.\Generated_Source\PSoC4/TaskISR.c **** void TaskISR_Start(void)
  55:.\Generated_Source\PSoC4/TaskISR.c **** {
  56:.\Generated_Source\PSoC4/TaskISR.c ****     /* For all we know the interrupt is active. */
  57:.\Generated_Source\PSoC4/TaskISR.c ****     TaskISR_Disable();
  58:.\Generated_Source\PSoC4/TaskISR.c **** 
  59:.\Generated_Source\PSoC4/TaskISR.c ****     /* Set the ISR to point to the TaskISR Interrupt. */
  60:.\Generated_Source\PSoC4/TaskISR.c ****     TaskISR_SetVector(&TaskISR_Interrupt);
  61:.\Generated_Source\PSoC4/TaskISR.c **** 
  62:.\Generated_Source\PSoC4/TaskISR.c ****     /* Set the priority. */
  63:.\Generated_Source\PSoC4/TaskISR.c ****     TaskISR_SetPriority((uint8)TaskISR_INTC_PRIOR_NUMBER);
  64:.\Generated_Source\PSoC4/TaskISR.c **** 
  65:.\Generated_Source\PSoC4/TaskISR.c ****     /* Enable it. */
  66:.\Generated_Source\PSoC4/TaskISR.c ****     TaskISR_Enable();
  67:.\Generated_Source\PSoC4/TaskISR.c **** }
  68:.\Generated_Source\PSoC4/TaskISR.c **** 
  69:.\Generated_Source\PSoC4/TaskISR.c **** 
  70:.\Generated_Source\PSoC4/TaskISR.c **** /*******************************************************************************
  71:.\Generated_Source\PSoC4/TaskISR.c **** * Function Name: TaskISR_StartEx
  72:.\Generated_Source\PSoC4/TaskISR.c **** ********************************************************************************
  73:.\Generated_Source\PSoC4/TaskISR.c **** *
  74:.\Generated_Source\PSoC4/TaskISR.c **** * Summary:
  75:.\Generated_Source\PSoC4/TaskISR.c **** *  Set up the interrupt and enable it.
  76:.\Generated_Source\PSoC4/TaskISR.c **** *
  77:.\Generated_Source\PSoC4/TaskISR.c **** * Parameters:  
  78:.\Generated_Source\PSoC4/TaskISR.c **** *   address: Address of the ISR to set in the interrupt vector table.
  79:.\Generated_Source\PSoC4/TaskISR.c **** *
  80:.\Generated_Source\PSoC4/TaskISR.c **** * Return:
  81:.\Generated_Source\PSoC4/TaskISR.c **** *   None
  82:.\Generated_Source\PSoC4/TaskISR.c **** *
  83:.\Generated_Source\PSoC4/TaskISR.c **** *******************************************************************************/
  84:.\Generated_Source\PSoC4/TaskISR.c **** void TaskISR_StartEx(cyisraddress address)
  85:.\Generated_Source\PSoC4/TaskISR.c **** {
  86:.\Generated_Source\PSoC4/TaskISR.c ****     /* For all we know the interrupt is active. */
  87:.\Generated_Source\PSoC4/TaskISR.c ****     TaskISR_Disable();
  88:.\Generated_Source\PSoC4/TaskISR.c **** 
  89:.\Generated_Source\PSoC4/TaskISR.c ****     /* Set the ISR to point to the TaskISR Interrupt. */
ARM GAS  C:\Users\SNFU\AppData\Local\Temp\ccmvDrs1.s 			page 3


  90:.\Generated_Source\PSoC4/TaskISR.c ****     TaskISR_SetVector(address);
  91:.\Generated_Source\PSoC4/TaskISR.c **** 
  92:.\Generated_Source\PSoC4/TaskISR.c ****     /* Set the priority. */
  93:.\Generated_Source\PSoC4/TaskISR.c ****     TaskISR_SetPriority((uint8)TaskISR_INTC_PRIOR_NUMBER);
  94:.\Generated_Source\PSoC4/TaskISR.c **** 
  95:.\Generated_Source\PSoC4/TaskISR.c ****     /* Enable it. */
  96:.\Generated_Source\PSoC4/TaskISR.c ****     TaskISR_Enable();
  97:.\Generated_Source\PSoC4/TaskISR.c **** }
  98:.\Generated_Source\PSoC4/TaskISR.c **** 
  99:.\Generated_Source\PSoC4/TaskISR.c **** 
 100:.\Generated_Source\PSoC4/TaskISR.c **** /*******************************************************************************
 101:.\Generated_Source\PSoC4/TaskISR.c **** * Function Name: TaskISR_Stop
 102:.\Generated_Source\PSoC4/TaskISR.c **** ********************************************************************************
 103:.\Generated_Source\PSoC4/TaskISR.c **** *
 104:.\Generated_Source\PSoC4/TaskISR.c **** * Summary:
 105:.\Generated_Source\PSoC4/TaskISR.c **** *   Disables and removes the interrupt.
 106:.\Generated_Source\PSoC4/TaskISR.c **** *
 107:.\Generated_Source\PSoC4/TaskISR.c **** * Parameters:  
 108:.\Generated_Source\PSoC4/TaskISR.c **** *
 109:.\Generated_Source\PSoC4/TaskISR.c **** * Return:
 110:.\Generated_Source\PSoC4/TaskISR.c **** *   None
 111:.\Generated_Source\PSoC4/TaskISR.c **** *
 112:.\Generated_Source\PSoC4/TaskISR.c **** *******************************************************************************/
 113:.\Generated_Source\PSoC4/TaskISR.c **** void TaskISR_Stop(void)
 114:.\Generated_Source\PSoC4/TaskISR.c **** {
 115:.\Generated_Source\PSoC4/TaskISR.c ****     /* Disable this interrupt. */
 116:.\Generated_Source\PSoC4/TaskISR.c ****     TaskISR_Disable();
 117:.\Generated_Source\PSoC4/TaskISR.c **** 
 118:.\Generated_Source\PSoC4/TaskISR.c ****     /* Set the ISR to point to the passive one. */
 119:.\Generated_Source\PSoC4/TaskISR.c ****     TaskISR_SetVector(&IntDefaultHandler);
 120:.\Generated_Source\PSoC4/TaskISR.c **** }
 121:.\Generated_Source\PSoC4/TaskISR.c **** 
 122:.\Generated_Source\PSoC4/TaskISR.c **** 
 123:.\Generated_Source\PSoC4/TaskISR.c **** /*******************************************************************************
 124:.\Generated_Source\PSoC4/TaskISR.c **** * Function Name: TaskISR_Interrupt
 125:.\Generated_Source\PSoC4/TaskISR.c **** ********************************************************************************
 126:.\Generated_Source\PSoC4/TaskISR.c **** *
 127:.\Generated_Source\PSoC4/TaskISR.c **** * Summary:
 128:.\Generated_Source\PSoC4/TaskISR.c **** *   The default Interrupt Service Routine for TaskISR.
 129:.\Generated_Source\PSoC4/TaskISR.c **** *
 130:.\Generated_Source\PSoC4/TaskISR.c **** *   Add custom code between the coments to keep the next version of this file
 131:.\Generated_Source\PSoC4/TaskISR.c **** *   from over writting your code.
 132:.\Generated_Source\PSoC4/TaskISR.c **** *
 133:.\Generated_Source\PSoC4/TaskISR.c **** * Parameters:  
 134:.\Generated_Source\PSoC4/TaskISR.c **** *   None
 135:.\Generated_Source\PSoC4/TaskISR.c **** *
 136:.\Generated_Source\PSoC4/TaskISR.c **** * Return:
 137:.\Generated_Source\PSoC4/TaskISR.c **** *   None
 138:.\Generated_Source\PSoC4/TaskISR.c **** *
 139:.\Generated_Source\PSoC4/TaskISR.c **** *******************************************************************************/
 140:.\Generated_Source\PSoC4/TaskISR.c **** CY_ISR(TaskISR_Interrupt)
 141:.\Generated_Source\PSoC4/TaskISR.c **** {
  26              		.loc 1 141 0
  27              		.cfi_startproc
  28 0000 08B5     		push	{r3, lr}
  29              		.cfi_def_cfa_offset 8
  30              		.cfi_offset 3, -8
ARM GAS  C:\Users\SNFU\AppData\Local\Temp\ccmvDrs1.s 			page 4


  31              		.cfi_offset 14, -4
 142:.\Generated_Source\PSoC4/TaskISR.c ****     /*  Place your Interrupt code here. */
 143:.\Generated_Source\PSoC4/TaskISR.c ****     /* `#START TaskISR_Interrupt` */
 144:.\Generated_Source\PSoC4/TaskISR.c ****     TaskTimer_ClearInterrupt(TaskTimer__INTR_MASK_TC);
  32              		.loc 1 144 0
  33 0002 0120     		mov	r0, #1
  34 0004 FFF7FEFF 		bl	TaskTimer_ClearInterrupt
  35              	.LVL0:
 145:.\Generated_Source\PSoC4/TaskISR.c ****     task_flag = 1;
  36              		.loc 1 145 0
  37 0008 014B     		ldr	r3, .L2
  38 000a 0122     		mov	r2, #1
  39 000c 1A70     		strb	r2, [r3]
 146:.\Generated_Source\PSoC4/TaskISR.c ****     /* `#END` */
 147:.\Generated_Source\PSoC4/TaskISR.c **** }
  40              		.loc 1 147 0
  41              		@ sp needed
  42 000e 08BD     		pop	{r3, pc}
  43              	.L3:
  44              		.align	2
  45              	.L2:
  46 0010 00000000 		.word	task_flag
  47              		.cfi_endproc
  48              	.LFE36:
  49              		.size	TaskISR_Interrupt, .-TaskISR_Interrupt
  50              		.section	.text.TaskISR_Stop,"ax",%progbits
  51              		.align	1
  52              		.global	TaskISR_Stop
  53              		.code	16
  54              		.thumb_func
  55              		.type	TaskISR_Stop, %function
  56              	TaskISR_Stop:
  57              	.LFB35:
 114:.\Generated_Source\PSoC4/TaskISR.c **** {
  58              		.loc 1 114 0
  59              		.cfi_startproc
  60              	.LBB18:
  61              	.LBB19:
 148:.\Generated_Source\PSoC4/TaskISR.c **** 
 149:.\Generated_Source\PSoC4/TaskISR.c **** 
 150:.\Generated_Source\PSoC4/TaskISR.c **** /*******************************************************************************
 151:.\Generated_Source\PSoC4/TaskISR.c **** * Function Name: TaskISR_SetVector
 152:.\Generated_Source\PSoC4/TaskISR.c **** ********************************************************************************
 153:.\Generated_Source\PSoC4/TaskISR.c **** *
 154:.\Generated_Source\PSoC4/TaskISR.c **** * Summary:
 155:.\Generated_Source\PSoC4/TaskISR.c **** *   Change the ISR vector for the Interrupt. Note calling TaskISR_Start
 156:.\Generated_Source\PSoC4/TaskISR.c **** *   will override any effect this method would have had. To set the vector 
 157:.\Generated_Source\PSoC4/TaskISR.c **** *   before the component has been started use TaskISR_StartEx instead.
 158:.\Generated_Source\PSoC4/TaskISR.c **** *
 159:.\Generated_Source\PSoC4/TaskISR.c **** * Parameters:
 160:.\Generated_Source\PSoC4/TaskISR.c **** *   address: Address of the ISR to set in the interrupt vector table.
 161:.\Generated_Source\PSoC4/TaskISR.c **** *
 162:.\Generated_Source\PSoC4/TaskISR.c **** * Return:
 163:.\Generated_Source\PSoC4/TaskISR.c **** *   None
 164:.\Generated_Source\PSoC4/TaskISR.c **** *
 165:.\Generated_Source\PSoC4/TaskISR.c **** *******************************************************************************/
 166:.\Generated_Source\PSoC4/TaskISR.c **** void TaskISR_SetVector(cyisraddress address)
ARM GAS  C:\Users\SNFU\AppData\Local\Temp\ccmvDrs1.s 			page 5


 167:.\Generated_Source\PSoC4/TaskISR.c **** {
 168:.\Generated_Source\PSoC4/TaskISR.c ****     CyRamVectors[CYINT_IRQ_BASE + TaskISR__INTC_NUMBER] = address;
 169:.\Generated_Source\PSoC4/TaskISR.c **** }
 170:.\Generated_Source\PSoC4/TaskISR.c **** 
 171:.\Generated_Source\PSoC4/TaskISR.c **** 
 172:.\Generated_Source\PSoC4/TaskISR.c **** /*******************************************************************************
 173:.\Generated_Source\PSoC4/TaskISR.c **** * Function Name: TaskISR_GetVector
 174:.\Generated_Source\PSoC4/TaskISR.c **** ********************************************************************************
 175:.\Generated_Source\PSoC4/TaskISR.c **** *
 176:.\Generated_Source\PSoC4/TaskISR.c **** * Summary:
 177:.\Generated_Source\PSoC4/TaskISR.c **** *   Gets the "address" of the current ISR vector for the Interrupt.
 178:.\Generated_Source\PSoC4/TaskISR.c **** *
 179:.\Generated_Source\PSoC4/TaskISR.c **** * Parameters:
 180:.\Generated_Source\PSoC4/TaskISR.c **** *   None
 181:.\Generated_Source\PSoC4/TaskISR.c **** *
 182:.\Generated_Source\PSoC4/TaskISR.c **** * Return:
 183:.\Generated_Source\PSoC4/TaskISR.c **** *   Address of the ISR in the interrupt vector table.
 184:.\Generated_Source\PSoC4/TaskISR.c **** *
 185:.\Generated_Source\PSoC4/TaskISR.c **** *******************************************************************************/
 186:.\Generated_Source\PSoC4/TaskISR.c **** cyisraddress TaskISR_GetVector(void)
 187:.\Generated_Source\PSoC4/TaskISR.c **** {
 188:.\Generated_Source\PSoC4/TaskISR.c ****     return CyRamVectors[CYINT_IRQ_BASE + TaskISR__INTC_NUMBER];
 189:.\Generated_Source\PSoC4/TaskISR.c **** }
 190:.\Generated_Source\PSoC4/TaskISR.c **** 
 191:.\Generated_Source\PSoC4/TaskISR.c **** 
 192:.\Generated_Source\PSoC4/TaskISR.c **** /*******************************************************************************
 193:.\Generated_Source\PSoC4/TaskISR.c **** * Function Name: TaskISR_SetPriority
 194:.\Generated_Source\PSoC4/TaskISR.c **** ********************************************************************************
 195:.\Generated_Source\PSoC4/TaskISR.c **** *
 196:.\Generated_Source\PSoC4/TaskISR.c **** * Summary:
 197:.\Generated_Source\PSoC4/TaskISR.c **** *   Sets the Priority of the Interrupt. Note calling TaskISR_Start
 198:.\Generated_Source\PSoC4/TaskISR.c **** *   or TaskISR_StartEx will override any effect this method would 
 199:.\Generated_Source\PSoC4/TaskISR.c **** *   have had. This method should only be called after TaskISR_Start or 
 200:.\Generated_Source\PSoC4/TaskISR.c **** *   TaskISR_StartEx has been called. To set the initial
 201:.\Generated_Source\PSoC4/TaskISR.c **** *   priority for the component use the cydwr file in the tool.
 202:.\Generated_Source\PSoC4/TaskISR.c **** *
 203:.\Generated_Source\PSoC4/TaskISR.c **** * Parameters:
 204:.\Generated_Source\PSoC4/TaskISR.c **** *   priority: Priority of the interrupt. 0 - 3, 0 being the highest.
 205:.\Generated_Source\PSoC4/TaskISR.c **** *
 206:.\Generated_Source\PSoC4/TaskISR.c **** * Return:
 207:.\Generated_Source\PSoC4/TaskISR.c **** *   None
 208:.\Generated_Source\PSoC4/TaskISR.c **** *
 209:.\Generated_Source\PSoC4/TaskISR.c **** *******************************************************************************/
 210:.\Generated_Source\PSoC4/TaskISR.c **** void TaskISR_SetPriority(uint8 priority)
 211:.\Generated_Source\PSoC4/TaskISR.c **** {
 212:.\Generated_Source\PSoC4/TaskISR.c **** 	uint8 interruptState;
 213:.\Generated_Source\PSoC4/TaskISR.c ****     uint32 priorityOffset = ((TaskISR__INTC_NUMBER % 4u) * 8u) + 6u;
 214:.\Generated_Source\PSoC4/TaskISR.c ****     
 215:.\Generated_Source\PSoC4/TaskISR.c **** 	interruptState = CyEnterCriticalSection();
 216:.\Generated_Source\PSoC4/TaskISR.c ****     *TaskISR_INTC_PRIOR = (*TaskISR_INTC_PRIOR & (uint32)(~TaskISR__INTC_PRIOR_MASK)) |
 217:.\Generated_Source\PSoC4/TaskISR.c ****                                     ((uint32)priority << priorityOffset);
 218:.\Generated_Source\PSoC4/TaskISR.c **** 	CyExitCriticalSection(interruptState);
 219:.\Generated_Source\PSoC4/TaskISR.c **** }
 220:.\Generated_Source\PSoC4/TaskISR.c **** 
 221:.\Generated_Source\PSoC4/TaskISR.c **** 
 222:.\Generated_Source\PSoC4/TaskISR.c **** /*******************************************************************************
 223:.\Generated_Source\PSoC4/TaskISR.c **** * Function Name: TaskISR_GetPriority
ARM GAS  C:\Users\SNFU\AppData\Local\Temp\ccmvDrs1.s 			page 6


 224:.\Generated_Source\PSoC4/TaskISR.c **** ********************************************************************************
 225:.\Generated_Source\PSoC4/TaskISR.c **** *
 226:.\Generated_Source\PSoC4/TaskISR.c **** * Summary:
 227:.\Generated_Source\PSoC4/TaskISR.c **** *   Gets the Priority of the Interrupt.
 228:.\Generated_Source\PSoC4/TaskISR.c **** *
 229:.\Generated_Source\PSoC4/TaskISR.c **** * Parameters:
 230:.\Generated_Source\PSoC4/TaskISR.c **** *   None
 231:.\Generated_Source\PSoC4/TaskISR.c **** *
 232:.\Generated_Source\PSoC4/TaskISR.c **** * Return:
 233:.\Generated_Source\PSoC4/TaskISR.c **** *   Priority of the interrupt. 0 - 3, 0 being the highest.
 234:.\Generated_Source\PSoC4/TaskISR.c **** *
 235:.\Generated_Source\PSoC4/TaskISR.c **** *******************************************************************************/
 236:.\Generated_Source\PSoC4/TaskISR.c **** uint8 TaskISR_GetPriority(void)
 237:.\Generated_Source\PSoC4/TaskISR.c **** {
 238:.\Generated_Source\PSoC4/TaskISR.c ****     uint32 priority;
 239:.\Generated_Source\PSoC4/TaskISR.c **** 	uint32 priorityOffset = ((TaskISR__INTC_NUMBER % 4u) * 8u) + 6u;
 240:.\Generated_Source\PSoC4/TaskISR.c **** 
 241:.\Generated_Source\PSoC4/TaskISR.c ****     priority = (*TaskISR_INTC_PRIOR & TaskISR__INTC_PRIOR_MASK) >> priorityOffset;
 242:.\Generated_Source\PSoC4/TaskISR.c **** 
 243:.\Generated_Source\PSoC4/TaskISR.c ****     return (uint8)priority;
 244:.\Generated_Source\PSoC4/TaskISR.c **** }
 245:.\Generated_Source\PSoC4/TaskISR.c **** 
 246:.\Generated_Source\PSoC4/TaskISR.c **** 
 247:.\Generated_Source\PSoC4/TaskISR.c **** /*******************************************************************************
 248:.\Generated_Source\PSoC4/TaskISR.c **** * Function Name: TaskISR_Enable
 249:.\Generated_Source\PSoC4/TaskISR.c **** ********************************************************************************
 250:.\Generated_Source\PSoC4/TaskISR.c **** *
 251:.\Generated_Source\PSoC4/TaskISR.c **** * Summary:
 252:.\Generated_Source\PSoC4/TaskISR.c **** *   Enables the interrupt.
 253:.\Generated_Source\PSoC4/TaskISR.c **** *
 254:.\Generated_Source\PSoC4/TaskISR.c **** * Parameters:
 255:.\Generated_Source\PSoC4/TaskISR.c **** *   None
 256:.\Generated_Source\PSoC4/TaskISR.c **** *
 257:.\Generated_Source\PSoC4/TaskISR.c **** * Return:
 258:.\Generated_Source\PSoC4/TaskISR.c **** *   None
 259:.\Generated_Source\PSoC4/TaskISR.c **** *
 260:.\Generated_Source\PSoC4/TaskISR.c **** *******************************************************************************/
 261:.\Generated_Source\PSoC4/TaskISR.c **** void TaskISR_Enable(void)
 262:.\Generated_Source\PSoC4/TaskISR.c **** {
 263:.\Generated_Source\PSoC4/TaskISR.c ****     /* Enable the general interrupt. */
 264:.\Generated_Source\PSoC4/TaskISR.c ****     *TaskISR_INTC_SET_EN = TaskISR__INTC_MASK;
 265:.\Generated_Source\PSoC4/TaskISR.c **** }
 266:.\Generated_Source\PSoC4/TaskISR.c **** 
 267:.\Generated_Source\PSoC4/TaskISR.c **** 
 268:.\Generated_Source\PSoC4/TaskISR.c **** /*******************************************************************************
 269:.\Generated_Source\PSoC4/TaskISR.c **** * Function Name: TaskISR_GetState
 270:.\Generated_Source\PSoC4/TaskISR.c **** ********************************************************************************
 271:.\Generated_Source\PSoC4/TaskISR.c **** *
 272:.\Generated_Source\PSoC4/TaskISR.c **** * Summary:
 273:.\Generated_Source\PSoC4/TaskISR.c **** *   Gets the state (enabled, disabled) of the Interrupt.
 274:.\Generated_Source\PSoC4/TaskISR.c **** *
 275:.\Generated_Source\PSoC4/TaskISR.c **** * Parameters:
 276:.\Generated_Source\PSoC4/TaskISR.c **** *   None
 277:.\Generated_Source\PSoC4/TaskISR.c **** *
 278:.\Generated_Source\PSoC4/TaskISR.c **** * Return:
 279:.\Generated_Source\PSoC4/TaskISR.c **** *   1 if enabled, 0 if disabled.
 280:.\Generated_Source\PSoC4/TaskISR.c **** *
ARM GAS  C:\Users\SNFU\AppData\Local\Temp\ccmvDrs1.s 			page 7


 281:.\Generated_Source\PSoC4/TaskISR.c **** *******************************************************************************/
 282:.\Generated_Source\PSoC4/TaskISR.c **** uint8 TaskISR_GetState(void)
 283:.\Generated_Source\PSoC4/TaskISR.c **** {
 284:.\Generated_Source\PSoC4/TaskISR.c ****     /* Get the state of the general interrupt. */
 285:.\Generated_Source\PSoC4/TaskISR.c ****     return ((*TaskISR_INTC_SET_EN & (uint32)TaskISR__INTC_MASK) != 0u) ? 1u:0u;
 286:.\Generated_Source\PSoC4/TaskISR.c **** }
 287:.\Generated_Source\PSoC4/TaskISR.c **** 
 288:.\Generated_Source\PSoC4/TaskISR.c **** 
 289:.\Generated_Source\PSoC4/TaskISR.c **** /*******************************************************************************
 290:.\Generated_Source\PSoC4/TaskISR.c **** * Function Name: TaskISR_Disable
 291:.\Generated_Source\PSoC4/TaskISR.c **** ********************************************************************************
 292:.\Generated_Source\PSoC4/TaskISR.c **** *
 293:.\Generated_Source\PSoC4/TaskISR.c **** * Summary:
 294:.\Generated_Source\PSoC4/TaskISR.c **** *   Disables the Interrupt.
 295:.\Generated_Source\PSoC4/TaskISR.c **** *
 296:.\Generated_Source\PSoC4/TaskISR.c **** * Parameters:
 297:.\Generated_Source\PSoC4/TaskISR.c **** *   None
 298:.\Generated_Source\PSoC4/TaskISR.c **** *
 299:.\Generated_Source\PSoC4/TaskISR.c **** * Return:
 300:.\Generated_Source\PSoC4/TaskISR.c **** *   None
 301:.\Generated_Source\PSoC4/TaskISR.c **** *
 302:.\Generated_Source\PSoC4/TaskISR.c **** *******************************************************************************/
 303:.\Generated_Source\PSoC4/TaskISR.c **** void TaskISR_Disable(void)
 304:.\Generated_Source\PSoC4/TaskISR.c **** {
 305:.\Generated_Source\PSoC4/TaskISR.c ****     /* Disable the general interrupt. */
 306:.\Generated_Source\PSoC4/TaskISR.c ****     *TaskISR_INTC_CLR_EN = TaskISR__INTC_MASK;
  62              		.loc 1 306 0
  63 0000 044B     		ldr	r3, .L5
  64 0002 8022     		mov	r2, #128
  65 0004 5202     		lsl	r2, r2, #9
  66 0006 1A60     		str	r2, [r3]
  67              	.LVL1:
  68              	.LBE19:
  69              	.LBE18:
  70              	.LBB20:
  71              	.LBB21:
 168:.\Generated_Source\PSoC4/TaskISR.c ****     CyRamVectors[CYINT_IRQ_BASE + TaskISR__INTC_NUMBER] = address;
  72              		.loc 1 168 0
  73 0008 034B     		ldr	r3, .L5+4
  74 000a 044A     		ldr	r2, .L5+8
  75 000c 0433     		add	r3, r3, #4
  76 000e DA67     		str	r2, [r3, #124]
  77              	.LBE21:
  78              	.LBE20:
 120:.\Generated_Source\PSoC4/TaskISR.c **** }
  79              		.loc 1 120 0
  80              		@ sp needed
  81 0010 7047     		bx	lr
  82              	.L6:
  83 0012 C046     		.align	2
  84              	.L5:
  85 0014 80E100E0 		.word	-536813184
  86 0018 00000000 		.word	CyRamVectors
  87 001c 00000000 		.word	IntDefaultHandler
  88              		.cfi_endproc
  89              	.LFE35:
  90              		.size	TaskISR_Stop, .-TaskISR_Stop
ARM GAS  C:\Users\SNFU\AppData\Local\Temp\ccmvDrs1.s 			page 8


  91              		.section	.text.TaskISR_SetVector,"ax",%progbits
  92              		.align	1
  93              		.global	TaskISR_SetVector
  94              		.code	16
  95              		.thumb_func
  96              		.type	TaskISR_SetVector, %function
  97              	TaskISR_SetVector:
  98              	.LFB37:
 167:.\Generated_Source\PSoC4/TaskISR.c **** {
  99              		.loc 1 167 0
 100              		.cfi_startproc
 101              	.LVL2:
 168:.\Generated_Source\PSoC4/TaskISR.c ****     CyRamVectors[CYINT_IRQ_BASE + TaskISR__INTC_NUMBER] = address;
 102              		.loc 1 168 0
 103 0000 014B     		ldr	r3, .L8
 169:.\Generated_Source\PSoC4/TaskISR.c **** }
 104              		.loc 1 169 0
 105              		@ sp needed
 168:.\Generated_Source\PSoC4/TaskISR.c ****     CyRamVectors[CYINT_IRQ_BASE + TaskISR__INTC_NUMBER] = address;
 106              		.loc 1 168 0
 107 0002 0433     		add	r3, r3, #4
 108 0004 D867     		str	r0, [r3, #124]
 169:.\Generated_Source\PSoC4/TaskISR.c **** }
 109              		.loc 1 169 0
 110 0006 7047     		bx	lr
 111              	.L9:
 112              		.align	2
 113              	.L8:
 114 0008 00000000 		.word	CyRamVectors
 115              		.cfi_endproc
 116              	.LFE37:
 117              		.size	TaskISR_SetVector, .-TaskISR_SetVector
 118              		.section	.text.TaskISR_GetVector,"ax",%progbits
 119              		.align	1
 120              		.global	TaskISR_GetVector
 121              		.code	16
 122              		.thumb_func
 123              		.type	TaskISR_GetVector, %function
 124              	TaskISR_GetVector:
 125              	.LFB38:
 187:.\Generated_Source\PSoC4/TaskISR.c **** {
 126              		.loc 1 187 0
 127              		.cfi_startproc
 188:.\Generated_Source\PSoC4/TaskISR.c ****     return CyRamVectors[CYINT_IRQ_BASE + TaskISR__INTC_NUMBER];
 128              		.loc 1 188 0
 129 0000 014B     		ldr	r3, .L11
 189:.\Generated_Source\PSoC4/TaskISR.c **** }
 130              		.loc 1 189 0
 131              		@ sp needed
 188:.\Generated_Source\PSoC4/TaskISR.c ****     return CyRamVectors[CYINT_IRQ_BASE + TaskISR__INTC_NUMBER];
 132              		.loc 1 188 0
 133 0002 0433     		add	r3, r3, #4
 134 0004 D86F     		ldr	r0, [r3, #124]
 189:.\Generated_Source\PSoC4/TaskISR.c **** }
 135              		.loc 1 189 0
 136 0006 7047     		bx	lr
 137              	.L12:
ARM GAS  C:\Users\SNFU\AppData\Local\Temp\ccmvDrs1.s 			page 9


 138              		.align	2
 139              	.L11:
 140 0008 00000000 		.word	CyRamVectors
 141              		.cfi_endproc
 142              	.LFE38:
 143              		.size	TaskISR_GetVector, .-TaskISR_GetVector
 144              		.section	.text.TaskISR_SetPriority,"ax",%progbits
 145              		.align	1
 146              		.global	TaskISR_SetPriority
 147              		.code	16
 148              		.thumb_func
 149              		.type	TaskISR_SetPriority, %function
 150              	TaskISR_SetPriority:
 151              	.LFB39:
 211:.\Generated_Source\PSoC4/TaskISR.c **** {
 152              		.loc 1 211 0
 153              		.cfi_startproc
 154              	.LVL3:
 155 0000 10B5     		push	{r4, lr}
 156              		.cfi_def_cfa_offset 8
 157              		.cfi_offset 4, -8
 158              		.cfi_offset 14, -4
 211:.\Generated_Source\PSoC4/TaskISR.c **** {
 159              		.loc 1 211 0
 160 0002 041C     		mov	r4, r0
 215:.\Generated_Source\PSoC4/TaskISR.c **** 	interruptState = CyEnterCriticalSection();
 161              		.loc 1 215 0
 162 0004 FFF7FEFF 		bl	CyEnterCriticalSection
 163              	.LVL4:
 216:.\Generated_Source\PSoC4/TaskISR.c ****     *TaskISR_INTC_PRIOR = (*TaskISR_INTC_PRIOR & (uint32)(~TaskISR__INTC_PRIOR_MASK)) |
 164              		.loc 1 216 0
 165 0008 054B     		ldr	r3, .L14
 217:.\Generated_Source\PSoC4/TaskISR.c ****                                     ((uint32)priority << priorityOffset);
 166              		.loc 1 217 0
 167 000a A201     		lsl	r2, r4, #6
 216:.\Generated_Source\PSoC4/TaskISR.c ****     *TaskISR_INTC_PRIOR = (*TaskISR_INTC_PRIOR & (uint32)(~TaskISR__INTC_PRIOR_MASK)) |
 168              		.loc 1 216 0
 169 000c 1968     		ldr	r1, [r3]
 170 000e C024     		mov	r4, #192
 171 0010 A143     		bic	r1, r4
 172 0012 0C1C     		mov	r4, r1
 173 0014 1443     		orr	r4, r2
 174 0016 1C60     		str	r4, [r3]
 218:.\Generated_Source\PSoC4/TaskISR.c **** 	CyExitCriticalSection(interruptState);
 175              		.loc 1 218 0
 176 0018 FFF7FEFF 		bl	CyExitCriticalSection
 177              	.LVL5:
 219:.\Generated_Source\PSoC4/TaskISR.c **** }
 178              		.loc 1 219 0
 179              		@ sp needed
 180 001c 10BD     		pop	{r4, pc}
 181              	.L15:
 182 001e C046     		.align	2
 183              	.L14:
 184 0020 10E400E0 		.word	-536812528
 185              		.cfi_endproc
 186              	.LFE39:
ARM GAS  C:\Users\SNFU\AppData\Local\Temp\ccmvDrs1.s 			page 10


 187              		.size	TaskISR_SetPriority, .-TaskISR_SetPriority
 188              		.section	.text.TaskISR_Start,"ax",%progbits
 189              		.align	1
 190              		.global	TaskISR_Start
 191              		.code	16
 192              		.thumb_func
 193              		.type	TaskISR_Start, %function
 194              	TaskISR_Start:
 195              	.LFB33:
  55:.\Generated_Source\PSoC4/TaskISR.c **** {
 196              		.loc 1 55 0
 197              		.cfi_startproc
 198 0000 10B5     		push	{r4, lr}
 199              		.cfi_def_cfa_offset 8
 200              		.cfi_offset 4, -8
 201              		.cfi_offset 14, -4
 202              	.LBB22:
 203              	.LBB23:
 204              		.loc 1 306 0
 205 0002 074B     		ldr	r3, .L17
 206 0004 8024     		mov	r4, #128
 207 0006 6402     		lsl	r4, r4, #9
 208 0008 1C60     		str	r4, [r3]
 209              	.LVL6:
 210              	.LBE23:
 211              	.LBE22:
 212              	.LBB24:
 213              	.LBB25:
 168:.\Generated_Source\PSoC4/TaskISR.c ****     CyRamVectors[CYINT_IRQ_BASE + TaskISR__INTC_NUMBER] = address;
 214              		.loc 1 168 0
 215 000a 064B     		ldr	r3, .L17+4
 216 000c 064A     		ldr	r2, .L17+8
 217 000e 0433     		add	r3, r3, #4
 218              	.LBE25:
 219              	.LBE24:
  63:.\Generated_Source\PSoC4/TaskISR.c ****     TaskISR_SetPriority((uint8)TaskISR_INTC_PRIOR_NUMBER);
 220              		.loc 1 63 0
 221 0010 0320     		mov	r0, #3
 222              	.LBB27:
 223              	.LBB26:
 168:.\Generated_Source\PSoC4/TaskISR.c ****     CyRamVectors[CYINT_IRQ_BASE + TaskISR__INTC_NUMBER] = address;
 224              		.loc 1 168 0
 225 0012 DA67     		str	r2, [r3, #124]
 226              	.LBE26:
 227              	.LBE27:
  63:.\Generated_Source\PSoC4/TaskISR.c ****     TaskISR_SetPriority((uint8)TaskISR_INTC_PRIOR_NUMBER);
 228              		.loc 1 63 0
 229 0014 FFF7FEFF 		bl	TaskISR_SetPriority
 230              	.LVL7:
 231              	.LBB28:
 232              	.LBB29:
 264:.\Generated_Source\PSoC4/TaskISR.c ****     *TaskISR_INTC_SET_EN = TaskISR__INTC_MASK;
 233              		.loc 1 264 0
 234 0018 044B     		ldr	r3, .L17+12
 235              	.LBE29:
 236              	.LBE28:
  67:.\Generated_Source\PSoC4/TaskISR.c **** }
ARM GAS  C:\Users\SNFU\AppData\Local\Temp\ccmvDrs1.s 			page 11


 237              		.loc 1 67 0
 238              		@ sp needed
 239              	.LBB31:
 240              	.LBB30:
 264:.\Generated_Source\PSoC4/TaskISR.c ****     *TaskISR_INTC_SET_EN = TaskISR__INTC_MASK;
 241              		.loc 1 264 0
 242 001a 1C60     		str	r4, [r3]
 243              	.LBE30:
 244              	.LBE31:
  67:.\Generated_Source\PSoC4/TaskISR.c **** }
 245              		.loc 1 67 0
 246 001c 10BD     		pop	{r4, pc}
 247              	.L18:
 248 001e C046     		.align	2
 249              	.L17:
 250 0020 80E100E0 		.word	-536813184
 251 0024 00000000 		.word	CyRamVectors
 252 0028 00000000 		.word	TaskISR_Interrupt
 253 002c 00E100E0 		.word	-536813312
 254              		.cfi_endproc
 255              	.LFE33:
 256              		.size	TaskISR_Start, .-TaskISR_Start
 257              		.section	.text.TaskISR_StartEx,"ax",%progbits
 258              		.align	1
 259              		.global	TaskISR_StartEx
 260              		.code	16
 261              		.thumb_func
 262              		.type	TaskISR_StartEx, %function
 263              	TaskISR_StartEx:
 264              	.LFB34:
  85:.\Generated_Source\PSoC4/TaskISR.c **** {
 265              		.loc 1 85 0
 266              		.cfi_startproc
 267              	.LVL8:
 268 0000 10B5     		push	{r4, lr}
 269              		.cfi_def_cfa_offset 8
 270              		.cfi_offset 4, -8
 271              		.cfi_offset 14, -4
 272              	.LBB32:
 273              	.LBB33:
 274              		.loc 1 306 0
 275 0002 064B     		ldr	r3, .L20
 276 0004 8024     		mov	r4, #128
 277 0006 6402     		lsl	r4, r4, #9
 278 0008 1C60     		str	r4, [r3]
 279              	.LVL9:
 280              	.LBE33:
 281              	.LBE32:
 282              	.LBB34:
 283              	.LBB35:
 168:.\Generated_Source\PSoC4/TaskISR.c ****     CyRamVectors[CYINT_IRQ_BASE + TaskISR__INTC_NUMBER] = address;
 284              		.loc 1 168 0
 285 000a 054B     		ldr	r3, .L20+4
 286              	.LBE35:
 287              	.LBE34:
  97:.\Generated_Source\PSoC4/TaskISR.c **** }
 288              		.loc 1 97 0
ARM GAS  C:\Users\SNFU\AppData\Local\Temp\ccmvDrs1.s 			page 12


 289              		@ sp needed
 290              	.LBB37:
 291              	.LBB36:
 168:.\Generated_Source\PSoC4/TaskISR.c ****     CyRamVectors[CYINT_IRQ_BASE + TaskISR__INTC_NUMBER] = address;
 292              		.loc 1 168 0
 293 000c 0433     		add	r3, r3, #4
 294 000e D867     		str	r0, [r3, #124]
 295              	.LBE36:
 296              	.LBE37:
  93:.\Generated_Source\PSoC4/TaskISR.c ****     TaskISR_SetPriority((uint8)TaskISR_INTC_PRIOR_NUMBER);
 297              		.loc 1 93 0
 298 0010 0320     		mov	r0, #3
 299              	.LVL10:
 300 0012 FFF7FEFF 		bl	TaskISR_SetPriority
 301              	.LVL11:
 302              	.LBB38:
 303              	.LBB39:
 264:.\Generated_Source\PSoC4/TaskISR.c ****     *TaskISR_INTC_SET_EN = TaskISR__INTC_MASK;
 304              		.loc 1 264 0
 305 0016 034B     		ldr	r3, .L20+8
 306 0018 1C60     		str	r4, [r3]
 307              	.LBE39:
 308              	.LBE38:
  97:.\Generated_Source\PSoC4/TaskISR.c **** }
 309              		.loc 1 97 0
 310 001a 10BD     		pop	{r4, pc}
 311              	.L21:
 312              		.align	2
 313              	.L20:
 314 001c 80E100E0 		.word	-536813184
 315 0020 00000000 		.word	CyRamVectors
 316 0024 00E100E0 		.word	-536813312
 317              		.cfi_endproc
 318              	.LFE34:
 319              		.size	TaskISR_StartEx, .-TaskISR_StartEx
 320              		.section	.text.TaskISR_GetPriority,"ax",%progbits
 321              		.align	1
 322              		.global	TaskISR_GetPriority
 323              		.code	16
 324              		.thumb_func
 325              		.type	TaskISR_GetPriority, %function
 326              	TaskISR_GetPriority:
 327              	.LFB40:
 237:.\Generated_Source\PSoC4/TaskISR.c **** {
 328              		.loc 1 237 0
 329              		.cfi_startproc
 330              	.LVL12:
 241:.\Generated_Source\PSoC4/TaskISR.c ****     priority = (*TaskISR_INTC_PRIOR & TaskISR__INTC_PRIOR_MASK) >> priorityOffset;
 331              		.loc 1 241 0
 332 0000 024B     		ldr	r3, .L23
 244:.\Generated_Source\PSoC4/TaskISR.c **** }
 333              		.loc 1 244 0
 334              		@ sp needed
 241:.\Generated_Source\PSoC4/TaskISR.c ****     priority = (*TaskISR_INTC_PRIOR & TaskISR__INTC_PRIOR_MASK) >> priorityOffset;
 335              		.loc 1 241 0
 336 0002 1868     		ldr	r0, [r3]
 337              	.LVL13:
ARM GAS  C:\Users\SNFU\AppData\Local\Temp\ccmvDrs1.s 			page 13


 338 0004 0006     		lsl	r0, r0, #24
 339              	.LVL14:
 243:.\Generated_Source\PSoC4/TaskISR.c ****     return (uint8)priority;
 340              		.loc 1 243 0
 341 0006 800F     		lsr	r0, r0, #30
 244:.\Generated_Source\PSoC4/TaskISR.c **** }
 342              		.loc 1 244 0
 343 0008 7047     		bx	lr
 344              	.L24:
 345 000a C046     		.align	2
 346              	.L23:
 347 000c 10E400E0 		.word	-536812528
 348              		.cfi_endproc
 349              	.LFE40:
 350              		.size	TaskISR_GetPriority, .-TaskISR_GetPriority
 351              		.section	.text.TaskISR_Enable,"ax",%progbits
 352              		.align	1
 353              		.global	TaskISR_Enable
 354              		.code	16
 355              		.thumb_func
 356              		.type	TaskISR_Enable, %function
 357              	TaskISR_Enable:
 358              	.LFB41:
 262:.\Generated_Source\PSoC4/TaskISR.c **** {
 359              		.loc 1 262 0
 360              		.cfi_startproc
 264:.\Generated_Source\PSoC4/TaskISR.c ****     *TaskISR_INTC_SET_EN = TaskISR__INTC_MASK;
 361              		.loc 1 264 0
 362 0000 024B     		ldr	r3, .L26
 363 0002 8022     		mov	r2, #128
 364 0004 5202     		lsl	r2, r2, #9
 365 0006 1A60     		str	r2, [r3]
 265:.\Generated_Source\PSoC4/TaskISR.c **** }
 366              		.loc 1 265 0
 367              		@ sp needed
 368 0008 7047     		bx	lr
 369              	.L27:
 370 000a C046     		.align	2
 371              	.L26:
 372 000c 00E100E0 		.word	-536813312
 373              		.cfi_endproc
 374              	.LFE41:
 375              		.size	TaskISR_Enable, .-TaskISR_Enable
 376              		.section	.text.TaskISR_GetState,"ax",%progbits
 377              		.align	1
 378              		.global	TaskISR_GetState
 379              		.code	16
 380              		.thumb_func
 381              		.type	TaskISR_GetState, %function
 382              	TaskISR_GetState:
 383              	.LFB42:
 283:.\Generated_Source\PSoC4/TaskISR.c **** {
 384              		.loc 1 283 0
 385              		.cfi_startproc
 285:.\Generated_Source\PSoC4/TaskISR.c ****     return ((*TaskISR_INTC_SET_EN & (uint32)TaskISR__INTC_MASK) != 0u) ? 1u:0u;
 386              		.loc 1 285 0
 387 0000 024B     		ldr	r3, .L29
ARM GAS  C:\Users\SNFU\AppData\Local\Temp\ccmvDrs1.s 			page 14


 286:.\Generated_Source\PSoC4/TaskISR.c **** }
 388              		.loc 1 286 0
 389              		@ sp needed
 285:.\Generated_Source\PSoC4/TaskISR.c ****     return ((*TaskISR_INTC_SET_EN & (uint32)TaskISR__INTC_MASK) != 0u) ? 1u:0u;
 390              		.loc 1 285 0
 391 0002 1868     		ldr	r0, [r3]
 392 0004 C003     		lsl	r0, r0, #15
 393 0006 C00F     		lsr	r0, r0, #31
 286:.\Generated_Source\PSoC4/TaskISR.c **** }
 394              		.loc 1 286 0
 395 0008 7047     		bx	lr
 396              	.L30:
 397 000a C046     		.align	2
 398              	.L29:
 399 000c 00E100E0 		.word	-536813312
 400              		.cfi_endproc
 401              	.LFE42:
 402              		.size	TaskISR_GetState, .-TaskISR_GetState
 403              		.section	.text.TaskISR_Disable,"ax",%progbits
 404              		.align	1
 405              		.global	TaskISR_Disable
 406              		.code	16
 407              		.thumb_func
 408              		.type	TaskISR_Disable, %function
 409              	TaskISR_Disable:
 410              	.LFB43:
 304:.\Generated_Source\PSoC4/TaskISR.c **** {
 411              		.loc 1 304 0
 412              		.cfi_startproc
 413              		.loc 1 306 0
 414 0000 024B     		ldr	r3, .L32
 415 0002 8022     		mov	r2, #128
 416 0004 5202     		lsl	r2, r2, #9
 417 0006 1A60     		str	r2, [r3]
 307:.\Generated_Source\PSoC4/TaskISR.c **** }
 418              		.loc 1 307 0
 419              		@ sp needed
 420 0008 7047     		bx	lr
 421              	.L33:
 422 000a C046     		.align	2
 423              	.L32:
 424 000c 80E100E0 		.word	-536813184
 425              		.cfi_endproc
 426              	.LFE43:
 427              		.size	TaskISR_Disable, .-TaskISR_Disable
 428              		.section	.text.TaskISR_SetPending,"ax",%progbits
 429              		.align	1
 430              		.global	TaskISR_SetPending
 431              		.code	16
 432              		.thumb_func
 433              		.type	TaskISR_SetPending, %function
 434              	TaskISR_SetPending:
 435              	.LFB44:
 308:.\Generated_Source\PSoC4/TaskISR.c **** 
 309:.\Generated_Source\PSoC4/TaskISR.c **** 
 310:.\Generated_Source\PSoC4/TaskISR.c **** /*******************************************************************************
 311:.\Generated_Source\PSoC4/TaskISR.c **** * Function Name: TaskISR_SetPending
ARM GAS  C:\Users\SNFU\AppData\Local\Temp\ccmvDrs1.s 			page 15


 312:.\Generated_Source\PSoC4/TaskISR.c **** ********************************************************************************
 313:.\Generated_Source\PSoC4/TaskISR.c **** *
 314:.\Generated_Source\PSoC4/TaskISR.c **** * Summary:
 315:.\Generated_Source\PSoC4/TaskISR.c **** *   Causes the Interrupt to enter the pending state, a software method of
 316:.\Generated_Source\PSoC4/TaskISR.c **** *   generating the interrupt.
 317:.\Generated_Source\PSoC4/TaskISR.c **** *
 318:.\Generated_Source\PSoC4/TaskISR.c **** * Parameters:
 319:.\Generated_Source\PSoC4/TaskISR.c **** *   None
 320:.\Generated_Source\PSoC4/TaskISR.c **** *
 321:.\Generated_Source\PSoC4/TaskISR.c **** * Return:
 322:.\Generated_Source\PSoC4/TaskISR.c **** *   None
 323:.\Generated_Source\PSoC4/TaskISR.c **** *
 324:.\Generated_Source\PSoC4/TaskISR.c **** *******************************************************************************/
 325:.\Generated_Source\PSoC4/TaskISR.c **** void TaskISR_SetPending(void)
 326:.\Generated_Source\PSoC4/TaskISR.c **** {
 436              		.loc 1 326 0
 437              		.cfi_startproc
 327:.\Generated_Source\PSoC4/TaskISR.c ****     *TaskISR_INTC_SET_PD = TaskISR__INTC_MASK;
 438              		.loc 1 327 0
 439 0000 024B     		ldr	r3, .L35
 440 0002 8022     		mov	r2, #128
 441 0004 5202     		lsl	r2, r2, #9
 442 0006 1A60     		str	r2, [r3]
 328:.\Generated_Source\PSoC4/TaskISR.c **** }
 443              		.loc 1 328 0
 444              		@ sp needed
 445 0008 7047     		bx	lr
 446              	.L36:
 447 000a C046     		.align	2
 448              	.L35:
 449 000c 00E200E0 		.word	-536813056
 450              		.cfi_endproc
 451              	.LFE44:
 452              		.size	TaskISR_SetPending, .-TaskISR_SetPending
 453              		.section	.text.TaskISR_ClearPending,"ax",%progbits
 454              		.align	1
 455              		.global	TaskISR_ClearPending
 456              		.code	16
 457              		.thumb_func
 458              		.type	TaskISR_ClearPending, %function
 459              	TaskISR_ClearPending:
 460              	.LFB45:
 329:.\Generated_Source\PSoC4/TaskISR.c **** 
 330:.\Generated_Source\PSoC4/TaskISR.c **** 
 331:.\Generated_Source\PSoC4/TaskISR.c **** /*******************************************************************************
 332:.\Generated_Source\PSoC4/TaskISR.c **** * Function Name: TaskISR_ClearPending
 333:.\Generated_Source\PSoC4/TaskISR.c **** ********************************************************************************
 334:.\Generated_Source\PSoC4/TaskISR.c **** *
 335:.\Generated_Source\PSoC4/TaskISR.c **** * Summary:
 336:.\Generated_Source\PSoC4/TaskISR.c **** *   Clears a pending interrupt.
 337:.\Generated_Source\PSoC4/TaskISR.c **** *
 338:.\Generated_Source\PSoC4/TaskISR.c **** * Parameters:
 339:.\Generated_Source\PSoC4/TaskISR.c **** *   None
 340:.\Generated_Source\PSoC4/TaskISR.c **** *
 341:.\Generated_Source\PSoC4/TaskISR.c **** * Return:
 342:.\Generated_Source\PSoC4/TaskISR.c **** *   None
 343:.\Generated_Source\PSoC4/TaskISR.c **** *
ARM GAS  C:\Users\SNFU\AppData\Local\Temp\ccmvDrs1.s 			page 16


 344:.\Generated_Source\PSoC4/TaskISR.c **** *******************************************************************************/
 345:.\Generated_Source\PSoC4/TaskISR.c **** void TaskISR_ClearPending(void)
 346:.\Generated_Source\PSoC4/TaskISR.c **** {
 461              		.loc 1 346 0
 462              		.cfi_startproc
 347:.\Generated_Source\PSoC4/TaskISR.c ****     *TaskISR_INTC_CLR_PD = TaskISR__INTC_MASK;
 463              		.loc 1 347 0
 464 0000 024B     		ldr	r3, .L38
 465 0002 8022     		mov	r2, #128
 466 0004 5202     		lsl	r2, r2, #9
 467 0006 1A60     		str	r2, [r3]
 348:.\Generated_Source\PSoC4/TaskISR.c **** }
 468              		.loc 1 348 0
 469              		@ sp needed
 470 0008 7047     		bx	lr
 471              	.L39:
 472 000a C046     		.align	2
 473              	.L38:
 474 000c 80E200E0 		.word	-536812928
 475              		.cfi_endproc
 476              	.LFE45:
 477              		.size	TaskISR_ClearPending, .-TaskISR_ClearPending
 478              		.text
 479              	.Letext0:
 480              		.file 2 "c:\\program files\\cypress\\psoc creator\\3.1\\psoc creator\\import\\gnu_cs\\arm\\4.8.4\\
 481              		.file 3 "c:\\program files\\cypress\\psoc creator\\3.1\\psoc creator\\import\\gnu_cs\\arm\\4.8.4\\
 482              		.file 4 ".\\Generated_Source\\PSoC4/cytypes.h"
 483              		.file 5 ".\\Generated_Source\\PSoC4/TaskTimer.h"
 484              		.file 6 ".\\Generated_Source\\PSoC4/CyLib.h"