ARM GAS  C:\Users\SNFU\AppData\Local\Temp\cccRU4mC.s 			page 1


   1              		.cpu cortex-m0
   2              		.fpu softvfp
   3              		.eabi_attribute 20, 1
   4              		.eabi_attribute 21, 1
   5              		.eabi_attribute 23, 3
   6              		.eabi_attribute 24, 1
   7              		.eabi_attribute 25, 1
   8              		.eabi_attribute 26, 1
   9              		.eabi_attribute 30, 4
  10              		.eabi_attribute 34, 0
  11              		.eabi_attribute 18, 4
  12              		.code	16
  13              		.file	"TaskTimer_PM.c"
  14              		.text
  15              	.Ltext0:
  16              		.cfi_sections	.debug_frame
  17              		.section	.text.TaskTimer_SaveConfig,"ax",%progbits
  18              		.align	1
  19              		.global	TaskTimer_SaveConfig
  20              		.code	16
  21              		.thumb_func
  22              		.type	TaskTimer_SaveConfig, %function
  23              	TaskTimer_SaveConfig:
  24              	.LFB0:
  25              		.file 1 ".\\Generated_Source\\PSoC4\\TaskTimer_PM.c"
   1:.\Generated_Source\PSoC4/TaskTimer_PM.c **** /*******************************************************************************
   2:.\Generated_Source\PSoC4/TaskTimer_PM.c **** * File Name: TaskTimer_PM.c
   3:.\Generated_Source\PSoC4/TaskTimer_PM.c **** * Version 2.0
   4:.\Generated_Source\PSoC4/TaskTimer_PM.c **** *
   5:.\Generated_Source\PSoC4/TaskTimer_PM.c **** * Description:
   6:.\Generated_Source\PSoC4/TaskTimer_PM.c **** *  This file contains the setup, control, and status commands to support
   7:.\Generated_Source\PSoC4/TaskTimer_PM.c **** *  the component operations in the low power mode.
   8:.\Generated_Source\PSoC4/TaskTimer_PM.c **** *
   9:.\Generated_Source\PSoC4/TaskTimer_PM.c **** * Note:
  10:.\Generated_Source\PSoC4/TaskTimer_PM.c **** *  None
  11:.\Generated_Source\PSoC4/TaskTimer_PM.c **** *
  12:.\Generated_Source\PSoC4/TaskTimer_PM.c **** ********************************************************************************
  13:.\Generated_Source\PSoC4/TaskTimer_PM.c **** * Copyright 2013-2014, Cypress Semiconductor Corporation.  All rights reserved.
  14:.\Generated_Source\PSoC4/TaskTimer_PM.c **** * You may use this file only in accordance with the license, terms, conditions,
  15:.\Generated_Source\PSoC4/TaskTimer_PM.c **** * disclaimers, and limitations in the end user license agreement accompanying
  16:.\Generated_Source\PSoC4/TaskTimer_PM.c **** * the software package with which this file was provided.
  17:.\Generated_Source\PSoC4/TaskTimer_PM.c **** *******************************************************************************/
  18:.\Generated_Source\PSoC4/TaskTimer_PM.c **** 
  19:.\Generated_Source\PSoC4/TaskTimer_PM.c **** #include "TaskTimer.h"
  20:.\Generated_Source\PSoC4/TaskTimer_PM.c **** 
  21:.\Generated_Source\PSoC4/TaskTimer_PM.c **** static TaskTimer_BACKUP_STRUCT TaskTimer_backup;
  22:.\Generated_Source\PSoC4/TaskTimer_PM.c **** 
  23:.\Generated_Source\PSoC4/TaskTimer_PM.c **** 
  24:.\Generated_Source\PSoC4/TaskTimer_PM.c **** /*******************************************************************************
  25:.\Generated_Source\PSoC4/TaskTimer_PM.c **** * Function Name: TaskTimer_SaveConfig
  26:.\Generated_Source\PSoC4/TaskTimer_PM.c **** ********************************************************************************
  27:.\Generated_Source\PSoC4/TaskTimer_PM.c **** *
  28:.\Generated_Source\PSoC4/TaskTimer_PM.c **** * Summary:
  29:.\Generated_Source\PSoC4/TaskTimer_PM.c **** *  All configuration registers are retention. Nothing to save here.
  30:.\Generated_Source\PSoC4/TaskTimer_PM.c **** *
  31:.\Generated_Source\PSoC4/TaskTimer_PM.c **** * Parameters:
  32:.\Generated_Source\PSoC4/TaskTimer_PM.c **** *  None
ARM GAS  C:\Users\SNFU\AppData\Local\Temp\cccRU4mC.s 			page 2


  33:.\Generated_Source\PSoC4/TaskTimer_PM.c **** *
  34:.\Generated_Source\PSoC4/TaskTimer_PM.c **** * Return:
  35:.\Generated_Source\PSoC4/TaskTimer_PM.c **** *  None
  36:.\Generated_Source\PSoC4/TaskTimer_PM.c **** *
  37:.\Generated_Source\PSoC4/TaskTimer_PM.c **** *******************************************************************************/
  38:.\Generated_Source\PSoC4/TaskTimer_PM.c **** void TaskTimer_SaveConfig(void)
  39:.\Generated_Source\PSoC4/TaskTimer_PM.c **** {
  26              		.loc 1 39 0
  27              		.cfi_startproc
  40:.\Generated_Source\PSoC4/TaskTimer_PM.c **** 
  41:.\Generated_Source\PSoC4/TaskTimer_PM.c **** }
  28              		.loc 1 41 0
  29              		@ sp needed
  30 0000 7047     		bx	lr
  31              		.cfi_endproc
  32              	.LFE0:
  33              		.size	TaskTimer_SaveConfig, .-TaskTimer_SaveConfig
  34              		.section	.text.TaskTimer_Sleep,"ax",%progbits
  35              		.align	1
  36              		.global	TaskTimer_Sleep
  37              		.code	16
  38              		.thumb_func
  39              		.type	TaskTimer_Sleep, %function
  40              	TaskTimer_Sleep:
  41              	.LFB1:
  42:.\Generated_Source\PSoC4/TaskTimer_PM.c **** 
  43:.\Generated_Source\PSoC4/TaskTimer_PM.c **** 
  44:.\Generated_Source\PSoC4/TaskTimer_PM.c **** /*******************************************************************************
  45:.\Generated_Source\PSoC4/TaskTimer_PM.c **** * Function Name: TaskTimer_Sleep
  46:.\Generated_Source\PSoC4/TaskTimer_PM.c **** ********************************************************************************
  47:.\Generated_Source\PSoC4/TaskTimer_PM.c **** *
  48:.\Generated_Source\PSoC4/TaskTimer_PM.c **** * Summary:
  49:.\Generated_Source\PSoC4/TaskTimer_PM.c **** *  Stops the component operation and saves the user configuration.
  50:.\Generated_Source\PSoC4/TaskTimer_PM.c **** *
  51:.\Generated_Source\PSoC4/TaskTimer_PM.c **** * Parameters:
  52:.\Generated_Source\PSoC4/TaskTimer_PM.c **** *  None
  53:.\Generated_Source\PSoC4/TaskTimer_PM.c **** *
  54:.\Generated_Source\PSoC4/TaskTimer_PM.c **** * Return:
  55:.\Generated_Source\PSoC4/TaskTimer_PM.c **** *  None
  56:.\Generated_Source\PSoC4/TaskTimer_PM.c **** *
  57:.\Generated_Source\PSoC4/TaskTimer_PM.c **** *******************************************************************************/
  58:.\Generated_Source\PSoC4/TaskTimer_PM.c **** void TaskTimer_Sleep(void)
  59:.\Generated_Source\PSoC4/TaskTimer_PM.c **** {
  42              		.loc 1 59 0
  43              		.cfi_startproc
  44 0000 08B5     		push	{r3, lr}
  45              		.cfi_def_cfa_offset 8
  46              		.cfi_offset 3, -8
  47              		.cfi_offset 14, -4
  60:.\Generated_Source\PSoC4/TaskTimer_PM.c ****     if(0u != (TaskTimer_BLOCK_CONTROL_REG & TaskTimer_MASK))
  48              		.loc 1 60 0
  49 0002 064B     		ldr	r3, .L6
  50 0004 0121     		mov	r1, #1
  51 0006 1A68     		ldr	r2, [r3]
  52 0008 054B     		ldr	r3, .L6+4
  53 000a 0A40     		and	r2, r1
  54 000c 01D0     		beq	.L3
ARM GAS  C:\Users\SNFU\AppData\Local\Temp\cccRU4mC.s 			page 3


  61:.\Generated_Source\PSoC4/TaskTimer_PM.c ****     {
  62:.\Generated_Source\PSoC4/TaskTimer_PM.c ****         TaskTimer_backup.enableState = 1u;
  55              		.loc 1 62 0
  56 000e 1970     		strb	r1, [r3]
  57 0010 00E0     		b	.L4
  58              	.L3:
  63:.\Generated_Source\PSoC4/TaskTimer_PM.c ****     }
  64:.\Generated_Source\PSoC4/TaskTimer_PM.c ****     else
  65:.\Generated_Source\PSoC4/TaskTimer_PM.c ****     {
  66:.\Generated_Source\PSoC4/TaskTimer_PM.c ****         TaskTimer_backup.enableState = 0u;
  59              		.loc 1 66 0
  60 0012 1A70     		strb	r2, [r3]
  61              	.L4:
  67:.\Generated_Source\PSoC4/TaskTimer_PM.c ****     }
  68:.\Generated_Source\PSoC4/TaskTimer_PM.c **** 
  69:.\Generated_Source\PSoC4/TaskTimer_PM.c ****     TaskTimer_Stop();
  62              		.loc 1 69 0
  63 0014 FFF7FEFF 		bl	TaskTimer_Stop
  64              	.LVL0:
  70:.\Generated_Source\PSoC4/TaskTimer_PM.c ****     TaskTimer_SaveConfig();
  71:.\Generated_Source\PSoC4/TaskTimer_PM.c **** }
  65              		.loc 1 71 0
  66              		@ sp needed
  67 0018 08BD     		pop	{r3, pc}
  68              	.L7:
  69 001a C046     		.align	2
  70              	.L6:
  71 001c 00000540 		.word	1074069504
  72 0020 00000000 		.word	.LANCHOR0
  73              		.cfi_endproc
  74              	.LFE1:
  75              		.size	TaskTimer_Sleep, .-TaskTimer_Sleep
  76              		.section	.text.TaskTimer_RestoreConfig,"ax",%progbits
  77              		.align	1
  78              		.global	TaskTimer_RestoreConfig
  79              		.code	16
  80              		.thumb_func
  81              		.type	TaskTimer_RestoreConfig, %function
  82              	TaskTimer_RestoreConfig:
  83              	.LFB2:
  72:.\Generated_Source\PSoC4/TaskTimer_PM.c **** 
  73:.\Generated_Source\PSoC4/TaskTimer_PM.c **** 
  74:.\Generated_Source\PSoC4/TaskTimer_PM.c **** /*******************************************************************************
  75:.\Generated_Source\PSoC4/TaskTimer_PM.c **** * Function Name: TaskTimer_RestoreConfig
  76:.\Generated_Source\PSoC4/TaskTimer_PM.c **** ********************************************************************************
  77:.\Generated_Source\PSoC4/TaskTimer_PM.c **** *
  78:.\Generated_Source\PSoC4/TaskTimer_PM.c **** * Summary:
  79:.\Generated_Source\PSoC4/TaskTimer_PM.c **** *  All configuration registers are retention. Nothing to restore here.
  80:.\Generated_Source\PSoC4/TaskTimer_PM.c **** *
  81:.\Generated_Source\PSoC4/TaskTimer_PM.c **** * Parameters:
  82:.\Generated_Source\PSoC4/TaskTimer_PM.c **** *  None
  83:.\Generated_Source\PSoC4/TaskTimer_PM.c **** *
  84:.\Generated_Source\PSoC4/TaskTimer_PM.c **** * Return:
  85:.\Generated_Source\PSoC4/TaskTimer_PM.c **** *  None
  86:.\Generated_Source\PSoC4/TaskTimer_PM.c **** *
  87:.\Generated_Source\PSoC4/TaskTimer_PM.c **** *******************************************************************************/
  88:.\Generated_Source\PSoC4/TaskTimer_PM.c **** void TaskTimer_RestoreConfig(void)
ARM GAS  C:\Users\SNFU\AppData\Local\Temp\cccRU4mC.s 			page 4


  89:.\Generated_Source\PSoC4/TaskTimer_PM.c **** {
  84              		.loc 1 89 0
  85              		.cfi_startproc
  90:.\Generated_Source\PSoC4/TaskTimer_PM.c **** 
  91:.\Generated_Source\PSoC4/TaskTimer_PM.c **** }
  86              		.loc 1 91 0
  87              		@ sp needed
  88 0000 7047     		bx	lr
  89              		.cfi_endproc
  90              	.LFE2:
  91              		.size	TaskTimer_RestoreConfig, .-TaskTimer_RestoreConfig
  92              		.section	.text.TaskTimer_Wakeup,"ax",%progbits
  93              		.align	1
  94              		.global	TaskTimer_Wakeup
  95              		.code	16
  96              		.thumb_func
  97              		.type	TaskTimer_Wakeup, %function
  98              	TaskTimer_Wakeup:
  99              	.LFB3:
  92:.\Generated_Source\PSoC4/TaskTimer_PM.c **** 
  93:.\Generated_Source\PSoC4/TaskTimer_PM.c **** 
  94:.\Generated_Source\PSoC4/TaskTimer_PM.c **** /*******************************************************************************
  95:.\Generated_Source\PSoC4/TaskTimer_PM.c **** * Function Name: TaskTimer_Wakeup
  96:.\Generated_Source\PSoC4/TaskTimer_PM.c **** ********************************************************************************
  97:.\Generated_Source\PSoC4/TaskTimer_PM.c **** *
  98:.\Generated_Source\PSoC4/TaskTimer_PM.c **** * Summary:
  99:.\Generated_Source\PSoC4/TaskTimer_PM.c **** *  Restores the user configuration and restores the enable state.
 100:.\Generated_Source\PSoC4/TaskTimer_PM.c **** *
 101:.\Generated_Source\PSoC4/TaskTimer_PM.c **** * Parameters:
 102:.\Generated_Source\PSoC4/TaskTimer_PM.c **** *  None
 103:.\Generated_Source\PSoC4/TaskTimer_PM.c **** *
 104:.\Generated_Source\PSoC4/TaskTimer_PM.c **** * Return:
 105:.\Generated_Source\PSoC4/TaskTimer_PM.c **** *  None
 106:.\Generated_Source\PSoC4/TaskTimer_PM.c **** *
 107:.\Generated_Source\PSoC4/TaskTimer_PM.c **** *******************************************************************************/
 108:.\Generated_Source\PSoC4/TaskTimer_PM.c **** void TaskTimer_Wakeup(void)
 109:.\Generated_Source\PSoC4/TaskTimer_PM.c **** {
 100              		.loc 1 109 0
 101              		.cfi_startproc
 102 0000 08B5     		push	{r3, lr}
 103              		.cfi_def_cfa_offset 8
 104              		.cfi_offset 3, -8
 105              		.cfi_offset 14, -4
 110:.\Generated_Source\PSoC4/TaskTimer_PM.c ****     TaskTimer_RestoreConfig();
 111:.\Generated_Source\PSoC4/TaskTimer_PM.c **** 
 112:.\Generated_Source\PSoC4/TaskTimer_PM.c ****     if(0u != TaskTimer_backup.enableState)
 106              		.loc 1 112 0
 107 0002 034B     		ldr	r3, .L14
 108 0004 1B78     		ldrb	r3, [r3]
 109 0006 002B     		cmp	r3, #0
 110 0008 01D0     		beq	.L9
 113:.\Generated_Source\PSoC4/TaskTimer_PM.c ****     {
 114:.\Generated_Source\PSoC4/TaskTimer_PM.c ****         TaskTimer_Enable();
 111              		.loc 1 114 0
 112 000a FFF7FEFF 		bl	TaskTimer_Enable
 113              	.LVL1:
 114              	.L9:
ARM GAS  C:\Users\SNFU\AppData\Local\Temp\cccRU4mC.s 			page 5


 115:.\Generated_Source\PSoC4/TaskTimer_PM.c ****     }
 116:.\Generated_Source\PSoC4/TaskTimer_PM.c **** }
 115              		.loc 1 116 0
 116              		@ sp needed
 117 000e 08BD     		pop	{r3, pc}
 118              	.L15:
 119              		.align	2
 120              	.L14:
 121 0010 00000000 		.word	.LANCHOR0
 122              		.cfi_endproc
 123              	.LFE3:
 124              		.size	TaskTimer_Wakeup, .-TaskTimer_Wakeup
 125              		.bss
 126              		.set	.LANCHOR0,. + 0
 127              		.type	TaskTimer_backup, %object
 128              		.size	TaskTimer_backup, 1
 129              	TaskTimer_backup:
 130 0000 00       		.space	1
 131              		.text
 132              	.Letext0:
 133              		.file 2 ".\\Generated_Source\\PSoC4\\cytypes.h"
 134              		.file 3 ".\\Generated_Source\\PSoC4\\TaskTimer.h"