ARM GAS  C:\Users\SNFU\AppData\Local\Temp\ccVthI9s.s 			page 1


   1              		.cpu cortex-m0
   2              		.fpu softvfp
   3              		.eabi_attribute 20, 1
   4              		.eabi_attribute 21, 1
   5              		.eabi_attribute 23, 3
   6              		.eabi_attribute 24, 1
   7              		.eabi_attribute 25, 1
   8              		.eabi_attribute 26, 1
   9              		.eabi_attribute 30, 4
  10              		.eabi_attribute 34, 0
  11              		.eabi_attribute 18, 4
  12              		.code	16
  13              		.file	"UART_1_UART.c"
  14              		.text
  15              	.Ltext0:
  16              		.cfi_sections	.debug_frame
  17              		.section	.text.UART_1_UartInit,"ax",%progbits
  18              		.align	1
  19              		.global	UART_1_UartInit
  20              		.code	16
  21              		.thumb_func
  22              		.type	UART_1_UartInit, %function
  23              	UART_1_UartInit:
  24              	.LFB0:
  25              		.file 1 ".\\Generated_Source\\PSoC4\\UART_1_UART.c"
   1:.\Generated_Source\PSoC4/UART_1_UART.c **** /*******************************************************************************
   2:.\Generated_Source\PSoC4/UART_1_UART.c **** * File Name: UART_1_UART.c
   3:.\Generated_Source\PSoC4/UART_1_UART.c **** * Version 2.0
   4:.\Generated_Source\PSoC4/UART_1_UART.c **** *
   5:.\Generated_Source\PSoC4/UART_1_UART.c **** * Description:
   6:.\Generated_Source\PSoC4/UART_1_UART.c **** *  This file provides the source code to the API for the SCB Component in
   7:.\Generated_Source\PSoC4/UART_1_UART.c **** *  UART mode.
   8:.\Generated_Source\PSoC4/UART_1_UART.c **** *
   9:.\Generated_Source\PSoC4/UART_1_UART.c **** * Note:
  10:.\Generated_Source\PSoC4/UART_1_UART.c **** *
  11:.\Generated_Source\PSoC4/UART_1_UART.c **** *******************************************************************************
  12:.\Generated_Source\PSoC4/UART_1_UART.c **** * Copyright 2013-2014, Cypress Semiconductor Corporation.  All rights reserved.
  13:.\Generated_Source\PSoC4/UART_1_UART.c **** * You may use this file only in accordance with the license, terms, conditions,
  14:.\Generated_Source\PSoC4/UART_1_UART.c **** * disclaimers, and limitations in the end user license agreement accompanying
  15:.\Generated_Source\PSoC4/UART_1_UART.c **** * the software package with which this file was provided.
  16:.\Generated_Source\PSoC4/UART_1_UART.c **** *******************************************************************************/
  17:.\Generated_Source\PSoC4/UART_1_UART.c **** 
  18:.\Generated_Source\PSoC4/UART_1_UART.c **** #include "UART_1_PVT.h"
  19:.\Generated_Source\PSoC4/UART_1_UART.c **** #include "UART_1_SPI_UART_PVT.h"
  20:.\Generated_Source\PSoC4/UART_1_UART.c **** 
  21:.\Generated_Source\PSoC4/UART_1_UART.c **** 
  22:.\Generated_Source\PSoC4/UART_1_UART.c **** #if(UART_1_SCB_MODE_UNCONFIG_CONST_CFG)
  23:.\Generated_Source\PSoC4/UART_1_UART.c **** 
  24:.\Generated_Source\PSoC4/UART_1_UART.c ****     /***************************************
  25:.\Generated_Source\PSoC4/UART_1_UART.c ****     *  Configuration Structure Initialization
  26:.\Generated_Source\PSoC4/UART_1_UART.c ****     ***************************************/
  27:.\Generated_Source\PSoC4/UART_1_UART.c **** 
  28:.\Generated_Source\PSoC4/UART_1_UART.c ****     const UART_1_UART_INIT_STRUCT UART_1_configUart =
  29:.\Generated_Source\PSoC4/UART_1_UART.c ****     {
  30:.\Generated_Source\PSoC4/UART_1_UART.c ****         UART_1_UART_SUB_MODE,
  31:.\Generated_Source\PSoC4/UART_1_UART.c ****         UART_1_UART_DIRECTION,
  32:.\Generated_Source\PSoC4/UART_1_UART.c ****         UART_1_UART_DATA_BITS_NUM,
ARM GAS  C:\Users\SNFU\AppData\Local\Temp\ccVthI9s.s 			page 2


  33:.\Generated_Source\PSoC4/UART_1_UART.c ****         UART_1_UART_PARITY_TYPE,
  34:.\Generated_Source\PSoC4/UART_1_UART.c ****         UART_1_UART_STOP_BITS_NUM,
  35:.\Generated_Source\PSoC4/UART_1_UART.c ****         UART_1_UART_OVS_FACTOR,
  36:.\Generated_Source\PSoC4/UART_1_UART.c ****         UART_1_UART_IRDA_LOW_POWER,
  37:.\Generated_Source\PSoC4/UART_1_UART.c ****         UART_1_UART_MEDIAN_FILTER_ENABLE,
  38:.\Generated_Source\PSoC4/UART_1_UART.c ****         UART_1_UART_RETRY_ON_NACK,
  39:.\Generated_Source\PSoC4/UART_1_UART.c ****         UART_1_UART_IRDA_POLARITY,
  40:.\Generated_Source\PSoC4/UART_1_UART.c ****         UART_1_UART_DROP_ON_PARITY_ERR,
  41:.\Generated_Source\PSoC4/UART_1_UART.c ****         UART_1_UART_DROP_ON_FRAME_ERR,
  42:.\Generated_Source\PSoC4/UART_1_UART.c ****         UART_1_UART_WAKE_ENABLE,
  43:.\Generated_Source\PSoC4/UART_1_UART.c ****         0u,
  44:.\Generated_Source\PSoC4/UART_1_UART.c ****         NULL,
  45:.\Generated_Source\PSoC4/UART_1_UART.c ****         0u,
  46:.\Generated_Source\PSoC4/UART_1_UART.c ****         NULL,
  47:.\Generated_Source\PSoC4/UART_1_UART.c ****         UART_1_UART_MP_MODE_ENABLE,
  48:.\Generated_Source\PSoC4/UART_1_UART.c ****         UART_1_UART_MP_ACCEPT_ADDRESS,
  49:.\Generated_Source\PSoC4/UART_1_UART.c ****         UART_1_UART_MP_RX_ADDRESS,
  50:.\Generated_Source\PSoC4/UART_1_UART.c ****         UART_1_UART_MP_RX_ADDRESS_MASK,
  51:.\Generated_Source\PSoC4/UART_1_UART.c ****         (uint32) UART_1_SCB_IRQ_INTERNAL,
  52:.\Generated_Source\PSoC4/UART_1_UART.c ****         UART_1_UART_INTR_RX_MASK,
  53:.\Generated_Source\PSoC4/UART_1_UART.c ****         UART_1_UART_RX_TRIGGER_LEVEL,
  54:.\Generated_Source\PSoC4/UART_1_UART.c ****         UART_1_UART_INTR_TX_MASK,
  55:.\Generated_Source\PSoC4/UART_1_UART.c ****         UART_1_UART_TX_TRIGGER_LEVEL,
  56:.\Generated_Source\PSoC4/UART_1_UART.c ****         (uint8) UART_1_UART_BYTE_MODE_ENABLE,
  57:.\Generated_Source\PSoC4/UART_1_UART.c ****         (uint8) UART_1_UART_CTS_ENABLE,
  58:.\Generated_Source\PSoC4/UART_1_UART.c ****         (uint8) UART_1_UART_CTS_POLARITY,
  59:.\Generated_Source\PSoC4/UART_1_UART.c ****         (uint8) UART_1_UART_RTS_POLARITY,
  60:.\Generated_Source\PSoC4/UART_1_UART.c ****         (uint8) UART_1_UART_RTS_FIFO_LEVEL
  61:.\Generated_Source\PSoC4/UART_1_UART.c ****     };
  62:.\Generated_Source\PSoC4/UART_1_UART.c **** 
  63:.\Generated_Source\PSoC4/UART_1_UART.c **** 
  64:.\Generated_Source\PSoC4/UART_1_UART.c ****     /*******************************************************************************
  65:.\Generated_Source\PSoC4/UART_1_UART.c ****     * Function Name: UART_1_UartInit
  66:.\Generated_Source\PSoC4/UART_1_UART.c ****     ********************************************************************************
  67:.\Generated_Source\PSoC4/UART_1_UART.c ****     *
  68:.\Generated_Source\PSoC4/UART_1_UART.c ****     * Summary:
  69:.\Generated_Source\PSoC4/UART_1_UART.c ****     *  Configures the SCB for the UART operation.
  70:.\Generated_Source\PSoC4/UART_1_UART.c ****     *
  71:.\Generated_Source\PSoC4/UART_1_UART.c ****     * Parameters:
  72:.\Generated_Source\PSoC4/UART_1_UART.c ****     *  config:  Pointer to a structure that contains the following ordered list of
  73:.\Generated_Source\PSoC4/UART_1_UART.c ****     *           fields. These fields match the selections available in the
  74:.\Generated_Source\PSoC4/UART_1_UART.c ****     *           customizer.
  75:.\Generated_Source\PSoC4/UART_1_UART.c ****     *
  76:.\Generated_Source\PSoC4/UART_1_UART.c ****     * Return:
  77:.\Generated_Source\PSoC4/UART_1_UART.c ****     *  None
  78:.\Generated_Source\PSoC4/UART_1_UART.c ****     *
  79:.\Generated_Source\PSoC4/UART_1_UART.c ****     *******************************************************************************/
  80:.\Generated_Source\PSoC4/UART_1_UART.c ****     void UART_1_UartInit(const UART_1_UART_INIT_STRUCT *config)
  81:.\Generated_Source\PSoC4/UART_1_UART.c ****     {
  82:.\Generated_Source\PSoC4/UART_1_UART.c ****         uint32 pinsConfig;
  83:.\Generated_Source\PSoC4/UART_1_UART.c **** 
  84:.\Generated_Source\PSoC4/UART_1_UART.c ****         if(NULL == config)
  85:.\Generated_Source\PSoC4/UART_1_UART.c ****         {
  86:.\Generated_Source\PSoC4/UART_1_UART.c ****             CYASSERT(0u != 0u); /* Halt execution due to bad function parameter */
  87:.\Generated_Source\PSoC4/UART_1_UART.c ****         }
  88:.\Generated_Source\PSoC4/UART_1_UART.c ****         else
  89:.\Generated_Source\PSoC4/UART_1_UART.c ****         {
ARM GAS  C:\Users\SNFU\AppData\Local\Temp\ccVthI9s.s 			page 3


  90:.\Generated_Source\PSoC4/UART_1_UART.c ****             /* Get direction to configure UART pins: TX, RX or TX+RX */
  91:.\Generated_Source\PSoC4/UART_1_UART.c ****             pinsConfig  = config->direction;
  92:.\Generated_Source\PSoC4/UART_1_UART.c **** 
  93:.\Generated_Source\PSoC4/UART_1_UART.c ****         #if !(UART_1_CY_SCBIP_V0 || UART_1_CY_SCBIP_V1)
  94:.\Generated_Source\PSoC4/UART_1_UART.c ****             /* Add RTS and CTS pins to configure */
  95:.\Generated_Source\PSoC4/UART_1_UART.c ****             pinsConfig |= (0u != config->rtsRxFifoLevel) ? (UART_1_UART_RTS_PIN_ENABLE) : (0u);
  96:.\Generated_Source\PSoC4/UART_1_UART.c ****             pinsConfig |= (0u != config->enableCts)         ? (UART_1_UART_CTS_PIN_ENABLE) : (0u);
  97:.\Generated_Source\PSoC4/UART_1_UART.c ****         #endif /* !(UART_1_CY_SCBIP_V0 || UART_1_CY_SCBIP_V1) */
  98:.\Generated_Source\PSoC4/UART_1_UART.c **** 
  99:.\Generated_Source\PSoC4/UART_1_UART.c ****             /* Configure pins */
 100:.\Generated_Source\PSoC4/UART_1_UART.c ****             UART_1_SetPins(UART_1_SCB_MODE_UART, config->mode, pinsConfig);
 101:.\Generated_Source\PSoC4/UART_1_UART.c **** 
 102:.\Generated_Source\PSoC4/UART_1_UART.c ****             /* Store internal configuration */
 103:.\Generated_Source\PSoC4/UART_1_UART.c ****             UART_1_scbMode       = (uint8) UART_1_SCB_MODE_UART;
 104:.\Generated_Source\PSoC4/UART_1_UART.c ****             UART_1_scbEnableWake = (uint8) config->enableWake;
 105:.\Generated_Source\PSoC4/UART_1_UART.c ****             UART_1_scbEnableIntr = (uint8) config->enableInterrupt;
 106:.\Generated_Source\PSoC4/UART_1_UART.c **** 
 107:.\Generated_Source\PSoC4/UART_1_UART.c ****             /* Set RX direction internal variables */
 108:.\Generated_Source\PSoC4/UART_1_UART.c ****             UART_1_rxBuffer      =         config->rxBuffer;
 109:.\Generated_Source\PSoC4/UART_1_UART.c ****             UART_1_rxDataBits    = (uint8) config->dataBits;
 110:.\Generated_Source\PSoC4/UART_1_UART.c ****             UART_1_rxBufferSize  = (uint8) config->rxBufferSize;
 111:.\Generated_Source\PSoC4/UART_1_UART.c **** 
 112:.\Generated_Source\PSoC4/UART_1_UART.c ****             /* Set TX direction internal variables */
 113:.\Generated_Source\PSoC4/UART_1_UART.c ****             UART_1_txBuffer      =         config->txBuffer;
 114:.\Generated_Source\PSoC4/UART_1_UART.c ****             UART_1_txDataBits    = (uint8) config->dataBits;
 115:.\Generated_Source\PSoC4/UART_1_UART.c ****             UART_1_txBufferSize  = (uint8) config->txBufferSize;
 116:.\Generated_Source\PSoC4/UART_1_UART.c **** 
 117:.\Generated_Source\PSoC4/UART_1_UART.c ****             /* Configure UART interface */
 118:.\Generated_Source\PSoC4/UART_1_UART.c ****             if(UART_1_UART_MODE_IRDA == config->mode)
 119:.\Generated_Source\PSoC4/UART_1_UART.c ****             {
 120:.\Generated_Source\PSoC4/UART_1_UART.c ****                 /* OVS settings: IrDA */
 121:.\Generated_Source\PSoC4/UART_1_UART.c ****                 UART_1_CTRL_REG  = ((0u != config->enableIrdaLowPower) ?
 122:.\Generated_Source\PSoC4/UART_1_UART.c ****                                                 (UART_1_UART_GET_CTRL_OVS_IRDA_LP(config->oversampl
 123:.\Generated_Source\PSoC4/UART_1_UART.c ****                                                 (UART_1_CTRL_OVS_IRDA_OVS16));
 124:.\Generated_Source\PSoC4/UART_1_UART.c ****             }
 125:.\Generated_Source\PSoC4/UART_1_UART.c ****             else
 126:.\Generated_Source\PSoC4/UART_1_UART.c ****             {
 127:.\Generated_Source\PSoC4/UART_1_UART.c ****                 /* OVS settings: UART and SmartCard */
 128:.\Generated_Source\PSoC4/UART_1_UART.c ****                 UART_1_CTRL_REG  = UART_1_GET_CTRL_OVS(config->oversample);
 129:.\Generated_Source\PSoC4/UART_1_UART.c ****             }
 130:.\Generated_Source\PSoC4/UART_1_UART.c **** 
 131:.\Generated_Source\PSoC4/UART_1_UART.c ****             UART_1_CTRL_REG     |= UART_1_GET_CTRL_BYTE_MODE  (config->enableByteMode)      |
 132:.\Generated_Source\PSoC4/UART_1_UART.c ****                                              UART_1_GET_CTRL_ADDR_ACCEPT(config->multiprocAcceptAdd
 133:.\Generated_Source\PSoC4/UART_1_UART.c ****                                              UART_1_CTRL_UART;
 134:.\Generated_Source\PSoC4/UART_1_UART.c **** 
 135:.\Generated_Source\PSoC4/UART_1_UART.c ****             /* Configure sub-mode: UART, SmartCard or IrDA */
 136:.\Generated_Source\PSoC4/UART_1_UART.c ****             UART_1_UART_CTRL_REG = UART_1_GET_UART_CTRL_MODE(config->mode);
 137:.\Generated_Source\PSoC4/UART_1_UART.c **** 
 138:.\Generated_Source\PSoC4/UART_1_UART.c ****             /* Configure RX direction */
 139:.\Generated_Source\PSoC4/UART_1_UART.c ****             UART_1_UART_RX_CTRL_REG = UART_1_GET_UART_RX_CTRL_MODE(config->stopBits)              |
 140:.\Generated_Source\PSoC4/UART_1_UART.c ****                                         UART_1_GET_UART_RX_CTRL_POLARITY(config->enableInvertedRx) 
 141:.\Generated_Source\PSoC4/UART_1_UART.c ****                                         UART_1_GET_UART_RX_CTRL_MP_MODE(config->enableMultiproc)   
 142:.\Generated_Source\PSoC4/UART_1_UART.c ****                                         UART_1_GET_UART_RX_CTRL_DROP_ON_PARITY_ERR(config->dropOnPa
 143:.\Generated_Source\PSoC4/UART_1_UART.c ****                                         UART_1_GET_UART_RX_CTRL_DROP_ON_FRAME_ERR(config->dropOnFra
 144:.\Generated_Source\PSoC4/UART_1_UART.c **** 
 145:.\Generated_Source\PSoC4/UART_1_UART.c ****             if(UART_1_UART_PARITY_NONE != config->parity)
 146:.\Generated_Source\PSoC4/UART_1_UART.c ****             {
ARM GAS  C:\Users\SNFU\AppData\Local\Temp\ccVthI9s.s 			page 4


 147:.\Generated_Source\PSoC4/UART_1_UART.c ****                UART_1_UART_RX_CTRL_REG |= UART_1_GET_UART_RX_CTRL_PARITY(config->parity) |
 148:.\Generated_Source\PSoC4/UART_1_UART.c ****                                                     UART_1_UART_RX_CTRL_PARITY_ENABLED;
 149:.\Generated_Source\PSoC4/UART_1_UART.c ****             }
 150:.\Generated_Source\PSoC4/UART_1_UART.c **** 
 151:.\Generated_Source\PSoC4/UART_1_UART.c ****             UART_1_RX_CTRL_REG      = UART_1_GET_RX_CTRL_DATA_WIDTH(config->dataBits)       |
 152:.\Generated_Source\PSoC4/UART_1_UART.c ****                                                 UART_1_GET_RX_CTRL_MEDIAN(config->enableMedianFilte
 153:.\Generated_Source\PSoC4/UART_1_UART.c ****                                                 UART_1_GET_UART_RX_CTRL_ENABLED(config->direction);
 154:.\Generated_Source\PSoC4/UART_1_UART.c **** 
 155:.\Generated_Source\PSoC4/UART_1_UART.c ****             UART_1_RX_FIFO_CTRL_REG = UART_1_GET_RX_FIFO_CTRL_TRIGGER_LEVEL(config->rxTriggerLevel)
 156:.\Generated_Source\PSoC4/UART_1_UART.c **** 
 157:.\Generated_Source\PSoC4/UART_1_UART.c ****             /* Configure MP address */
 158:.\Generated_Source\PSoC4/UART_1_UART.c ****             UART_1_RX_MATCH_REG     = UART_1_GET_RX_MATCH_ADDR(config->multiprocAddr) |
 159:.\Generated_Source\PSoC4/UART_1_UART.c ****                                                 UART_1_GET_RX_MATCH_MASK(config->multiprocAddrMask)
 160:.\Generated_Source\PSoC4/UART_1_UART.c **** 
 161:.\Generated_Source\PSoC4/UART_1_UART.c ****             /* Configure RX direction */
 162:.\Generated_Source\PSoC4/UART_1_UART.c ****             UART_1_UART_TX_CTRL_REG = UART_1_GET_UART_TX_CTRL_MODE(config->stopBits) |
 163:.\Generated_Source\PSoC4/UART_1_UART.c ****                                                 UART_1_GET_UART_TX_CTRL_RETRY_NACK(config->enableRe
 164:.\Generated_Source\PSoC4/UART_1_UART.c **** 
 165:.\Generated_Source\PSoC4/UART_1_UART.c ****             if(UART_1_UART_PARITY_NONE != config->parity)
 166:.\Generated_Source\PSoC4/UART_1_UART.c ****             {
 167:.\Generated_Source\PSoC4/UART_1_UART.c ****                UART_1_UART_TX_CTRL_REG |= UART_1_GET_UART_TX_CTRL_PARITY(config->parity) |
 168:.\Generated_Source\PSoC4/UART_1_UART.c ****                                                     UART_1_UART_TX_CTRL_PARITY_ENABLED;
 169:.\Generated_Source\PSoC4/UART_1_UART.c ****             }
 170:.\Generated_Source\PSoC4/UART_1_UART.c **** 
 171:.\Generated_Source\PSoC4/UART_1_UART.c ****             UART_1_TX_CTRL_REG      = UART_1_GET_TX_CTRL_DATA_WIDTH(config->dataBits)    |
 172:.\Generated_Source\PSoC4/UART_1_UART.c ****                                                 UART_1_GET_UART_TX_CTRL_ENABLED(config->direction);
 173:.\Generated_Source\PSoC4/UART_1_UART.c **** 
 174:.\Generated_Source\PSoC4/UART_1_UART.c ****             UART_1_TX_FIFO_CTRL_REG = UART_1_GET_TX_FIFO_CTRL_TRIGGER_LEVEL(config->txTriggerLevel)
 175:.\Generated_Source\PSoC4/UART_1_UART.c **** 
 176:.\Generated_Source\PSoC4/UART_1_UART.c ****         #if !(UART_1_CY_SCBIP_V0 || UART_1_CY_SCBIP_V1)
 177:.\Generated_Source\PSoC4/UART_1_UART.c ****             UART_1_UART_FLOW_CTRL_REG = UART_1_GET_UART_FLOW_CTRL_CTS_ENABLE(config->enableCts) | \
 178:.\Generated_Source\PSoC4/UART_1_UART.c ****                                             UART_1_GET_UART_FLOW_CTRL_CTS_POLARITY (config->ctsPola
 179:.\Generated_Source\PSoC4/UART_1_UART.c ****                                             UART_1_GET_UART_FLOW_CTRL_RTS_POLARITY(config->rtsPolar
 180:.\Generated_Source\PSoC4/UART_1_UART.c ****                                             UART_1_GET_UART_FLOW_CTRL_TRIGGER_LEVEL(config->rtsRxFi
 181:.\Generated_Source\PSoC4/UART_1_UART.c ****         #endif /* !(UART_1_CY_SCBIP_V0 || UART_1_CY_SCBIP_V1) */
 182:.\Generated_Source\PSoC4/UART_1_UART.c **** 
 183:.\Generated_Source\PSoC4/UART_1_UART.c ****             /* Configure interrupt with UART handler but do not enable it */
 184:.\Generated_Source\PSoC4/UART_1_UART.c ****             CyIntDisable    (UART_1_ISR_NUMBER);
 185:.\Generated_Source\PSoC4/UART_1_UART.c ****             CyIntSetPriority(UART_1_ISR_NUMBER, UART_1_ISR_PRIORITY);
 186:.\Generated_Source\PSoC4/UART_1_UART.c ****             (void) CyIntSetVector(UART_1_ISR_NUMBER, &UART_1_SPI_UART_ISR);
 187:.\Generated_Source\PSoC4/UART_1_UART.c **** 
 188:.\Generated_Source\PSoC4/UART_1_UART.c ****             /* Configure WAKE interrupt */
 189:.\Generated_Source\PSoC4/UART_1_UART.c ****         #if(UART_1_UART_RX_WAKEUP_IRQ)
 190:.\Generated_Source\PSoC4/UART_1_UART.c ****             CyIntDisable    (UART_1_RX_WAKE_ISR_NUMBER);
 191:.\Generated_Source\PSoC4/UART_1_UART.c ****             CyIntSetPriority(UART_1_RX_WAKE_ISR_NUMBER, UART_1_RX_WAKE_ISR_PRIORITY);
 192:.\Generated_Source\PSoC4/UART_1_UART.c ****             (void) CyIntSetVector(UART_1_RX_WAKE_ISR_NUMBER, &UART_1_UART_WAKEUP_ISR);
 193:.\Generated_Source\PSoC4/UART_1_UART.c ****         #endif /* (UART_1_UART_RX_WAKEUP_IRQ) */
 194:.\Generated_Source\PSoC4/UART_1_UART.c **** 
 195:.\Generated_Source\PSoC4/UART_1_UART.c ****             /* Configure interrupt sources */
 196:.\Generated_Source\PSoC4/UART_1_UART.c ****             UART_1_INTR_I2C_EC_MASK_REG = UART_1_NO_INTR_SOURCES;
 197:.\Generated_Source\PSoC4/UART_1_UART.c ****             UART_1_INTR_SPI_EC_MASK_REG = UART_1_NO_INTR_SOURCES;
 198:.\Generated_Source\PSoC4/UART_1_UART.c ****             UART_1_INTR_SLAVE_MASK_REG  = UART_1_NO_INTR_SOURCES;
 199:.\Generated_Source\PSoC4/UART_1_UART.c ****             UART_1_INTR_MASTER_MASK_REG = UART_1_NO_INTR_SOURCES;
 200:.\Generated_Source\PSoC4/UART_1_UART.c ****             UART_1_INTR_RX_MASK_REG     = config->rxInterruptMask;
 201:.\Generated_Source\PSoC4/UART_1_UART.c ****             UART_1_INTR_TX_MASK_REG     = config->txInterruptMask;
 202:.\Generated_Source\PSoC4/UART_1_UART.c **** 
 203:.\Generated_Source\PSoC4/UART_1_UART.c ****             /* Clear RX buffer indexes */
ARM GAS  C:\Users\SNFU\AppData\Local\Temp\ccVthI9s.s 			page 5


 204:.\Generated_Source\PSoC4/UART_1_UART.c ****             UART_1_rxBufferHead     = 0u;
 205:.\Generated_Source\PSoC4/UART_1_UART.c ****             UART_1_rxBufferTail     = 0u;
 206:.\Generated_Source\PSoC4/UART_1_UART.c ****             UART_1_rxBufferOverflow = 0u;
 207:.\Generated_Source\PSoC4/UART_1_UART.c **** 
 208:.\Generated_Source\PSoC4/UART_1_UART.c ****             /* Clear TX buffer indexes */
 209:.\Generated_Source\PSoC4/UART_1_UART.c ****             UART_1_txBufferHead = 0u;
 210:.\Generated_Source\PSoC4/UART_1_UART.c ****             UART_1_txBufferTail = 0u;
 211:.\Generated_Source\PSoC4/UART_1_UART.c ****         }
 212:.\Generated_Source\PSoC4/UART_1_UART.c ****     }
 213:.\Generated_Source\PSoC4/UART_1_UART.c **** 
 214:.\Generated_Source\PSoC4/UART_1_UART.c **** #else
 215:.\Generated_Source\PSoC4/UART_1_UART.c **** 
 216:.\Generated_Source\PSoC4/UART_1_UART.c ****     /*******************************************************************************
 217:.\Generated_Source\PSoC4/UART_1_UART.c ****     * Function Name: UART_1_UartInit
 218:.\Generated_Source\PSoC4/UART_1_UART.c ****     ********************************************************************************
 219:.\Generated_Source\PSoC4/UART_1_UART.c ****     *
 220:.\Generated_Source\PSoC4/UART_1_UART.c ****     * Summary:
 221:.\Generated_Source\PSoC4/UART_1_UART.c ****     *  Configures the SCB for the UART operation.
 222:.\Generated_Source\PSoC4/UART_1_UART.c ****     *
 223:.\Generated_Source\PSoC4/UART_1_UART.c ****     * Parameters:
 224:.\Generated_Source\PSoC4/UART_1_UART.c ****     *  None
 225:.\Generated_Source\PSoC4/UART_1_UART.c ****     *
 226:.\Generated_Source\PSoC4/UART_1_UART.c ****     * Return:
 227:.\Generated_Source\PSoC4/UART_1_UART.c ****     *  None
 228:.\Generated_Source\PSoC4/UART_1_UART.c ****     *
 229:.\Generated_Source\PSoC4/UART_1_UART.c ****     *******************************************************************************/
 230:.\Generated_Source\PSoC4/UART_1_UART.c ****     void UART_1_UartInit(void)
 231:.\Generated_Source\PSoC4/UART_1_UART.c ****     {
  26              		.loc 1 231 0
  27              		.cfi_startproc
 232:.\Generated_Source\PSoC4/UART_1_UART.c ****         /* Configure UART interface */
 233:.\Generated_Source\PSoC4/UART_1_UART.c ****         UART_1_CTRL_REG = UART_1_UART_DEFAULT_CTRL;
  28              		.loc 1 233 0
  29 0000 124A     		ldr	r2, .L2
  30 0002 134B     		ldr	r3, .L2+4
 231:.\Generated_Source\PSoC4/UART_1_UART.c ****     {
  31              		.loc 1 231 0
  32 0004 10B5     		push	{r4, lr}
  33              		.cfi_def_cfa_offset 8
  34              		.cfi_offset 4, -8
  35              		.cfi_offset 14, -4
  36              		.loc 1 233 0
  37 0006 1A60     		str	r2, [r3]
 234:.\Generated_Source\PSoC4/UART_1_UART.c **** 
 235:.\Generated_Source\PSoC4/UART_1_UART.c ****         /* Configure sub-mode: UART, SmartCard or IrDA */
 236:.\Generated_Source\PSoC4/UART_1_UART.c ****         UART_1_UART_CTRL_REG = UART_1_UART_DEFAULT_UART_CTRL;
  38              		.loc 1 236 0
  39 0008 124A     		ldr	r2, .L2+8
  40 000a 0023     		mov	r3, #0
  41 000c 1360     		str	r3, [r2]
 237:.\Generated_Source\PSoC4/UART_1_UART.c **** 
 238:.\Generated_Source\PSoC4/UART_1_UART.c ****         /* Configure RX direction */
 239:.\Generated_Source\PSoC4/UART_1_UART.c ****         UART_1_UART_RX_CTRL_REG = UART_1_UART_DEFAULT_UART_RX_CTRL;
  42              		.loc 1 239 0
  43 000e 124A     		ldr	r2, .L2+12
  44 0010 0121     		mov	r1, #1
  45 0012 1160     		str	r1, [r2]
ARM GAS  C:\Users\SNFU\AppData\Local\Temp\ccVthI9s.s 			page 6


 240:.\Generated_Source\PSoC4/UART_1_UART.c ****         UART_1_RX_CTRL_REG      = UART_1_UART_DEFAULT_RX_CTRL;
  46              		.loc 1 240 0
  47 0014 1148     		ldr	r0, .L2+16
  48 0016 124A     		ldr	r2, .L2+20
 241:.\Generated_Source\PSoC4/UART_1_UART.c ****         UART_1_RX_FIFO_CTRL_REG = UART_1_UART_DEFAULT_RX_FIFO_CTRL;
  49              		.loc 1 241 0
  50 0018 0724     		mov	r4, #7
 240:.\Generated_Source\PSoC4/UART_1_UART.c ****         UART_1_RX_CTRL_REG      = UART_1_UART_DEFAULT_RX_CTRL;
  51              		.loc 1 240 0
  52 001a 0260     		str	r2, [r0]
  53              		.loc 1 241 0
  54 001c 1148     		ldr	r0, .L2+24
 242:.\Generated_Source\PSoC4/UART_1_UART.c ****         UART_1_RX_MATCH_REG     = UART_1_UART_DEFAULT_RX_MATCH_REG;
 243:.\Generated_Source\PSoC4/UART_1_UART.c **** 
 244:.\Generated_Source\PSoC4/UART_1_UART.c ****         /* Configure TX direction */
 245:.\Generated_Source\PSoC4/UART_1_UART.c ****         UART_1_UART_TX_CTRL_REG = UART_1_UART_DEFAULT_UART_TX_CTRL;
 246:.\Generated_Source\PSoC4/UART_1_UART.c ****         UART_1_TX_CTRL_REG      = UART_1_UART_DEFAULT_TX_CTRL;
 247:.\Generated_Source\PSoC4/UART_1_UART.c ****         UART_1_TX_FIFO_CTRL_REG = UART_1_UART_DEFAULT_TX_FIFO_CTRL;
 248:.\Generated_Source\PSoC4/UART_1_UART.c **** 
 249:.\Generated_Source\PSoC4/UART_1_UART.c ****     #if !(UART_1_CY_SCBIP_V0 || UART_1_CY_SCBIP_V1)
 250:.\Generated_Source\PSoC4/UART_1_UART.c ****         UART_1_UART_FLOW_CTRL_REG = UART_1_UART_DEFAULT_FLOW_CTRL;
 251:.\Generated_Source\PSoC4/UART_1_UART.c ****     #endif /* !(UART_1_CY_SCBIP_V0 || UART_1_CY_SCBIP_V1) */
 252:.\Generated_Source\PSoC4/UART_1_UART.c **** 
 253:.\Generated_Source\PSoC4/UART_1_UART.c ****         /* Configure interrupt with UART handler but do not enable it */
 254:.\Generated_Source\PSoC4/UART_1_UART.c ****     #if(UART_1_SCB_IRQ_INTERNAL)
 255:.\Generated_Source\PSoC4/UART_1_UART.c ****         CyIntDisable    (UART_1_ISR_NUMBER);
 256:.\Generated_Source\PSoC4/UART_1_UART.c ****         CyIntSetPriority(UART_1_ISR_NUMBER, UART_1_ISR_PRIORITY);
 257:.\Generated_Source\PSoC4/UART_1_UART.c ****         (void) CyIntSetVector(UART_1_ISR_NUMBER, &UART_1_SPI_UART_ISR);
 258:.\Generated_Source\PSoC4/UART_1_UART.c ****     #endif /* (UART_1_SCB_IRQ_INTERNAL) */
 259:.\Generated_Source\PSoC4/UART_1_UART.c **** 
 260:.\Generated_Source\PSoC4/UART_1_UART.c ****         /* Configure WAKE interrupt */
 261:.\Generated_Source\PSoC4/UART_1_UART.c ****     #if(UART_1_UART_RX_WAKEUP_IRQ)
 262:.\Generated_Source\PSoC4/UART_1_UART.c ****         CyIntDisable    (UART_1_RX_WAKE_ISR_NUMBER);
 263:.\Generated_Source\PSoC4/UART_1_UART.c ****         CyIntSetPriority(UART_1_RX_WAKE_ISR_NUMBER, UART_1_RX_WAKE_ISR_PRIORITY);
 264:.\Generated_Source\PSoC4/UART_1_UART.c ****         (void) CyIntSetVector(UART_1_RX_WAKE_ISR_NUMBER, &UART_1_UART_WAKEUP_ISR);
 265:.\Generated_Source\PSoC4/UART_1_UART.c ****     #endif /* (UART_1_UART_RX_WAKEUP_IRQ) */
 266:.\Generated_Source\PSoC4/UART_1_UART.c **** 
 267:.\Generated_Source\PSoC4/UART_1_UART.c ****         /* Configure interrupt sources */
 268:.\Generated_Source\PSoC4/UART_1_UART.c ****         UART_1_INTR_I2C_EC_MASK_REG = UART_1_UART_DEFAULT_INTR_I2C_EC_MASK;
 269:.\Generated_Source\PSoC4/UART_1_UART.c ****         UART_1_INTR_SPI_EC_MASK_REG = UART_1_UART_DEFAULT_INTR_SPI_EC_MASK;
 270:.\Generated_Source\PSoC4/UART_1_UART.c ****         UART_1_INTR_SLAVE_MASK_REG  = UART_1_UART_DEFAULT_INTR_SLAVE_MASK;
 271:.\Generated_Source\PSoC4/UART_1_UART.c ****         UART_1_INTR_MASTER_MASK_REG = UART_1_UART_DEFAULT_INTR_MASTER_MASK;
 272:.\Generated_Source\PSoC4/UART_1_UART.c ****         UART_1_INTR_RX_MASK_REG     = UART_1_UART_DEFAULT_INTR_RX_MASK;
 273:.\Generated_Source\PSoC4/UART_1_UART.c ****         UART_1_INTR_TX_MASK_REG     = UART_1_UART_DEFAULT_INTR_TX_MASK;
 274:.\Generated_Source\PSoC4/UART_1_UART.c **** 
 275:.\Generated_Source\PSoC4/UART_1_UART.c ****     #if(UART_1_INTERNAL_RX_SW_BUFFER_CONST)
 276:.\Generated_Source\PSoC4/UART_1_UART.c ****         UART_1_rxBufferHead     = 0u;
 277:.\Generated_Source\PSoC4/UART_1_UART.c ****         UART_1_rxBufferTail     = 0u;
 278:.\Generated_Source\PSoC4/UART_1_UART.c ****         UART_1_rxBufferOverflow = 0u;
 279:.\Generated_Source\PSoC4/UART_1_UART.c ****     #endif /* (UART_1_INTERNAL_RX_SW_BUFFER_CONST) */
 280:.\Generated_Source\PSoC4/UART_1_UART.c **** 
 281:.\Generated_Source\PSoC4/UART_1_UART.c ****     #if(UART_1_INTERNAL_TX_SW_BUFFER_CONST)
 282:.\Generated_Source\PSoC4/UART_1_UART.c ****         UART_1_txBufferHead = 0u;
 283:.\Generated_Source\PSoC4/UART_1_UART.c ****         UART_1_txBufferTail = 0u;
 284:.\Generated_Source\PSoC4/UART_1_UART.c ****     #endif /* (UART_1_INTERNAL_TX_SW_BUFFER_CONST) */
 285:.\Generated_Source\PSoC4/UART_1_UART.c ****     }
  55              		.loc 1 285 0
ARM GAS  C:\Users\SNFU\AppData\Local\Temp\ccVthI9s.s 			page 7


  56              		@ sp needed
 241:.\Generated_Source\PSoC4/UART_1_UART.c ****         UART_1_RX_FIFO_CTRL_REG = UART_1_UART_DEFAULT_RX_FIFO_CTRL;
  57              		.loc 1 241 0
  58 001e 0460     		str	r4, [r0]
 242:.\Generated_Source\PSoC4/UART_1_UART.c ****         UART_1_RX_MATCH_REG     = UART_1_UART_DEFAULT_RX_MATCH_REG;
  59              		.loc 1 242 0
  60 0020 1148     		ldr	r0, .L2+28
  61 0022 0360     		str	r3, [r0]
 245:.\Generated_Source\PSoC4/UART_1_UART.c ****         UART_1_UART_TX_CTRL_REG = UART_1_UART_DEFAULT_UART_TX_CTRL;
  62              		.loc 1 245 0
  63 0024 1148     		ldr	r0, .L2+32
  64 0026 0160     		str	r1, [r0]
 246:.\Generated_Source\PSoC4/UART_1_UART.c ****         UART_1_TX_CTRL_REG      = UART_1_UART_DEFAULT_TX_CTRL;
  65              		.loc 1 246 0
  66 0028 1149     		ldr	r1, .L2+36
  67 002a 0A60     		str	r2, [r1]
 247:.\Generated_Source\PSoC4/UART_1_UART.c ****         UART_1_TX_FIFO_CTRL_REG = UART_1_UART_DEFAULT_TX_FIFO_CTRL;
  68              		.loc 1 247 0
  69 002c 114A     		ldr	r2, .L2+40
  70 002e 1360     		str	r3, [r2]
 268:.\Generated_Source\PSoC4/UART_1_UART.c ****         UART_1_INTR_I2C_EC_MASK_REG = UART_1_UART_DEFAULT_INTR_I2C_EC_MASK;
  71              		.loc 1 268 0
  72 0030 114A     		ldr	r2, .L2+44
  73 0032 1360     		str	r3, [r2]
 269:.\Generated_Source\PSoC4/UART_1_UART.c ****         UART_1_INTR_SPI_EC_MASK_REG = UART_1_UART_DEFAULT_INTR_SPI_EC_MASK;
  74              		.loc 1 269 0
  75 0034 114A     		ldr	r2, .L2+48
  76 0036 1360     		str	r3, [r2]
 270:.\Generated_Source\PSoC4/UART_1_UART.c ****         UART_1_INTR_SLAVE_MASK_REG  = UART_1_UART_DEFAULT_INTR_SLAVE_MASK;
  77              		.loc 1 270 0
  78 0038 114A     		ldr	r2, .L2+52
  79 003a 1360     		str	r3, [r2]
 271:.\Generated_Source\PSoC4/UART_1_UART.c ****         UART_1_INTR_MASTER_MASK_REG = UART_1_UART_DEFAULT_INTR_MASTER_MASK;
  80              		.loc 1 271 0
  81 003c 114A     		ldr	r2, .L2+56
  82 003e 1360     		str	r3, [r2]
 272:.\Generated_Source\PSoC4/UART_1_UART.c ****         UART_1_INTR_RX_MASK_REG     = UART_1_UART_DEFAULT_INTR_RX_MASK;
  83              		.loc 1 272 0
  84 0040 114A     		ldr	r2, .L2+60
  85 0042 1360     		str	r3, [r2]
 273:.\Generated_Source\PSoC4/UART_1_UART.c ****         UART_1_INTR_TX_MASK_REG     = UART_1_UART_DEFAULT_INTR_TX_MASK;
  86              		.loc 1 273 0
  87 0044 114A     		ldr	r2, .L2+64
  88 0046 1360     		str	r3, [r2]
  89              		.loc 1 285 0
  90 0048 10BD     		pop	{r4, pc}
  91              	.L3:
  92 004a C046     		.align	2
  93              	.L2:
  94 004c 0B000002 		.word	33554443
  95 0050 00000640 		.word	1074135040
  96 0054 40000640 		.word	1074135104
  97 0058 48000640 		.word	1074135112
  98 005c 00030640 		.word	1074135808
  99 0060 07000080 		.word	-2147483641
 100 0064 04030640 		.word	1074135812
 101 0068 10030640 		.word	1074135824
ARM GAS  C:\Users\SNFU\AppData\Local\Temp\ccVthI9s.s 			page 8


 102 006c 44000640 		.word	1074135108
 103 0070 00020640 		.word	1074135552
 104 0074 04020640 		.word	1074135556
 105 0078 880E0640 		.word	1074138760
 106 007c C80E0640 		.word	1074138824
 107 0080 480F0640 		.word	1074138952
 108 0084 080F0640 		.word	1074138888
 109 0088 C80F0640 		.word	1074139080
 110 008c 880F0640 		.word	1074139016
 111              		.cfi_endproc
 112              	.LFE0:
 113              		.size	UART_1_UartInit, .-UART_1_UartInit
 114              		.section	.text.UART_1_UartSetRxAddress,"ax",%progbits
 115              		.align	1
 116              		.global	UART_1_UartSetRxAddress
 117              		.code	16
 118              		.thumb_func
 119              		.type	UART_1_UartSetRxAddress, %function
 120              	UART_1_UartSetRxAddress:
 121              	.LFB1:
 286:.\Generated_Source\PSoC4/UART_1_UART.c **** #endif /* (UART_1_SCB_MODE_UNCONFIG_CONST_CFG) */
 287:.\Generated_Source\PSoC4/UART_1_UART.c **** 
 288:.\Generated_Source\PSoC4/UART_1_UART.c **** 
 289:.\Generated_Source\PSoC4/UART_1_UART.c **** /*******************************************************************************
 290:.\Generated_Source\PSoC4/UART_1_UART.c **** * Function Name: UART_1_UartSetRxAddress
 291:.\Generated_Source\PSoC4/UART_1_UART.c **** ********************************************************************************
 292:.\Generated_Source\PSoC4/UART_1_UART.c **** *
 293:.\Generated_Source\PSoC4/UART_1_UART.c **** * Summary:
 294:.\Generated_Source\PSoC4/UART_1_UART.c **** *  Sets the hardware detectable receiver address for the UART in the
 295:.\Generated_Source\PSoC4/UART_1_UART.c **** *  Multiprocessor mode.
 296:.\Generated_Source\PSoC4/UART_1_UART.c **** *
 297:.\Generated_Source\PSoC4/UART_1_UART.c **** * Parameters:
 298:.\Generated_Source\PSoC4/UART_1_UART.c **** *  address: Address for hardware address detection.
 299:.\Generated_Source\PSoC4/UART_1_UART.c **** *
 300:.\Generated_Source\PSoC4/UART_1_UART.c **** * Return:
 301:.\Generated_Source\PSoC4/UART_1_UART.c **** *  None
 302:.\Generated_Source\PSoC4/UART_1_UART.c **** *
 303:.\Generated_Source\PSoC4/UART_1_UART.c **** *******************************************************************************/
 304:.\Generated_Source\PSoC4/UART_1_UART.c **** void UART_1_UartSetRxAddress(uint32 address)
 305:.\Generated_Source\PSoC4/UART_1_UART.c **** {
 122              		.loc 1 305 0
 123              		.cfi_startproc
 124              	.LVL0:
 306:.\Generated_Source\PSoC4/UART_1_UART.c ****      uint32 matchReg;
 307:.\Generated_Source\PSoC4/UART_1_UART.c **** 
 308:.\Generated_Source\PSoC4/UART_1_UART.c ****     matchReg = UART_1_RX_MATCH_REG;
 125              		.loc 1 308 0
 126 0000 034B     		ldr	r3, .L5
 309:.\Generated_Source\PSoC4/UART_1_UART.c **** 
 310:.\Generated_Source\PSoC4/UART_1_UART.c ****     matchReg &= ((uint32) ~UART_1_RX_MATCH_ADDR_MASK); /* Clear address bits */
 127              		.loc 1 310 0
 128 0002 FF22     		mov	r2, #255
 308:.\Generated_Source\PSoC4/UART_1_UART.c ****     matchReg = UART_1_RX_MATCH_REG;
 129              		.loc 1 308 0
 130 0004 1968     		ldr	r1, [r3]
 131              	.LVL1:
 311:.\Generated_Source\PSoC4/UART_1_UART.c ****     matchReg |= ((uint32)  (address & UART_1_RX_MATCH_ADDR_MASK)); /* Set address  */
ARM GAS  C:\Users\SNFU\AppData\Local\Temp\ccVthI9s.s 			page 9


 312:.\Generated_Source\PSoC4/UART_1_UART.c **** 
 313:.\Generated_Source\PSoC4/UART_1_UART.c ****     UART_1_RX_MATCH_REG = matchReg;
 314:.\Generated_Source\PSoC4/UART_1_UART.c **** }
 132              		.loc 1 314 0
 133              		@ sp needed
 310:.\Generated_Source\PSoC4/UART_1_UART.c ****     matchReg &= ((uint32) ~UART_1_RX_MATCH_ADDR_MASK); /* Clear address bits */
 134              		.loc 1 310 0
 135 0006 9143     		bic	r1, r2
 136              	.LVL2:
 311:.\Generated_Source\PSoC4/UART_1_UART.c ****     matchReg |= ((uint32)  (address & UART_1_RX_MATCH_ADDR_MASK)); /* Set address  */
 137              		.loc 1 311 0
 138 0008 0240     		and	r2, r0
 139 000a 0A43     		orr	r2, r1
 140              	.LVL3:
 313:.\Generated_Source\PSoC4/UART_1_UART.c ****     UART_1_RX_MATCH_REG = matchReg;
 141              		.loc 1 313 0
 142 000c 1A60     		str	r2, [r3]
 143              		.loc 1 314 0
 144 000e 7047     		bx	lr
 145              	.L6:
 146              		.align	2
 147              	.L5:
 148 0010 10030640 		.word	1074135824
 149              		.cfi_endproc
 150              	.LFE1:
 151              		.size	UART_1_UartSetRxAddress, .-UART_1_UartSetRxAddress
 152              		.section	.text.UART_1_UartSetRxAddressMask,"ax",%progbits
 153              		.align	1
 154              		.global	UART_1_UartSetRxAddressMask
 155              		.code	16
 156              		.thumb_func
 157              		.type	UART_1_UartSetRxAddressMask, %function
 158              	UART_1_UartSetRxAddressMask:
 159              	.LFB2:
 315:.\Generated_Source\PSoC4/UART_1_UART.c **** 
 316:.\Generated_Source\PSoC4/UART_1_UART.c **** 
 317:.\Generated_Source\PSoC4/UART_1_UART.c **** /*******************************************************************************
 318:.\Generated_Source\PSoC4/UART_1_UART.c **** * Function Name: UART_1_UartSetRxAddressMask
 319:.\Generated_Source\PSoC4/UART_1_UART.c **** ********************************************************************************
 320:.\Generated_Source\PSoC4/UART_1_UART.c **** *
 321:.\Generated_Source\PSoC4/UART_1_UART.c **** * Summary:
 322:.\Generated_Source\PSoC4/UART_1_UART.c **** *  Sets the hardware address mask for the UART in the Multiprocessor mode.
 323:.\Generated_Source\PSoC4/UART_1_UART.c **** *
 324:.\Generated_Source\PSoC4/UART_1_UART.c **** * Parameters:
 325:.\Generated_Source\PSoC4/UART_1_UART.c **** *  addressMask: Address mask.
 326:.\Generated_Source\PSoC4/UART_1_UART.c **** *   0 - address bit does not care while comparison.
 327:.\Generated_Source\PSoC4/UART_1_UART.c **** *   1 - address bit is significant while comparison.
 328:.\Generated_Source\PSoC4/UART_1_UART.c **** *
 329:.\Generated_Source\PSoC4/UART_1_UART.c **** * Return:
 330:.\Generated_Source\PSoC4/UART_1_UART.c **** *  None
 331:.\Generated_Source\PSoC4/UART_1_UART.c **** *
 332:.\Generated_Source\PSoC4/UART_1_UART.c **** *******************************************************************************/
 333:.\Generated_Source\PSoC4/UART_1_UART.c **** void UART_1_UartSetRxAddressMask(uint32 addressMask)
 334:.\Generated_Source\PSoC4/UART_1_UART.c **** {
 160              		.loc 1 334 0
 161              		.cfi_startproc
 162              	.LVL4:
ARM GAS  C:\Users\SNFU\AppData\Local\Temp\ccVthI9s.s 			page 10


 335:.\Generated_Source\PSoC4/UART_1_UART.c ****     uint32 matchReg;
 336:.\Generated_Source\PSoC4/UART_1_UART.c **** 
 337:.\Generated_Source\PSoC4/UART_1_UART.c ****     matchReg = UART_1_RX_MATCH_REG;
 163              		.loc 1 337 0
 164 0000 034B     		ldr	r3, .L8
 338:.\Generated_Source\PSoC4/UART_1_UART.c **** 
 339:.\Generated_Source\PSoC4/UART_1_UART.c ****     matchReg &= ((uint32) ~UART_1_RX_MATCH_MASK_MASK); /* Clear address mask bits */
 165              		.loc 1 339 0
 166 0002 044A     		ldr	r2, .L8+4
 337:.\Generated_Source\PSoC4/UART_1_UART.c ****     matchReg = UART_1_RX_MATCH_REG;
 167              		.loc 1 337 0
 168 0004 1968     		ldr	r1, [r3]
 169              	.LVL5:
 340:.\Generated_Source\PSoC4/UART_1_UART.c ****     matchReg |= ((uint32) (addressMask << UART_1_RX_MATCH_MASK_POS));
 170              		.loc 1 340 0
 171 0006 0004     		lsl	r0, r0, #16
 172              	.LVL6:
 339:.\Generated_Source\PSoC4/UART_1_UART.c ****     matchReg &= ((uint32) ~UART_1_RX_MATCH_MASK_MASK); /* Clear address mask bits */
 173              		.loc 1 339 0
 174 0008 0A40     		and	r2, r1
 175              	.LVL7:
 176              		.loc 1 340 0
 177 000a 1043     		orr	r0, r2
 178              	.LVL8:
 341:.\Generated_Source\PSoC4/UART_1_UART.c **** 
 342:.\Generated_Source\PSoC4/UART_1_UART.c ****     UART_1_RX_MATCH_REG = matchReg;
 179              		.loc 1 342 0
 180 000c 1860     		str	r0, [r3]
 343:.\Generated_Source\PSoC4/UART_1_UART.c **** }
 181              		.loc 1 343 0
 182              		@ sp needed
 183 000e 7047     		bx	lr
 184              	.L9:
 185              		.align	2
 186              	.L8:
 187 0010 10030640 		.word	1074135824
 188 0014 FFFF00FF 		.word	-16711681
 189              		.cfi_endproc
 190              	.LFE2:
 191              		.size	UART_1_UartSetRxAddressMask, .-UART_1_UartSetRxAddressMask
 192              		.section	.text.UART_1_UartGetChar,"ax",%progbits
 193              		.align	1
 194              		.global	UART_1_UartGetChar
 195              		.code	16
 196              		.thumb_func
 197              		.type	UART_1_UartGetChar, %function
 198              	UART_1_UartGetChar:
 199              	.LFB3:
 344:.\Generated_Source\PSoC4/UART_1_UART.c **** 
 345:.\Generated_Source\PSoC4/UART_1_UART.c **** 
 346:.\Generated_Source\PSoC4/UART_1_UART.c **** #if(UART_1_UART_RX_DIRECTION)
 347:.\Generated_Source\PSoC4/UART_1_UART.c ****     /*******************************************************************************
 348:.\Generated_Source\PSoC4/UART_1_UART.c ****     * Function Name: UART_1_UartGetChar
 349:.\Generated_Source\PSoC4/UART_1_UART.c ****     ********************************************************************************
 350:.\Generated_Source\PSoC4/UART_1_UART.c ****     *
 351:.\Generated_Source\PSoC4/UART_1_UART.c ****     * Summary:
 352:.\Generated_Source\PSoC4/UART_1_UART.c ****     *  Retrieves the next data element from the receive buffer.
ARM GAS  C:\Users\SNFU\AppData\Local\Temp\ccVthI9s.s 			page 11


 353:.\Generated_Source\PSoC4/UART_1_UART.c ****     *  This function is designed for ASCII characters and returns a char
 354:.\Generated_Source\PSoC4/UART_1_UART.c ****     *  where 1 to 255 are valid characters and 0 indicates an error occurred or
 355:.\Generated_Source\PSoC4/UART_1_UART.c ****     *  no data present.
 356:.\Generated_Source\PSoC4/UART_1_UART.c ****     *  - The RX software buffer is disabled: returns the data element
 357:.\Generated_Source\PSoC4/UART_1_UART.c ****     *    retrieved from the RX FIFO.
 358:.\Generated_Source\PSoC4/UART_1_UART.c ****     *    Undefined data will be returned if the RX FIFO is empty.
 359:.\Generated_Source\PSoC4/UART_1_UART.c ****     *  - The RX software buffer is enabled: returns the data element from
 360:.\Generated_Source\PSoC4/UART_1_UART.c ****     *    the software receive buffer.
 361:.\Generated_Source\PSoC4/UART_1_UART.c ****     *
 362:.\Generated_Source\PSoC4/UART_1_UART.c ****     * Parameters:
 363:.\Generated_Source\PSoC4/UART_1_UART.c ****     *  None
 364:.\Generated_Source\PSoC4/UART_1_UART.c ****     *
 365:.\Generated_Source\PSoC4/UART_1_UART.c ****     * Return:
 366:.\Generated_Source\PSoC4/UART_1_UART.c ****     *  The next data element from the receive buffer.
 367:.\Generated_Source\PSoC4/UART_1_UART.c ****     *  ASCII character values from 1 to 255 are valid.
 368:.\Generated_Source\PSoC4/UART_1_UART.c ****     *  A returned zero signifies an error condition or no data available.
 369:.\Generated_Source\PSoC4/UART_1_UART.c ****     *
 370:.\Generated_Source\PSoC4/UART_1_UART.c ****     * Side Effects:
 371:.\Generated_Source\PSoC4/UART_1_UART.c ****     *  The errors bits may not correspond with reading characters due to RX FIFO
 372:.\Generated_Source\PSoC4/UART_1_UART.c ****     *  and software buffer usage.
 373:.\Generated_Source\PSoC4/UART_1_UART.c ****     *  RX software buffer is enabled: The internal software buffer overflow
 374:.\Generated_Source\PSoC4/UART_1_UART.c ****     *  does not treat as an error condition.
 375:.\Generated_Source\PSoC4/UART_1_UART.c ****     *  Check SCB_rxBufferOverflow to capture that error condition.
 376:.\Generated_Source\PSoC4/UART_1_UART.c ****     *
 377:.\Generated_Source\PSoC4/UART_1_UART.c ****     *******************************************************************************/
 378:.\Generated_Source\PSoC4/UART_1_UART.c ****     uint32 UART_1_UartGetChar(void)
 379:.\Generated_Source\PSoC4/UART_1_UART.c ****     {
 200              		.loc 1 379 0
 201              		.cfi_startproc
 202              	.LVL9:
 203 0000 08B5     		push	{r3, lr}
 204              		.cfi_def_cfa_offset 8
 205              		.cfi_offset 3, -8
 206              		.cfi_offset 14, -4
 380:.\Generated_Source\PSoC4/UART_1_UART.c ****         uint32 rxData = 0u;
 381:.\Generated_Source\PSoC4/UART_1_UART.c **** 
 382:.\Generated_Source\PSoC4/UART_1_UART.c ****         /* Reads data only if there is data to read */
 383:.\Generated_Source\PSoC4/UART_1_UART.c ****         if(0u != UART_1_SpiUartGetRxBufferSize())
 207              		.loc 1 383 0
 208 0002 FFF7FEFF 		bl	UART_1_SpiUartGetRxBufferSize
 209              	.LVL10:
 210 0006 031C     		mov	r3, r0
 380:.\Generated_Source\PSoC4/UART_1_UART.c ****         uint32 rxData = 0u;
 211              		.loc 1 380 0
 212 0008 0020     		mov	r0, #0
 213              		.loc 1 383 0
 214 000a 8342     		cmp	r3, r0
 215 000c 01D0     		beq	.L11
 384:.\Generated_Source\PSoC4/UART_1_UART.c ****         {
 385:.\Generated_Source\PSoC4/UART_1_UART.c ****             rxData = UART_1_SpiUartReadRxData();
 216              		.loc 1 385 0
 217 000e FFF7FEFF 		bl	UART_1_SpiUartReadRxData
 218              	.LVL11:
 219              	.L11:
 386:.\Generated_Source\PSoC4/UART_1_UART.c ****         }
 387:.\Generated_Source\PSoC4/UART_1_UART.c **** 
 388:.\Generated_Source\PSoC4/UART_1_UART.c ****         if(UART_1_CHECK_INTR_RX(UART_1_INTR_RX_ERR))
ARM GAS  C:\Users\SNFU\AppData\Local\Temp\ccVthI9s.s 			page 12


 220              		.loc 1 388 0
 221 0012 044B     		ldr	r3, .L19
 222 0014 D822     		mov	r2, #216
 223 0016 1968     		ldr	r1, [r3]
 224 0018 9200     		lsl	r2, r2, #2
 225 001a 1142     		tst	r1, r2
 226 001c 01D0     		beq	.L12
 227              	.LVL12:
 389:.\Generated_Source\PSoC4/UART_1_UART.c ****         {
 390:.\Generated_Source\PSoC4/UART_1_UART.c ****             rxData = 0u; /* Error occurred: returns zero */
 391:.\Generated_Source\PSoC4/UART_1_UART.c ****             UART_1_ClearRxInterruptSource(UART_1_INTR_RX_ERR);
 228              		.loc 1 391 0
 229 001e 1A60     		str	r2, [r3]
 390:.\Generated_Source\PSoC4/UART_1_UART.c ****             rxData = 0u; /* Error occurred: returns zero */
 230              		.loc 1 390 0
 231 0020 0020     		mov	r0, #0
 232              	.LVL13:
 233              	.L12:
 392:.\Generated_Source\PSoC4/UART_1_UART.c ****         }
 393:.\Generated_Source\PSoC4/UART_1_UART.c **** 
 394:.\Generated_Source\PSoC4/UART_1_UART.c ****         return(rxData);
 395:.\Generated_Source\PSoC4/UART_1_UART.c ****     }
 234              		.loc 1 395 0
 235              		@ sp needed
 236 0022 08BD     		pop	{r3, pc}
 237              	.L20:
 238              		.align	2
 239              	.L19:
 240 0024 C00F0640 		.word	1074139072
 241              		.cfi_endproc
 242              	.LFE3:
 243              		.size	UART_1_UartGetChar, .-UART_1_UartGetChar
 244              		.section	.text.UART_1_UartGetByte,"ax",%progbits
 245              		.align	1
 246              		.global	UART_1_UartGetByte
 247              		.code	16
 248              		.thumb_func
 249              		.type	UART_1_UartGetByte, %function
 250              	UART_1_UartGetByte:
 251              	.LFB4:
 396:.\Generated_Source\PSoC4/UART_1_UART.c **** 
 397:.\Generated_Source\PSoC4/UART_1_UART.c **** 
 398:.\Generated_Source\PSoC4/UART_1_UART.c ****     /*******************************************************************************
 399:.\Generated_Source\PSoC4/UART_1_UART.c ****     * Function Name: UART_1_UartGetByte
 400:.\Generated_Source\PSoC4/UART_1_UART.c ****     ********************************************************************************
 401:.\Generated_Source\PSoC4/UART_1_UART.c ****     *
 402:.\Generated_Source\PSoC4/UART_1_UART.c ****     * Summary:
 403:.\Generated_Source\PSoC4/UART_1_UART.c ****     *  Retrieves the next data element from the receive buffer, returns the
 404:.\Generated_Source\PSoC4/UART_1_UART.c ****     *  received byte and error condition.
 405:.\Generated_Source\PSoC4/UART_1_UART.c ****     *   - The RX software buffer is disabled: returns the data element retrieved
 406:.\Generated_Source\PSoC4/UART_1_UART.c ****     *     from the RX FIFO. Undefined data will be returned if the RX FIFO is
 407:.\Generated_Source\PSoC4/UART_1_UART.c ****     *     empty.
 408:.\Generated_Source\PSoC4/UART_1_UART.c ****     *   - The RX software buffer is enabled: returns data element from the
 409:.\Generated_Source\PSoC4/UART_1_UART.c ****     *     software receive buffer.
 410:.\Generated_Source\PSoC4/UART_1_UART.c ****     *
 411:.\Generated_Source\PSoC4/UART_1_UART.c ****     * Parameters:
 412:.\Generated_Source\PSoC4/UART_1_UART.c ****     *  None
ARM GAS  C:\Users\SNFU\AppData\Local\Temp\ccVthI9s.s 			page 13


 413:.\Generated_Source\PSoC4/UART_1_UART.c ****     *
 414:.\Generated_Source\PSoC4/UART_1_UART.c ****     * Return:
 415:.\Generated_Source\PSoC4/UART_1_UART.c ****     *  Bits 7-0 contain the next data element from the receive buffer and
 416:.\Generated_Source\PSoC4/UART_1_UART.c ****     *  other bits contain the error condition.
 417:.\Generated_Source\PSoC4/UART_1_UART.c ****     *
 418:.\Generated_Source\PSoC4/UART_1_UART.c ****     * Side Effects:
 419:.\Generated_Source\PSoC4/UART_1_UART.c ****     *  The errors bits may not correspond with reading characters due to RX FIFO
 420:.\Generated_Source\PSoC4/UART_1_UART.c ****     *  and software buffer usage.
 421:.\Generated_Source\PSoC4/UART_1_UART.c ****     *  RX software buffer is disabled: The internal software buffer overflow
 422:.\Generated_Source\PSoC4/UART_1_UART.c ****     *  is not returned as status by this function.
 423:.\Generated_Source\PSoC4/UART_1_UART.c ****     *  Check SCB_rxBufferOverflow to capture that error condition.
 424:.\Generated_Source\PSoC4/UART_1_UART.c ****     *
 425:.\Generated_Source\PSoC4/UART_1_UART.c ****     *******************************************************************************/
 426:.\Generated_Source\PSoC4/UART_1_UART.c ****     uint32 UART_1_UartGetByte(void)
 427:.\Generated_Source\PSoC4/UART_1_UART.c ****     {
 252              		.loc 1 427 0
 253              		.cfi_startproc
 254 0000 10B5     		push	{r4, lr}
 255              		.cfi_def_cfa_offset 8
 256              		.cfi_offset 4, -8
 257              		.cfi_offset 14, -4
 428:.\Generated_Source\PSoC4/UART_1_UART.c ****         uint32 rxData;
 429:.\Generated_Source\PSoC4/UART_1_UART.c ****         uint32 tmpStatus;
 430:.\Generated_Source\PSoC4/UART_1_UART.c ****         uint32 intSourceMask;
 431:.\Generated_Source\PSoC4/UART_1_UART.c **** 
 432:.\Generated_Source\PSoC4/UART_1_UART.c ****         intSourceMask = UART_1_SpiUartDisableIntRx();
 258              		.loc 1 432 0
 259 0002 FFF7FEFF 		bl	UART_1_SpiUartDisableIntRx
 260              	.LVL14:
 261 0006 041C     		mov	r4, r0
 262              	.LVL15:
 433:.\Generated_Source\PSoC4/UART_1_UART.c **** 
 434:.\Generated_Source\PSoC4/UART_1_UART.c ****         if(0u != UART_1_SpiUartGetRxBufferSize())
 263              		.loc 1 434 0
 264 0008 FFF7FEFF 		bl	UART_1_SpiUartGetRxBufferSize
 265              	.LVL16:
 266 000c 094B     		ldr	r3, .L24
 267 000e 0028     		cmp	r0, #0
 268 0010 03D0     		beq	.L22
 435:.\Generated_Source\PSoC4/UART_1_UART.c ****         {
 436:.\Generated_Source\PSoC4/UART_1_UART.c ****             /* Enables interrupt to receive more bytes: at least one byte is in
 437:.\Generated_Source\PSoC4/UART_1_UART.c ****             * buffer.
 438:.\Generated_Source\PSoC4/UART_1_UART.c ****             */
 439:.\Generated_Source\PSoC4/UART_1_UART.c ****             UART_1_SpiUartEnableIntRx(intSourceMask);
 269              		.loc 1 439 0
 270 0012 1C60     		str	r4, [r3]
 440:.\Generated_Source\PSoC4/UART_1_UART.c **** 
 441:.\Generated_Source\PSoC4/UART_1_UART.c ****             /* Get received byte */
 442:.\Generated_Source\PSoC4/UART_1_UART.c ****             rxData = UART_1_SpiUartReadRxData();
 271              		.loc 1 442 0
 272 0014 FFF7FEFF 		bl	UART_1_SpiUartReadRxData
 273              	.LVL17:
 274 0018 02E0     		b	.L23
 275              	.LVL18:
 276              	.L22:
 443:.\Generated_Source\PSoC4/UART_1_UART.c ****         }
 444:.\Generated_Source\PSoC4/UART_1_UART.c ****         else
ARM GAS  C:\Users\SNFU\AppData\Local\Temp\ccVthI9s.s 			page 14


 445:.\Generated_Source\PSoC4/UART_1_UART.c ****         {
 446:.\Generated_Source\PSoC4/UART_1_UART.c ****             /* Reads a byte directly from RX FIFO: underflow is raised in the case
 447:.\Generated_Source\PSoC4/UART_1_UART.c ****             * of empty. Otherwise the first received byte will be read.
 448:.\Generated_Source\PSoC4/UART_1_UART.c ****             */
 449:.\Generated_Source\PSoC4/UART_1_UART.c ****             rxData = UART_1_RX_FIFO_RD_REG;
 277              		.loc 1 449 0
 278 001a 074A     		ldr	r2, .L24+4
 279 001c 1068     		ldr	r0, [r2]
 280              	.LVL19:
 450:.\Generated_Source\PSoC4/UART_1_UART.c **** 
 451:.\Generated_Source\PSoC4/UART_1_UART.c ****             /* Enables interrupt to receive more bytes.
 452:.\Generated_Source\PSoC4/UART_1_UART.c ****             * The RX_NOT_EMPTY interrupt is cleared by the interrupt routine
 453:.\Generated_Source\PSoC4/UART_1_UART.c ****             * in case the byte was received and read by code above.
 454:.\Generated_Source\PSoC4/UART_1_UART.c ****             */
 455:.\Generated_Source\PSoC4/UART_1_UART.c ****             UART_1_SpiUartEnableIntRx(intSourceMask);
 281              		.loc 1 455 0
 282 001e 1C60     		str	r4, [r3]
 283              	.L23:
 456:.\Generated_Source\PSoC4/UART_1_UART.c ****         }
 457:.\Generated_Source\PSoC4/UART_1_UART.c **** 
 458:.\Generated_Source\PSoC4/UART_1_UART.c ****         /* Get and clear RX error mask */
 459:.\Generated_Source\PSoC4/UART_1_UART.c ****         tmpStatus = (UART_1_GetRxInterruptSource() & UART_1_INTR_RX_ERR);
 284              		.loc 1 459 0
 285 0020 064A     		ldr	r2, .L24+8
 460:.\Generated_Source\PSoC4/UART_1_UART.c ****         UART_1_ClearRxInterruptSource(UART_1_INTR_RX_ERR);
 286              		.loc 1 460 0
 287 0022 D823     		mov	r3, #216
 459:.\Generated_Source\PSoC4/UART_1_UART.c ****         tmpStatus = (UART_1_GetRxInterruptSource() & UART_1_INTR_RX_ERR);
 288              		.loc 1 459 0
 289 0024 1168     		ldr	r1, [r2]
 290              	.LVL20:
 291              		.loc 1 460 0
 292 0026 9B00     		lsl	r3, r3, #2
 293 0028 1360     		str	r3, [r2]
 294              	.LVL21:
 459:.\Generated_Source\PSoC4/UART_1_UART.c ****         tmpStatus = (UART_1_GetRxInterruptSource() & UART_1_INTR_RX_ERR);
 295              		.loc 1 459 0
 296 002a 0B40     		and	r3, r1
 461:.\Generated_Source\PSoC4/UART_1_UART.c **** 
 462:.\Generated_Source\PSoC4/UART_1_UART.c ****         /* Puts together data and error status:
 463:.\Generated_Source\PSoC4/UART_1_UART.c ****         * MP mode and accept address: 9th bit is set to notify mark.
 464:.\Generated_Source\PSoC4/UART_1_UART.c ****         */
 465:.\Generated_Source\PSoC4/UART_1_UART.c ****         rxData |= ((uint32) (tmpStatus << 8u));
 297              		.loc 1 465 0
 298 002c 1B02     		lsl	r3, r3, #8
 299 002e 1843     		orr	r0, r3
 300              	.LVL22:
 466:.\Generated_Source\PSoC4/UART_1_UART.c **** 
 467:.\Generated_Source\PSoC4/UART_1_UART.c ****         return(rxData);
 468:.\Generated_Source\PSoC4/UART_1_UART.c ****     }
 301              		.loc 1 468 0
 302              		@ sp needed
 303              	.LVL23:
 304 0030 10BD     		pop	{r4, pc}
 305              	.L25:
 306 0032 C046     		.align	2
 307              	.L24:
ARM GAS  C:\Users\SNFU\AppData\Local\Temp\ccVthI9s.s 			page 15


 308 0034 C80F0640 		.word	1074139080
 309 0038 40030640 		.word	1074135872
 310 003c C00F0640 		.word	1074139072
 311              		.cfi_endproc
 312              	.LFE4:
 313              		.size	UART_1_UartGetByte, .-UART_1_UartGetByte
 314              		.section	.text.UART_1_UartPutString,"ax",%progbits
 315              		.align	1
 316              		.global	UART_1_UartPutString
 317              		.code	16
 318              		.thumb_func
 319              		.type	UART_1_UartPutString, %function
 320              	UART_1_UartPutString:
 321              	.LFB5:
 469:.\Generated_Source\PSoC4/UART_1_UART.c **** 
 470:.\Generated_Source\PSoC4/UART_1_UART.c **** 
 471:.\Generated_Source\PSoC4/UART_1_UART.c ****     #if !(UART_1_CY_SCBIP_V0 || UART_1_CY_SCBIP_V1)
 472:.\Generated_Source\PSoC4/UART_1_UART.c ****         /*******************************************************************************
 473:.\Generated_Source\PSoC4/UART_1_UART.c ****         * Function Name: UART_1_UartSetRtsPolarity
 474:.\Generated_Source\PSoC4/UART_1_UART.c ****         ********************************************************************************
 475:.\Generated_Source\PSoC4/UART_1_UART.c ****         *
 476:.\Generated_Source\PSoC4/UART_1_UART.c ****         * Summary:
 477:.\Generated_Source\PSoC4/UART_1_UART.c ****         *  Sets active polarity of RTS output signal.
 478:.\Generated_Source\PSoC4/UART_1_UART.c ****         *
 479:.\Generated_Source\PSoC4/UART_1_UART.c ****         * Parameters:
 480:.\Generated_Source\PSoC4/UART_1_UART.c ****         *  polarity: Active polarity of RTS output signal.
 481:.\Generated_Source\PSoC4/UART_1_UART.c ****         *   UART_1_UART_RTS_ACTIVE_LOW  - RTS signal is active low.
 482:.\Generated_Source\PSoC4/UART_1_UART.c ****         *   UART_1_UART_RTS_ACTIVE_HIGH - RTS signal is active high.
 483:.\Generated_Source\PSoC4/UART_1_UART.c ****         *
 484:.\Generated_Source\PSoC4/UART_1_UART.c ****         * Return:
 485:.\Generated_Source\PSoC4/UART_1_UART.c ****         *  None
 486:.\Generated_Source\PSoC4/UART_1_UART.c ****         *
 487:.\Generated_Source\PSoC4/UART_1_UART.c ****         *******************************************************************************/
 488:.\Generated_Source\PSoC4/UART_1_UART.c ****         void UART_1_UartSetRtsPolarity(uint32 polarity)
 489:.\Generated_Source\PSoC4/UART_1_UART.c ****         {
 490:.\Generated_Source\PSoC4/UART_1_UART.c ****             if(0u != polarity)
 491:.\Generated_Source\PSoC4/UART_1_UART.c ****             {
 492:.\Generated_Source\PSoC4/UART_1_UART.c ****                 UART_1_UART_FLOW_CTRL_REG |= (uint32)  UART_1_UART_FLOW_CTRL_RTS_POLARITY;
 493:.\Generated_Source\PSoC4/UART_1_UART.c ****             }
 494:.\Generated_Source\PSoC4/UART_1_UART.c ****             else
 495:.\Generated_Source\PSoC4/UART_1_UART.c ****             {
 496:.\Generated_Source\PSoC4/UART_1_UART.c ****                 UART_1_UART_FLOW_CTRL_REG &= (uint32) ~UART_1_UART_FLOW_CTRL_RTS_POLARITY;
 497:.\Generated_Source\PSoC4/UART_1_UART.c ****             }
 498:.\Generated_Source\PSoC4/UART_1_UART.c ****         }
 499:.\Generated_Source\PSoC4/UART_1_UART.c **** 
 500:.\Generated_Source\PSoC4/UART_1_UART.c **** 
 501:.\Generated_Source\PSoC4/UART_1_UART.c ****         /*******************************************************************************
 502:.\Generated_Source\PSoC4/UART_1_UART.c ****         * Function Name: UART_1_UartSetRtsFifoLevel
 503:.\Generated_Source\PSoC4/UART_1_UART.c ****         ********************************************************************************
 504:.\Generated_Source\PSoC4/UART_1_UART.c ****         *
 505:.\Generated_Source\PSoC4/UART_1_UART.c ****         * Summary:
 506:.\Generated_Source\PSoC4/UART_1_UART.c ****         *  Sets level in the RX FIFO for RTS signal activation.
 507:.\Generated_Source\PSoC4/UART_1_UART.c ****         *  While the RX FIFO has fewer entries than the RX FIFO level the RTS signal
 508:.\Generated_Source\PSoC4/UART_1_UART.c ****         *  remains active, otherwise the RTS signal becomes inactive.
 509:.\Generated_Source\PSoC4/UART_1_UART.c ****         *
 510:.\Generated_Source\PSoC4/UART_1_UART.c ****         * Parameters:
 511:.\Generated_Source\PSoC4/UART_1_UART.c ****         *  level: Level in the RX FIFO for RTS signal activation.
ARM GAS  C:\Users\SNFU\AppData\Local\Temp\ccVthI9s.s 			page 16


 512:.\Generated_Source\PSoC4/UART_1_UART.c ****         *         The range of valid level values is between 0 and RX FIFO depth - 1.
 513:.\Generated_Source\PSoC4/UART_1_UART.c ****         *         Setting level value to 0 disables RTS signal activation.
 514:.\Generated_Source\PSoC4/UART_1_UART.c ****         *
 515:.\Generated_Source\PSoC4/UART_1_UART.c ****         * Return:
 516:.\Generated_Source\PSoC4/UART_1_UART.c ****         *  None
 517:.\Generated_Source\PSoC4/UART_1_UART.c ****         *
 518:.\Generated_Source\PSoC4/UART_1_UART.c ****         *******************************************************************************/
 519:.\Generated_Source\PSoC4/UART_1_UART.c ****         void UART_1_UartSetRtsFifoLevel(uint32 level)
 520:.\Generated_Source\PSoC4/UART_1_UART.c ****         {
 521:.\Generated_Source\PSoC4/UART_1_UART.c ****             uint32 uartFlowCtrl;
 522:.\Generated_Source\PSoC4/UART_1_UART.c **** 
 523:.\Generated_Source\PSoC4/UART_1_UART.c ****             uartFlowCtrl = UART_1_UART_FLOW_CTRL_REG;
 524:.\Generated_Source\PSoC4/UART_1_UART.c **** 
 525:.\Generated_Source\PSoC4/UART_1_UART.c ****             uartFlowCtrl &= ((uint32) ~UART_1_UART_FLOW_CTRL_TRIGGER_LEVEL_MASK); /* Clear level ma
 526:.\Generated_Source\PSoC4/UART_1_UART.c ****             uartFlowCtrl |= ((uint32) (UART_1_UART_FLOW_CTRL_TRIGGER_LEVEL_MASK & level));
 527:.\Generated_Source\PSoC4/UART_1_UART.c **** 
 528:.\Generated_Source\PSoC4/UART_1_UART.c ****             UART_1_UART_FLOW_CTRL_REG = uartFlowCtrl;
 529:.\Generated_Source\PSoC4/UART_1_UART.c ****         }
 530:.\Generated_Source\PSoC4/UART_1_UART.c ****     #endif /* !(UART_1_CY_SCBIP_V0 || UART_1_CY_SCBIP_V1) */
 531:.\Generated_Source\PSoC4/UART_1_UART.c **** 
 532:.\Generated_Source\PSoC4/UART_1_UART.c **** #endif /* (UART_1_UART_RX_DIRECTION) */
 533:.\Generated_Source\PSoC4/UART_1_UART.c **** 
 534:.\Generated_Source\PSoC4/UART_1_UART.c **** 
 535:.\Generated_Source\PSoC4/UART_1_UART.c **** #if(UART_1_UART_TX_DIRECTION)
 536:.\Generated_Source\PSoC4/UART_1_UART.c ****     /*******************************************************************************
 537:.\Generated_Source\PSoC4/UART_1_UART.c ****     * Function Name: UART_1_UartPutString
 538:.\Generated_Source\PSoC4/UART_1_UART.c ****     ********************************************************************************
 539:.\Generated_Source\PSoC4/UART_1_UART.c ****     *
 540:.\Generated_Source\PSoC4/UART_1_UART.c ****     * Summary:
 541:.\Generated_Source\PSoC4/UART_1_UART.c ****     *  Places a NULL terminated string in the transmit buffer to be sent at the
 542:.\Generated_Source\PSoC4/UART_1_UART.c ****     *  next available bus time.
 543:.\Generated_Source\PSoC4/UART_1_UART.c ****     *  This function is blocking and waits until there is space available to put
 544:.\Generated_Source\PSoC4/UART_1_UART.c ****     *  all the requested data into the  transmit buffer.
 545:.\Generated_Source\PSoC4/UART_1_UART.c ****     *
 546:.\Generated_Source\PSoC4/UART_1_UART.c ****     * Parameters:
 547:.\Generated_Source\PSoC4/UART_1_UART.c ****     *  string: pointer to the null terminated string array to be placed in the
 548:.\Generated_Source\PSoC4/UART_1_UART.c ****     *          transmit buffer.
 549:.\Generated_Source\PSoC4/UART_1_UART.c ****     *
 550:.\Generated_Source\PSoC4/UART_1_UART.c ****     * Return:
 551:.\Generated_Source\PSoC4/UART_1_UART.c ****     *  None
 552:.\Generated_Source\PSoC4/UART_1_UART.c ****     *
 553:.\Generated_Source\PSoC4/UART_1_UART.c ****     *******************************************************************************/
 554:.\Generated_Source\PSoC4/UART_1_UART.c ****     void UART_1_UartPutString(const char8 string[])
 555:.\Generated_Source\PSoC4/UART_1_UART.c ****     {
 322              		.loc 1 555 0
 323              		.cfi_startproc
 324              	.LVL24:
 325 0000 10B5     		push	{r4, lr}
 326              		.cfi_def_cfa_offset 8
 327              		.cfi_offset 4, -8
 328              		.cfi_offset 14, -4
 329 0002 041C     		mov	r4, r0
 330              	.LVL25:
 331              	.L27:
 332 0004 0134     		add	r4, r4, #1
 333              	.LVL26:
 334 0006 631E     		sub	r3, r4, #1
ARM GAS  C:\Users\SNFU\AppData\Local\Temp\ccVthI9s.s 			page 17


 556:.\Generated_Source\PSoC4/UART_1_UART.c ****         uint32 bufIndex;
 557:.\Generated_Source\PSoC4/UART_1_UART.c **** 
 558:.\Generated_Source\PSoC4/UART_1_UART.c ****         bufIndex = 0u;
 559:.\Generated_Source\PSoC4/UART_1_UART.c **** 
 560:.\Generated_Source\PSoC4/UART_1_UART.c ****         /* Blocks the control flow until all data has been sent */
 561:.\Generated_Source\PSoC4/UART_1_UART.c ****         while(string[bufIndex] != ((char8) 0))
 335              		.loc 1 561 0 discriminator 1
 336 0008 1878     		ldrb	r0, [r3]
 337 000a 0028     		cmp	r0, #0
 338 000c 02D0     		beq	.L29
 562:.\Generated_Source\PSoC4/UART_1_UART.c ****         {
 563:.\Generated_Source\PSoC4/UART_1_UART.c ****             UART_1_UartPutChar((uint32) string[bufIndex]);
 339              		.loc 1 563 0
 340 000e FFF7FEFF 		bl	UART_1_SpiUartWriteTxData
 341              	.LVL27:
 342 0012 F7E7     		b	.L27
 343              	.LVL28:
 344              	.L29:
 564:.\Generated_Source\PSoC4/UART_1_UART.c ****             bufIndex++;
 565:.\Generated_Source\PSoC4/UART_1_UART.c ****         }
 566:.\Generated_Source\PSoC4/UART_1_UART.c ****     }
 345              		.loc 1 566 0
 346              		@ sp needed
 347              	.LVL29:
 348 0014 10BD     		pop	{r4, pc}
 349              		.cfi_endproc
 350              	.LFE5:
 351              		.size	UART_1_UartPutString, .-UART_1_UartPutString
 352              		.section	.text.UART_1_UartPutCRLF,"ax",%progbits
 353              		.align	1
 354              		.global	UART_1_UartPutCRLF
 355              		.code	16
 356              		.thumb_func
 357              		.type	UART_1_UartPutCRLF, %function
 358              	UART_1_UartPutCRLF:
 359              	.LFB6:
 567:.\Generated_Source\PSoC4/UART_1_UART.c **** 
 568:.\Generated_Source\PSoC4/UART_1_UART.c **** 
 569:.\Generated_Source\PSoC4/UART_1_UART.c ****     /*******************************************************************************
 570:.\Generated_Source\PSoC4/UART_1_UART.c ****     * Function Name: UART_1_UartPutCRLF
 571:.\Generated_Source\PSoC4/UART_1_UART.c ****     ********************************************************************************
 572:.\Generated_Source\PSoC4/UART_1_UART.c ****     *
 573:.\Generated_Source\PSoC4/UART_1_UART.c ****     * Summary:
 574:.\Generated_Source\PSoC4/UART_1_UART.c ****     *  Places a byte of data followed by a carriage return (0x0D) and
 575:.\Generated_Source\PSoC4/UART_1_UART.c ****     *  line feed (0x0A) into the transmit buffer.
 576:.\Generated_Source\PSoC4/UART_1_UART.c ****     *  This function is blocking and waits until there is space available to put
 577:.\Generated_Source\PSoC4/UART_1_UART.c ****     *  all the requested data into the  transmit buffer.
 578:.\Generated_Source\PSoC4/UART_1_UART.c ****     *
 579:.\Generated_Source\PSoC4/UART_1_UART.c ****     * Parameters:
 580:.\Generated_Source\PSoC4/UART_1_UART.c ****     *  txDataByte : the data to be transmitted.
 581:.\Generated_Source\PSoC4/UART_1_UART.c ****     *
 582:.\Generated_Source\PSoC4/UART_1_UART.c ****     * Return:
 583:.\Generated_Source\PSoC4/UART_1_UART.c ****     *  None
 584:.\Generated_Source\PSoC4/UART_1_UART.c ****     *
 585:.\Generated_Source\PSoC4/UART_1_UART.c ****     *******************************************************************************/
 586:.\Generated_Source\PSoC4/UART_1_UART.c ****     void UART_1_UartPutCRLF(uint32 txDataByte)
 587:.\Generated_Source\PSoC4/UART_1_UART.c ****     {
ARM GAS  C:\Users\SNFU\AppData\Local\Temp\ccVthI9s.s 			page 18


 360              		.loc 1 587 0
 361              		.cfi_startproc
 362              	.LVL30:
 363 0000 08B5     		push	{r3, lr}
 364              		.cfi_def_cfa_offset 8
 365              		.cfi_offset 3, -8
 366              		.cfi_offset 14, -4
 588:.\Generated_Source\PSoC4/UART_1_UART.c ****         UART_1_UartPutChar(txDataByte);  /* Blocks control flow until all data has been sent */
 367              		.loc 1 588 0
 368 0002 FFF7FEFF 		bl	UART_1_SpiUartWriteTxData
 369              	.LVL31:
 589:.\Generated_Source\PSoC4/UART_1_UART.c ****         UART_1_UartPutChar(0x0Du);       /* Blocks control flow until all data has been sent */
 370              		.loc 1 589 0
 371 0006 0D20     		mov	r0, #13
 372 0008 FFF7FEFF 		bl	UART_1_SpiUartWriteTxData
 373              	.LVL32:
 590:.\Generated_Source\PSoC4/UART_1_UART.c ****         UART_1_UartPutChar(0x0Au);       /* Blocks control flow until all data has been sent */
 374              		.loc 1 590 0
 375 000c 0A20     		mov	r0, #10
 376 000e FFF7FEFF 		bl	UART_1_SpiUartWriteTxData
 377              	.LVL33:
 591:.\Generated_Source\PSoC4/UART_1_UART.c ****     }
 378              		.loc 1 591 0
 379              		@ sp needed
 380 0012 08BD     		pop	{r3, pc}
 381              		.cfi_endproc
 382              	.LFE6:
 383              		.size	UART_1_UartPutCRLF, .-UART_1_UartPutCRLF
 384              		.text
 385              	.Letext0:
 386              		.file 2 ".\\Generated_Source\\PSoC4/cytypes.h"
 387              		.file 3 ".\\Generated_Source\\PSoC4\\UART_1_SPI_UART.h"
 388              		.file 4 ".\\Generated_Source\\PSoC4\\UART_1_SPI_UART_PVT.h"