ARM GAS  C:\Users\Sven\AppData\Local\Temp\cchjZAo9.s 			page 1


   1              		.cpu cortex-m0
   2              		.fpu softvfp
   3              		.eabi_attribute 20, 1
   4              		.eabi_attribute 21, 1
   5              		.eabi_attribute 23, 3
   6              		.eabi_attribute 24, 1
   7              		.eabi_attribute 25, 1
   8              		.eabi_attribute 26, 1
   9              		.eabi_attribute 30, 4
  10              		.eabi_attribute 34, 0
  11              		.eabi_attribute 18, 4
  12              		.code	16
  13              		.file	"UART_1.c"
  14              		.text
  15              	.Ltext0:
  16              		.cfi_sections	.debug_frame
  17              		.section	.text.UART_1_Init,"ax",%progbits
  18              		.align	1
  19              		.global	UART_1_Init
  20              		.code	16
  21              		.thumb_func
  22              		.type	UART_1_Init, %function
  23              	UART_1_Init:
  24              	.LFB0:
  25              		.file 1 ".\\Generated_Source\\PSoC4\\UART_1.c"
   1:.\Generated_Source\PSoC4/UART_1.c **** /*******************************************************************************
   2:.\Generated_Source\PSoC4/UART_1.c **** * File Name: UART_1.c
   3:.\Generated_Source\PSoC4/UART_1.c **** * Version 2.0
   4:.\Generated_Source\PSoC4/UART_1.c **** *
   5:.\Generated_Source\PSoC4/UART_1.c **** * Description:
   6:.\Generated_Source\PSoC4/UART_1.c **** *  This file provides the source code to the API for the SCB Component.
   7:.\Generated_Source\PSoC4/UART_1.c **** *
   8:.\Generated_Source\PSoC4/UART_1.c **** * Note:
   9:.\Generated_Source\PSoC4/UART_1.c **** *
  10:.\Generated_Source\PSoC4/UART_1.c **** *******************************************************************************
  11:.\Generated_Source\PSoC4/UART_1.c **** * Copyright 2013-2014, Cypress Semiconductor Corporation.  All rights reserved.
  12:.\Generated_Source\PSoC4/UART_1.c **** * You may use this file only in accordance with the license, terms, conditions,
  13:.\Generated_Source\PSoC4/UART_1.c **** * disclaimers, and limitations in the end user license agreement accompanying
  14:.\Generated_Source\PSoC4/UART_1.c **** * the software package with which this file was provided.
  15:.\Generated_Source\PSoC4/UART_1.c **** *******************************************************************************/
  16:.\Generated_Source\PSoC4/UART_1.c **** 
  17:.\Generated_Source\PSoC4/UART_1.c **** #include "UART_1_PVT.h"
  18:.\Generated_Source\PSoC4/UART_1.c **** 
  19:.\Generated_Source\PSoC4/UART_1.c **** #if(UART_1_SCB_MODE_I2C_INC)
  20:.\Generated_Source\PSoC4/UART_1.c ****     #include "UART_1_I2C_PVT.h"
  21:.\Generated_Source\PSoC4/UART_1.c **** #endif /* (UART_1_SCB_MODE_I2C_INC) */
  22:.\Generated_Source\PSoC4/UART_1.c **** 
  23:.\Generated_Source\PSoC4/UART_1.c **** #if(UART_1_SCB_MODE_EZI2C_INC)
  24:.\Generated_Source\PSoC4/UART_1.c ****     #include "UART_1_EZI2C_PVT.h"
  25:.\Generated_Source\PSoC4/UART_1.c **** #endif /* (UART_1_SCB_MODE_EZI2C_INC) */
  26:.\Generated_Source\PSoC4/UART_1.c **** 
  27:.\Generated_Source\PSoC4/UART_1.c **** #if(UART_1_SCB_MODE_SPI_INC || UART_1_SCB_MODE_UART_INC)
  28:.\Generated_Source\PSoC4/UART_1.c ****     #include "UART_1_SPI_UART_PVT.h"
  29:.\Generated_Source\PSoC4/UART_1.c **** #endif /* (UART_1_SCB_MODE_SPI_INC || UART_1_SCB_MODE_UART_INC) */
  30:.\Generated_Source\PSoC4/UART_1.c **** 
  31:.\Generated_Source\PSoC4/UART_1.c **** 
  32:.\Generated_Source\PSoC4/UART_1.c **** /***************************************
ARM GAS  C:\Users\Sven\AppData\Local\Temp\cchjZAo9.s 			page 2


  33:.\Generated_Source\PSoC4/UART_1.c **** *    Run Time Configuration Vars
  34:.\Generated_Source\PSoC4/UART_1.c **** ***************************************/
  35:.\Generated_Source\PSoC4/UART_1.c **** 
  36:.\Generated_Source\PSoC4/UART_1.c **** /* Stores internal component configuration for Unconfigured mode */
  37:.\Generated_Source\PSoC4/UART_1.c **** #if(UART_1_SCB_MODE_UNCONFIG_CONST_CFG)
  38:.\Generated_Source\PSoC4/UART_1.c ****     /* Common configuration variables */
  39:.\Generated_Source\PSoC4/UART_1.c ****     uint8 UART_1_scbMode = UART_1_SCB_MODE_UNCONFIG;
  40:.\Generated_Source\PSoC4/UART_1.c ****     uint8 UART_1_scbEnableWake;
  41:.\Generated_Source\PSoC4/UART_1.c ****     uint8 UART_1_scbEnableIntr;
  42:.\Generated_Source\PSoC4/UART_1.c **** 
  43:.\Generated_Source\PSoC4/UART_1.c ****     /* I2C configuration variables */
  44:.\Generated_Source\PSoC4/UART_1.c ****     uint8 UART_1_mode;
  45:.\Generated_Source\PSoC4/UART_1.c ****     uint8 UART_1_acceptAddr;
  46:.\Generated_Source\PSoC4/UART_1.c **** 
  47:.\Generated_Source\PSoC4/UART_1.c ****     /* SPI/UART configuration variables */
  48:.\Generated_Source\PSoC4/UART_1.c ****     volatile uint8 * UART_1_rxBuffer;
  49:.\Generated_Source\PSoC4/UART_1.c ****     uint8  UART_1_rxDataBits;
  50:.\Generated_Source\PSoC4/UART_1.c ****     uint32 UART_1_rxBufferSize;
  51:.\Generated_Source\PSoC4/UART_1.c **** 
  52:.\Generated_Source\PSoC4/UART_1.c ****     volatile uint8 * UART_1_txBuffer;
  53:.\Generated_Source\PSoC4/UART_1.c ****     uint8  UART_1_txDataBits;
  54:.\Generated_Source\PSoC4/UART_1.c ****     uint32 UART_1_txBufferSize;
  55:.\Generated_Source\PSoC4/UART_1.c **** 
  56:.\Generated_Source\PSoC4/UART_1.c ****     /* EZI2C configuration variables */
  57:.\Generated_Source\PSoC4/UART_1.c ****     uint8 UART_1_numberOfAddr;
  58:.\Generated_Source\PSoC4/UART_1.c ****     uint8 UART_1_subAddrSize;
  59:.\Generated_Source\PSoC4/UART_1.c **** #endif /* (UART_1_SCB_MODE_UNCONFIG_CONST_CFG) */
  60:.\Generated_Source\PSoC4/UART_1.c **** 
  61:.\Generated_Source\PSoC4/UART_1.c **** 
  62:.\Generated_Source\PSoC4/UART_1.c **** /***************************************
  63:.\Generated_Source\PSoC4/UART_1.c **** *     Common SCB Vars
  64:.\Generated_Source\PSoC4/UART_1.c **** ***************************************/
  65:.\Generated_Source\PSoC4/UART_1.c **** 
  66:.\Generated_Source\PSoC4/UART_1.c **** uint8 UART_1_initVar = 0u;
  67:.\Generated_Source\PSoC4/UART_1.c **** 
  68:.\Generated_Source\PSoC4/UART_1.c **** #if !defined (CY_REMOVE_UART_1_CUSTOM_INTR_HANDLER)
  69:.\Generated_Source\PSoC4/UART_1.c ****     cyisraddress UART_1_customIntrHandler = NULL;
  70:.\Generated_Source\PSoC4/UART_1.c **** #endif /* !defined (CY_REMOVE_UART_1_CUSTOM_INTR_HANDLER) */
  71:.\Generated_Source\PSoC4/UART_1.c **** 
  72:.\Generated_Source\PSoC4/UART_1.c **** 
  73:.\Generated_Source\PSoC4/UART_1.c **** /***************************************
  74:.\Generated_Source\PSoC4/UART_1.c **** *    Private Function Prototypes
  75:.\Generated_Source\PSoC4/UART_1.c **** ***************************************/
  76:.\Generated_Source\PSoC4/UART_1.c **** 
  77:.\Generated_Source\PSoC4/UART_1.c **** static void UART_1_ScbEnableIntr(void);
  78:.\Generated_Source\PSoC4/UART_1.c **** static void UART_1_ScbModeStop(void);
  79:.\Generated_Source\PSoC4/UART_1.c **** 
  80:.\Generated_Source\PSoC4/UART_1.c **** 
  81:.\Generated_Source\PSoC4/UART_1.c **** /*******************************************************************************
  82:.\Generated_Source\PSoC4/UART_1.c **** * Function Name: UART_1_Init
  83:.\Generated_Source\PSoC4/UART_1.c **** ********************************************************************************
  84:.\Generated_Source\PSoC4/UART_1.c **** *
  85:.\Generated_Source\PSoC4/UART_1.c **** * Summary:
  86:.\Generated_Source\PSoC4/UART_1.c **** *  Initializes the SCB component to operate in one of the selected
  87:.\Generated_Source\PSoC4/UART_1.c **** *  configurations: I2C, SPI, UART or EZI2C.
  88:.\Generated_Source\PSoC4/UART_1.c **** *  When the configuration is set to "Unconfigured SCB", this function does
  89:.\Generated_Source\PSoC4/UART_1.c **** *  not do any initialization. Use mode-specific initialization APIs instead:
ARM GAS  C:\Users\Sven\AppData\Local\Temp\cchjZAo9.s 			page 3


  90:.\Generated_Source\PSoC4/UART_1.c **** *  SCB_I2CInit, SCB_SpiInit, SCB_UartInit or SCB_EzI2CInit.
  91:.\Generated_Source\PSoC4/UART_1.c **** *
  92:.\Generated_Source\PSoC4/UART_1.c **** * Parameters:
  93:.\Generated_Source\PSoC4/UART_1.c **** *  None
  94:.\Generated_Source\PSoC4/UART_1.c **** *
  95:.\Generated_Source\PSoC4/UART_1.c **** * Return:
  96:.\Generated_Source\PSoC4/UART_1.c **** *  None
  97:.\Generated_Source\PSoC4/UART_1.c **** *
  98:.\Generated_Source\PSoC4/UART_1.c **** *******************************************************************************/
  99:.\Generated_Source\PSoC4/UART_1.c **** void UART_1_Init(void)
 100:.\Generated_Source\PSoC4/UART_1.c **** {
  26              		.loc 1 100 0
  27              		.cfi_startproc
  28 0000 08B5     		push	{r3, lr}
  29              		.cfi_def_cfa_offset 8
  30              		.cfi_offset 3, -8
  31              		.cfi_offset 14, -4
 101:.\Generated_Source\PSoC4/UART_1.c **** #if(UART_1_SCB_MODE_UNCONFIG_CONST_CFG)
 102:.\Generated_Source\PSoC4/UART_1.c ****     if(UART_1_SCB_MODE_UNCONFIG_RUNTM_CFG)
 103:.\Generated_Source\PSoC4/UART_1.c ****     {
 104:.\Generated_Source\PSoC4/UART_1.c ****         UART_1_initVar = 0u;
 105:.\Generated_Source\PSoC4/UART_1.c ****     }
 106:.\Generated_Source\PSoC4/UART_1.c ****     else
 107:.\Generated_Source\PSoC4/UART_1.c ****     {
 108:.\Generated_Source\PSoC4/UART_1.c ****         /* Initialization was done before this function call */
 109:.\Generated_Source\PSoC4/UART_1.c ****     }
 110:.\Generated_Source\PSoC4/UART_1.c **** 
 111:.\Generated_Source\PSoC4/UART_1.c **** #elif(UART_1_SCB_MODE_I2C_CONST_CFG)
 112:.\Generated_Source\PSoC4/UART_1.c ****     UART_1_I2CInit();
 113:.\Generated_Source\PSoC4/UART_1.c **** 
 114:.\Generated_Source\PSoC4/UART_1.c **** #elif(UART_1_SCB_MODE_SPI_CONST_CFG)
 115:.\Generated_Source\PSoC4/UART_1.c ****     UART_1_SpiInit();
 116:.\Generated_Source\PSoC4/UART_1.c **** 
 117:.\Generated_Source\PSoC4/UART_1.c **** #elif(UART_1_SCB_MODE_UART_CONST_CFG)
 118:.\Generated_Source\PSoC4/UART_1.c ****     UART_1_UartInit();
  32              		.loc 1 118 0
  33 0002 FFF7FEFF 		bl	UART_1_UartInit
  34              	.LVL0:
 119:.\Generated_Source\PSoC4/UART_1.c **** 
 120:.\Generated_Source\PSoC4/UART_1.c **** #elif(UART_1_SCB_MODE_EZI2C_CONST_CFG)
 121:.\Generated_Source\PSoC4/UART_1.c ****     UART_1_EzI2CInit();
 122:.\Generated_Source\PSoC4/UART_1.c **** 
 123:.\Generated_Source\PSoC4/UART_1.c **** #endif /* (UART_1_SCB_MODE_UNCONFIG_CONST_CFG) */
 124:.\Generated_Source\PSoC4/UART_1.c **** }
  35              		.loc 1 124 0
  36              		@ sp needed
  37 0006 08BD     		pop	{r3, pc}
  38              		.cfi_endproc
  39              	.LFE0:
  40              		.size	UART_1_Init, .-UART_1_Init
  41              		.section	.text.UART_1_Enable,"ax",%progbits
  42              		.align	1
  43              		.global	UART_1_Enable
  44              		.code	16
  45              		.thumb_func
  46              		.type	UART_1_Enable, %function
  47              	UART_1_Enable:
ARM GAS  C:\Users\Sven\AppData\Local\Temp\cchjZAo9.s 			page 4


  48              	.LFB1:
 125:.\Generated_Source\PSoC4/UART_1.c **** 
 126:.\Generated_Source\PSoC4/UART_1.c **** 
 127:.\Generated_Source\PSoC4/UART_1.c **** /*******************************************************************************
 128:.\Generated_Source\PSoC4/UART_1.c **** * Function Name: UART_1_Enable
 129:.\Generated_Source\PSoC4/UART_1.c **** ********************************************************************************
 130:.\Generated_Source\PSoC4/UART_1.c **** *
 131:.\Generated_Source\PSoC4/UART_1.c **** * Summary:
 132:.\Generated_Source\PSoC4/UART_1.c **** *  Enables the SCB component operation.
 133:.\Generated_Source\PSoC4/UART_1.c **** *  The SCB configuration should be not changed when the component is enabled.
 134:.\Generated_Source\PSoC4/UART_1.c **** *  Any configuration changes should be made after disabling the component.
 135:.\Generated_Source\PSoC4/UART_1.c **** *
 136:.\Generated_Source\PSoC4/UART_1.c **** * Parameters:
 137:.\Generated_Source\PSoC4/UART_1.c **** *  None
 138:.\Generated_Source\PSoC4/UART_1.c **** *
 139:.\Generated_Source\PSoC4/UART_1.c **** * Return:
 140:.\Generated_Source\PSoC4/UART_1.c **** *  None
 141:.\Generated_Source\PSoC4/UART_1.c **** *
 142:.\Generated_Source\PSoC4/UART_1.c **** *******************************************************************************/
 143:.\Generated_Source\PSoC4/UART_1.c **** void UART_1_Enable(void)
 144:.\Generated_Source\PSoC4/UART_1.c **** {
  49              		.loc 1 144 0
  50              		.cfi_startproc
 145:.\Generated_Source\PSoC4/UART_1.c **** #if(UART_1_SCB_MODE_UNCONFIG_CONST_CFG)
 146:.\Generated_Source\PSoC4/UART_1.c ****     /* Enable SCB block, only if it is already configured */
 147:.\Generated_Source\PSoC4/UART_1.c ****     if(!UART_1_SCB_MODE_UNCONFIG_RUNTM_CFG)
 148:.\Generated_Source\PSoC4/UART_1.c ****     {
 149:.\Generated_Source\PSoC4/UART_1.c ****         UART_1_CTRL_REG |= UART_1_CTRL_ENABLED;
 150:.\Generated_Source\PSoC4/UART_1.c **** 
 151:.\Generated_Source\PSoC4/UART_1.c ****         UART_1_ScbEnableIntr();
 152:.\Generated_Source\PSoC4/UART_1.c ****     }
 153:.\Generated_Source\PSoC4/UART_1.c **** #else
 154:.\Generated_Source\PSoC4/UART_1.c ****     UART_1_CTRL_REG |= UART_1_CTRL_ENABLED;
  51              		.loc 1 154 0
  52 0000 034B     		ldr	r3, .L3
  53 0002 8022     		mov	r2, #128
  54 0004 1968     		ldr	r1, [r3]
  55 0006 1206     		lsl	r2, r2, #24
  56 0008 0A43     		orr	r2, r1
  57 000a 1A60     		str	r2, [r3]
 155:.\Generated_Source\PSoC4/UART_1.c **** 
 156:.\Generated_Source\PSoC4/UART_1.c ****     UART_1_ScbEnableIntr();
 157:.\Generated_Source\PSoC4/UART_1.c **** #endif /* (UART_1_SCB_MODE_UNCONFIG_CONST_CFG) */
 158:.\Generated_Source\PSoC4/UART_1.c **** }
  58              		.loc 1 158 0
  59              		@ sp needed
  60 000c 7047     		bx	lr
  61              	.L4:
  62 000e C046     		.align	2
  63              	.L3:
  64 0010 00000640 		.word	1074135040
  65              		.cfi_endproc
  66              	.LFE1:
  67              		.size	UART_1_Enable, .-UART_1_Enable
  68              		.section	.text.UART_1_Start,"ax",%progbits
  69              		.align	1
  70              		.global	UART_1_Start
ARM GAS  C:\Users\Sven\AppData\Local\Temp\cchjZAo9.s 			page 5


  71              		.code	16
  72              		.thumb_func
  73              		.type	UART_1_Start, %function
  74              	UART_1_Start:
  75              	.LFB2:
 159:.\Generated_Source\PSoC4/UART_1.c **** 
 160:.\Generated_Source\PSoC4/UART_1.c **** 
 161:.\Generated_Source\PSoC4/UART_1.c **** /*******************************************************************************
 162:.\Generated_Source\PSoC4/UART_1.c **** * Function Name: UART_1_Start
 163:.\Generated_Source\PSoC4/UART_1.c **** ********************************************************************************
 164:.\Generated_Source\PSoC4/UART_1.c **** *
 165:.\Generated_Source\PSoC4/UART_1.c **** * Summary:
 166:.\Generated_Source\PSoC4/UART_1.c **** *  Invokes SCB_Init() and SCB_Enable().
 167:.\Generated_Source\PSoC4/UART_1.c **** *  After this function call, the component is enabled and ready for operation.
 168:.\Generated_Source\PSoC4/UART_1.c **** *  When configuration is set to "Unconfigured SCB", the component must first be
 169:.\Generated_Source\PSoC4/UART_1.c **** *  initialized to operate in one of the following configurations: I2C, SPI, UART
 170:.\Generated_Source\PSoC4/UART_1.c **** *  or EZ I2C. Otherwise this function does not enable the component.
 171:.\Generated_Source\PSoC4/UART_1.c **** *
 172:.\Generated_Source\PSoC4/UART_1.c **** * Parameters:
 173:.\Generated_Source\PSoC4/UART_1.c **** *  None
 174:.\Generated_Source\PSoC4/UART_1.c **** *
 175:.\Generated_Source\PSoC4/UART_1.c **** * Return:
 176:.\Generated_Source\PSoC4/UART_1.c **** *  None
 177:.\Generated_Source\PSoC4/UART_1.c **** *
 178:.\Generated_Source\PSoC4/UART_1.c **** * Global variables:
 179:.\Generated_Source\PSoC4/UART_1.c **** *  UART_1_initVar - used to check initial configuration, modified
 180:.\Generated_Source\PSoC4/UART_1.c **** *  on first function call.
 181:.\Generated_Source\PSoC4/UART_1.c **** *
 182:.\Generated_Source\PSoC4/UART_1.c **** *******************************************************************************/
 183:.\Generated_Source\PSoC4/UART_1.c **** void UART_1_Start(void)
 184:.\Generated_Source\PSoC4/UART_1.c **** {
  76              		.loc 1 184 0
  77              		.cfi_startproc
  78 0000 10B5     		push	{r4, lr}
  79              		.cfi_def_cfa_offset 8
  80              		.cfi_offset 4, -8
  81              		.cfi_offset 14, -4
 185:.\Generated_Source\PSoC4/UART_1.c ****     if(0u == UART_1_initVar)
  82              		.loc 1 185 0
  83 0002 054C     		ldr	r4, .L8
  84 0004 2378     		ldrb	r3, [r4]
  85 0006 002B     		cmp	r3, #0
  86 0008 03D1     		bne	.L6
  87              	.LBB8:
  88              	.LBB9:
 118:.\Generated_Source\PSoC4/UART_1.c ****     UART_1_UartInit();
  89              		.loc 1 118 0
  90 000a FFF7FEFF 		bl	UART_1_UartInit
  91              	.LVL1:
  92              	.LBE9:
  93              	.LBE8:
 186:.\Generated_Source\PSoC4/UART_1.c ****     {
 187:.\Generated_Source\PSoC4/UART_1.c ****         UART_1_Init();
 188:.\Generated_Source\PSoC4/UART_1.c ****         UART_1_initVar = 1u; /* Component was initialized */
  94              		.loc 1 188 0
  95 000e 0123     		mov	r3, #1
  96 0010 2370     		strb	r3, [r4]
ARM GAS  C:\Users\Sven\AppData\Local\Temp\cchjZAo9.s 			page 6


  97              	.L6:
 189:.\Generated_Source\PSoC4/UART_1.c ****     }
 190:.\Generated_Source\PSoC4/UART_1.c **** 
 191:.\Generated_Source\PSoC4/UART_1.c ****     UART_1_Enable();
  98              		.loc 1 191 0
  99 0012 FFF7FEFF 		bl	UART_1_Enable
 100              	.LVL2:
 192:.\Generated_Source\PSoC4/UART_1.c **** }
 101              		.loc 1 192 0
 102              		@ sp needed
 103 0016 10BD     		pop	{r4, pc}
 104              	.L9:
 105              		.align	2
 106              	.L8:
 107 0018 00000000 		.word	.LANCHOR0
 108              		.cfi_endproc
 109              	.LFE2:
 110              		.size	UART_1_Start, .-UART_1_Start
 111              		.section	.text.UART_1_Stop,"ax",%progbits
 112              		.align	1
 113              		.global	UART_1_Stop
 114              		.code	16
 115              		.thumb_func
 116              		.type	UART_1_Stop, %function
 117              	UART_1_Stop:
 118              	.LFB3:
 193:.\Generated_Source\PSoC4/UART_1.c **** 
 194:.\Generated_Source\PSoC4/UART_1.c **** 
 195:.\Generated_Source\PSoC4/UART_1.c **** /*******************************************************************************
 196:.\Generated_Source\PSoC4/UART_1.c **** * Function Name: UART_1_Stop
 197:.\Generated_Source\PSoC4/UART_1.c **** ********************************************************************************
 198:.\Generated_Source\PSoC4/UART_1.c **** *
 199:.\Generated_Source\PSoC4/UART_1.c **** * Summary:
 200:.\Generated_Source\PSoC4/UART_1.c **** *  Disables the SCB component and its interrupt.
 201:.\Generated_Source\PSoC4/UART_1.c **** *
 202:.\Generated_Source\PSoC4/UART_1.c **** * Parameters:
 203:.\Generated_Source\PSoC4/UART_1.c **** *  None
 204:.\Generated_Source\PSoC4/UART_1.c **** *
 205:.\Generated_Source\PSoC4/UART_1.c **** * Return:
 206:.\Generated_Source\PSoC4/UART_1.c **** *  None
 207:.\Generated_Source\PSoC4/UART_1.c **** *
 208:.\Generated_Source\PSoC4/UART_1.c **** *******************************************************************************/
 209:.\Generated_Source\PSoC4/UART_1.c **** void UART_1_Stop(void)
 210:.\Generated_Source\PSoC4/UART_1.c **** {
 119              		.loc 1 210 0
 120              		.cfi_startproc
 211:.\Generated_Source\PSoC4/UART_1.c **** #if(UART_1_SCB_IRQ_INTERNAL)
 212:.\Generated_Source\PSoC4/UART_1.c ****     UART_1_DisableInt();
 213:.\Generated_Source\PSoC4/UART_1.c **** #endif /* (UART_1_SCB_IRQ_INTERNAL) */
 214:.\Generated_Source\PSoC4/UART_1.c **** 
 215:.\Generated_Source\PSoC4/UART_1.c ****     UART_1_CTRL_REG &= (uint32) ~UART_1_CTRL_ENABLED;  /* Disable scb IP */
 121              		.loc 1 215 0
 122 0000 024B     		ldr	r3, .L11
 216:.\Generated_Source\PSoC4/UART_1.c **** 
 217:.\Generated_Source\PSoC4/UART_1.c **** #if(UART_1_SCB_IRQ_INTERNAL)
 218:.\Generated_Source\PSoC4/UART_1.c ****     UART_1_ClearPendingInt();
 219:.\Generated_Source\PSoC4/UART_1.c **** #endif /* (UART_1_SCB_IRQ_INTERNAL) */
ARM GAS  C:\Users\Sven\AppData\Local\Temp\cchjZAo9.s 			page 7


 220:.\Generated_Source\PSoC4/UART_1.c **** 
 221:.\Generated_Source\PSoC4/UART_1.c ****     UART_1_ScbModeStop(); /* Calls scbMode specific Stop function */
 222:.\Generated_Source\PSoC4/UART_1.c **** }
 123              		.loc 1 222 0
 124              		@ sp needed
 215:.\Generated_Source\PSoC4/UART_1.c ****     UART_1_CTRL_REG &= (uint32) ~UART_1_CTRL_ENABLED;  /* Disable scb IP */
 125              		.loc 1 215 0
 126 0002 1A68     		ldr	r2, [r3]
 127 0004 5200     		lsl	r2, r2, #1
 128 0006 5208     		lsr	r2, r2, #1
 129 0008 1A60     		str	r2, [r3]
 130              		.loc 1 222 0
 131 000a 7047     		bx	lr
 132              	.L12:
 133              		.align	2
 134              	.L11:
 135 000c 00000640 		.word	1074135040
 136              		.cfi_endproc
 137              	.LFE3:
 138              		.size	UART_1_Stop, .-UART_1_Stop
 139              		.section	.text.UART_1_SetRxFifoLevel,"ax",%progbits
 140              		.align	1
 141              		.global	UART_1_SetRxFifoLevel
 142              		.code	16
 143              		.thumb_func
 144              		.type	UART_1_SetRxFifoLevel, %function
 145              	UART_1_SetRxFifoLevel:
 146              	.LFB4:
 223:.\Generated_Source\PSoC4/UART_1.c **** 
 224:.\Generated_Source\PSoC4/UART_1.c **** 
 225:.\Generated_Source\PSoC4/UART_1.c **** /*******************************************************************************
 226:.\Generated_Source\PSoC4/UART_1.c **** * Function Name: UART_1_SetRxFifoLevel
 227:.\Generated_Source\PSoC4/UART_1.c **** ********************************************************************************
 228:.\Generated_Source\PSoC4/UART_1.c **** *
 229:.\Generated_Source\PSoC4/UART_1.c **** * Summary:
 230:.\Generated_Source\PSoC4/UART_1.c **** *  Sets level in the RX FIFO to generate a RX level interrupt.
 231:.\Generated_Source\PSoC4/UART_1.c **** *  When the RX FIFO has more entries than the RX FIFO level an RX level
 232:.\Generated_Source\PSoC4/UART_1.c **** *  interrupt request is generated.
 233:.\Generated_Source\PSoC4/UART_1.c **** *
 234:.\Generated_Source\PSoC4/UART_1.c **** * Parameters:
 235:.\Generated_Source\PSoC4/UART_1.c **** *  level: Level in the RX FIFO to generate RX level interrupt.
 236:.\Generated_Source\PSoC4/UART_1.c **** *         The range of valid level values is between 0 and RX FIFO depth - 1.
 237:.\Generated_Source\PSoC4/UART_1.c **** *
 238:.\Generated_Source\PSoC4/UART_1.c **** * Return:
 239:.\Generated_Source\PSoC4/UART_1.c **** *  None
 240:.\Generated_Source\PSoC4/UART_1.c **** *
 241:.\Generated_Source\PSoC4/UART_1.c **** *******************************************************************************/
 242:.\Generated_Source\PSoC4/UART_1.c **** void UART_1_SetRxFifoLevel(uint32 level)
 243:.\Generated_Source\PSoC4/UART_1.c **** {
 147              		.loc 1 243 0
 148              		.cfi_startproc
 149              	.LVL3:
 244:.\Generated_Source\PSoC4/UART_1.c ****     uint32 rxFifoCtrl;
 245:.\Generated_Source\PSoC4/UART_1.c **** 
 246:.\Generated_Source\PSoC4/UART_1.c ****     rxFifoCtrl = UART_1_RX_FIFO_CTRL_REG;
 150              		.loc 1 246 0
 151 0000 034B     		ldr	r3, .L14
ARM GAS  C:\Users\Sven\AppData\Local\Temp\cchjZAo9.s 			page 8


 247:.\Generated_Source\PSoC4/UART_1.c **** 
 248:.\Generated_Source\PSoC4/UART_1.c ****     rxFifoCtrl &= ((uint32) ~UART_1_RX_FIFO_CTRL_TRIGGER_LEVEL_MASK); /* Clear level mask bits */
 152              		.loc 1 248 0
 153 0002 0722     		mov	r2, #7
 246:.\Generated_Source\PSoC4/UART_1.c ****     rxFifoCtrl = UART_1_RX_FIFO_CTRL_REG;
 154              		.loc 1 246 0
 155 0004 1968     		ldr	r1, [r3]
 156              	.LVL4:
 249:.\Generated_Source\PSoC4/UART_1.c ****     rxFifoCtrl |= ((uint32) (UART_1_RX_FIFO_CTRL_TRIGGER_LEVEL_MASK & level));
 250:.\Generated_Source\PSoC4/UART_1.c **** 
 251:.\Generated_Source\PSoC4/UART_1.c ****     UART_1_RX_FIFO_CTRL_REG = rxFifoCtrl;
 252:.\Generated_Source\PSoC4/UART_1.c **** }
 157              		.loc 1 252 0
 158              		@ sp needed
 248:.\Generated_Source\PSoC4/UART_1.c ****     rxFifoCtrl &= ((uint32) ~UART_1_RX_FIFO_CTRL_TRIGGER_LEVEL_MASK); /* Clear level mask bits */
 159              		.loc 1 248 0
 160 0006 9143     		bic	r1, r2
 161              	.LVL5:
 249:.\Generated_Source\PSoC4/UART_1.c ****     rxFifoCtrl |= ((uint32) (UART_1_RX_FIFO_CTRL_TRIGGER_LEVEL_MASK & level));
 162              		.loc 1 249 0
 163 0008 0240     		and	r2, r0
 164 000a 0A43     		orr	r2, r1
 165              	.LVL6:
 251:.\Generated_Source\PSoC4/UART_1.c ****     UART_1_RX_FIFO_CTRL_REG = rxFifoCtrl;
 166              		.loc 1 251 0
 167 000c 1A60     		str	r2, [r3]
 168              		.loc 1 252 0
 169 000e 7047     		bx	lr
 170              	.L15:
 171              		.align	2
 172              	.L14:
 173 0010 04030640 		.word	1074135812
 174              		.cfi_endproc
 175              	.LFE4:
 176              		.size	UART_1_SetRxFifoLevel, .-UART_1_SetRxFifoLevel
 177              		.section	.text.UART_1_SetTxFifoLevel,"ax",%progbits
 178              		.align	1
 179              		.global	UART_1_SetTxFifoLevel
 180              		.code	16
 181              		.thumb_func
 182              		.type	UART_1_SetTxFifoLevel, %function
 183              	UART_1_SetTxFifoLevel:
 184              	.LFB5:
 253:.\Generated_Source\PSoC4/UART_1.c **** 
 254:.\Generated_Source\PSoC4/UART_1.c **** 
 255:.\Generated_Source\PSoC4/UART_1.c **** /*******************************************************************************
 256:.\Generated_Source\PSoC4/UART_1.c **** * Function Name: UART_1_SetTxFifoLevel
 257:.\Generated_Source\PSoC4/UART_1.c **** ********************************************************************************
 258:.\Generated_Source\PSoC4/UART_1.c **** *
 259:.\Generated_Source\PSoC4/UART_1.c **** * Summary:
 260:.\Generated_Source\PSoC4/UART_1.c **** *  Sets level in the TX FIFO to generate a TX level interrupt.
 261:.\Generated_Source\PSoC4/UART_1.c **** *  When the TX FIFO has more entries than the TX FIFO level an TX level
 262:.\Generated_Source\PSoC4/UART_1.c **** *  interrupt request is generated.
 263:.\Generated_Source\PSoC4/UART_1.c **** *
 264:.\Generated_Source\PSoC4/UART_1.c **** * Parameters:
 265:.\Generated_Source\PSoC4/UART_1.c **** *  level: Level in the TX FIFO to generate TX level interrupt.
 266:.\Generated_Source\PSoC4/UART_1.c **** *         The range of valid level values is between 0 and TX FIFO depth - 1.
ARM GAS  C:\Users\Sven\AppData\Local\Temp\cchjZAo9.s 			page 9


 267:.\Generated_Source\PSoC4/UART_1.c **** *
 268:.\Generated_Source\PSoC4/UART_1.c **** * Return:
 269:.\Generated_Source\PSoC4/UART_1.c **** *  None
 270:.\Generated_Source\PSoC4/UART_1.c **** *
 271:.\Generated_Source\PSoC4/UART_1.c **** *******************************************************************************/
 272:.\Generated_Source\PSoC4/UART_1.c **** void UART_1_SetTxFifoLevel(uint32 level)
 273:.\Generated_Source\PSoC4/UART_1.c **** {
 185              		.loc 1 273 0
 186              		.cfi_startproc
 187              	.LVL7:
 274:.\Generated_Source\PSoC4/UART_1.c ****     uint32 txFifoCtrl;
 275:.\Generated_Source\PSoC4/UART_1.c **** 
 276:.\Generated_Source\PSoC4/UART_1.c ****     txFifoCtrl = UART_1_TX_FIFO_CTRL_REG;
 188              		.loc 1 276 0
 189 0000 034B     		ldr	r3, .L17
 277:.\Generated_Source\PSoC4/UART_1.c **** 
 278:.\Generated_Source\PSoC4/UART_1.c ****     txFifoCtrl &= ((uint32) ~UART_1_TX_FIFO_CTRL_TRIGGER_LEVEL_MASK); /* Clear level mask bits */
 190              		.loc 1 278 0
 191 0002 0722     		mov	r2, #7
 276:.\Generated_Source\PSoC4/UART_1.c ****     txFifoCtrl = UART_1_TX_FIFO_CTRL_REG;
 192              		.loc 1 276 0
 193 0004 1968     		ldr	r1, [r3]
 194              	.LVL8:
 279:.\Generated_Source\PSoC4/UART_1.c ****     txFifoCtrl |= ((uint32) (UART_1_TX_FIFO_CTRL_TRIGGER_LEVEL_MASK & level));
 280:.\Generated_Source\PSoC4/UART_1.c **** 
 281:.\Generated_Source\PSoC4/UART_1.c ****     UART_1_TX_FIFO_CTRL_REG = txFifoCtrl;
 282:.\Generated_Source\PSoC4/UART_1.c **** }
 195              		.loc 1 282 0
 196              		@ sp needed
 278:.\Generated_Source\PSoC4/UART_1.c ****     txFifoCtrl &= ((uint32) ~UART_1_TX_FIFO_CTRL_TRIGGER_LEVEL_MASK); /* Clear level mask bits */
 197              		.loc 1 278 0
 198 0006 9143     		bic	r1, r2
 199              	.LVL9:
 279:.\Generated_Source\PSoC4/UART_1.c ****     txFifoCtrl |= ((uint32) (UART_1_TX_FIFO_CTRL_TRIGGER_LEVEL_MASK & level));
 200              		.loc 1 279 0
 201 0008 0240     		and	r2, r0
 202 000a 0A43     		orr	r2, r1
 203              	.LVL10:
 281:.\Generated_Source\PSoC4/UART_1.c ****     UART_1_TX_FIFO_CTRL_REG = txFifoCtrl;
 204              		.loc 1 281 0
 205 000c 1A60     		str	r2, [r3]
 206              		.loc 1 282 0
 207 000e 7047     		bx	lr
 208              	.L18:
 209              		.align	2
 210              	.L17:
 211 0010 04020640 		.word	1074135556
 212              		.cfi_endproc
 213              	.LFE5:
 214              		.size	UART_1_SetTxFifoLevel, .-UART_1_SetTxFifoLevel
 215              		.section	.text.UART_1_SetCustomInterruptHandler,"ax",%progbits
 216              		.align	1
 217              		.global	UART_1_SetCustomInterruptHandler
 218              		.code	16
 219              		.thumb_func
 220              		.type	UART_1_SetCustomInterruptHandler, %function
 221              	UART_1_SetCustomInterruptHandler:
ARM GAS  C:\Users\Sven\AppData\Local\Temp\cchjZAo9.s 			page 10


 222              	.LFB6:
 283:.\Generated_Source\PSoC4/UART_1.c **** 
 284:.\Generated_Source\PSoC4/UART_1.c **** 
 285:.\Generated_Source\PSoC4/UART_1.c **** /*******************************************************************************
 286:.\Generated_Source\PSoC4/UART_1.c **** * Function Name: UART_1_SetCustomInterruptHandler
 287:.\Generated_Source\PSoC4/UART_1.c **** ********************************************************************************
 288:.\Generated_Source\PSoC4/UART_1.c **** *
 289:.\Generated_Source\PSoC4/UART_1.c **** * Summary:
 290:.\Generated_Source\PSoC4/UART_1.c **** *  Registers a function to be called by the internal interrupt handler.
 291:.\Generated_Source\PSoC4/UART_1.c **** *  First the function that is registered is called, then the internal interrupt
 292:.\Generated_Source\PSoC4/UART_1.c **** *  handler performs any operation such as software buffer management functions
 293:.\Generated_Source\PSoC4/UART_1.c **** *  before the interrupt returns.  It is the user's responsibility not to break
 294:.\Generated_Source\PSoC4/UART_1.c **** *  the software buffer operations. Only one custom handler is supported, which
 295:.\Generated_Source\PSoC4/UART_1.c **** *  is the function provided by the most recent call.
 296:.\Generated_Source\PSoC4/UART_1.c **** *  At the initialization time no custom handler is registered.
 297:.\Generated_Source\PSoC4/UART_1.c **** *
 298:.\Generated_Source\PSoC4/UART_1.c **** * Parameters:
 299:.\Generated_Source\PSoC4/UART_1.c **** *  func: Pointer to the function to register.
 300:.\Generated_Source\PSoC4/UART_1.c **** *        The value NULL indicates to remove the current custom interrupt
 301:.\Generated_Source\PSoC4/UART_1.c **** *        handler.
 302:.\Generated_Source\PSoC4/UART_1.c **** *
 303:.\Generated_Source\PSoC4/UART_1.c **** * Return:
 304:.\Generated_Source\PSoC4/UART_1.c **** *  None
 305:.\Generated_Source\PSoC4/UART_1.c **** *
 306:.\Generated_Source\PSoC4/UART_1.c **** *******************************************************************************/
 307:.\Generated_Source\PSoC4/UART_1.c **** void UART_1_SetCustomInterruptHandler(cyisraddress func)
 308:.\Generated_Source\PSoC4/UART_1.c **** {
 223              		.loc 1 308 0
 224              		.cfi_startproc
 225              	.LVL11:
 309:.\Generated_Source\PSoC4/UART_1.c **** #if !defined (CY_REMOVE_UART_1_CUSTOM_INTR_HANDLER)
 310:.\Generated_Source\PSoC4/UART_1.c ****     UART_1_customIntrHandler = func; /* Register interrupt handler */
 226              		.loc 1 310 0
 227 0000 014B     		ldr	r3, .L20
 311:.\Generated_Source\PSoC4/UART_1.c **** #else
 312:.\Generated_Source\PSoC4/UART_1.c ****     if(NULL != func)
 313:.\Generated_Source\PSoC4/UART_1.c ****     {
 314:.\Generated_Source\PSoC4/UART_1.c ****         /* Suppress compiler warning */
 315:.\Generated_Source\PSoC4/UART_1.c ****     }
 316:.\Generated_Source\PSoC4/UART_1.c **** #endif /* !defined (CY_REMOVE_UART_1_CUSTOM_INTR_HANDLER) */
 317:.\Generated_Source\PSoC4/UART_1.c **** }
 228              		.loc 1 317 0
 229              		@ sp needed
 310:.\Generated_Source\PSoC4/UART_1.c ****     UART_1_customIntrHandler = func; /* Register interrupt handler */
 230              		.loc 1 310 0
 231 0002 5860     		str	r0, [r3, #4]
 232              		.loc 1 317 0
 233 0004 7047     		bx	lr
 234              	.L21:
 235 0006 C046     		.align	2
 236              	.L20:
 237 0008 00000000 		.word	.LANCHOR0
 238              		.cfi_endproc
 239              	.LFE6:
 240              		.size	UART_1_SetCustomInterruptHandler, .-UART_1_SetCustomInterruptHandler
 241              		.section	.text.UART_1_I2CSlaveNackGeneration,"ax",%progbits
 242              		.align	1
ARM GAS  C:\Users\Sven\AppData\Local\Temp\cchjZAo9.s 			page 11


 243              		.global	UART_1_I2CSlaveNackGeneration
 244              		.code	16
 245              		.thumb_func
 246              		.type	UART_1_I2CSlaveNackGeneration, %function
 247              	UART_1_I2CSlaveNackGeneration:
 248              	.LFB9:
 318:.\Generated_Source\PSoC4/UART_1.c **** 
 319:.\Generated_Source\PSoC4/UART_1.c **** 
 320:.\Generated_Source\PSoC4/UART_1.c **** /*******************************************************************************
 321:.\Generated_Source\PSoC4/UART_1.c **** * Function Name: UART_1_ScbModeEnableIntr
 322:.\Generated_Source\PSoC4/UART_1.c **** ********************************************************************************
 323:.\Generated_Source\PSoC4/UART_1.c **** *
 324:.\Generated_Source\PSoC4/UART_1.c **** * Summary:
 325:.\Generated_Source\PSoC4/UART_1.c **** *  Enables an interrupt for a specific mode.
 326:.\Generated_Source\PSoC4/UART_1.c **** *
 327:.\Generated_Source\PSoC4/UART_1.c **** * Parameters:
 328:.\Generated_Source\PSoC4/UART_1.c **** *  None
 329:.\Generated_Source\PSoC4/UART_1.c **** *
 330:.\Generated_Source\PSoC4/UART_1.c **** * Return:
 331:.\Generated_Source\PSoC4/UART_1.c **** *  None
 332:.\Generated_Source\PSoC4/UART_1.c **** *
 333:.\Generated_Source\PSoC4/UART_1.c **** *******************************************************************************/
 334:.\Generated_Source\PSoC4/UART_1.c **** static void UART_1_ScbEnableIntr(void)
 335:.\Generated_Source\PSoC4/UART_1.c **** {
 336:.\Generated_Source\PSoC4/UART_1.c **** #if(UART_1_SCB_IRQ_INTERNAL)
 337:.\Generated_Source\PSoC4/UART_1.c ****     #if(UART_1_SCB_MODE_UNCONFIG_CONST_CFG)
 338:.\Generated_Source\PSoC4/UART_1.c ****         /* Enable interrupt in NVIC */
 339:.\Generated_Source\PSoC4/UART_1.c ****         if(0u != UART_1_scbEnableIntr)
 340:.\Generated_Source\PSoC4/UART_1.c ****         {
 341:.\Generated_Source\PSoC4/UART_1.c ****             UART_1_EnableInt();
 342:.\Generated_Source\PSoC4/UART_1.c ****         }
 343:.\Generated_Source\PSoC4/UART_1.c ****     #else
 344:.\Generated_Source\PSoC4/UART_1.c ****         UART_1_EnableInt();
 345:.\Generated_Source\PSoC4/UART_1.c **** 
 346:.\Generated_Source\PSoC4/UART_1.c ****     #endif /* (UART_1_SCB_MODE_UNCONFIG_CONST_CFG) */
 347:.\Generated_Source\PSoC4/UART_1.c **** #endif /* (UART_1_SCB_IRQ_INTERNAL) */
 348:.\Generated_Source\PSoC4/UART_1.c **** }
 349:.\Generated_Source\PSoC4/UART_1.c **** 
 350:.\Generated_Source\PSoC4/UART_1.c **** 
 351:.\Generated_Source\PSoC4/UART_1.c **** /*******************************************************************************
 352:.\Generated_Source\PSoC4/UART_1.c **** * Function Name: UART_1_ScbModeStop
 353:.\Generated_Source\PSoC4/UART_1.c **** ********************************************************************************
 354:.\Generated_Source\PSoC4/UART_1.c **** *
 355:.\Generated_Source\PSoC4/UART_1.c **** * Summary:
 356:.\Generated_Source\PSoC4/UART_1.c **** *  Calls the Stop function for a specific operation mode.
 357:.\Generated_Source\PSoC4/UART_1.c **** *
 358:.\Generated_Source\PSoC4/UART_1.c **** * Parameters:
 359:.\Generated_Source\PSoC4/UART_1.c **** *  None
 360:.\Generated_Source\PSoC4/UART_1.c **** *
 361:.\Generated_Source\PSoC4/UART_1.c **** * Return:
 362:.\Generated_Source\PSoC4/UART_1.c **** *  None
 363:.\Generated_Source\PSoC4/UART_1.c **** *
 364:.\Generated_Source\PSoC4/UART_1.c **** *******************************************************************************/
 365:.\Generated_Source\PSoC4/UART_1.c **** static void UART_1_ScbModeStop(void)
 366:.\Generated_Source\PSoC4/UART_1.c **** {
 367:.\Generated_Source\PSoC4/UART_1.c **** #if(UART_1_SCB_MODE_UNCONFIG_CONST_CFG)
 368:.\Generated_Source\PSoC4/UART_1.c ****     if(UART_1_SCB_MODE_I2C_RUNTM_CFG)
ARM GAS  C:\Users\Sven\AppData\Local\Temp\cchjZAo9.s 			page 12


 369:.\Generated_Source\PSoC4/UART_1.c ****     {
 370:.\Generated_Source\PSoC4/UART_1.c ****         UART_1_I2CStop();
 371:.\Generated_Source\PSoC4/UART_1.c ****     }
 372:.\Generated_Source\PSoC4/UART_1.c ****     else if (UART_1_SCB_MODE_EZI2C_RUNTM_CFG)
 373:.\Generated_Source\PSoC4/UART_1.c ****     {
 374:.\Generated_Source\PSoC4/UART_1.c ****         UART_1_EzI2CStop();
 375:.\Generated_Source\PSoC4/UART_1.c ****     }
 376:.\Generated_Source\PSoC4/UART_1.c **** #if (!UART_1_CY_SCBIP_V1)
 377:.\Generated_Source\PSoC4/UART_1.c ****     else if (UART_1_SCB_MODE_UART_RUNTM_CFG)
 378:.\Generated_Source\PSoC4/UART_1.c ****     {
 379:.\Generated_Source\PSoC4/UART_1.c ****         UART_1_UartStop();
 380:.\Generated_Source\PSoC4/UART_1.c ****     }
 381:.\Generated_Source\PSoC4/UART_1.c **** #endif /* (!UART_1_CY_SCBIP_V1) */
 382:.\Generated_Source\PSoC4/UART_1.c ****     else
 383:.\Generated_Source\PSoC4/UART_1.c ****     {
 384:.\Generated_Source\PSoC4/UART_1.c ****         /* Do nothing for other modes */
 385:.\Generated_Source\PSoC4/UART_1.c ****     }
 386:.\Generated_Source\PSoC4/UART_1.c **** #elif(UART_1_SCB_MODE_I2C_CONST_CFG)
 387:.\Generated_Source\PSoC4/UART_1.c ****     UART_1_I2CStop();
 388:.\Generated_Source\PSoC4/UART_1.c **** 
 389:.\Generated_Source\PSoC4/UART_1.c **** #elif(UART_1_SCB_MODE_EZI2C_CONST_CFG)
 390:.\Generated_Source\PSoC4/UART_1.c ****     UART_1_EzI2CStop();
 391:.\Generated_Source\PSoC4/UART_1.c **** 
 392:.\Generated_Source\PSoC4/UART_1.c **** #elif(UART_1_SCB_MODE_UART_CONST_CFG)
 393:.\Generated_Source\PSoC4/UART_1.c ****     UART_1_UartStop();
 394:.\Generated_Source\PSoC4/UART_1.c **** 
 395:.\Generated_Source\PSoC4/UART_1.c **** #endif /* (UART_1_SCB_MODE_UNCONFIG_CONST_CFG) */
 396:.\Generated_Source\PSoC4/UART_1.c **** }
 397:.\Generated_Source\PSoC4/UART_1.c **** 
 398:.\Generated_Source\PSoC4/UART_1.c **** 
 399:.\Generated_Source\PSoC4/UART_1.c **** #if(UART_1_SCB_MODE_UNCONFIG_CONST_CFG)
 400:.\Generated_Source\PSoC4/UART_1.c ****     /*******************************************************************************
 401:.\Generated_Source\PSoC4/UART_1.c ****     * Function Name: UART_1_SetPins
 402:.\Generated_Source\PSoC4/UART_1.c ****     ********************************************************************************
 403:.\Generated_Source\PSoC4/UART_1.c ****     *
 404:.\Generated_Source\PSoC4/UART_1.c ****     * Summary:
 405:.\Generated_Source\PSoC4/UART_1.c ****     *  Sets the pins settings accordingly to the selected operation mode.
 406:.\Generated_Source\PSoC4/UART_1.c ****     *  Only available in the Unconfigured operation mode. The mode specific
 407:.\Generated_Source\PSoC4/UART_1.c ****     *  initialization function calls it.
 408:.\Generated_Source\PSoC4/UART_1.c ****     *  Pins configuration is set by PSoC Creator when a specific mode of operation
 409:.\Generated_Source\PSoC4/UART_1.c ****     *  is selected in design time.
 410:.\Generated_Source\PSoC4/UART_1.c ****     *
 411:.\Generated_Source\PSoC4/UART_1.c ****     * Parameters:
 412:.\Generated_Source\PSoC4/UART_1.c ****     *  mode:      Mode of SCB operation.
 413:.\Generated_Source\PSoC4/UART_1.c ****     *  subMode:   Sub-mode of SCB operation. It is only required for SPI and UART
 414:.\Generated_Source\PSoC4/UART_1.c ****     *             modes.
 415:.\Generated_Source\PSoC4/UART_1.c ****     *  uartEnableMask: enables TX or RX direction and RTS and CTS signals.
 416:.\Generated_Source\PSoC4/UART_1.c ****     *
 417:.\Generated_Source\PSoC4/UART_1.c ****     * Return:
 418:.\Generated_Source\PSoC4/UART_1.c ****     *  None
 419:.\Generated_Source\PSoC4/UART_1.c ****     *
 420:.\Generated_Source\PSoC4/UART_1.c ****     *******************************************************************************/
 421:.\Generated_Source\PSoC4/UART_1.c ****     void UART_1_SetPins(uint32 mode, uint32 subMode, uint32 uartEnableMask)
 422:.\Generated_Source\PSoC4/UART_1.c ****     {
 423:.\Generated_Source\PSoC4/UART_1.c ****         uint32 hsiomSel [UART_1_SCB_PINS_NUMBER];
 424:.\Generated_Source\PSoC4/UART_1.c ****         uint32 pinsDm   [UART_1_SCB_PINS_NUMBER];
 425:.\Generated_Source\PSoC4/UART_1.c **** 
ARM GAS  C:\Users\Sven\AppData\Local\Temp\cchjZAo9.s 			page 13


 426:.\Generated_Source\PSoC4/UART_1.c ****     #if (!UART_1_CY_SCBIP_V1)
 427:.\Generated_Source\PSoC4/UART_1.c ****         uint32 pinsInBuf = 0u;
 428:.\Generated_Source\PSoC4/UART_1.c ****     #endif /* (!UART_1_CY_SCBIP_V1) */
 429:.\Generated_Source\PSoC4/UART_1.c **** 
 430:.\Generated_Source\PSoC4/UART_1.c ****         uint32 i;
 431:.\Generated_Source\PSoC4/UART_1.c **** 
 432:.\Generated_Source\PSoC4/UART_1.c ****         /* Set default HSIOM to GPIO and Drive Mode to Analog Hi-Z */
 433:.\Generated_Source\PSoC4/UART_1.c ****         for(i = 0u; i < UART_1_SCB_PINS_NUMBER; i++)
 434:.\Generated_Source\PSoC4/UART_1.c ****         {
 435:.\Generated_Source\PSoC4/UART_1.c ****             hsiomSel[i]  = UART_1_HSIOM_DEF_SEL;
 436:.\Generated_Source\PSoC4/UART_1.c ****             pinsDm[i]    = UART_1_PIN_DM_ALG_HIZ;
 437:.\Generated_Source\PSoC4/UART_1.c ****         }
 438:.\Generated_Source\PSoC4/UART_1.c **** 
 439:.\Generated_Source\PSoC4/UART_1.c ****         if((UART_1_SCB_MODE_I2C   == mode) ||
 440:.\Generated_Source\PSoC4/UART_1.c ****            (UART_1_SCB_MODE_EZI2C == mode))
 441:.\Generated_Source\PSoC4/UART_1.c ****         {
 442:.\Generated_Source\PSoC4/UART_1.c ****             hsiomSel[UART_1_MOSI_SCL_RX_PIN_INDEX] = UART_1_HSIOM_I2C_SEL;
 443:.\Generated_Source\PSoC4/UART_1.c ****             hsiomSel[UART_1_MISO_SDA_TX_PIN_INDEX] = UART_1_HSIOM_I2C_SEL;
 444:.\Generated_Source\PSoC4/UART_1.c **** 
 445:.\Generated_Source\PSoC4/UART_1.c ****             pinsDm[UART_1_MOSI_SCL_RX_PIN_INDEX] = UART_1_PIN_DM_OD_LO;
 446:.\Generated_Source\PSoC4/UART_1.c ****             pinsDm[UART_1_MISO_SDA_TX_PIN_INDEX] = UART_1_PIN_DM_OD_LO;
 447:.\Generated_Source\PSoC4/UART_1.c ****         }
 448:.\Generated_Source\PSoC4/UART_1.c ****     #if (!UART_1_CY_SCBIP_V1)
 449:.\Generated_Source\PSoC4/UART_1.c ****         else if(UART_1_SCB_MODE_SPI == mode)
 450:.\Generated_Source\PSoC4/UART_1.c ****         {
 451:.\Generated_Source\PSoC4/UART_1.c ****             hsiomSel[UART_1_MOSI_SCL_RX_PIN_INDEX] = UART_1_HSIOM_SPI_SEL;
 452:.\Generated_Source\PSoC4/UART_1.c ****             hsiomSel[UART_1_MISO_SDA_TX_PIN_INDEX] = UART_1_HSIOM_SPI_SEL;
 453:.\Generated_Source\PSoC4/UART_1.c ****             hsiomSel[UART_1_SCLK_PIN_INDEX]        = UART_1_HSIOM_SPI_SEL;
 454:.\Generated_Source\PSoC4/UART_1.c **** 
 455:.\Generated_Source\PSoC4/UART_1.c ****             if(UART_1_SPI_SLAVE == subMode)
 456:.\Generated_Source\PSoC4/UART_1.c ****             {
 457:.\Generated_Source\PSoC4/UART_1.c ****                 /* Slave */
 458:.\Generated_Source\PSoC4/UART_1.c ****                 pinsDm[UART_1_MOSI_SCL_RX_PIN_INDEX] = UART_1_PIN_DM_DIG_HIZ;
 459:.\Generated_Source\PSoC4/UART_1.c ****                 pinsDm[UART_1_MISO_SDA_TX_PIN_INDEX] = UART_1_PIN_DM_STRONG;
 460:.\Generated_Source\PSoC4/UART_1.c ****                 pinsDm[UART_1_SCLK_PIN_INDEX]        = UART_1_PIN_DM_DIG_HIZ;
 461:.\Generated_Source\PSoC4/UART_1.c **** 
 462:.\Generated_Source\PSoC4/UART_1.c ****             #if(UART_1_SS0_PIN)
 463:.\Generated_Source\PSoC4/UART_1.c ****                 /* Only SS0 is valid choice for Slave */
 464:.\Generated_Source\PSoC4/UART_1.c ****                 hsiomSel[UART_1_SS0_PIN_INDEX] = UART_1_HSIOM_SPI_SEL;
 465:.\Generated_Source\PSoC4/UART_1.c ****                 pinsDm  [UART_1_SS0_PIN_INDEX] = UART_1_PIN_DM_DIG_HIZ;
 466:.\Generated_Source\PSoC4/UART_1.c ****             #endif /* (UART_1_SS1_PIN) */
 467:.\Generated_Source\PSoC4/UART_1.c **** 
 468:.\Generated_Source\PSoC4/UART_1.c ****             #if(UART_1_MISO_SDA_TX_PIN)
 469:.\Generated_Source\PSoC4/UART_1.c ****                 /* Disable input buffer */
 470:.\Generated_Source\PSoC4/UART_1.c ****                  pinsInBuf |= UART_1_MISO_SDA_TX_PIN_MASK;
 471:.\Generated_Source\PSoC4/UART_1.c ****             #endif /* (UART_1_MISO_SDA_TX_PIN_PIN) */
 472:.\Generated_Source\PSoC4/UART_1.c ****             }
 473:.\Generated_Source\PSoC4/UART_1.c ****             else /* (Master) */
 474:.\Generated_Source\PSoC4/UART_1.c ****             {
 475:.\Generated_Source\PSoC4/UART_1.c ****                 pinsDm[UART_1_MOSI_SCL_RX_PIN_INDEX] = UART_1_PIN_DM_STRONG;
 476:.\Generated_Source\PSoC4/UART_1.c ****                 pinsDm[UART_1_MISO_SDA_TX_PIN_INDEX] = UART_1_PIN_DM_DIG_HIZ;
 477:.\Generated_Source\PSoC4/UART_1.c ****                 pinsDm[UART_1_SCLK_PIN_INDEX]        = UART_1_PIN_DM_STRONG;
 478:.\Generated_Source\PSoC4/UART_1.c **** 
 479:.\Generated_Source\PSoC4/UART_1.c ****             #if(UART_1_SS0_PIN)
 480:.\Generated_Source\PSoC4/UART_1.c ****                 hsiomSel [UART_1_SS0_PIN_INDEX] = UART_1_HSIOM_SPI_SEL;
 481:.\Generated_Source\PSoC4/UART_1.c ****                 pinsDm   [UART_1_SS0_PIN_INDEX] = UART_1_PIN_DM_STRONG;
 482:.\Generated_Source\PSoC4/UART_1.c ****                 pinsInBuf                                |= UART_1_SS0_PIN_MASK;
ARM GAS  C:\Users\Sven\AppData\Local\Temp\cchjZAo9.s 			page 14


 483:.\Generated_Source\PSoC4/UART_1.c ****             #endif /* (UART_1_SS0_PIN) */
 484:.\Generated_Source\PSoC4/UART_1.c **** 
 485:.\Generated_Source\PSoC4/UART_1.c ****             #if(UART_1_SS1_PIN)
 486:.\Generated_Source\PSoC4/UART_1.c ****                 hsiomSel [UART_1_SS1_PIN_INDEX] = UART_1_HSIOM_SPI_SEL;
 487:.\Generated_Source\PSoC4/UART_1.c ****                 pinsDm   [UART_1_SS1_PIN_INDEX] = UART_1_PIN_DM_STRONG;
 488:.\Generated_Source\PSoC4/UART_1.c ****                 pinsInBuf                                |= UART_1_SS1_PIN_MASK;
 489:.\Generated_Source\PSoC4/UART_1.c ****             #endif /* (UART_1_SS1_PIN) */
 490:.\Generated_Source\PSoC4/UART_1.c **** 
 491:.\Generated_Source\PSoC4/UART_1.c ****             #if(UART_1_SS2_PIN)
 492:.\Generated_Source\PSoC4/UART_1.c ****                 hsiomSel [UART_1_SS2_PIN_INDEX] = UART_1_HSIOM_SPI_SEL;
 493:.\Generated_Source\PSoC4/UART_1.c ****                 pinsDm   [UART_1_SS2_PIN_INDEX] = UART_1_PIN_DM_STRONG;
 494:.\Generated_Source\PSoC4/UART_1.c ****                 pinsInBuf                                |= UART_1_SS2_PIN_MASK;
 495:.\Generated_Source\PSoC4/UART_1.c ****             #endif /* (UART_1_SS2_PIN) */
 496:.\Generated_Source\PSoC4/UART_1.c **** 
 497:.\Generated_Source\PSoC4/UART_1.c ****             #if(UART_1_SS3_PIN)
 498:.\Generated_Source\PSoC4/UART_1.c ****                 hsiomSel [UART_1_SS3_PIN_INDEX] = UART_1_HSIOM_SPI_SEL;
 499:.\Generated_Source\PSoC4/UART_1.c ****                 pinsDm   [UART_1_SS3_PIN_INDEX] = UART_1_PIN_DM_STRONG;
 500:.\Generated_Source\PSoC4/UART_1.c ****                 pinsInBuf                                |= UART_1_SS3_PIN_MASK;
 501:.\Generated_Source\PSoC4/UART_1.c ****             #endif /* (UART_1_SS2_PIN) */
 502:.\Generated_Source\PSoC4/UART_1.c **** 
 503:.\Generated_Source\PSoC4/UART_1.c ****                 /* Disable input buffers */
 504:.\Generated_Source\PSoC4/UART_1.c ****             #if(UART_1_MOSI_SCL_RX_PIN)
 505:.\Generated_Source\PSoC4/UART_1.c ****                 pinsInBuf |= UART_1_MOSI_SCL_RX_PIN_MASK;
 506:.\Generated_Source\PSoC4/UART_1.c ****             #endif /* (UART_1_MOSI_SCL_RX_PIN) */
 507:.\Generated_Source\PSoC4/UART_1.c **** 
 508:.\Generated_Source\PSoC4/UART_1.c ****              #if(UART_1_MOSI_SCL_RX_WAKE_PIN)
 509:.\Generated_Source\PSoC4/UART_1.c ****                 pinsInBuf |= UART_1_MOSI_SCL_RX_WAKE_PIN_MASK;
 510:.\Generated_Source\PSoC4/UART_1.c ****             #endif /* (UART_1_MOSI_SCL_RX_WAKE_PIN) */
 511:.\Generated_Source\PSoC4/UART_1.c **** 
 512:.\Generated_Source\PSoC4/UART_1.c ****             #if(UART_1_SCLK_PIN)
 513:.\Generated_Source\PSoC4/UART_1.c ****                 pinsInBuf |= UART_1_SCLK_PIN_MASK;
 514:.\Generated_Source\PSoC4/UART_1.c ****             #endif /* (UART_1_SCLK_PIN) */
 515:.\Generated_Source\PSoC4/UART_1.c ****             }
 516:.\Generated_Source\PSoC4/UART_1.c ****         }
 517:.\Generated_Source\PSoC4/UART_1.c ****         else /* UART */
 518:.\Generated_Source\PSoC4/UART_1.c ****         {
 519:.\Generated_Source\PSoC4/UART_1.c ****             if(UART_1_UART_MODE_SMARTCARD == subMode)
 520:.\Generated_Source\PSoC4/UART_1.c ****             {
 521:.\Generated_Source\PSoC4/UART_1.c ****                 /* SmartCard */
 522:.\Generated_Source\PSoC4/UART_1.c ****                 hsiomSel[UART_1_MISO_SDA_TX_PIN_INDEX] = UART_1_HSIOM_UART_SEL;
 523:.\Generated_Source\PSoC4/UART_1.c ****                 pinsDm  [UART_1_MISO_SDA_TX_PIN_INDEX] = UART_1_PIN_DM_OD_LO;
 524:.\Generated_Source\PSoC4/UART_1.c ****             }
 525:.\Generated_Source\PSoC4/UART_1.c ****             else /* Standard or IrDA */
 526:.\Generated_Source\PSoC4/UART_1.c ****             {
 527:.\Generated_Source\PSoC4/UART_1.c ****                 if(0u != (UART_1_UART_RX_PIN_ENABLE & uartEnableMask))
 528:.\Generated_Source\PSoC4/UART_1.c ****                 {
 529:.\Generated_Source\PSoC4/UART_1.c ****                     hsiomSel[UART_1_MOSI_SCL_RX_PIN_INDEX] = UART_1_HSIOM_UART_SEL;
 530:.\Generated_Source\PSoC4/UART_1.c ****                     pinsDm  [UART_1_MOSI_SCL_RX_PIN_INDEX] = UART_1_PIN_DM_DIG_HIZ;
 531:.\Generated_Source\PSoC4/UART_1.c ****                 }
 532:.\Generated_Source\PSoC4/UART_1.c **** 
 533:.\Generated_Source\PSoC4/UART_1.c ****                 if(0u != (UART_1_UART_TX_PIN_ENABLE & uartEnableMask))
 534:.\Generated_Source\PSoC4/UART_1.c ****                 {
 535:.\Generated_Source\PSoC4/UART_1.c ****                     hsiomSel[UART_1_MISO_SDA_TX_PIN_INDEX] = UART_1_HSIOM_UART_SEL;
 536:.\Generated_Source\PSoC4/UART_1.c ****                     pinsDm  [UART_1_MISO_SDA_TX_PIN_INDEX] = UART_1_PIN_DM_STRONG;
 537:.\Generated_Source\PSoC4/UART_1.c **** 
 538:.\Generated_Source\PSoC4/UART_1.c ****                 #if(UART_1_MISO_SDA_TX_PIN)
 539:.\Generated_Source\PSoC4/UART_1.c ****                      pinsInBuf |= UART_1_MISO_SDA_TX_PIN_MASK;
ARM GAS  C:\Users\Sven\AppData\Local\Temp\cchjZAo9.s 			page 15


 540:.\Generated_Source\PSoC4/UART_1.c ****                 #endif /* (UART_1_MISO_SDA_TX_PIN_PIN) */
 541:.\Generated_Source\PSoC4/UART_1.c ****                 }
 542:.\Generated_Source\PSoC4/UART_1.c **** 
 543:.\Generated_Source\PSoC4/UART_1.c ****             #if !(UART_1_CY_SCBIP_V0 || UART_1_CY_SCBIP_V1)
 544:.\Generated_Source\PSoC4/UART_1.c ****                 if(UART_1_UART_MODE_STD == subMode)
 545:.\Generated_Source\PSoC4/UART_1.c ****                 {
 546:.\Generated_Source\PSoC4/UART_1.c ****                     if(0u != (UART_1_UART_CTS_PIN_ENABLE & uartEnableMask))
 547:.\Generated_Source\PSoC4/UART_1.c ****                     {
 548:.\Generated_Source\PSoC4/UART_1.c ****                         /* CTS input is multiplexed with SCLK */
 549:.\Generated_Source\PSoC4/UART_1.c ****                         hsiomSel[UART_1_SCLK_PIN_INDEX] = UART_1_HSIOM_UART_SEL;
 550:.\Generated_Source\PSoC4/UART_1.c ****                         pinsDm  [UART_1_SCLK_PIN_INDEX] = UART_1_PIN_DM_DIG_HIZ;
 551:.\Generated_Source\PSoC4/UART_1.c ****                     }
 552:.\Generated_Source\PSoC4/UART_1.c **** 
 553:.\Generated_Source\PSoC4/UART_1.c ****                     if(0u != (UART_1_UART_RTS_PIN_ENABLE & uartEnableMask))
 554:.\Generated_Source\PSoC4/UART_1.c ****                     {
 555:.\Generated_Source\PSoC4/UART_1.c ****                         /* RTS output is multiplexed with SS0 */
 556:.\Generated_Source\PSoC4/UART_1.c ****                         hsiomSel[UART_1_SS0_PIN_INDEX] = UART_1_HSIOM_UART_SEL;
 557:.\Generated_Source\PSoC4/UART_1.c ****                         pinsDm  [UART_1_SS0_PIN_INDEX] = UART_1_PIN_DM_STRONG;
 558:.\Generated_Source\PSoC4/UART_1.c **** 
 559:.\Generated_Source\PSoC4/UART_1.c ****                     #if(UART_1_SS0_PIN)
 560:.\Generated_Source\PSoC4/UART_1.c ****                         /* Disable input buffer */
 561:.\Generated_Source\PSoC4/UART_1.c ****                         pinsInBuf |= UART_1_SS0_PIN_MASK;
 562:.\Generated_Source\PSoC4/UART_1.c ****                     #endif /* (UART_1_SS0_PIN) */
 563:.\Generated_Source\PSoC4/UART_1.c ****                     }
 564:.\Generated_Source\PSoC4/UART_1.c ****                 }
 565:.\Generated_Source\PSoC4/UART_1.c ****             #endif /* !(UART_1_CY_SCBIP_V0 || UART_1_CY_SCBIP_V1) */
 566:.\Generated_Source\PSoC4/UART_1.c ****             }
 567:.\Generated_Source\PSoC4/UART_1.c ****         }
 568:.\Generated_Source\PSoC4/UART_1.c ****     #endif /* (!UART_1_CY_SCBIP_V1) */
 569:.\Generated_Source\PSoC4/UART_1.c **** 
 570:.\Generated_Source\PSoC4/UART_1.c ****     /* Configure pins: set HSIOM, DM and InputBufEnable */
 571:.\Generated_Source\PSoC4/UART_1.c ****     /* Note: the DR register settings do not effect the pin output if HSIOM is other than GPIO */
 572:.\Generated_Source\PSoC4/UART_1.c **** 
 573:.\Generated_Source\PSoC4/UART_1.c ****     #if(UART_1_MOSI_SCL_RX_PIN)
 574:.\Generated_Source\PSoC4/UART_1.c ****         UART_1_SET_HSIOM_SEL(UART_1_MOSI_SCL_RX_HSIOM_REG,
 575:.\Generated_Source\PSoC4/UART_1.c ****                                        UART_1_MOSI_SCL_RX_HSIOM_MASK,
 576:.\Generated_Source\PSoC4/UART_1.c ****                                        UART_1_MOSI_SCL_RX_HSIOM_POS,
 577:.\Generated_Source\PSoC4/UART_1.c ****                                        hsiomSel[UART_1_MOSI_SCL_RX_PIN_INDEX]);
 578:.\Generated_Source\PSoC4/UART_1.c **** 
 579:.\Generated_Source\PSoC4/UART_1.c ****         UART_1_spi_mosi_i2c_scl_uart_rx_SetDriveMode((uint8) pinsDm[UART_1_MOSI_SCL_RX_PIN_INDEX]);
 580:.\Generated_Source\PSoC4/UART_1.c **** 
 581:.\Generated_Source\PSoC4/UART_1.c ****     #if (!UART_1_CY_SCBIP_V1)
 582:.\Generated_Source\PSoC4/UART_1.c ****         UART_1_SET_INP_DIS(UART_1_spi_mosi_i2c_scl_uart_rx_INP_DIS,
 583:.\Generated_Source\PSoC4/UART_1.c ****                                      UART_1_spi_mosi_i2c_scl_uart_rx_MASK,
 584:.\Generated_Source\PSoC4/UART_1.c ****                                      (0u != (pinsInBuf & UART_1_MOSI_SCL_RX_PIN_MASK)));
 585:.\Generated_Source\PSoC4/UART_1.c ****     #endif /* (!UART_1_CY_SCBIP_V1) */
 586:.\Generated_Source\PSoC4/UART_1.c ****     #endif /* (UART_1_MOSI_SCL_RX_PIN) */
 587:.\Generated_Source\PSoC4/UART_1.c **** 
 588:.\Generated_Source\PSoC4/UART_1.c ****     #if(UART_1_MOSI_SCL_RX_WAKE_PIN)
 589:.\Generated_Source\PSoC4/UART_1.c ****         UART_1_SET_HSIOM_SEL(UART_1_MOSI_SCL_RX_WAKE_HSIOM_REG,
 590:.\Generated_Source\PSoC4/UART_1.c ****                                        UART_1_MOSI_SCL_RX_WAKE_HSIOM_MASK,
 591:.\Generated_Source\PSoC4/UART_1.c ****                                        UART_1_MOSI_SCL_RX_WAKE_HSIOM_POS,
 592:.\Generated_Source\PSoC4/UART_1.c ****                                        hsiomSel[UART_1_MOSI_SCL_RX_WAKE_PIN_INDEX]);
 593:.\Generated_Source\PSoC4/UART_1.c **** 
 594:.\Generated_Source\PSoC4/UART_1.c ****         UART_1_spi_mosi_i2c_scl_uart_rx_wake_SetDriveMode((uint8)
 595:.\Generated_Source\PSoC4/UART_1.c ****                                                                pinsDm[UART_1_MOSI_SCL_RX_WAKE_PIN_I
 596:.\Generated_Source\PSoC4/UART_1.c **** 
ARM GAS  C:\Users\Sven\AppData\Local\Temp\cchjZAo9.s 			page 16


 597:.\Generated_Source\PSoC4/UART_1.c ****         UART_1_SET_INP_DIS(UART_1_spi_mosi_i2c_scl_uart_rx_wake_INP_DIS,
 598:.\Generated_Source\PSoC4/UART_1.c ****                                      UART_1_spi_mosi_i2c_scl_uart_rx_wake_MASK,
 599:.\Generated_Source\PSoC4/UART_1.c ****                                      (0u != (pinsInBuf & UART_1_MOSI_SCL_RX_WAKE_PIN_MASK)));
 600:.\Generated_Source\PSoC4/UART_1.c **** 
 601:.\Generated_Source\PSoC4/UART_1.c ****          /* Set interrupt on falling edge */
 602:.\Generated_Source\PSoC4/UART_1.c ****         UART_1_SET_INCFG_TYPE(UART_1_MOSI_SCL_RX_WAKE_INTCFG_REG,
 603:.\Generated_Source\PSoC4/UART_1.c ****                                         UART_1_MOSI_SCL_RX_WAKE_INTCFG_TYPE_MASK,
 604:.\Generated_Source\PSoC4/UART_1.c ****                                         UART_1_MOSI_SCL_RX_WAKE_INTCFG_TYPE_POS,
 605:.\Generated_Source\PSoC4/UART_1.c ****                                         UART_1_INTCFG_TYPE_FALLING_EDGE);
 606:.\Generated_Source\PSoC4/UART_1.c ****     #endif /* (UART_1_MOSI_SCL_RX_WAKE_PIN) */
 607:.\Generated_Source\PSoC4/UART_1.c **** 
 608:.\Generated_Source\PSoC4/UART_1.c ****     #if(UART_1_MISO_SDA_TX_PIN)
 609:.\Generated_Source\PSoC4/UART_1.c ****         UART_1_SET_HSIOM_SEL(UART_1_MISO_SDA_TX_HSIOM_REG,
 610:.\Generated_Source\PSoC4/UART_1.c ****                                        UART_1_MISO_SDA_TX_HSIOM_MASK,
 611:.\Generated_Source\PSoC4/UART_1.c ****                                        UART_1_MISO_SDA_TX_HSIOM_POS,
 612:.\Generated_Source\PSoC4/UART_1.c ****                                        hsiomSel[UART_1_MISO_SDA_TX_PIN_INDEX]);
 613:.\Generated_Source\PSoC4/UART_1.c **** 
 614:.\Generated_Source\PSoC4/UART_1.c ****         UART_1_spi_miso_i2c_sda_uart_tx_SetDriveMode((uint8) pinsDm[UART_1_MISO_SDA_TX_PIN_INDEX]);
 615:.\Generated_Source\PSoC4/UART_1.c **** 
 616:.\Generated_Source\PSoC4/UART_1.c ****     #if (!UART_1_CY_SCBIP_V1)
 617:.\Generated_Source\PSoC4/UART_1.c ****         UART_1_SET_INP_DIS(UART_1_spi_miso_i2c_sda_uart_tx_INP_DIS,
 618:.\Generated_Source\PSoC4/UART_1.c ****                                      UART_1_spi_miso_i2c_sda_uart_tx_MASK,
 619:.\Generated_Source\PSoC4/UART_1.c ****                                     (0u != (pinsInBuf & UART_1_MISO_SDA_TX_PIN_MASK)));
 620:.\Generated_Source\PSoC4/UART_1.c ****     #endif /* (!UART_1_CY_SCBIP_V1) */
 621:.\Generated_Source\PSoC4/UART_1.c ****     #endif /* (UART_1_MOSI_SCL_RX_PIN) */
 622:.\Generated_Source\PSoC4/UART_1.c **** 
 623:.\Generated_Source\PSoC4/UART_1.c ****     #if(UART_1_SCLK_PIN)
 624:.\Generated_Source\PSoC4/UART_1.c ****         UART_1_SET_HSIOM_SEL(UART_1_SCLK_HSIOM_REG, UART_1_SCLK_HSIOM_MASK,
 625:.\Generated_Source\PSoC4/UART_1.c ****                                        UART_1_SCLK_HSIOM_POS, hsiomSel[UART_1_SCLK_PIN_INDEX]);
 626:.\Generated_Source\PSoC4/UART_1.c **** 
 627:.\Generated_Source\PSoC4/UART_1.c ****         UART_1_spi_sclk_SetDriveMode((uint8) pinsDm[UART_1_SCLK_PIN_INDEX]);
 628:.\Generated_Source\PSoC4/UART_1.c **** 
 629:.\Generated_Source\PSoC4/UART_1.c ****         UART_1_SET_INP_DIS(UART_1_spi_sclk_INP_DIS,
 630:.\Generated_Source\PSoC4/UART_1.c ****                                      UART_1_spi_sclk_MASK,
 631:.\Generated_Source\PSoC4/UART_1.c ****                                      (0u != (pinsInBuf & UART_1_SCLK_PIN_MASK)));
 632:.\Generated_Source\PSoC4/UART_1.c ****     #endif /* (UART_1_SCLK_PIN) */
 633:.\Generated_Source\PSoC4/UART_1.c **** 
 634:.\Generated_Source\PSoC4/UART_1.c ****     #if(UART_1_SS0_PIN)
 635:.\Generated_Source\PSoC4/UART_1.c ****         UART_1_SET_HSIOM_SEL(UART_1_SS0_HSIOM_REG, UART_1_SS0_HSIOM_MASK,
 636:.\Generated_Source\PSoC4/UART_1.c ****                                        UART_1_SS0_HSIOM_POS, hsiomSel[UART_1_SS0_PIN_INDEX]);
 637:.\Generated_Source\PSoC4/UART_1.c **** 
 638:.\Generated_Source\PSoC4/UART_1.c ****         UART_1_spi_ss0_SetDriveMode((uint8) pinsDm[UART_1_SS0_PIN_INDEX]);
 639:.\Generated_Source\PSoC4/UART_1.c **** 
 640:.\Generated_Source\PSoC4/UART_1.c ****         UART_1_SET_INP_DIS(UART_1_spi_ss0_INP_DIS,
 641:.\Generated_Source\PSoC4/UART_1.c ****                                      UART_1_spi_ss0_MASK,
 642:.\Generated_Source\PSoC4/UART_1.c ****                                      (0u != (pinsInBuf & UART_1_SS0_PIN_MASK)));
 643:.\Generated_Source\PSoC4/UART_1.c ****     #endif /* (UART_1_SS1_PIN) */
 644:.\Generated_Source\PSoC4/UART_1.c **** 
 645:.\Generated_Source\PSoC4/UART_1.c ****     #if(UART_1_SS1_PIN)
 646:.\Generated_Source\PSoC4/UART_1.c ****         UART_1_SET_HSIOM_SEL(UART_1_SS1_HSIOM_REG, UART_1_SS1_HSIOM_MASK,
 647:.\Generated_Source\PSoC4/UART_1.c ****                                        UART_1_SS1_HSIOM_POS, hsiomSel[UART_1_SS1_PIN_INDEX]);
 648:.\Generated_Source\PSoC4/UART_1.c **** 
 649:.\Generated_Source\PSoC4/UART_1.c ****         UART_1_spi_ss1_SetDriveMode((uint8) pinsDm[UART_1_SS1_PIN_INDEX]);
 650:.\Generated_Source\PSoC4/UART_1.c **** 
 651:.\Generated_Source\PSoC4/UART_1.c ****         UART_1_SET_INP_DIS(UART_1_spi_ss1_INP_DIS,
 652:.\Generated_Source\PSoC4/UART_1.c ****                                      UART_1_spi_ss1_MASK,
 653:.\Generated_Source\PSoC4/UART_1.c ****                                      (0u != (pinsInBuf & UART_1_SS1_PIN_MASK)));
ARM GAS  C:\Users\Sven\AppData\Local\Temp\cchjZAo9.s 			page 17


 654:.\Generated_Source\PSoC4/UART_1.c ****     #endif /* (UART_1_SS1_PIN) */
 655:.\Generated_Source\PSoC4/UART_1.c **** 
 656:.\Generated_Source\PSoC4/UART_1.c ****     #if(UART_1_SS2_PIN)
 657:.\Generated_Source\PSoC4/UART_1.c ****         UART_1_SET_HSIOM_SEL(UART_1_SS2_HSIOM_REG, UART_1_SS2_HSIOM_MASK,
 658:.\Generated_Source\PSoC4/UART_1.c ****                                        UART_1_SS2_HSIOM_POS, hsiomSel[UART_1_SS2_PIN_INDEX]);
 659:.\Generated_Source\PSoC4/UART_1.c **** 
 660:.\Generated_Source\PSoC4/UART_1.c ****         UART_1_spi_ss2_SetDriveMode((uint8) pinsDm[UART_1_SS2_PIN_INDEX]);
 661:.\Generated_Source\PSoC4/UART_1.c **** 
 662:.\Generated_Source\PSoC4/UART_1.c ****         UART_1_SET_INP_DIS(UART_1_spi_ss2_INP_DIS,
 663:.\Generated_Source\PSoC4/UART_1.c ****                                      UART_1_spi_ss2_MASK,
 664:.\Generated_Source\PSoC4/UART_1.c ****                                      (0u != (pinsInBuf & UART_1_SS2_PIN_MASK)));
 665:.\Generated_Source\PSoC4/UART_1.c ****     #endif /* (UART_1_SS2_PIN) */
 666:.\Generated_Source\PSoC4/UART_1.c **** 
 667:.\Generated_Source\PSoC4/UART_1.c ****     #if(UART_1_SS3_PIN)
 668:.\Generated_Source\PSoC4/UART_1.c ****         UART_1_SET_HSIOM_SEL(UART_1_SS3_HSIOM_REG,  UART_1_SS3_HSIOM_MASK,
 669:.\Generated_Source\PSoC4/UART_1.c ****                                        UART_1_SS3_HSIOM_POS, hsiomSel[UART_1_SS3_PIN_INDEX]);
 670:.\Generated_Source\PSoC4/UART_1.c **** 
 671:.\Generated_Source\PSoC4/UART_1.c ****         UART_1_spi_ss3_SetDriveMode((uint8) pinsDm[UART_1_SS3_PIN_INDEX]);
 672:.\Generated_Source\PSoC4/UART_1.c **** 
 673:.\Generated_Source\PSoC4/UART_1.c ****         UART_1_SET_INP_DIS(UART_1_spi_ss3_INP_DIS,
 674:.\Generated_Source\PSoC4/UART_1.c ****                                      UART_1_spi_ss3_MASK,
 675:.\Generated_Source\PSoC4/UART_1.c ****                                      (0u != (pinsInBuf & UART_1_SS3_PIN_MASK)));
 676:.\Generated_Source\PSoC4/UART_1.c ****     #endif /* (UART_1_SS3_PIN) */
 677:.\Generated_Source\PSoC4/UART_1.c ****     }
 678:.\Generated_Source\PSoC4/UART_1.c **** 
 679:.\Generated_Source\PSoC4/UART_1.c **** #endif /* (UART_1_SCB_MODE_UNCONFIG_CONST_CFG) */
 680:.\Generated_Source\PSoC4/UART_1.c **** 
 681:.\Generated_Source\PSoC4/UART_1.c **** 
 682:.\Generated_Source\PSoC4/UART_1.c **** #if (UART_1_CY_SCBIP_V0 || UART_1_CY_SCBIP_V1)
 683:.\Generated_Source\PSoC4/UART_1.c ****     /*******************************************************************************
 684:.\Generated_Source\PSoC4/UART_1.c ****     * Function Name: UART_1_I2CSlaveNackGeneration
 685:.\Generated_Source\PSoC4/UART_1.c ****     ********************************************************************************
 686:.\Generated_Source\PSoC4/UART_1.c ****     *
 687:.\Generated_Source\PSoC4/UART_1.c ****     * Summary:
 688:.\Generated_Source\PSoC4/UART_1.c ****     *  Sets command to generate NACK to the address or data.
 689:.\Generated_Source\PSoC4/UART_1.c ****     *
 690:.\Generated_Source\PSoC4/UART_1.c ****     * Parameters:
 691:.\Generated_Source\PSoC4/UART_1.c ****     *  None
 692:.\Generated_Source\PSoC4/UART_1.c ****     *
 693:.\Generated_Source\PSoC4/UART_1.c ****     * Return:
 694:.\Generated_Source\PSoC4/UART_1.c ****     *  None
 695:.\Generated_Source\PSoC4/UART_1.c ****     *
 696:.\Generated_Source\PSoC4/UART_1.c ****     *******************************************************************************/
 697:.\Generated_Source\PSoC4/UART_1.c ****     void UART_1_I2CSlaveNackGeneration(void)
 698:.\Generated_Source\PSoC4/UART_1.c ****     {
 249              		.loc 1 698 0
 250              		.cfi_startproc
 699:.\Generated_Source\PSoC4/UART_1.c ****         /* Check for EC_AM toggle condition: EC_AM and clock stretching for address are enabled */
 700:.\Generated_Source\PSoC4/UART_1.c ****         if ((0u != (UART_1_CTRL_REG & UART_1_CTRL_EC_AM_MODE)) &&
 251              		.loc 1 700 0
 252 0000 0A4B     		ldr	r3, .L27
 253 0002 8022     		mov	r2, #128
 254 0004 1968     		ldr	r1, [r3]
 255 0006 5200     		lsl	r2, r2, #1
 256 0008 1142     		tst	r1, r2
 257 000a 0AD0     		beq	.L23
 701:.\Generated_Source\PSoC4/UART_1.c ****             (0u == (UART_1_I2C_CTRL_REG & UART_1_I2C_CTRL_S_NOT_READY_ADDR_NACK)))
ARM GAS  C:\Users\Sven\AppData\Local\Temp\cchjZAo9.s 			page 18


 258              		.loc 1 701 0 discriminator 1
 259 000c 0849     		ldr	r1, .L27+4
 260 000e 0968     		ldr	r1, [r1]
 700:.\Generated_Source\PSoC4/UART_1.c ****         if ((0u != (UART_1_CTRL_REG & UART_1_CTRL_EC_AM_MODE)) &&
 261              		.loc 1 700 0 discriminator 1
 262 0010 4804     		lsl	r0, r1, #17
 263 0012 06D4     		bmi	.L23
 702:.\Generated_Source\PSoC4/UART_1.c ****         {
 703:.\Generated_Source\PSoC4/UART_1.c ****             /* Toggle EC_AM before NACK generation */
 704:.\Generated_Source\PSoC4/UART_1.c ****             UART_1_CTRL_REG &= ~UART_1_CTRL_EC_AM_MODE;
 264              		.loc 1 704 0
 265 0014 1868     		ldr	r0, [r3]
 266 0016 0749     		ldr	r1, .L27+8
 267 0018 0140     		and	r1, r0
 268 001a 1960     		str	r1, [r3]
 705:.\Generated_Source\PSoC4/UART_1.c ****             UART_1_CTRL_REG |=  UART_1_CTRL_EC_AM_MODE;
 269              		.loc 1 705 0
 270 001c 1968     		ldr	r1, [r3]
 271 001e 0A43     		orr	r2, r1
 272 0020 1A60     		str	r2, [r3]
 273              	.L23:
 706:.\Generated_Source\PSoC4/UART_1.c ****         }
 707:.\Generated_Source\PSoC4/UART_1.c **** 
 708:.\Generated_Source\PSoC4/UART_1.c ****         UART_1_I2C_SLAVE_CMD_REG = UART_1_I2C_SLAVE_CMD_S_NACK;
 274              		.loc 1 708 0
 275 0022 054B     		ldr	r3, .L27+12
 276 0024 0222     		mov	r2, #2
 277 0026 1A60     		str	r2, [r3]
 709:.\Generated_Source\PSoC4/UART_1.c ****     }
 278              		.loc 1 709 0
 279              		@ sp needed
 280 0028 7047     		bx	lr
 281              	.L28:
 282 002a C046     		.align	2
 283              	.L27:
 284 002c 00000640 		.word	1074135040
 285 0030 60000640 		.word	1074135136
 286 0034 FFFEFFFF 		.word	-257
 287 0038 6C000640 		.word	1074135148
 288              		.cfi_endproc
 289              	.LFE9:
 290              		.size	UART_1_I2CSlaveNackGeneration, .-UART_1_I2CSlaveNackGeneration
 291              		.global	UART_1_customIntrHandler
 292              		.global	UART_1_initVar
 293              		.bss
 294              		.align	2
 295              		.set	.LANCHOR0,. + 0
 296              		.type	UART_1_initVar, %object
 297              		.size	UART_1_initVar, 1
 298              	UART_1_initVar:
 299 0000 00       		.space	1
 300 0001 000000   		.space	3
 301              		.type	UART_1_customIntrHandler, %object
 302              		.size	UART_1_customIntrHandler, 4
 303              	UART_1_customIntrHandler:
 304 0004 00000000 		.space	4
 305              		.text
ARM GAS  C:\Users\Sven\AppData\Local\Temp\cchjZAo9.s 			page 19


 306              	.Letext0:
 307              		.file 2 ".\\Generated_Source\\PSoC4/cytypes.h"
 308              		.file 3 ".\\Generated_Source\\PSoC4\\UART_1_SPI_UART_PVT.h"